__floatunsisf $LC0 24
__floatunsisf $LC0 28
__floatunsidf $LC0 24
__floatunsidf $LC0 28
__absvsi2 abort 28
__absvsi2 abort 44
__absvdi2 abort 40
__absvdi2 abort 56
__addvsi3 abort 32
__addvsi3 abort 48
__addvdi3 abort 96
__addvdi3 abort 112
__subvsi3 abort 32
__subvsi3 abort 48
__subvdi3 abort 72
__subvdi3 abort 88
__mulvsi3 abort 32
__mulvsi3 abort 48
__mulvdi3 abort 272
__mulvdi3 abort 284
__negvsi2 abort 32
__negvsi2 abort 48
__negvdi2 abort 64
__negvdi2 abort 80
__powisf2 $LC0 36
__powisf2 $LC0 40
__powisf2 $LC0 60
__powisf2 $LC0 64
__powidf2 $LC0 36
__powidf2 $LC0 40
__powidf2 $LC0 60
__powidf2 $LC0 64
__mulsc3 $LC0 284
__mulsc3 $LC0 288
__mulsc3 $LC1 336
__mulsc3 $LC1 340
__mulsc3 $LC1 372
__mulsc3 $LC1 376
__mulsc3 $LC2 412
__mulsc3 $LC2 416
__mulsc3 $LC0 460
__mulsc3 $LC0 464
__mulsc3 $LC0 500
__mulsc3 $LC0 504
__mulsc3 $LC1 552
__mulsc3 $LC1 556
__mulsc3 $LC1 588
__mulsc3 $LC1 592
__mulsc3 $LC0 608
__mulsc3 $LC0 616
__mulsc3 $LC1 744
__mulsc3 $LC1 748
__mulsc3 $LC1 780
__mulsc3 $LC1 784
__mulsc3 $LC1 816
__mulsc3 $LC1 820
__mulsc3 $LC1 852
__mulsc3 $LC1 856
__muldc3 $LC0 324
__muldc3 $LC0 328
__muldc3 $LC0 332
__muldc3 $LC3 388
__muldc3 $LC3 392
__muldc3 $LC1 408
__muldc3 $LC1 412
__muldc3 $LC3 436
__muldc3 $LC3 440
__muldc3 $LC1 452
__muldc3 $LC1 456
__muldc3 $LC0 620
__muldc3 $LC0 624
__muldc3 $LC0 628
__muldc3 $LC3 696
__muldc3 $LC3 704
__muldc3 $LC1 708
__muldc3 $LC1 712
__muldc3 $LC3 752
__muldc3 $LC3 760
__muldc3 $LC1 764
__muldc3 $LC1 768
__muldc3 $LC2 836
__muldc3 $LC2 840
__muldc3 $LC0 252
__muldc3 $LC0 892
__muldc3 $LC0 900
__muldc3 $LC0 904
__muldc3 $LC0 908
__muldc3 $LC0 916
__muldc3 $LC3 1040
__muldc3 $LC3 1048
__muldc3 $LC1 1052
__muldc3 $LC1 1056
__muldc3 $LC3 1096
__muldc3 $LC3 1104
__muldc3 $LC1 1108
__muldc3 $LC1 1112
__muldc3 $LC3 1144
__muldc3 $LC3 1148
__muldc3 $LC1 1160
__muldc3 $LC1 1164
__muldc3 $LC3 1188
__muldc3 $LC3 1192
__muldc3 $LC1 1204
__muldc3 $LC1 1208
__divsc3 $LC1 156
__divsc3 $LC1 180
__divsc3 $LC2 184
__divsc3 $LC2 188
__divsc3 $LC1 496
__divsc3 $LC1 504
__divsc3 $LC0 384
__divsc3 $LC0 552
__divsc3 $LC0 444
__divsc3 $LC0 560
__divsc3 $LC0 680
__divsc3 $LC0 684
__divsc3 $LC0 828
__divsc3 $LC0 836
__divdc3 $LC3 248
__divdc3 $LC3 260
__divdc3 $LC1 324
__divdc3 $LC1 356
__divdc3 $LC2 360
__divdc3 $LC2 364
__divdc3 $LC1 860
__divdc3 $LC1 872
__divdc3 $LC0 936
__divdc3 $LC0 692
__divdc3 $LC0 944
__divdc3 $LC0 948
__divdc3 $LC0 768
__divdc3 $LC0 956
__divdc3 $LC0 1100
__divdc3 $LC0 1332
__divdc3 $LC0 1340
__divdc3 $LC0 1176
__divdc3 $LC0 1344
__divdc3 $LC0 1352
__eprintf stderr 12
__eprintf fprintf 28
__eprintf fprintf 56
__eprintf fflush 68
__eprintf fflush 72
__eprintf abort 84
__eprintf abort 88
__fixunssfsi $LC0 12
__fixunssfsi $LC0 16
__fixunsdfsi $LC0 12
__fixunsdfsi $LC0 16
__fixsfdi __fixunssfdi 36
__fixsfdi __fixunssfdi 44
__fixsfdi __fixunssfdi 64
__fixdfdi $LC0 12
__fixdfdi $LC0 20
__fixdfdi __fixunsdfdi 40
__fixdfdi __fixunsdfdi 48
__fixdfdi __fixunsdfdi 84
__fixunssfdi $LC0 12
__fixunssfdi $LC0 20
__fixunssfdi $LC1 24
__fixunssfdi $LC1 32
__fixunssfdi $LC2 72
__fixunssfdi $LC2 60
__fixunssfdi $LC2 80
__fixunssfdi $LC1 92
__fixunsdfdi $LC0 12
__fixunsdfdi $LC0 16
__fixunsdfdi $LC1 20
__fixunsdfdi $LC1 28
__fixunsdfdi $LC2 68
__fixunsdfdi $LC2 56
__fixunsdfdi $LC2 76
__fixunsdfdi $LC1 88
__floatdisf $LC0 88
__floatdisf $LC0 64
__floatdisf $LC0 96
__floatdidf $LC0 12
__floatdidf $LC0 20
__floatundisf $LC0 60
__floatundisf $LC0 48
__floatundisf $LC0 68
__floatundidf $LC0 28
__floatundidf $LC0 16
__floatundidf $LC0 36
__mulqq3 __mulhelperqq 12
__mulqq3 __mulhelperqq 16
__mulhq3 __mulhelperhq 12
__mulhq3 __mulhelperhq 16
__mulsq3 __mulhelpersq 12
__mulsq3 __mulhelpersq 16
__muldq3 __mulhelperdq 16
__muldq3 __mulhelperdq 32
__mulha3 __mulhelperha 12
__mulha3 __mulhelperha 16
__mulsa3 __mulhelpersa 12
__mulsa3 __mulhelpersa 16
__mulda3 __mulhelperda 16
__mulda3 __mulhelperda 32
__muluqq3 __mulhelperuqq 12
__muluqq3 __mulhelperuqq 16
__muluhq3 __mulhelperuhq 12
__muluhq3 __mulhelperuhq 16
__mulusq3 __mulhelperusq 12
__mulusq3 __mulhelperusq 16
__muludq3 __mulhelperudq 16
__muludq3 __mulhelperudq 32
__muluha3 __mulhelperuha 12
__muluha3 __mulhelperuha 16
__mulusa3 __mulhelperusa 12
__mulusa3 __mulhelperusa 16
__muluda3 __mulhelperuda 16
__muluda3 __mulhelperuda 32
__mulhelperqq __saturate1qq 68
__mulhelperqq __saturate1qq 72
__mulhelperhq __saturate1hq 60
__mulhelperhq __saturate1hq 64
__mulhelpersq __saturate1sq 80
__mulhelpersq __saturate1sq 84
__mulhelperdq __saturate2dq 412
__mulhelperdq __saturate2dq 420
__mulhelperha __saturate1ha 60
__mulhelperha __saturate1ha 64
__mulhelpersa __saturate1sa 80
__mulhelpersa __saturate1sa 84
__mulhelperda __saturate2da 464
__mulhelperda __saturate2da 472
__mulhelperuqq __saturate1uqq 56
__mulhelperuqq __saturate1uqq 60
__mulhelperuhq __saturate1uhq 56
__mulhelperuhq __saturate1uhq 60
__mulhelperusq __saturate1usq 60
__mulhelperusq __saturate1usq 64
__mulhelperudq __saturate2udq 280
__mulhelperudq __saturate2udq 288
__mulhelperuha __saturate1uha 52
__mulhelperuha __saturate1uha 56
__mulhelperusa __saturate1usa 80
__mulhelperusa __saturate1usa 84
__mulhelperuda __saturate2uda 304
__mulhelperuda __saturate2uda 312
__divhelperqq __saturate1qq 64
__divhelperqq __saturate1qq 68
__divhelperhq __saturate1hq 64
__divhelperhq __saturate1hq 68
__divhelpersq __divdi3 24
__divhelpersq __divdi3 60
__divhelpersq __saturate1sq 84
__divhelpersq __saturate1sq 88
__divhelperdq __udivdi3 124
__divhelperdq __udivdi3 148
__divhelperdq __umoddi3 164
__divhelperdq __umoddi3 192
__divhelperdq __saturate2dq 392
__divhelperdq __saturate2dq 400
__divhelperha __saturate1ha 64
__divhelperha __saturate1ha 68
__divhelpersa __divdi3 24
__divhelpersa __divdi3 60
__divhelpersa __saturate1sa 84
__divhelpersa __saturate1sa 88
__divhelperda __udivdi3 96
__divhelperda __udivdi3 152
__divhelperda __umoddi3 168
__divhelperda __umoddi3 196
__divhelperda __saturate2da 412
__divhelperda __saturate2da 420
__divhelperuqq __saturate1uqq 56
__divhelperuqq __saturate1uqq 60
__divhelperuhq __saturate1uhq 52
__divhelperuhq __saturate1uhq 56
__divhelperusq __udivdi3 20
__divhelperusq __udivdi3 52
__divhelperusq __saturate1usq 76
__divhelperusq __saturate1usq 80
__divhelperudq __udivdi3 16
__divhelperudq __udivdi3 72
__divhelperudq __umoddi3 88
__divhelperudq __umoddi3 108
__divhelperudq __saturate2udq 272
__divhelperudq __saturate2udq 280
__divhelperuha __saturate1uha 56
__divhelperuha __saturate1uha 60
__divhelperusa __udivdi3 20
__divhelperusa __udivdi3 52
__divhelperusa __saturate1usa 76
__divhelperusa __saturate1usa 80
__divhelperuda __udivdi3 16
__divhelperuda __udivdi3 84
__divhelperuda __umoddi3 100
__divhelperuda __umoddi3 120
__divhelperuda __saturate2uda 320
__divhelperuda __saturate2uda 328
__ashlqq3 __ashlhelperqq 12
__ashlqq3 __ashlhelperqq 16
__ashlhq3 __ashlhelperhq 12
__ashlhq3 __ashlhelperhq 16
__ashlsq3 __ashlhelpersq 12
__ashlsq3 __ashlhelpersq 16
__ashldq3 __ashlhelperdq 12
__ashldq3 __ashlhelperdq 16
__ashlha3 __ashlhelperha 12
__ashlha3 __ashlhelperha 16
__ashlsa3 __ashlhelpersa 12
__ashlsa3 __ashlhelpersa 16
__ashlda3 __ashlhelperda 12
__ashlda3 __ashlhelperda 16
__ashluqq3 __ashlhelperuqq 12
__ashluqq3 __ashlhelperuqq 16
__ashluhq3 __ashlhelperuhq 12
__ashluhq3 __ashlhelperuhq 16
__ashlusq3 __ashlhelperusq 12
__ashlusq3 __ashlhelperusq 16
__ashludq3 __ashlhelperudq 12
__ashludq3 __ashlhelperudq 16
__ashluha3 __ashlhelperuha 12
__ashluha3 __ashlhelperuha 16
__ashlusa3 __ashlhelperusa 12
__ashlusa3 __ashlhelperusa 16
__ashluda3 __ashlhelperuda 12
__ashluda3 __ashlhelperuda 16
__ashlhelperqq __saturate1qq 52
__ashlhelperqq __saturate1qq 56
__ashlhelperhq __saturate1hq 52
__ashlhelperhq __saturate1hq 56
__ashlhelpersq __saturate1sq 60
__ashlhelpersq __saturate1sq 64
__ashlhelpersq __ashldi3 92
__ashlhelpersq __ashldi3 100
__ashlhelperdq __saturate2dq 92
__ashlhelperdq __saturate2dq 100
__ashlhelperdq __ashldi3 144
__ashlhelperdq __ashldi3 152
__ashlhelperdq __ashrdi3 168
__ashlhelperdq __ashrdi3 188
__ashlhelperha __saturate1ha 52
__ashlhelperha __saturate1ha 56
__ashlhelpersa __saturate1sa 60
__ashlhelpersa __saturate1sa 64
__ashlhelpersa __ashldi3 92
__ashlhelpersa __ashldi3 100
__ashlhelperda __saturate2da 92
__ashlhelperda __saturate2da 100
__ashlhelperda __ashldi3 144
__ashlhelperda __ashldi3 152
__ashlhelperda __ashrdi3 168
__ashlhelperda __ashrdi3 188
__ashlhelperuqq __saturate1uqq 48
__ashlhelperuqq __saturate1uqq 52
__ashlhelperuhq __saturate1uhq 48
__ashlhelperuhq __saturate1uhq 52
__ashlhelperusq __saturate1usq 56
__ashlhelperusq __saturate1usq 60
__ashlhelperusq __ashldi3 88
__ashlhelperusq __ashldi3 96
__ashlhelperudq __saturate2udq 92
__ashlhelperudq __saturate2udq 100
__ashlhelperudq __ashldi3 144
__ashlhelperudq __ashldi3 152
__ashlhelperudq __lshrdi3 168
__ashlhelperudq __lshrdi3 188
__ashlhelperuha __saturate1uha 48
__ashlhelperuha __saturate1uha 52
__ashlhelperusa __saturate1usa 56
__ashlhelperusa __saturate1usa 60
__ashlhelperusa __ashldi3 88
__ashlhelperusa __ashldi3 96
__ashlhelperuda __saturate2uda 92
__ashlhelperuda __saturate2uda 100
__ashlhelperuda __ashldi3 144
__ashlhelperuda __ashldi3 152
__ashlhelperuda __lshrdi3 168
__ashlhelperuda __lshrdi3 188
__ssmulqq3 __mulhelperqq 12
__ssmulqq3 __mulhelperqq 16
__ssmulhq3 __mulhelperhq 12
__ssmulhq3 __mulhelperhq 16
__ssmulsq3 __mulhelpersq 12
__ssmulsq3 __mulhelpersq 16
__ssmuldq3 __mulhelperdq 16
__ssmuldq3 __mulhelperdq 36
__ssmulha3 __mulhelperha 12
__ssmulha3 __mulhelperha 16
__ssmulsa3 __mulhelpersa 12
__ssmulsa3 __mulhelpersa 16
__ssmulda3 __mulhelperda 16
__ssmulda3 __mulhelperda 36
__ssdivqq3 __divhelperqq 12
__ssdivqq3 __divhelperqq 16
__ssdivhq3 __divhelperhq 12
__ssdivhq3 __divhelperhq 16
__ssdivsq3 __divhelpersq 12
__ssdivsq3 __divhelpersq 16
__ssdivdq3 __divhelperdq 16
__ssdivdq3 __divhelperdq 36
__ssdivha3 __divhelperha 12
__ssdivha3 __divhelperha 16
__ssdivsa3 __divhelpersa 12
__ssdivsa3 __divhelpersa 16
__ssdivda3 __divhelperda 16
__ssdivda3 __divhelperda 36
__divqq3 __divhelperqq 12
__divqq3 __divhelperqq 16
__divhq3 __divhelperhq 12
__divhq3 __divhelperhq 16
__divsq3 __divhelpersq 12
__divsq3 __divhelpersq 16
__divdq3 __divhelperdq 16
__divdq3 __divhelperdq 32
__divha3 __divhelperha 12
__divha3 __divhelperha 16
__divsa3 __divhelpersa 12
__divsa3 __divhelpersa 16
__divda3 __divhelperda 16
__divda3 __divhelperda 32
__ssashlqq3 __ashlhelperqq 12
__ssashlqq3 __ashlhelperqq 16
__ssashlhq3 __ashlhelperhq 12
__ssashlhq3 __ashlhelperhq 16
__ssashlsq3 __ashlhelpersq 12
__ssashlsq3 __ashlhelpersq 16
__ssashldq3 __ashlhelperdq 12
__ssashldq3 __ashlhelperdq 16
__ssashlha3 __ashlhelperha 12
__ssashlha3 __ashlhelperha 16
__ssashlsa3 __ashlhelpersa 12
__ssashlsa3 __ashlhelpersa 16
__ssashlda3 __ashlhelperda 12
__ssashlda3 __ashlhelperda 16
__ashrdq3 __ashrdi3 16
__ashrdq3 __ashrdi3 28
__ashrda3 __ashrdi3 16
__ashrda3 __ashrdi3 28
__usmuluqq3 __mulhelperuqq 12
__usmuluqq3 __mulhelperuqq 16
__usmuluhq3 __mulhelperuhq 12
__usmuluhq3 __mulhelperuhq 16
__usmulusq3 __mulhelperusq 12
__usmulusq3 __mulhelperusq 16
__usmuludq3 __mulhelperudq 16
__usmuludq3 __mulhelperudq 36
__usmuluha3 __mulhelperuha 12
__usmuluha3 __mulhelperuha 16
__usmulusa3 __mulhelperusa 12
__usmulusa3 __mulhelperusa 16
__usmuluda3 __mulhelperuda 16
__usmuluda3 __mulhelperuda 36
__usdivuqq3 __divhelperuqq 12
__usdivuqq3 __divhelperuqq 16
__usdivuhq3 __divhelperuhq 12
__usdivuhq3 __divhelperuhq 16
__usdivusq3 __divhelperusq 12
__usdivusq3 __divhelperusq 16
__usdivudq3 __divhelperudq 16
__usdivudq3 __divhelperudq 36
__usdivuha3 __divhelperuha 12
__usdivuha3 __divhelperuha 16
__usdivusa3 __divhelperusa 12
__usdivusa3 __divhelperusa 16
__usdivuda3 __divhelperuda 16
__usdivuda3 __divhelperuda 36
__udivuqq3 __divhelperuqq 12
__udivuqq3 __divhelperuqq 16
__udivuhq3 __divhelperuhq 12
__udivuhq3 __divhelperuhq 16
__udivusq3 __divhelperusq 12
__udivusq3 __divhelperusq 16
__udivudq3 __divhelperudq 16
__udivudq3 __divhelperudq 32
__udivuha3 __divhelperuha 12
__udivuha3 __divhelperuha 16
__udivusa3 __divhelperusa 12
__udivusa3 __divhelperusa 16
__udivuda3 __divhelperuda 16
__udivuda3 __divhelperuda 32
__usashluqq3 __ashlhelperuqq 12
__usashluqq3 __ashlhelperuqq 16
__usashluhq3 __ashlhelperuhq 12
__usashluhq3 __ashlhelperuhq 16
__usashlusq3 __ashlhelperusq 12
__usashlusq3 __ashlhelperusq 16
__usashludq3 __ashlhelperudq 12
__usashludq3 __ashlhelperudq 16
__usashluha3 __ashlhelperuha 12
__usashluha3 __ashlhelperuha 16
__usashlusa3 __ashlhelperusa 12
__usashlusa3 __ashlhelperusa 16
__usashluda3 __ashlhelperuda 12
__usashluda3 __ashlhelperuda 16
__lshrudq3 __lshrdi3 16
__lshrudq3 __lshrdi3 28
__lshruda3 __lshrdi3 16
__lshruda3 __lshrdi3 28
__fractqqsf $LC0 12
__fractqqsf $LC0 28
__fractqqdf $LC0 12
__fractqqdf $LC0 28
__fracthqsf $LC0 12
__fracthqsf $LC0 28
__fracthqdf $LC0 12
__fracthqdf $LC0 28
__fractsqsf $LC0 16
__fractsqsf $LC0 24
__fractsqdf $LC0 16
__fractsqdf $LC0 24
__fractdqsf __floatdisf 16
__fractdqsf __floatdisf 28
__fractdqsf $LC0 44
__fractdqsf $LC0 52
__fractdqdf __floatdidf 16
__fractdqdf __floatdidf 28
__fractdqdf $LC0 44
__fractdqdf $LC0 52
__fracthasf $LC0 12
__fracthasf $LC0 28
__fracthadf $LC0 12
__fracthadf $LC0 28
__fractsasf $LC0 16
__fractsasf $LC0 24
__fractsadf $LC0 16
__fractsadf $LC0 24
__fractdasf __floatdisf 16
__fractdasf __floatdisf 28
__fractdasf $LC0 44
__fractdasf $LC0 52
__fractdadf __floatdidf 16
__fractdadf __floatdidf 28
__fractdadf $LC0 44
__fractdadf $LC0 52
__fractuqqsf $LC0 12
__fractuqqsf $LC0 24
__fractuqqdf $LC0 12
__fractuqqdf $LC0 24
__fractuhqsf $LC0 12
__fractuhqsf $LC0 24
__fractuhqdf $LC0 12
__fractuhqdf $LC0 24
__fractusqsf $LC0 24
__fractusqsf $LC0 28
__fractusqsf $LC1 36
__fractusqsf $LC1 44
__fractusqdf $LC0 24
__fractusqdf $LC0 28
__fractusqdf $LC1 36
__fractusqdf $LC1 40
__fractudqsf __floatundisf 16
__fractudqsf __floatundisf 28
__fractudqsf $LC0 44
__fractudqsf $LC0 52
__fractudqdf __floatundidf 16
__fractudqdf __floatundidf 28
__fractudqdf $LC0 44
__fractudqdf $LC0 52
__fractuhasf $LC0 12
__fractuhasf $LC0 24
__fractuhadf $LC0 12
__fractuhadf $LC0 24
__fractusasf $LC0 24
__fractusasf $LC0 28
__fractusasf $LC1 36
__fractusasf $LC1 44
__fractusadf $LC0 24
__fractusadf $LC0 28
__fractusadf $LC1 36
__fractusadf $LC1 40
__fractudasf __floatundisf 16
__fractudasf __floatundisf 28
__fractudasf $LC0 44
__fractudasf $LC0 52
__fractudadf __floatundidf 16
__fractudadf __floatundidf 28
__fractudadf $LC0 44
__fractudadf $LC0 52
__fractsfqq $LC0 12
__fractsfqq $LC0 16
__fractsfhq $LC0 12
__fractsfhq $LC0 16
__fractsfsq $LC0 12
__fractsfsq $LC0 16
__fractsfdq $LC0 12
__fractsfdq $LC0 20
__fractsfdq __fixsfdi 24
__fractsfdq __fixsfdi 36
__fractsfha $LC0 12
__fractsfha $LC0 16
__fractsfsa $LC0 12
__fractsfsa $LC0 16
__fractsfda $LC0 12
__fractsfda $LC0 20
__fractsfda __fixsfdi 24
__fractsfda __fixsfdi 36
__fractsfuqq $LC0 12
__fractsfuqq $LC0 16
__fractsfuqq $LC1 20
__fractsfuqq $LC1 28
__fractsfuhq $LC0 12
__fractsfuhq $LC0 16
__fractsfuhq $LC1 20
__fractsfuhq $LC1 28
__fractsfusq $LC0 12
__fractsfusq $LC0 16
__fractsfusq $LC1 20
__fractsfusq $LC1 28
__fractsfudq $LC0 12
__fractsfudq $LC0 20
__fractsfudq __fixunssfdi 24
__fractsfudq __fixunssfdi 36
__fractsfuha $LC0 12
__fractsfuha $LC0 16
__fractsfuha $LC1 20
__fractsfuha $LC1 28
__fractsfusa $LC0 12
__fractsfusa $LC0 16
__fractsfusa $LC1 20
__fractsfusa $LC1 28
__fractsfuda $LC0 12
__fractsfuda $LC0 20
__fractsfuda __fixunssfdi 24
__fractsfuda __fixunssfdi 36
__fractdfqq $LC0 12
__fractdfqq $LC0 16
__fractdfhq $LC0 12
__fractdfhq $LC0 16
__fractdfsq $LC0 12
__fractdfsq $LC0 16
__fractdfdq $LC0 12
__fractdfdq $LC0 20
__fractdfdq __fixdfdi 24
__fractdfdq __fixdfdi 36
__fractdfha $LC0 12
__fractdfha $LC0 16
__fractdfsa $LC0 12
__fractdfsa $LC0 16
__fractdfda $LC0 12
__fractdfda $LC0 20
__fractdfda __fixdfdi 24
__fractdfda __fixdfdi 36
__fractdfuqq $LC0 12
__fractdfuqq $LC0 16
__fractdfuqq $LC1 20
__fractdfuqq $LC1 28
__fractdfuhq $LC0 12
__fractdfuhq $LC0 16
__fractdfuhq $LC1 20
__fractdfuhq $LC1 28
__fractdfusq $LC0 12
__fractdfusq $LC0 16
__fractdfusq $LC1 20
__fractdfusq $LC1 28
__fractdfudq $LC0 12
__fractdfudq $LC0 20
__fractdfudq __fixunsdfdi 24
__fractdfudq __fixunsdfdi 36
__fractdfuha $LC0 12
__fractdfuha $LC0 16
__fractdfuha $LC1 20
__fractdfuha $LC1 28
__fractdfusa $LC0 12
__fractdfusa $LC0 16
__fractdfusa $LC1 20
__fractdfusa $LC1 28
__fractdfuda $LC0 12
__fractdfuda $LC0 20
__fractdfuda __fixunsdfdi 24
__fractdfuda __fixunsdfdi 36
__satfractsfqq $LC0 12
__satfractsfqq $LC0 16
__satfractsfqq $LC1 32
__satfractsfqq $LC1 36
__satfractsfqq $LC2 52
__satfractsfqq $LC2 56
__satfractsfhq $LC0 12
__satfractsfhq $LC0 16
__satfractsfhq $LC1 32
__satfractsfhq $LC1 36
__satfractsfhq $LC2 52
__satfractsfhq $LC2 56
__satfractsfsq $LC0 12
__satfractsfsq $LC0 20
__satfractsfsq $LC1 32
__satfractsfsq $LC1 36
__satfractsfsq $LC2 52
__satfractsfsq $LC2 56
__satfractsfdq $LC0 12
__satfractsfdq $LC0 20
__satfractsfdq $LC1 52
__satfractsfdq $LC1 60
__satfractsfdq __fixsfdi 80
__satfractsfdq $LC2 76
__satfractsfdq $LC2 84
__satfractsfdq __fixsfdi 88
__satfractsfha $LC0 12
__satfractsfha $LC0 16
__satfractsfha $LC1 32
__satfractsfha $LC1 36
__satfractsfha $LC2 52
__satfractsfha $LC2 56
__satfractsfsa $LC0 12
__satfractsfsa $LC0 20
__satfractsfsa $LC1 32
__satfractsfsa $LC1 36
__satfractsfsa $LC2 52
__satfractsfsa $LC2 56
__satfractsfda $LC0 12
__satfractsfda $LC0 20
__satfractsfda $LC1 52
__satfractsfda $LC1 60
__satfractsfda __fixsfdi 80
__satfractsfda $LC2 76
__satfractsfda $LC2 84
__satfractsfda __fixsfdi 88
__satfractsfuqq $LC0 12
__satfractsfuqq $LC0 16
__satfractsfuqq $LC1 48
__satfractsfuqq $LC1 52
__satfractsfuqq $LC2 56
__satfractsfuqq $LC2 64
__satfractsfuhq $LC0 12
__satfractsfuhq $LC0 16
__satfractsfuhq $LC1 48
__satfractsfuhq $LC1 52
__satfractsfuhq $LC2 56
__satfractsfuhq $LC2 64
__satfractsfusq $LC0 12
__satfractsfusq $LC0 20
__satfractsfusq $LC1 52
__satfractsfusq $LC1 56
__satfractsfusq $LC2 60
__satfractsfusq $LC2 68
__satfractsfudq $LC0 12
__satfractsfudq $LC0 20
__satfractsfudq __fixunssfdi 72
__satfractsfudq $LC1 68
__satfractsfudq $LC1 76
__satfractsfudq __fixunssfdi 80
__satfractsfuha $LC0 12
__satfractsfuha $LC0 16
__satfractsfuha $LC1 48
__satfractsfuha $LC1 52
__satfractsfuha $LC2 56
__satfractsfuha $LC2 64
__satfractsfusa $LC0 12
__satfractsfusa $LC0 20
__satfractsfusa $LC1 52
__satfractsfusa $LC1 56
__satfractsfusa $LC2 60
__satfractsfusa $LC2 68
__satfractsfuda $LC0 12
__satfractsfuda $LC0 20
__satfractsfuda __fixunssfdi 68
__satfractsfuda __fixunssfdi 72
__satfractdfqq $LC0 12
__satfractdfqq $LC0 16
__satfractdfqq $LC1 32
__satfractdfqq $LC1 36
__satfractdfqq $LC2 52
__satfractdfqq $LC2 56
__satfractdfhq $LC0 12
__satfractdfhq $LC0 16
__satfractdfhq $LC1 32
__satfractdfhq $LC1 36
__satfractdfhq $LC2 52
__satfractdfhq $LC2 56
__satfractdfsq $LC0 12
__satfractdfsq $LC0 16
__satfractdfsq $LC1 28
__satfractdfsq $LC1 32
__satfractdfsq $LC2 48
__satfractdfsq $LC2 52
__satfractdfdq $LC0 12
__satfractdfdq $LC0 20
__satfractdfdq $LC1 52
__satfractdfdq $LC1 60
__satfractdfdq __fixdfdi 80
__satfractdfdq $LC2 76
__satfractdfdq $LC2 84
__satfractdfdq __fixdfdi 88
__satfractdfha $LC0 12
__satfractdfha $LC0 16
__satfractdfha $LC1 32
__satfractdfha $LC1 36
__satfractdfha $LC2 52
__satfractdfha $LC2 56
__satfractdfsa $LC0 12
__satfractdfsa $LC0 16
__satfractdfsa $LC1 28
__satfractdfsa $LC1 32
__satfractdfsa $LC2 48
__satfractdfsa $LC2 52
__satfractdfda $LC0 12
__satfractdfda $LC0 20
__satfractdfda $LC1 52
__satfractdfda $LC1 60
__satfractdfda __fixdfdi 80
__satfractdfda $LC2 76
__satfractdfda $LC2 84
__satfractdfda __fixdfdi 88
__satfractdfuqq $LC0 12
__satfractdfuqq $LC0 16
__satfractdfuqq $LC3 32
__satfractdfuqq $LC3 36
__satfractdfuqq $LC1 52
__satfractdfuqq $LC1 56
__satfractdfuqq $LC2 60
__satfractdfuqq $LC2 68
__satfractdfuhq $LC0 12
__satfractdfuhq $LC0 16
__satfractdfuhq $LC3 32
__satfractdfuhq $LC3 36
__satfractdfuhq $LC1 52
__satfractdfuhq $LC1 56
__satfractdfuhq $LC2 60
__satfractdfuhq $LC2 68
__satfractdfusq $LC0 12
__satfractdfusq $LC0 16
__satfractdfusq $LC3 32
__satfractdfusq $LC3 36
__satfractdfusq $LC1 52
__satfractdfusq $LC1 56
__satfractdfusq $LC2 60
__satfractdfusq $LC2 68
__satfractdfudq $LC0 12
__satfractdfudq $LC0 20
__satfractdfudq $LC2 48
__satfractdfudq $LC2 56
__satfractdfudq __fixunsdfdi 76
__satfractdfudq $LC1 72
__satfractdfudq $LC1 80
__satfractdfudq __fixunsdfdi 84
__satfractdfuha $LC0 12
__satfractdfuha $LC0 16
__satfractdfuha $LC3 32
__satfractdfuha $LC3 36
__satfractdfuha $LC1 52
__satfractdfuha $LC1 56
__satfractdfuha $LC2 60
__satfractdfuha $LC2 68
__satfractdfusa $LC0 12
__satfractdfusa $LC0 16
__satfractdfusa $LC3 32
__satfractdfusa $LC3 36
__satfractdfusa $LC1 52
__satfractdfusa $LC1 56
__satfractdfusa $LC2 60
__satfractdfusa $LC2 68
__satfractdfuda $LC0 12
__satfractdfuda $LC0 20
__satfractdfuda $LC1 48
__satfractdfuda $LC1 56
__satfractdfuda __fixunsdfdi 72
__satfractdfuda __fixunsdfdi 76
read_encoded_value abort 96
read_encoded_value abort 100
read_encoded_value _Unwind_GetDataRelBase 128
read_encoded_value _Unwind_GetTextRelBase 140
read_encoded_value _Unwind_GetRegionStart 224
read_encoded_value abort 252
read_encoded_value read_uleb128 300
execute_cfa_program read_uleb128 276
execute_cfa_program read_encoded_value 412
execute_cfa_program read_uleb128 544
execute_cfa_program read_uleb128 572
execute_cfa_program read_uleb128 616
execute_cfa_program read_uleb128 672
execute_cfa_program read_uleb128 684
execute_cfa_program memcpy 768
execute_cfa_program memcpy 820
execute_cfa_program read_uleb128 860
execute_cfa_program read_uleb128 876
execute_cfa_program read_uleb128 920
execute_cfa_program read_uleb128 956
execute_cfa_program read_uleb128 1008
execute_cfa_program read_uleb128 1040
execute_cfa_program read_uleb128 1100
execute_cfa_program read_sleb128 1116
execute_cfa_program read_uleb128 1152
execute_cfa_program read_sleb128 1176
execute_cfa_program read_sleb128 1224
execute_cfa_program read_uleb128 1260
execute_cfa_program read_uleb128 1272
execute_cfa_program read_uleb128 1336
execute_cfa_program read_sleb128 1352
execute_cfa_program read_uleb128 1388
execute_cfa_program read_uleb128 1484
execute_cfa_program read_uleb128 1520
execute_cfa_program read_uleb128 1532
execute_cfa_program abort 1600
execute_cfa_program memcpy 756
execute_cfa_program memcpy 804
execute_cfa_program abort 1596
uw_frame_state_for memset 80
uw_frame_state_for _Unwind_Find_FDE 184
uw_frame_state_for strlen 412
uw_frame_state_for memset 16
uw_frame_state_for _Unwind_Find_FDE 168
uw_frame_state_for strlen 400
uw_frame_state_for read_uleb128 548
uw_frame_state_for read_sleb128 580
uw_frame_state_for read_uleb128 664
uw_frame_state_for execute_cfa_program 784
uw_frame_state_for abort 844
uw_frame_state_for abort 848
uw_frame_state_for read_uleb128 856
uw_frame_state_for read_encoded_value 952
uw_frame_state_for read_uleb128 1064
uw_frame_state_for read_encoded_value 1112
uw_frame_state_for execute_cfa_program 1156
_Unwind_SetSpColumn abort 88
_Unwind_SetSpColumn abort 84
_Unwind_GetGR abort 40
_Unwind_GetGR abort 36
uw_install_context_1 _Unwind_GetGRPtr 84
uw_install_context_1 _Unwind_SetSpColumn 116
uw_install_context_1 abort 188
uw_install_context_1 memcpy 244
uw_install_context_1 _Unwind_GetGRPtr 280
uw_install_context_1 _Unwind_GetGR 308
uw_install_context_1 abort 184
uw_install_context_1 memcpy 240
uw_install_context_1 _Unwind_GetGR 300
execute_stack_op abort 292
execute_stack_op read_sleb128 828
execute_stack_op _Unwind_GetGR 852
execute_stack_op read_uleb128 908
execute_stack_op read_sleb128 932
execute_stack_op read_encoded_value 992
execute_stack_op read_uleb128 1128
execute_stack_op read_sleb128 1160
execute_stack_op _Unwind_GetGR 1188
execute_stack_op read_uleb128 1216
execute_stack_op read_uleb128 1516
execute_stack_op abort 248
execute_stack_op abort 288
execute_stack_op abort 352
execute_stack_op abort 420
execute_stack_op abort 608
execute_stack_op _Unwind_GetGR 812
execute_stack_op _Unwind_GetGR 960
execute_stack_op abort 1028
execute_stack_op _Unwind_GetGR 1244
execute_stack_op abort 1252
execute_stack_op abort 1280
execute_stack_op abort 1396
execute_stack_op abort 1444
execute_stack_op abort 1468
execute_stack_op abort 1748
uw_update_context_1 memcpy 84
uw_update_context_1 _Unwind_GetGRPtr 116
uw_update_context_1 _Unwind_SetSpColumn 148
uw_update_context_1 abort 216
uw_update_context_1 _Unwind_GetGR 232
uw_update_context_1 read_uleb128 340
uw_update_context_1 execute_stack_op 376
uw_update_context_1 _Unwind_GetGR 460
uw_update_context_1 execute_stack_op 572
uw_update_context_1 execute_stack_op 764
uw_update_context_1 memcpy 16
uw_update_context_1 abort 212
uw_update_context_1 _Unwind_GetGR 224
uw_update_context_1 _Unwind_GetGR 456
uw_init_context_1 memset 68
uw_init_context_1 uw_frame_state_for 108
uw_init_context_1 abort 128
uw_init_context_1 init_dwarf_reg_size_table 172
uw_init_context_1 pthread_once 200
uw_init_context_1 _Unwind_SetSpColumn 232
uw_init_context_1 uw_update_context_1 276
uw_init_context_1 memset 16
uw_init_context_1 abort 124
uw_init_context_1 pthread_cancel 136
uw_init_context_1 pthread_once 192
uw_update_context uw_update_context_1 44
uw_update_context _Unwind_GetGR 108
uw_update_context _Unwind_GetGR 104
_Unwind_RaiseException_Phase2 uw_frame_state_for 92
_Unwind_RaiseException_Phase2 abort 168
_Unwind_RaiseException_Phase2 uw_update_context 272
_Unwind_RaiseException_Phase2 abort 164
_Unwind_ForcedUnwind_Phase2 uw_frame_state_for 100
_Unwind_ForcedUnwind_Phase2 uw_update_context 188
_Unwind_SetGR abort 40
_Unwind_SetGR abort 36
_Unwind_SetGR abort 132
_Unwind_FindEnclosingFunction _Unwind_Find_FDE 16
_Unwind_FindEnclosingFunction _Unwind_Find_FDE 32
__frame_state_for memset 16
__frame_state_for memset 56
__frame_state_for uw_frame_state_for 104
_Unwind_RaiseException uw_init_context_1 124
_Unwind_RaiseException memcpy 140
_Unwind_RaiseException memcpy 152
_Unwind_RaiseException uw_frame_state_for 196
_Unwind_RaiseException uw_update_context 244
_Unwind_RaiseException memcpy 324
_Unwind_RaiseException memcpy 356
_Unwind_RaiseException _Unwind_RaiseException_Phase2 380
_Unwind_RaiseException uw_install_context_1 412
_Unwind_RaiseException _Unwind_DebugHook 444
_Unwind_ForcedUnwind uw_init_context_1 132
_Unwind_ForcedUnwind memcpy 148
_Unwind_ForcedUnwind memcpy 160
_Unwind_ForcedUnwind _Unwind_ForcedUnwind_Phase2 192
_Unwind_ForcedUnwind uw_install_context_1 224
_Unwind_ForcedUnwind _Unwind_DebugHook 256
_Unwind_Resume uw_init_context_1 124
_Unwind_Resume memcpy 140
_Unwind_Resume memcpy 152
_Unwind_Resume abort 208
_Unwind_Resume abort 212
_Unwind_Resume uw_install_context_1 244
_Unwind_Resume _Unwind_DebugHook 272
_Unwind_Resume_or_Rethrow _Unwind_RaiseException 116
_Unwind_Resume_or_Rethrow _Unwind_RaiseException 120
_Unwind_Resume_or_Rethrow uw_init_context_1 240
_Unwind_Resume_or_Rethrow memcpy 256
_Unwind_Resume_or_Rethrow memcpy 268
_Unwind_Resume_or_Rethrow _Unwind_ForcedUnwind_Phase2 292
_Unwind_Resume_or_Rethrow abort 312
_Unwind_Resume_or_Rethrow abort 316
_Unwind_Resume_or_Rethrow uw_install_context_1 336
_Unwind_Resume_or_Rethrow _Unwind_DebugHook 368
_Unwind_Backtrace uw_init_context_1 112
_Unwind_Backtrace uw_frame_state_for 156
_Unwind_Backtrace uw_update_context 216
frame_heapsort frame_downheap 192
frame_heapsort frame_downheap 248
read_encoded_value_with_base abort 300
read_encoded_value_with_base abort 304
get_cie_encoding strlen 16
get_cie_encoding strlen 56
get_cie_encoding read_uleb128 184
get_cie_encoding read_sleb128 208
get_cie_encoding read_uleb128 240
get_cie_encoding read_uleb128 300
get_cie_encoding read_encoded_value_with_base 340
get_fde_encoding get_cie_encoding 28
fde_unencoded_compare memcpy 16
fde_unencoded_compare memcpy 44
fde_unencoded_compare memcpy 60
fde_unencoded_compare memcpy 68
size_of_encoded_value.part.2 abort 52
size_of_encoded_value.part.2 abort 64
base_from_object abort 88
base_from_object abort 104
fde_single_encoding_compare base_from_object 80
fde_single_encoding_compare read_encoded_value_with_base 120
fde_single_encoding_compare read_encoded_value_with_base 152
fde_mixed_encoding_compare get_fde_encoding 72
fde_mixed_encoding_compare base_from_object 104
fde_mixed_encoding_compare read_encoded_value_with_base 140
fde_mixed_encoding_compare get_fde_encoding 152
fde_mixed_encoding_compare base_from_object 172
fde_mixed_encoding_compare read_encoded_value_with_base 196
base_from_cb_data abort 88
base_from_cb_data abort 104
classify_object_over_fdes get_cie_encoding 148
classify_object_over_fdes base_from_object 244
classify_object_over_fdes size_of_encoded_value.part.2 336
add_fdes base_from_object 100
add_fdes get_cie_encoding 244
add_fdes base_from_object 264
add_fdes memcpy 292
add_fdes memcpy 296
add_fdes size_of_encoded_value.part.2 380
linear_search_fdes base_from_object 100
linear_search_fdes get_cie_encoding 208
linear_search_fdes base_from_object 228
linear_search_fdes read_encoded_value_with_base 364
linear_search_fdes read_encoded_value_with_base 388
_Unwind_IteratePhdrCallback base_from_cb_data 708
_Unwind_IteratePhdrCallback read_encoded_value_with_base 744
_Unwind_IteratePhdrCallback base_from_cb_data 792
_Unwind_IteratePhdrCallback read_encoded_value_with_base 816
_Unwind_IteratePhdrCallback get_fde_encoding 928
_Unwind_IteratePhdrCallback size_of_encoded_value.part.2 960
_Unwind_IteratePhdrCallback read_encoded_value_with_base 992
_Unwind_IteratePhdrCallback abort 1128
_Unwind_IteratePhdrCallback abort 1132
_Unwind_IteratePhdrCallback linear_search_fdes 1188
_Unwind_IteratePhdrCallback get_fde_encoding 1216
_Unwind_IteratePhdrCallback base_from_cb_data 1236
_Unwind_IteratePhdrCallback read_encoded_value_with_base 1264
search_object linear_search_fdes 128
search_object malloc 240
search_object malloc 248
search_object malloc 268
search_object malloc 276
search_object abort 364
search_object abort 368
search_object classify_object_over_fdes 376
search_object classify_object_over_fdes 504
search_object add_fdes 548
search_object add_fdes 584
search_object frame_heapsort 740
search_object free 896
search_object free 900
search_object frame_heapsort 1168
search_object base_from_object 1276
search_object read_encoded_value_with_base 1304
search_object base_from_object 1432
search_object read_encoded_value_with_base 1524
search_object read_encoded_value_with_base 1548
search_object memcpy 1624
search_object memcpy 1636
search_object memcpy 1652
search_object memcpy 1660
search_object linear_search_fdes 1760
__register_frame_info_bases pthread_cancel 40
__register_frame_info_bases pthread_mutex_lock 92
__register_frame_info_bases pthread_mutex_lock 96
__register_frame_info_bases pthread_mutex_unlock 172
__register_frame_info_bases pthread_mutex_unlock 164
__register_frame_info __register_frame_info_bases 20
__register_frame_info __register_frame_info_bases 12
__register_frame malloc 48
__register_frame __register_frame_info 80
__register_frame malloc 28
__register_frame __register_frame_info 68
__register_frame_info_table_bases pthread_mutex_lock 80
__register_frame_info_table_bases pthread_cancel 24
__register_frame_info_table_bases pthread_mutex_lock 76
__register_frame_info_table_bases pthread_mutex_unlock 156
__register_frame_info_table_bases pthread_mutex_unlock 148
__register_frame_info_table __register_frame_info_table_bases 20
__register_frame_info_table __register_frame_info_table_bases 12
__register_frame_table malloc 36
__register_frame_table __register_frame_info_table 68
__register_frame_table malloc 16
__register_frame_table __register_frame_info_table 56
__deregister_frame_info_bases pthread_mutex_lock 72
__deregister_frame_info_bases pthread_cancel 52
__deregister_frame_info_bases pthread_mutex_lock 68
__deregister_frame_info_bases pthread_mutex_unlock 136
__deregister_frame_info_bases abort 156
__deregister_frame_info_bases free 228
__deregister_frame_info_bases pthread_mutex_unlock 132
__deregister_frame_info_bases abort 152
__deregister_frame_info_bases free 220
__deregister_frame_info __deregister_frame_info_bases 16
__deregister_frame_info __deregister_frame_info_bases 12
__deregister_frame __deregister_frame_info_bases 40
__deregister_frame free 64
__deregister_frame __deregister_frame_info_bases 28
__deregister_frame free 56
_Unwind_Find_FDE pthread_mutex_lock 96
_Unwind_Find_FDE search_object 148
_Unwind_Find_FDE pthread_cancel 80
_Unwind_Find_FDE pthread_mutex_lock 88
_Unwind_Find_FDE pthread_mutex_unlock 212
_Unwind_Find_FDE pthread_mutex_unlock 216
_Unwind_Find_FDE base_from_object 288
_Unwind_Find_FDE read_encoded_value_with_base 320
_Unwind_Find_FDE search_object 408
_Unwind_Find_FDE get_fde_encoding 504
_Unwind_Find_FDE dl_iterate_phdr 528
_Unwind_Find_FDE dl_iterate_phdr 560
__gcc_personality_v0 _Unwind_GetLanguageSpecificData 88
__gcc_personality_v0 _Unwind_GetLanguageSpecificData 144
__gcc_personality_v0 _Unwind_GetRegionStart 172
__gcc_personality_v0 _Unwind_GetRegionStart 176
__gcc_personality_v0 read_encoded_value 220
__gcc_personality_v0 read_uleb128 272
__gcc_personality_v0 read_uleb128 312
__gcc_personality_v0 _Unwind_GetIPInfo 332
__gcc_personality_v0 _Unwind_GetIPInfo 348
__gcc_personality_v0 read_encoded_value 424
__gcc_personality_v0 read_encoded_value 448
__gcc_personality_v0 read_encoded_value 472
__gcc_personality_v0 read_uleb128 488
__gcc_personality_v0 _Unwind_SetGR 592
__gcc_personality_v0 _Unwind_SetGR 604
__gcc_personality_v0 _Unwind_SetGR 620
__gcc_personality_v0 _Unwind_SetGR 628
__gcc_personality_v0 _Unwind_SetIP 644
__gcc_personality_v0 _Unwind_SetIP 648
emutls_init pthread_key_create 24
emutls_init pthread_key_create 40
emutls_init abort 56
emutls_init abort 60
emutls_destroy free 80
emutls_destroy free 88
emutls_destroy free 104
emutls_destroy free 108
emutls_alloc malloc 56
emutls_alloc malloc 60
emutls_alloc abort 76
emutls_alloc abort 80
emutls_alloc memcpy 108
emutls_alloc malloc 152
emutls_alloc memset 204
__emutls_get_address pthread_cancel 16
__emutls_get_address emutls_alloc 76
__emutls_get_address pthread_once 152
__emutls_get_address pthread_once 160
__emutls_get_address pthread_mutex_lock 176
__emutls_get_address pthread_mutex_lock 180
__emutls_get_address pthread_mutex_unlock 224
__emutls_get_address pthread_mutex_unlock 228
__emutls_get_address pthread_getspecific 244
__emutls_get_address pthread_getspecific 252
__emutls_get_address calloc 272
__emutls_get_address calloc 280
__emutls_get_address abort 304
__emutls_get_address abort 308
__emutls_get_address pthread_setspecific 328
__emutls_get_address pthread_setspecific 332
__emutls_get_address emutls_alloc 372
__emutls_get_address realloc 412
__emutls_get_address realloc 428
__emutls_get_address memset 448
__emutls_get_address memset 476
__gcov_merge_add __gcov_read_counter 20
__gcov_merge_add __gcov_read_counter 80
__gcov_merge_single abort 80
__gcov_merge_single abort 84
__gcov_merge_single __gcov_read_counter 368
__gcov_merge_ior __gcov_read_counter 20
__gcov_merge_ior __gcov_read_counter 80
__gcov_merge_time_profile __gcov_read_counter 20
__gcov_merge_time_profile __gcov_read_counter 92
__gcov_merge_icall_topn __gcov_read_counter 84
__gcov_merge_icall_topn abort 160
__gcov_merge_icall_topn abort 164
__gcov_merge_icall_topn __gcov_read_counter 280
__gcov_merge_icall_topn __gcov_read_counter 292
__gcov_merge_icall_topn __gcov_read_counter 308
__gcov_merge_icall_topn __gcov_sort_n_vals 424
__gcov_merge_icall_topn __gcov_sort_n_vals 432
__gcov_indirect_call_profiler_v2 __tls_get_addr 16
__gcov_indirect_call_profiler_v2 __gcov_indirect_call_callee 44
__gcov_indirect_call_profiler_v2 __tls_get_addr 52
__gcov_indirect_call_profiler_v2 __tls_get_addr 72
__gcov_indirect_call_profiler_v2 __gcov_indirect_call_counters 76
__gcov_indirect_call_profiler_v2 __tls_get_addr 80
__gcov_indirect_call_topn_profiler __tls_get_addr 16
__gcov_indirect_call_topn_profiler __gcov_indirect_call_topn_callee 44
__gcov_indirect_call_topn_profiler __tls_get_addr 52
__gcov_indirect_call_topn_profiler __tls_get_addr 72
__gcov_indirect_call_topn_profiler __gcov_indirect_call_topn_counters 76
__gcov_indirect_call_topn_profiler __tls_get_addr 80
__gcov_indirect_call_topn_profiler __gcov_topn_value_profiler_body 128
__gcov_dump_int __gcov_master 12
__gcov_dump_int __gcov_root 52
__gcov_dump_int __gcov_dump_one 60
__gcov_dump_int __gcov_dump_one 92
__gcov_dump __gcov_dump_int 12
__gcov_dump __gcov_dump_int 16
__gcov_flush pthread_cancel 20
__gcov_flush pthread_mutex_lock 36
__gcov_flush __gcov_flush_mx 40
__gcov_flush pthread_mutex_lock 44
__gcov_flush __gcov_dump_int 56
__gcov_flush __gcov_dump_int 60
__gcov_flush __gcov_reset_int 72
__gcov_flush __gcov_reset_int 76
__gcov_flush __gcov_flush_mx 100
__gcov_flush pthread_mutex_unlock 104
__gcov_flush pthread_mutex_unlock 108
__gcov_fork __gcov_flush 16
__gcov_fork __gcov_flush 32
__gcov_fork fork 44
__gcov_fork fork 48
__gcov_fork pthread_cancel 68
__gcov_fork pthread_mutex_init 76
__gcov_fork __gcov_flush_mx 80
__gcov_fork pthread_mutex_init 84
__gcov_execl __gcov_flush 16
__gcov_execl __gcov_flush 52
__gcov_execl execv 148
__gcov_execl execv 152
__gcov_execlp __gcov_flush 16
__gcov_execlp __gcov_flush 52
__gcov_execlp execvp 148
__gcov_execlp execvp 152
__gcov_execle __gcov_flush 16
__gcov_execle __gcov_flush 52
__gcov_execle execve 148
__gcov_execle execve 156
__gcov_execv __gcov_flush 16
__gcov_execv __gcov_flush 36
__gcov_execv execv 60
__gcov_execv execv 64
__gcov_execvp __gcov_flush 16
__gcov_execvp __gcov_flush 36
__gcov_execvp execvp 60
__gcov_execvp execvp 64
__gcov_execve __gcov_flush 16
__gcov_execve __gcov_flush 40
__gcov_execve execve 68
__gcov_execve execve 72
__gcov_reset_int __gcov_master 12
__gcov_reset_int __gcov_root 72
__gcov_reset_int memset 212
__gcov_reset_int memset 228
__gcov_reset __gcov_reset_int 12
__gcov_reset __gcov_reset_int 16
gcov_write_block __gcov_var 20
gcov_write_block fwrite 24
gcov_write_block fwrite 56
gcov_write_words __gcov_var 20
gcov_write_words gcov_write_block 60
gcov_read_words __gcov_var 20
gcov_read_words fread 112
gcov_read_words fread 136
gcov_error __gcov_error_file 20
gcov_error getenv 72
gcov_error $LC0 68
gcov_error getenv 76
gcov_error $LC0 80
gcov_error fopen 96
gcov_error $LC1 92
gcov_error $LC1 100
gcov_error fopen 104
gcov_error stderr 132
gcov_error vfprintf 152
gcov_error vfprintf 156
free_fn_data free 76
free_fn_data free 84
free_fn_data free 152
free_fn_data free 156
gcov_histo_index __lshrdi3 72
gcov_histo_index __lshrdi3 100
gcov_version.isra.0.part.1 $LC2 76
gcov_version.isra.0.part.1 gcov_error 96
gcov_version.isra.0.part.1 $LC2 100
__gcov_rewrite __gcov_var 12
__gcov_rewrite fseek 16
__gcov_rewrite fseek 44
__gcov_open getpid 20
__gcov_open getpid 76
__gcov_open __gcov_var 92
__gcov_open open 104
__gcov_open open 140
__gcov_open fcntl 172
__gcov_open fcntl 184
__gcov_open __errno_location 200
__gcov_open __errno_location 204
__gcov_open fdopen 228
__gcov_open $LC3 224
__gcov_open $LC3 232
__gcov_open fdopen 236
__gcov_open close 256
__gcov_open close 260
__gcov_open setbuf 304
__gcov_open setbuf 316
__gcov_close __gcov_var 20
__gcov_close fclose 52
__gcov_close gcov_write_block 76
__gcov_close fclose 88
__gcov_close fclose 92
__gcov_write_unsigned gcov_write_words 40
__gcov_write_counter gcov_write_words 48
__gcov_write_tag_length gcov_write_words 48
__gcov_write_summary __gcov_write_tag_length 176
__gcov_write_summary __gcov_write_tag_length 180
__gcov_write_summary __gcov_write_unsigned 196
__gcov_write_summary __gcov_write_unsigned 204
__gcov_write_summary __gcov_write_unsigned 216
__gcov_write_summary __gcov_write_unsigned 228
__gcov_write_summary __gcov_write_counter 244
__gcov_write_summary __gcov_write_counter 252
__gcov_write_summary __gcov_write_counter 268
__gcov_write_summary __gcov_write_counter 292
__gcov_write_summary __gcov_write_unsigned 308
__gcov_write_summary __gcov_write_unsigned 388
__gcov_write_summary __gcov_write_counter 404
__gcov_write_summary __gcov_write_counter 420
__gcov_read_unsigned gcov_read_words 32
__gcov_read_counter gcov_read_words 32
__gcov_read_summary __gcov_read_unsigned 20
__gcov_read_summary __gcov_read_unsigned 68
__gcov_read_summary __gcov_read_unsigned 80
__gcov_read_summary __gcov_read_unsigned 92
__gcov_read_summary __gcov_read_counter 108
__gcov_read_summary __gcov_read_counter 116
__gcov_read_summary __gcov_read_counter 132
__gcov_read_summary __gcov_read_counter 148
__gcov_read_summary memset 164
__gcov_read_summary memset 180
__gcov_read_summary __popcountsi2 228
__gcov_read_summary __popcountsi2 232
__gcov_read_summary $LC5 256
__gcov_read_summary $LC5 276
__gcov_read_summary __gcov_read_counter 364
__gcov_read_summary __gcov_read_counter 380
__gcov_read_summary $LC4 416
__gcov_read_summary gcov_error 420
__gcov_read_summary $LC4 424
__gcov_read_summary gcov_error 476
__gcov_seek __gcov_var 20
__gcov_seek fseek 48
__gcov_seek gcov_write_block 60
__gcov_seek fseek 72
__gcov_seek fseek 84
__gcov_seek ftell 96
__gcov_seek ftell 100
gcov_do_dump memset 16
gcov_do_dump memset 84
gcov_do_dump getenv 136
gcov_do_dump $LC13 132
gcov_do_dump getenv 140
gcov_do_dump $LC13 144
gcov_do_dump getenv 164
gcov_do_dump $LC14 160
gcov_do_dump getenv 168
gcov_do_dump $LC14 172
gcov_do_dump strlen 188
gcov_do_dump strlen 192
gcov_do_dump $LC6 256
gcov_do_dump $LC6 268
gcov_do_dump malloc 276
gcov_do_dump malloc 284
gcov_do_dump memcpy 308
gcov_do_dump memcpy 320
gcov_do_dump strlen 356
gcov_do_dump strlen 364
gcov_do_dump crc32_unsigned 388
gcov_do_dump crc32_unsigned 404
gcov_do_dump crc32_unsigned 548
gcov_do_dump crc32_unsigned 572
gcov_do_dump crc32_unsigned 616
gcov_do_dump atoi 1092
gcov_do_dump atoi 1096
gcov_do_dump strcpy 1204
gcov_do_dump strcpy 1232
gcov_do_dump __gcov_open 1244
gcov_do_dump __gcov_open 1252
gcov_do_dump abort 1376
gcov_do_dump abort 1380
gcov_do_dump __gcov_sort_n_vals 1404
gcov_do_dump __gcov_sort_n_vals 1420
gcov_do_dump access 1552
gcov_do_dump access 1564
gcov_do_dump mkdir 1580
gcov_do_dump mkdir 1588
gcov_do_dump __errno_location 1604
gcov_do_dump __errno_location 1608
gcov_do_dump $LC15 1628
gcov_do_dump gcov_error 1644
gcov_do_dump $LC15 1648
gcov_do_dump $LC16 1660
gcov_do_dump $LC16 1668
gcov_do_dump stderr 1672
gcov_do_dump fprintf 1676
gcov_do_dump fprintf 1680
gcov_do_dump free 1748
gcov_do_dump free 1752
gcov_do_dump __gcov_open 1780
gcov_do_dump $LC17 1796
gcov_do_dump $LC17 1808
gcov_do_dump __gcov_read_unsigned 1812
gcov_do_dump __gcov_read_unsigned 1820
gcov_do_dump $LC18 1848
gcov_do_dump $LC18 1856
gcov_do_dump gcov_error 1868
gcov_do_dump __gcov_read_unsigned 1888
gcov_do_dump __gcov_read_unsigned 1916
gcov_do_dump __gcov_var 1940
gcov_do_dump __gcov_read_summary 1944
gcov_do_dump __gcov_read_unsigned 1984
gcov_do_dump __gcov_read_unsigned 2008
gcov_do_dump __gcov_read_summary 2020
gcov_do_dump malloc 2064
gcov_do_dump malloc 2068
gcov_do_dump memcpy 2084
gcov_do_dump memcpy 2100
gcov_do_dump gcov_version.isra.0.part.1 2136
gcov_do_dump memcpy 2196
gcov_do_dump __gcov_rewrite 2284
gcov_do_dump memset 2316
gcov_do_dump memset 2528
gcov_do_dump gcov_error 2696
gcov_do_dump memcpy 2184
gcov_do_dump __gcov_rewrite 2280
gcov_do_dump memset 2304
gcov_do_dump memset 2520
gcov_do_dump __gcov_read_unsigned 2716
gcov_do_dump malloc 2792
gcov_do_dump __gcov_read_unsigned 2824
gcov_do_dump __gcov_read_unsigned 2836
gcov_do_dump __gcov_read_unsigned 2848
gcov_do_dump __gcov_read_unsigned 2896
gcov_do_dump __gcov_read_unsigned 2928
gcov_do_dump malloc 2960
gcov_do_dump __gcov_read_unsigned 3052
gcov_do_dump $LC19 3216
gcov_do_dump $LC19 2740
gcov_do_dump $LC19 2668
gcov_do_dump $LC19 2276
gcov_do_dump $LC19 2688
gcov_do_dump $LC20 2672
gcov_do_dump $LC20 2700
gcov_do_dump malloc 2776
gcov_do_dump __gcov_read_counter 2864
gcov_do_dump malloc 2948
gcov_do_dump $LC7 3140
gcov_do_dump $LC7 3148
gcov_do_dump $LC21 2228
gcov_do_dump $LC21 3176
gcov_do_dump $LC8 3136
gcov_do_dump $LC8 3224
gcov_do_dump __gcov_read_unsigned 3232
gcov_do_dump __gcov_read_unsigned 3256
gcov_do_dump __gcov_read_unsigned 3280
gcov_do_dump __gcov_read_unsigned 3332
gcov_do_dump __gcov_read_unsigned 3344
gcov_do_dump $LC10 3448
gcov_do_dump $LC10 3424
gcov_do_dump $LC10 3452
gcov_do_dump $LC22 3456
gcov_do_dump gcov_error 3472
gcov_do_dump $LC22 3476
gcov_do_dump $LC9 3444
gcov_do_dump $LC9 3492
gcov_do_dump __divdi3 3640
gcov_do_dump __divdi3 3684
gcov_do_dump __divdi3 3740
gcov_do_dump __divdi3 3788
gcov_do_dump memcpy 4356
gcov_do_dump memcpy 4360
gcov_do_dump __gcov_write_tag_length 4392
gcov_do_dump __gcov_write_tag_length 4408
gcov_do_dump __gcov_write_unsigned 4420
gcov_do_dump __gcov_write_unsigned 4424
gcov_do_dump __gcov_write_summary 4444
gcov_do_dump __gcov_seek 4448
gcov_do_dump __gcov_seek 4452
gcov_do_dump __gcov_write_summary 4464
gcov_do_dump __gcov_write_summary 4476
gcov_do_dump __gcov_write_counter 4504
gcov_do_dump __gcov_write_unsigned 4540
gcov_do_dump __gcov_write_unsigned 4544
gcov_do_dump $LC23 4568
gcov_do_dump $LC23 4580
gcov_do_dump __gcov_write_summary 4588
gcov_do_dump free 4604
gcov_do_dump free 4612
gcov_do_dump __gcov_write_tag_length 4668
gcov_do_dump __gcov_write_tag_length 4680
gcov_do_dump __gcov_write_unsigned 4700
gcov_do_dump __gcov_write_unsigned 4708
gcov_do_dump __gcov_write_unsigned 4720
gcov_do_dump __gcov_write_unsigned 4732
gcov_do_dump free_fn_data 4968
gcov_do_dump __gcov_close 5004
gcov_do_dump __gcov_close 5008
gcov_do_dump $LC11 5032
gcov_do_dump $LC11 5036
gcov_do_dump gcov_error 5048
gcov_do_dump $LC12 5064
gcov_do_dump $LC12 5072
__gcov_dump_one gcov_do_dump 64
__gcov_exit __gcov_root 16
__gcov_exit __gcov_dump_one 20
__gcov_exit __gcov_dump_one 36
__gcov_exit __gcov_root 48
__gcov_exit __gcov_error_file 88
__gcov_exit stderr 100
__gcov_exit fclose 112
__gcov_exit fclose 116
__gcov_exit __gcov_master 144
__gcov_init __gcov_root 76
__gcov_init __gcov_master 88
__gcov_init $LC24 108
__gcov_init gcov_version.isra.0.part.1 144
__gcov_init $LC24 188
__gcov_init gcov_version.isra.0.part.1 196
_ZL29plugin_pragma_user_expressionP10cpp_reader c_binding_oracle 3
_Z16plugin_char_typePN10cc1_plugin10connectionE integer_types 3
_Z20plugin_float_type_v0PN10cc1_plugin10connectionEm global_trees 3
_Z20plugin_float_type_v0PN10cc1_plugin10connectionEm global_trees 29
_Z20plugin_float_type_v0PN10cc1_plugin10connectionEm global_trees 51
_Z20plugin_float_type_v0PN10cc1_plugin10connectionEm global_trees 72
_Z16plugin_void_typePN10cc1_plugin10connectionE global_trees 3
_Z16plugin_bool_typePN10cc1_plugin10connectionE global_trees 3
_ZN10cc1_plugin10unmarshallEPNS_10connectionEP14gcc_qualifiers _ZN10cc1_plugin18unmarshall_intlikeEPNS_10connectionEPy 14
_ZN10cc1_plugin10unmarshallEPNS_10connectionEP20gcc_c_oracle_request _ZN10cc1_plugin18unmarshall_intlikeEPNS_10connectionEPy 14
_ZN10cc1_plugin10unmarshallEPNS_10connectionEP17gcc_c_symbol_kind _ZN10cc1_plugin18unmarshall_intlikeEPNS_10connectionEPy 14
_ZL27plugin_print_error_functionP18diagnostic_contextPKcP15diagnostic_info current_function_decl 3
_ZL27plugin_print_error_functionP18diagnostic_contextPKcP15diagnostic_info _Z24lhd_print_error_functionP18diagnostic_contextPKcP15diagnostic_info 52
_ZL26rewrite_decls_to_addressesPvS_ _Z11walk_tree_1PP9tree_nodePFS0_S1_PiPvES3_P8hash_setIS0_19default_hash_traitsIS0_EEPFS0_S1_S2_S5_S3_SA_E 30
_Z25plugin_build_pointer_typePN10cc1_plugin10connectionEy _Z18build_pointer_typeP9tree_node 4
_ZL25plugin_init_extra_pragmasPvS_ _Z17c_register_pragmaPKcS0_PFvP10cpp_readerE 20
_ZL25plugin_init_extra_pragmasPvS_ _Z17c_register_pragmaPKcS0_PFvP10cpp_readerE 40
_ZL25plugin_init_extra_pragmasPvS_ _Z17c_register_pragmaPKcS0_PFvP10cpp_readerE 64
_Z12plugin_errorPN10cc1_plugin10connectionEPKc _Z5errorPKcz 12
_Z12plugin_errorPN10cc1_plugin10connectionEPKc global_trees 19
_Z27plugin_build_qualified_typePN10cc1_plugin10connectionEy14gcc_qualifiers _Z20build_qualified_typeP9tree_nodei 31
_ZL24safe_lookup_builtin_typePKc _Z14get_identifierPKc 12
_ZL24safe_lookup_builtin_typePKc _Z23identifier_global_valueP9tree_node 20
_ZL24safe_lookup_builtin_typePKc _Z11fancy_abortPKciS0_ 60
_Z17plugin_float_typePN10cc1_plugin10connectionEmPKc global_trees 59
_Z17plugin_float_typePN10cc1_plugin10connectionEmPKc global_trees 85
_Z17plugin_float_typePN10cc1_plugin10connectionEmPKc global_trees 107
_Z17plugin_float_typePN10cc1_plugin10connectionEmPKc global_trees 128
_Z17plugin_float_typePN10cc1_plugin10connectionEmPKc global_trees 147
_Z17plugin_float_typePN10cc1_plugin10connectionEmPKc _Z11fancy_abortPKciS0_ 169
_Z17plugin_float_typePN10cc1_plugin10connectionEmPKc _Z11fancy_abortPKciS0_ 189
_Z30plugin_build_add_enum_constantPN10cc1_plugin10connectionEyPKcm _Z13build_int_cstP9tree_nodel 47
_Z30plugin_build_add_enum_constantPN10cc1_plugin10connectionEyPKcm _Z14get_identifierPKc 58
_Z30plugin_build_add_enum_constantPN10cc1_plugin10connectionEyPKcm _Z15build_decl_statj9tree_codeP9tree_nodeS1_ 79
_Z30plugin_build_add_enum_constantPN10cc1_plugin10connectionEyPKcm c_binding_oracle 90
_Z30plugin_build_add_enum_constantPN10cc1_plugin10connectionEyPKcm c_binding_oracle 103
_Z30plugin_build_add_enum_constantPN10cc1_plugin10connectionEyPKcm _Z8pushdeclP9tree_node 112
_Z30plugin_build_add_enum_constantPN10cc1_plugin10connectionEyPKcm c_binding_oracle 119
_Z30plugin_build_add_enum_constantPN10cc1_plugin10connectionEyPKcm _Z14tree_cons_statP9tree_nodeS0_S0_ 139
_Z30plugin_build_add_enum_constantPN10cc1_plugin10connectionEyPKcm _Z11fancy_abortPKciS0_ 196
_ZL20build_anonymous_node9tree_code _Z14make_node_stat9tree_code 2
_ZL20build_anonymous_node9tree_code input_location 8
_ZL20build_anonymous_node9tree_code _Z15build_decl_statj9tree_codeP9tree_nodeS1_ 26
_Z29plugin_finish_record_or_unionPN10cc1_plugin10connectionEym _Z8nreverseP9tree_node 40
_Z29plugin_finish_record_or_unionPN10cc1_plugin10connectionEym global_trees 64
_Z29plugin_finish_record_or_unionPN10cc1_plugin10connectionEym _Z13size_int_kindl14size_type_kind 127
_Z29plugin_finish_record_or_unionPN10cc1_plugin10connectionEym _Z13size_int_kindl14size_type_kind 141
_Z29plugin_finish_record_or_unionPN10cc1_plugin10connectionEym _Z19compute_record_modeP9tree_node 153
_Z29plugin_finish_record_or_unionPN10cc1_plugin10connectionEym _Z22finish_bitfield_layoutP9tree_node 161
_Z29plugin_finish_record_or_unionPN10cc1_plugin10connectionEym _Z19compute_record_modeP9tree_node 356
_Z29plugin_finish_record_or_unionPN10cc1_plugin10connectionEym _Z11layout_typeP9tree_node 396
_Z29plugin_finish_record_or_unionPN10cc1_plugin10connectionEym _Z11fancy_abortPKciS0_ 421
_Z22plugin_build_add_fieldPN10cc1_plugin10connectionEyPKcymm _Z14get_identifierPKc 61
_Z22plugin_build_add_fieldPN10cc1_plugin10connectionEyPKcymm _Z15build_decl_statj9tree_codeP9tree_nodeS1_ 82
_Z22plugin_build_add_fieldPN10cc1_plugin10connectionEyPKcymm global_trees 129
_Z22plugin_build_add_fieldPN10cc1_plugin10connectionEyPKcymm _Z13size_int_kindl14size_type_kind 183
_Z22plugin_build_add_fieldPN10cc1_plugin10connectionEyPKcymm _Z12pos_from_bitPP9tree_nodeS1_jS0_ 218
_Z22plugin_build_add_fieldPN10cc1_plugin10connectionEyPKcymm _Z13size_int_kindl14size_type_kind 231
_Z22plugin_build_add_fieldPN10cc1_plugin10connectionEyPKcymm _Z13size_int_kindl14size_type_kind 251
_Z22plugin_build_add_fieldPN10cc1_plugin10connectionEyPKcymm _Z29c_build_bitfield_integer_typemi 353
_Z22plugin_build_add_fieldPN10cc1_plugin10connectionEyPKcymm _Z16vector_type_modePK9tree_node 372
_Z22plugin_build_add_fieldPN10cc1_plugin10connectionEyPKcymm _Z11fancy_abortPKciS0_ 397
_Z11plugin_bindPN10cc1_plugin10connectionEyi _Z6c_bindjP9tree_nodeb 30
_Z11plugin_bindPN10cc1_plugin10connectionEyi _Z24rest_of_decl_compilationP9tree_nodeii 42
_ZN14plugin_context4markEv _Z12ggc_set_markPKv 241
_ZN14plugin_context4markEv _Z12ggc_set_markPKv 321
_ZN14plugin_context4markEv _Z12ggc_set_markPKv 337
_ZL7gc_markPvS_ _ZN14plugin_context4markEv 13
_ZL21plugin_binding_oracle16c_oracle_requestP9tree_node _ZN10cc1_plugin10connection4sendEc 76
_ZL21plugin_binding_oracle16c_oracle_requestP9tree_node _ZN10cc1_plugin8marshallEPNS_10connectionEPKc 121
_ZL21plugin_binding_oracle16c_oracle_requestP9tree_node _ZN10cc1_plugin16marshall_intlikeEPNS_10connectionEy 138
_ZL21plugin_binding_oracle16c_oracle_requestP9tree_node _ZN10cc1_plugin16marshall_intlikeEPNS_10connectionEy 152
_ZL21plugin_binding_oracle16c_oracle_requestP9tree_node _ZN10cc1_plugin8marshallEPNS_10connectionEPKc 167
_ZL21plugin_binding_oracle16c_oracle_requestP9tree_node _ZN10cc1_plugin10connection7do_waitEb 184
_ZL21plugin_binding_oracle16c_oracle_requestP9tree_node _ZN10cc1_plugin18unmarshall_intlikeEPNS_10connectionEPy 201
_ZL21plugin_binding_oracle16c_oracle_requestP9tree_node _Z11fancy_abortPKciS0_ 224
_ZL21plugin_binding_oracle16c_oracle_requestP9tree_node _Z11fancy_abortPKciS0_ 274
_Z23plugin_finish_enum_typePN10cc1_plugin10connectionEy _Z22finish_enum_value_listP9tree_node 8
_Z23plugin_finish_enum_typePN10cc1_plugin10connectionEy _Z11finish_enumP9tree_node 16
T.898 prime_tab 69
T.898 prime_tab 75
T.898 prime_tab 81
T.898 prime_tab 87
T.898 strcmp 190
T.898 strcmp 229
T.898 _ZN10hash_tableI13string_hasher11xcallocatorE6expandEv 365
_Z21plugin_build_constantPN10cc1_plugin10connectionEyPKcmS3_j _Z13build_int_cstP9tree_nodel 58
_Z21plugin_build_constantPN10cc1_plugin10connectionEyPKcmS3_j _Z20build_qualified_typeP9tree_nodei 80
_Z21plugin_build_constantPN10cc1_plugin10connectionEyPKcmS3_j _Z14get_identifierPKc 93
_Z21plugin_build_constantPN10cc1_plugin10connectionEyPKcmS3_j htab_hash_string 114
_Z21plugin_build_constantPN10cc1_plugin10connectionEyPKcmS3_j line_table 157
_Z21plugin_build_constantPN10cc1_plugin10connectionEyPKcmS3_j _Z11linemap_addP9line_maps9lc_reasonjPKcj 169
_Z21plugin_build_constantPN10cc1_plugin10connectionEyPKcmS3_j line_table 176
_Z21plugin_build_constantPN10cc1_plugin10connectionEyPKcmS3_j _Z18linemap_line_startP9line_mapsjj 186
_Z21plugin_build_constantPN10cc1_plugin10connectionEyPKcmS3_j line_table 193
_Z21plugin_build_constantPN10cc1_plugin10connectionEyPKcmS3_j _Z11linemap_addP9line_maps9lc_reasonjPKcj 212
_Z21plugin_build_constantPN10cc1_plugin10connectionEyPKcmS3_j _Z15build_decl_statj9tree_codeP9tree_nodeS1_ 230
_Z21plugin_build_constantPN10cc1_plugin10connectionEyPKcmS3_j _Z14cp_finish_declP9tree_nodeS0_bS0_i 265
_Z21plugin_build_constantPN10cc1_plugin10connectionEyPKcmS3_j cp_binding_oracle 272
_Z21plugin_build_constantPN10cc1_plugin10connectionEyPKcmS3_j cp_binding_oracle 284
_Z21plugin_build_constantPN10cc1_plugin10connectionEyPKcmS3_j _Z21pushdecl_maybe_friendP9tree_nodeb 293
_Z21plugin_build_constantPN10cc1_plugin10connectionEyPKcmS3_j cp_binding_oracle 300
_Z21plugin_build_constantPN10cc1_plugin10connectionEyPKcmS3_j xstrdup 358
_Z14plugin_tagbindPN10cc1_plugin10connectionEPKcyS3_j _Z14get_identifierPKc 50
_Z14plugin_tagbindPN10cc1_plugin10connectionEPKcyS3_j htab_hash_string 73
_Z14plugin_tagbindPN10cc1_plugin10connectionEPKcyS3_j line_table 111
_Z14plugin_tagbindPN10cc1_plugin10connectionEPKcyS3_j _Z11linemap_addP9line_maps9lc_reasonjPKcj 123
_Z14plugin_tagbindPN10cc1_plugin10connectionEPKcyS3_j line_table 130
_Z14plugin_tagbindPN10cc1_plugin10connectionEPKcyS3_j _Z18linemap_line_startP9line_mapsjj 140
_Z14plugin_tagbindPN10cc1_plugin10connectionEPKcyS3_j line_table 147
_Z14plugin_tagbindPN10cc1_plugin10connectionEPKcyS3_j _Z11linemap_addP9line_maps9lc_reasonjPKcj 166
_Z14plugin_tagbindPN10cc1_plugin10connectionEPKcyS3_j _Z9c_pushtagjP9tree_nodeS0_ 179
_Z14plugin_tagbindPN10cc1_plugin10connectionEPKcyS3_j xstrdup 255
_ZL16address_rewriterPP9tree_nodePiPv tree_code_type 52
_ZL16address_rewriterPP9tree_nodePiPv prime_tab 140
_ZL16address_rewriterPP9tree_nodePiPv prime_tab 147
_ZL16address_rewriterPP9tree_nodePiPv prime_tab 153
_ZL16address_rewriterPP9tree_nodePiPv prime_tab 227
_ZL16address_rewriterPP9tree_nodePiPv global_trees 310
_ZL16address_rewriterPP9tree_nodePiPv _Z18build_pointer_typeP9tree_node 329
_ZL16address_rewriterPP9tree_nodePiPv _Z20fold_build1_stat_locj9tree_codeP9tree_nodeS1_ 348
_ZL16address_rewriterPP9tree_nodePiPv _Z20fold_build1_stat_locj9tree_codeP9tree_nodeS1_ 371
_ZL16address_rewriterPP9tree_nodePiPv tree_contains_struct 415
_ZL16address_rewriterPP9tree_nodePiPv _Z19decl_assembler_nameP9tree_node 430
_ZL16address_rewriterPP9tree_nodePiPv _ZN10cc1_plugin10connection4sendEc 447
_ZL16address_rewriterPP9tree_nodePiPv _ZN10cc1_plugin8marshallEPNS_10connectionEPKc 468
_ZL16address_rewriterPP9tree_nodePiPv _ZN10cc1_plugin16marshall_intlikeEPNS_10connectionEy 489
_ZL16address_rewriterPP9tree_nodePiPv _ZN10cc1_plugin8marshallEPNS_10connectionEPKc 508
_ZL16address_rewriterPP9tree_nodePiPv _ZN10cc1_plugin10connection7do_waitEb 529
_ZL16address_rewriterPP9tree_nodePiPv _ZN10cc1_plugin18unmarshall_intlikeEPNS_10connectionEPy 550
_ZL16address_rewriterPP9tree_nodePiPv global_trees 579
_ZL16address_rewriterPP9tree_nodePiPv _Z18build_int_cst_typeP9tree_nodel 584
_Z17plugin_build_declPN10cc1_plugin10connectionEPKc17gcc_c_symbol_kindyS3_yS3_j _Z14get_identifierPKc 34
_Z17plugin_build_declPN10cc1_plugin10connectionEPKc17gcc_c_symbol_kindyS3_yS3_j _Z11fancy_abortPKciS0_ 94
_Z17plugin_build_declPN10cc1_plugin10connectionEPKc17gcc_c_symbol_kindyS3_yS3_j htab_hash_string 137
_Z17plugin_build_declPN10cc1_plugin10connectionEPKc17gcc_c_symbol_kindyS3_yS3_j line_table 180
_Z17plugin_build_declPN10cc1_plugin10connectionEPKc17gcc_c_symbol_kindyS3_yS3_j _Z11linemap_addP9line_maps9lc_reasonjPKcj 189
_Z17plugin_build_declPN10cc1_plugin10connectionEPKc17gcc_c_symbol_kindyS3_yS3_j line_table 200
_Z17plugin_build_declPN10cc1_plugin10connectionEPKc17gcc_c_symbol_kindyS3_yS3_j _Z18linemap_line_startP9line_mapsjj 207
_Z17plugin_build_declPN10cc1_plugin10connectionEPKc17gcc_c_symbol_kindyS3_yS3_j line_table 214
_Z17plugin_build_declPN10cc1_plugin10connectionEPKc17gcc_c_symbol_kindyS3_yS3_j _Z11linemap_addP9line_maps9lc_reasonjPKcj 234
_Z17plugin_build_declPN10cc1_plugin10connectionEPKc17gcc_c_symbol_kindyS3_yS3_j _Z15build_decl_statj9tree_codeP9tree_nodeS1_ 252
_Z17plugin_build_declPN10cc1_plugin10connectionEPKc17gcc_c_symbol_kindyS3_yS3_j _Z14get_identifierPKc 293
_Z17plugin_build_declPN10cc1_plugin10connectionEPKc17gcc_c_symbol_kindyS3_yS3_j _Z11lookup_nameP9tree_node 301
_Z17plugin_build_declPN10cc1_plugin10connectionEPKc17gcc_c_symbol_kindyS3_yS3_j global_trees 315
_Z17plugin_build_declPN10cc1_plugin10connectionEPKc17gcc_c_symbol_kindyS3_yS3_j prime_tab 375
_Z17plugin_build_declPN10cc1_plugin10connectionEPKc17gcc_c_symbol_kindyS3_yS3_j prime_tab 381
_Z17plugin_build_declPN10cc1_plugin10connectionEPKc17gcc_c_symbol_kindyS3_yS3_j prime_tab 387
_Z17plugin_build_declPN10cc1_plugin10connectionEPKc17gcc_c_symbol_kindyS3_yS3_j prime_tab 393
_Z17plugin_build_declPN10cc1_plugin10connectionEPKc17gcc_c_symbol_kindyS3_yS3_j xmalloc 633
_Z17plugin_build_declPN10cc1_plugin10connectionEPKc17gcc_c_symbol_kindyS3_yS3_j prime_tab 703
_Z17plugin_build_declPN10cc1_plugin10connectionEPKc17gcc_c_symbol_kindyS3_yS3_j prime_tab 709
_Z17plugin_build_declPN10cc1_plugin10connectionEPKc17gcc_c_symbol_kindyS3_yS3_j prime_tab 715
_Z17plugin_build_declPN10cc1_plugin10connectionEPKc17gcc_c_symbol_kindyS3_yS3_j prime_tab 721
_Z17plugin_build_declPN10cc1_plugin10connectionEPKc17gcc_c_symbol_kindyS3_yS3_j _Z11fancy_abortPKciS0_ 1014
_Z17plugin_build_declPN10cc1_plugin10connectionEPKc17gcc_c_symbol_kindyS3_yS3_j global_trees 1027
_Z17plugin_build_declPN10cc1_plugin10connectionEPKc17gcc_c_symbol_kindyS3_yS3_j _ZN10hash_tableI15nofree_ptr_hashI9tree_nodeE11xcallocatorE6expandEv 1077
_Z17plugin_build_declPN10cc1_plugin10connectionEPKc17gcc_c_symbol_kindyS3_yS3_j _ZN10hash_tableI16decl_addr_hasher11xcallocatorE6expandEv 1097
_Z17plugin_build_declPN10cc1_plugin10connectionEPKc17gcc_c_symbol_kindyS3_yS3_j global_trees 1152
_Z17plugin_build_declPN10cc1_plugin10connectionEPKc17gcc_c_symbol_kindyS3_yS3_j _Z18build_int_cst_typeP9tree_nodel 1157
_Z17plugin_build_declPN10cc1_plugin10connectionEPKc17gcc_c_symbol_kindyS3_yS3_j xstrdup 1223
T.894 prime_tab 54
T.894 prime_tab 60
T.894 prime_tab 67
T.894 prime_tab 73
T.894 _ZN10hash_tableIN8hash_mapIN21mem_alloc_descriptionI9mem_usageE17mem_location_hashEPS2_21simple_hashmap_traitsI19default_hash_traitsIS4_ES5_EE10hash_entryE11xcallocatorE6expandEv 401
T.895 _Z29hash_table_higher_prime_indexm 66
T.895 prime_tab 86
T.895 xcalloc 94
T.895 _Z11fancy_abortPKciS0_ 175
_Z24plugin_build_vector_typePN10cc1_plugin10connectionEyi _Z17build_vector_typeP9tree_nodei 15
_Z24plugin_build_vector_typePN10cc1_plugin10connectionEyi prime_tab 74
_Z24plugin_build_vector_typePN10cc1_plugin10connectionEyi prime_tab 80
_Z24plugin_build_vector_typePN10cc1_plugin10connectionEyi prime_tab 87
_Z24plugin_build_vector_typePN10cc1_plugin10connectionEyi prime_tab 93
_Z24plugin_build_vector_typePN10cc1_plugin10connectionEyi _ZN10hash_tableI15nofree_ptr_hashI9tree_nodeE11xcallocatorE6expandEv 346
_Z26plugin_build_function_typePN10cc1_plugin10connectionEyPK14gcc_type_arrayi _Znam 28
_Z26plugin_build_function_typePN10cc1_plugin10connectionEyPK14gcc_type_arrayi _Z33build_varargs_function_type_arrayP9tree_nodeiPS0_ 97
_Z26plugin_build_function_typePN10cc1_plugin10connectionEyPK14gcc_type_arrayi _ZdaPv 113
_Z26plugin_build_function_typePN10cc1_plugin10connectionEyPK14gcc_type_arrayi prime_tab 172
_Z26plugin_build_function_typePN10cc1_plugin10connectionEyPK14gcc_type_arrayi prime_tab 178
_Z26plugin_build_function_typePN10cc1_plugin10connectionEyPK14gcc_type_arrayi prime_tab 184
_Z26plugin_build_function_typePN10cc1_plugin10connectionEyPK14gcc_type_arrayi prime_tab 190
_Z26plugin_build_function_typePN10cc1_plugin10connectionEyPK14gcc_type_arrayi _Z25build_function_type_arrayP9tree_nodeiPS0_ 439
_Z26plugin_build_function_typePN10cc1_plugin10connectionEyPK14gcc_type_arrayi _ZN10hash_tableI15nofree_ptr_hashI9tree_nodeE11xcallocatorE6expandEv 469
_Z23plugin_build_union_typePN10cc1_plugin10connectionE prime_tab 74
_Z23plugin_build_union_typePN10cc1_plugin10connectionE prime_tab 80
_Z23plugin_build_union_typePN10cc1_plugin10connectionE prime_tab 87
_Z23plugin_build_union_typePN10cc1_plugin10connectionE prime_tab 93
_Z23plugin_build_union_typePN10cc1_plugin10connectionE _ZN10hash_tableI15nofree_ptr_hashI9tree_nodeE11xcallocatorE6expandEv 346
_Z24plugin_build_record_typePN10cc1_plugin10connectionE prime_tab 74
_Z24plugin_build_record_typePN10cc1_plugin10connectionE prime_tab 80
_Z24plugin_build_record_typePN10cc1_plugin10connectionE prime_tab 87
_Z24plugin_build_record_typePN10cc1_plugin10connectionE prime_tab 93
_Z24plugin_build_record_typePN10cc1_plugin10connectionE _ZN10hash_tableI15nofree_ptr_hashI9tree_nodeE11xcallocatorE6expandEv 346
_Z25plugin_build_complex_typePN10cc1_plugin10connectionEy _Z18build_complex_typeP9tree_nodeb 15
_Z25plugin_build_complex_typePN10cc1_plugin10connectionEy prime_tab 74
_Z25plugin_build_complex_typePN10cc1_plugin10connectionEy prime_tab 80
_Z25plugin_build_complex_typePN10cc1_plugin10connectionEy prime_tab 87
_Z25plugin_build_complex_typePN10cc1_plugin10connectionEy prime_tab 93
_Z25plugin_build_complex_typePN10cc1_plugin10connectionEy _ZN10hash_tableI15nofree_ptr_hashI9tree_nodeE11xcallocatorE6expandEv 346
_Z27plugin_build_vla_array_typePN10cc1_plugin10connectionEyPKc _Z14get_identifierPKc 18
_Z27plugin_build_vla_array_typePN10cc1_plugin10connectionEyPKc _Z11lookup_nameP9tree_node 26
_Z27plugin_build_vla_array_typePN10cc1_plugin10connectionEyPKc _Z13build_one_cstP9tree_node 38
_Z27plugin_build_vla_array_typePN10cc1_plugin10connectionEyPKc _Z20fold_build2_stat_locj9tree_codeP9tree_nodeS1_S1_ 61
_Z27plugin_build_vla_array_typePN10cc1_plugin10connectionEyPKc _Z24compute_array_index_typeP9tree_nodeS0_i 76
_Z27plugin_build_vla_array_typePN10cc1_plugin10connectionEyPKc _Z22build_cplus_array_typeP9tree_nodeS0_ 87
_Z27plugin_build_vla_array_typePN10cc1_plugin10connectionEyPKc prime_tab 146
_Z27plugin_build_vla_array_typePN10cc1_plugin10connectionEyPKc prime_tab 152
_Z27plugin_build_vla_array_typePN10cc1_plugin10connectionEyPKc prime_tab 159
_Z27plugin_build_vla_array_typePN10cc1_plugin10connectionEyPKc prime_tab 165
_Z27plugin_build_vla_array_typePN10cc1_plugin10connectionEyPKc _ZN10hash_tableI15nofree_ptr_hashI9tree_nodeE11xcallocatorE6expandEv 426
_Z23plugin_build_array_typePN10cc1_plugin10connectionEyi _Z22build_array_type_neltsP9tree_nodem 25
_Z23plugin_build_array_typePN10cc1_plugin10connectionEyi prime_tab 84
_Z23plugin_build_array_typePN10cc1_plugin10connectionEyi prime_tab 90
_Z23plugin_build_array_typePN10cc1_plugin10connectionEyi prime_tab 97
_Z23plugin_build_array_typePN10cc1_plugin10connectionEyi prime_tab 103
_Z23plugin_build_array_typePN10cc1_plugin10connectionEyi _ZN10hash_tableI15nofree_ptr_hashI9tree_nodeE11xcallocatorE6expandEv 362
_Z23plugin_build_array_typePN10cc1_plugin10connectionEyi _Z16build_array_typeP9tree_nodeS0_b 389
_ZL16plugin_int_checkPN10cc1_plugin10connectionEimP9tree_node prime_tab 138
_ZL16plugin_int_checkPN10cc1_plugin10connectionEimP9tree_node prime_tab 144
_ZL16plugin_int_checkPN10cc1_plugin10connectionEimP9tree_node prime_tab 151
_ZL16plugin_int_checkPN10cc1_plugin10connectionEimP9tree_node prime_tab 157
_ZL16plugin_int_checkPN10cc1_plugin10connectionEimP9tree_node _ZN10hash_tableI15nofree_ptr_hashI9tree_nodeE11xcallocatorE6expandEv 410
_ZL16plugin_int_checkPN10cc1_plugin10connectionEimP9tree_node global_trees 451
_ZL16plugin_int_checkPN10cc1_plugin10connectionEimP9tree_node _Z11fancy_abortPKciS0_ 478
_ZL16plugin_int_checkPN10cc1_plugin10connectionEimP9tree_node _Z11fancy_abortPKciS0_ 498
_ZL16plugin_int_checkPN10cc1_plugin10connectionEimP9tree_node _Z11fancy_abortPKciS0_ 518
_Z18plugin_int_type_v0PN10cc1_plugin10connectionEim _Z22c_common_type_for_sizeji 35
_Z15plugin_int_typePN10cc1_plugin10connectionEimPKc _Z11fancy_abortPKciS0_ 127
_Z15plugin_int_typePN10cc1_plugin10connectionEimPKc _Z18plugin_int_type_v0PN10cc1_plugin10connectionEim 107
_Z22plugin_build_enum_typePN10cc1_plugin10connectionEy global_trees 15
_Z22plugin_build_enum_typePN10cc1_plugin10connectionEy prime_tab 136
_Z22plugin_build_enum_typePN10cc1_plugin10connectionEy prime_tab 142
_Z22plugin_build_enum_typePN10cc1_plugin10connectionEy prime_tab 149
_Z22plugin_build_enum_typePN10cc1_plugin10connectionEy prime_tab 155
_Z22plugin_build_enum_typePN10cc1_plugin10connectionEy _ZN10hash_tableI15nofree_ptr_hashI9tree_nodeE11xcallocatorE6expandEv 410
T.897 _Z29hash_table_higher_prime_indexm 66
T.897 prime_tab 86
T.897 xcalloc 94
T.897 _Z11fancy_abortPKciS0_ 175
T.896 _Z29hash_table_higher_prime_indexm 66
T.896 prime_tab 86
T.896 xcalloc 94
T.896 _Z11fancy_abortPKciS0_ 175
_ZN14plugin_contextC2Ei _ZTVN10cc1_plugin10connectionE 34
_ZN14plugin_contextC2Ei _ZN10cc1_plugin9callbacksC1Ev 53
_ZN14plugin_contextC2Ei _ZTV14plugin_context 60
_ZN14plugin_contextC2Ei _ZN10cc1_plugin10connectionD2Ev 125
_ZN14plugin_contextC2Ei _Unwind_Resume 133
_ZN14plugin_contextC2Ei _ZN10hash_tableI15nofree_ptr_hashI9tree_nodeE11xcallocatorED1Ev 144
_ZN14plugin_contextC2Ei _ZN10hash_tableI16decl_addr_hasher11xcallocatorED1Ev 152
_ZN14plugin_contextC1Ei _ZTVN10cc1_plugin10connectionE 34
_ZN14plugin_contextC1Ei _ZN10cc1_plugin9callbacksC1Ev 53
_ZN14plugin_contextC1Ei _ZTV14plugin_context 60
_ZN14plugin_contextC1Ei _ZN10cc1_plugin10connectionD2Ev 125
_ZN14plugin_contextC1Ei _Unwind_Resume 133
_ZN14plugin_contextC1Ei _ZN10hash_tableI15nofree_ptr_hashI9tree_nodeE11xcallocatorED1Ev 144
_ZN14plugin_contextC1Ei _ZN10hash_tableI16decl_addr_hasher11xcallocatorED1Ev 152
plugin_init __errno_location 78
plugin_init strtol 104
plugin_init _Znwm 153
plugin_init _ZN14plugin_contextC1Ei 167
plugin_init _ZN10cc1_plugin10connection7requireEc 187
plugin_init input_location 200
plugin_init _Z11fatal_errorjPKcz 212
plugin_init _ZN10cc1_plugin18unmarshall_intlikeEPNS_10connectionEPy 235
plugin_init register_callback 270
plugin_init register_callback 290
plugin_init register_callback 310
plugin_init _ZN10cc1_plugin8callbackIiPKcXadL_Z21plugin_push_namespacePNS_10connectionES2_EEEENS_6statusES4_ 322
plugin_init lang_hooks 334
plugin_init _ZN10cc1_plugin9callbacks12add_callbackEPKcPFNS_6statusEPNS_10connectionEE 347
plugin_init _ZN10cc1_plugin8callbackIiyXadL_Z17plugin_push_classPNS_10connectionEyEEEENS_6statusES2_ 359
plugin_init _ZN10cc1_plugin9callbacks12add_callbackEPKcPFNS_6statusEPNS_10connectionEE 373
plugin_init _ZN10cc1_plugin8callbackIiyXadL_Z20plugin_push_functionPNS_10connectionEyEEEENS_6statusES2_ 385
plugin_init _ZN10cc1_plugin9callbacks12add_callbackEPKcPFNS_6statusEPNS_10connectionEE 399
plugin_init _ZN10cc1_plugin8callbackIiyyXadL_Z22plugin_reactivate_declPNS_10connectionEyyEEEENS_6statusES2_ 411
plugin_init _ZN10cc1_plugin9callbacks12add_callbackEPKcPFNS_6statusEPNS_10connectionEE 425
plugin_init _ZN10cc1_plugin8callbackIiXadL_Z24plugin_pop_binding_levelPNS_10connectionEEEEENS_6statusES2_ 437
plugin_init _ZN10cc1_plugin9callbacks12add_callbackEPKcPFNS_6statusEPNS_10connectionEE 451
plugin_init _ZN10cc1_plugin8callbackIyXadL_Z37plugin_get_current_binding_level_declPNS_10connectionEEEEENS_6statusES2_ 463
plugin_init _ZN10cc1_plugin9callbacks12add_callbackEPKcPFNS_6statusEPNS_10connectionEE 477
plugin_init _ZN10cc1_plugin8callbackIiXadL_Z28plugin_make_namespace_inlinePNS_10connectionEEEEENS_6statusES2_ 489
plugin_init _ZN10cc1_plugin9callbacks12add_callbackEPKcPFNS_6statusEPNS_10connectionEE 503
plugin_init _ZN10cc1_plugin8callbackIiyXadL_Z26plugin_add_using_namespacePNS_10connectionEyEEEENS_6statusES2_ 515
plugin_init _ZN10cc1_plugin9callbacks12add_callbackEPKcPFNS_6statusEPNS_10connectionEE 529
plugin_init _ZN10cc1_plugin8callbackIiPKcyXadL_Z26plugin_add_namespace_aliasPNS_10connectionES2_yEEEENS_6statusES4_ 541
plugin_init _ZN10cc1_plugin9callbacks12add_callbackEPKcPFNS_6statusEPNS_10connectionEE 555
plugin_init _ZN10cc1_plugin8callbackIi18gcc_cp_symbol_kindyXadL_Z21plugin_add_using_declPNS_10connectionES1_yEEEENS_6statusES3_ 567
plugin_init _ZN10cc1_plugin9callbacks12add_callbackEPKcPFNS_6statusEPNS_10connectionEE 581
plugin_init _ZN10cc1_plugin8callbackIyPKc18gcc_cp_symbol_kindyS2_yS2_jXadL_Z17plugin_build_declPNS_10connectionES2_S3_yS2_yS2_jEEEENS_6statusES5_ 593
plugin_init _ZN10cc1_plugin9callbacks12add_callbackEPKcPFNS_6statusEPNS_10connectionEE 607
plugin_init _ZN10cc1_plugin8callbackIyPKcyyXadL_Z25plugin_define_cdtor_clonePNS_10connectionES2_yyEEEENS_6statusES4_ 619
plugin_init _ZN10cc1_plugin9callbacks12add_callbackEPKcPFNS_6statusEPNS_10connectionEE 633
plugin_init _ZN10cc1_plugin8callbackIyyXadL_Z20plugin_get_decl_typePNS_10connectionEyEEEENS_6statusES2_ 645
plugin_init _ZN10cc1_plugin9callbacks12add_callbackEPKcPFNS_6statusEPNS_10connectionEE 659
plugin_init _ZN10cc1_plugin8callbackIyyXadL_Z20plugin_get_type_declPNS_10connectionEyEEEENS_6statusES2_ 671
plugin_init _ZN10cc1_plugin9callbacks12add_callbackEPKcPFNS_6statusEPNS_10connectionEE 685
plugin_init _ZN10cc1_plugin8callbackIiyyXadL_Z17plugin_add_friendPNS_10connectionEyyEEEENS_6statusES2_ 697
plugin_init _ZN10cc1_plugin9callbacks12add_callbackEPKcPFNS_6statusEPNS_10connectionEE 711
plugin_init _ZN10cc1_plugin8callbackIyyXadL_Z25plugin_build_pointer_typePNS_10connectionEyEEEENS_6statusES2_ 723
plugin_init _ZN10cc1_plugin9callbacks12add_callbackEPKcPFNS_6statusEPNS_10connectionEE 737
plugin_init _ZN10cc1_plugin8callbackIyy21gcc_cp_ref_qualifiersXadL_Z27plugin_build_reference_typePNS_10connectionEyS1_EEEENS_6statusES3_ 749
plugin_init _ZN10cc1_plugin9callbacks12add_callbackEPKcPFNS_6statusEPNS_10connectionEE 763
plugin_init _ZN10cc1_plugin8callbackIyyyXadL_Z35plugin_build_pointer_to_member_typePNS_10connectionEyyEEEENS_6statusES2_ 775
plugin_init _ZN10cc1_plugin9callbacks12add_callbackEPKcPFNS_6statusEPNS_10connectionEE 789
plugin_init _ZN10cc1_plugin8callbackIiXadL_Z26plugin_start_template_declPNS_10connectionEEEEENS_6statusES2_ 801
plugin_init _ZN10cc1_plugin9callbacks12add_callbackEPKcPFNS_6statusEPNS_10connectionEE 815
plugin_init _ZN10cc1_plugin8callbackIyPKciyS2_jXadL_Z36plugin_build_type_template_parameterPNS_10connectionES2_iyS2_jEEEENS_6statusES4_ 827
plugin_init _ZN10cc1_plugin9callbacks12add_callbackEPKcPFNS_6statusEPNS_10connectionEE 841
plugin_init _ZN10cc1_plugin8callbackIyPKciyS2_jXadL_Z40plugin_build_template_template_parameterPNS_10connectionES2_iyS2_jEEEENS_6statusES4_ 853
plugin_init _ZN10cc1_plugin9callbacks12add_callbackEPKcPFNS_6statusEPNS_10connectionEE 867
plugin_init _ZN10cc1_plugin8callbackIyyPKcyS2_jXadL_Z37plugin_build_value_template_parameterPNS_10connectionEyS2_yS2_jEEEENS_6statusES4_ 879
plugin_init _ZN10cc1_plugin9callbacks12add_callbackEPKcPFNS_6statusEPNS_10connectionEE 893
plugin_init _ZN10cc1_plugin8callbackIyyPKcPK20gcc_cp_template_argsXadL_Z31plugin_build_dependent_typenamePNS_10connectionEyS2_S5_EEEENS_6statusES7_ 905
plugin_init _ZN10cc1_plugin9callbacks12add_callbackEPKcPFNS_6statusEPNS_10connectionEE 919
plugin_init _ZN10cc1_plugin8callbackIyyPKcXadL_Z37plugin_build_dependent_class_templatePNS_10connectionEyS2_EEEENS_6statusES4_ 931
plugin_init _ZN10cc1_plugin9callbacks12add_callbackEPKcPFNS_6statusEPNS_10connectionEE 945
plugin_init _ZN10cc1_plugin8callbackIyyPK20gcc_cp_template_argsXadL_Z39plugin_build_dependent_type_template_idPNS_10connectionEyS3_EEEENS_6statusES5_ 957
plugin_init _ZN10cc1_plugin9callbacks12add_callbackEPKcPFNS_6statusEPNS_10connectionEE 971
plugin_init _ZN10cc1_plugin8callbackIyy18gcc_cp_symbol_kindPKcyPK20gcc_cp_template_argsXadL_Z27plugin_build_dependent_exprPNS_10connectionEyS1_S3_yS6_EEEENS_6statusES8_ 983
plugin_init _ZN10cc1_plugin9callbacks12add_callbackEPKcPFNS_6statusEPNS_10connectionEE 997
plugin_init _ZN10cc1_plugin8callbackIyymXadL_Z25plugin_build_literal_exprPNS_10connectionEymEEEENS_6statusES2_ 1009
plugin_init _ZN10cc1_plugin9callbacks12add_callbackEPKcPFNS_6statusEPNS_10connectionEE 1023
plugin_init _ZN10cc1_plugin8callbackIyyiXadL_Z22plugin_build_decl_exprPNS_10connectionEyiEEEENS_6statusES2_ 1035
plugin_init _ZN10cc1_plugin9callbacks12add_callbackEPKcPFNS_6statusEPNS_10connectionEE 1049
plugin_init _ZN10cc1_plugin8callbackIyPKcyXadL_Z23plugin_build_unary_exprPNS_10connectionES2_yEEEENS_6statusES4_ 1061
plugin_init _ZN10cc1_plugin9callbacks12add_callbackEPKcPFNS_6statusEPNS_10connectionEE 1075
plugin_init _ZN10cc1_plugin8callbackIyPKcyyXadL_Z24plugin_build_binary_exprPNS_10connectionES2_yyEEEENS_6statusES4_ 1087
plugin_init _ZN10cc1_plugin9callbacks12add_callbackEPKcPFNS_6statusEPNS_10connectionEE 1101
plugin_init _ZN10cc1_plugin8callbackIyPKcyyyXadL_Z25plugin_build_ternary_exprPNS_10connectionES2_yyyEEEENS_6statusES4_ 1113
plugin_init _ZN10cc1_plugin9callbacks12add_callbackEPKcPFNS_6statusEPNS_10connectionEE 1127
plugin_init _ZN10cc1_plugin8callbackIyPKcyXadL_Z28plugin_build_unary_type_exprPNS_10connectionES2_yEEEENS_6statusES4_ 1139
plugin_init _ZN10cc1_plugin9callbacks12add_callbackEPKcPFNS_6statusEPNS_10connectionEE 1153
plugin_init _ZN10cc1_plugin8callbackIyPKcyyXadL_Z22plugin_build_cast_exprPNS_10connectionES2_yyEEEENS_6statusES4_ 1165
plugin_init _ZN10cc1_plugin9callbacks12add_callbackEPKcPFNS_6statusEPNS_10connectionEE 1179
plugin_init _ZN10cc1_plugin8callbackIyPKcyPK20gcc_cp_function_argsXadL_Z33plugin_build_expression_list_exprPNS_10connectionES2_yS5_EEEENS_6statusES7_ 1191
plugin_init _ZN10cc1_plugin9callbacks12add_callbackEPKcPFNS_6statusEPNS_10connectionEE 1205
plugin_init _ZN10cc1_plugin8callbackIyPKcPK20gcc_cp_function_argsyS5_XadL_Z21plugin_build_new_exprPNS_10connectionES2_S5_yS5_EEEENS_6statusES7_ 1217
plugin_init _ZN10cc1_plugin9callbacks12add_callbackEPKcPFNS_6statusEPNS_10connectionEE 1231
plugin_init _ZN10cc1_plugin8callbackIyyiPK20gcc_cp_function_argsXadL_Z22plugin_build_call_exprPNS_10connectionEyiS3_EEEENS_6statusES5_ 1243
plugin_init _ZN10cc1_plugin9callbacks12add_callbackEPKcPFNS_6statusEPNS_10connectionEE 1257
plugin_init _ZN10cc1_plugin8callbackIyyXadL_Z20plugin_get_expr_typePNS_10connectionEyEEEENS_6statusES2_ 1269
plugin_init _ZN10cc1_plugin9callbacks12add_callbackEPKcPFNS_6statusEPNS_10connectionEE 1283
plugin_init _ZN10cc1_plugin8callbackIyyPK20gcc_cp_template_argsyPKcjXadL_Z45plugin_build_function_template_specializationPNS_10connectionEyS3_yS5_jEEEENS_6statusES7_ 1295
plugin_init _ZN10cc1_plugin9callbacks12add_callbackEPKcPFNS_6statusEPNS_10connectionEE 1309
plugin_init _ZN10cc1_plugin8callbackIyyPK20gcc_cp_template_argsPKcjXadL_Z42plugin_build_class_template_specializationPNS_10connectionEyS3_S5_jEEEENS_6statusES7_ 1321
plugin_init _ZN10cc1_plugin9callbacks12add_callbackEPKcPFNS_6statusEPNS_10connectionEE 1335
plugin_init _ZN10cc1_plugin8callbackIyyPK15gcc_vbase_arrayPKcjXadL_Z23plugin_start_class_typePNS_10connectionEyS3_S5_jEEEENS_6statusES7_ 1347
plugin_init _ZN10cc1_plugin9callbacks12add_callbackEPKcPFNS_6statusEPNS_10connectionEE 1361
plugin_init _ZN10cc1_plugin8callbackIyiy18gcc_cp_symbol_kindPKcjXadL_Z31plugin_start_closure_class_typePNS_10connectionEiyS1_S3_jEEEENS_6statusES5_ 1373
plugin_init _ZN10cc1_plugin9callbacks12add_callbackEPKcPFNS_6statusEPNS_10connectionEE 1387
plugin_init _ZN10cc1_plugin8callbackIyPKcy18gcc_cp_symbol_kindmmXadL_Z18plugin_build_fieldPNS_10connectionES2_yS3_mmEEEENS_6statusES5_ 1399
plugin_init _ZN10cc1_plugin9callbacks12add_callbackEPKcPFNS_6statusEPNS_10connectionEE 1413
plugin_init _ZN10cc1_plugin8callbackIimXadL_Z24plugin_finish_class_typePNS_10connectionEmEEEENS_6statusES2_ 1425
plugin_init _ZN10cc1_plugin9callbacks12add_callbackEPKcPFNS_6statusEPNS_10connectionEE 1439
plugin_init _ZN10cc1_plugin8callbackIyPKcy18gcc_cp_symbol_kindS2_jXadL_Z22plugin_start_enum_typePNS_10connectionES2_yS3_S2_jEEEENS_6statusES5_ 1451
plugin_init _ZN10cc1_plugin9callbacks12add_callbackEPKcPFNS_6statusEPNS_10connectionEE 1465
plugin_init _ZN10cc1_plugin8callbackIyyPKcmXadL_Z26plugin_build_enum_constantPNS_10connectionEyS2_mEEEENS_6statusES4_ 1477
plugin_init _ZN10cc1_plugin9callbacks12add_callbackEPKcPFNS_6statusEPNS_10connectionEE 1491
plugin_init _ZN10cc1_plugin8callbackIiyXadL_Z23plugin_finish_enum_typePNS_10connectionEyEEEENS_6statusES2_ 1503
plugin_init _ZN10cc1_plugin9callbacks12add_callbackEPKcPFNS_6statusEPNS_10connectionEE 1517
plugin_init _ZN10cc1_plugin8callbackIyyPK14gcc_type_arrayiXadL_Z26plugin_build_function_typePNS_10connectionEyS3_iEEEENS_6statusES5_ 1529
plugin_init _ZN10cc1_plugin9callbacks12add_callbackEPKcPFNS_6statusEPNS_10connectionEE 1543
plugin_init _ZN10cc1_plugin8callbackIyyPK14gcc_type_arrayXadL_Z35plugin_build_exception_spec_variantPNS_10connectionEyS3_EEEENS_6statusES5_ 1555
plugin_init _ZN10cc1_plugin9callbacks12add_callbackEPKcPFNS_6statusEPNS_10connectionEE 1569
plugin_init _ZN10cc1_plugin8callbackIyyy17gcc_cp_qualifiers21gcc_cp_ref_qualifiersXadL_Z24plugin_build_method_typePNS_10connectionEyyS1_S2_EEEENS_6statusES4_ 1581
plugin_init _ZN10cc1_plugin9callbacks12add_callbackEPKcPFNS_6statusEPNS_10connectionEE 1595
plugin_init _ZN10cc1_plugin8callbackIyyiXadL_Z34plugin_get_function_parameter_declPNS_10connectionEyiEEEENS_6statusES2_ 1607
plugin_init _ZN10cc1_plugin9callbacks12add_callbackEPKcPFNS_6statusEPNS_10connectionEE 1621
plugin_init _ZN10cc1_plugin8callbackIyyXadL_Z24plugin_build_lambda_exprPNS_10connectionEyEEEENS_6statusES2_ 1633
plugin_init _ZN10cc1_plugin9callbacks12add_callbackEPKcPFNS_6statusEPNS_10connectionEE 1647
plugin_init _ZN10cc1_plugin8callbackIyimPKcXadL_Z19plugin_get_int_typePNS_10connectionEimS2_EEEENS_6statusES4_ 1659
plugin_init _ZN10cc1_plugin9callbacks12add_callbackEPKcPFNS_6statusEPNS_10connectionEE 1673
plugin_init _ZN10cc1_plugin8callbackIyXadL_Z20plugin_get_char_typePNS_10connectionEEEEENS_6statusES2_ 1685
plugin_init _ZN10cc1_plugin9callbacks12add_callbackEPKcPFNS_6statusEPNS_10connectionEE 1699
plugin_init _ZN10cc1_plugin8callbackIymPKcXadL_Z21plugin_get_float_typePNS_10connectionEmS2_EEEENS_6statusES4_ 1711
plugin_init _ZN10cc1_plugin9callbacks12add_callbackEPKcPFNS_6statusEPNS_10connectionEE 1725
plugin_init _ZN10cc1_plugin8callbackIyXadL_Z20plugin_get_void_typePNS_10connectionEEEEENS_6statusES2_ 1737
plugin_init _ZN10cc1_plugin9callbacks12add_callbackEPKcPFNS_6statusEPNS_10connectionEE 1751
plugin_init _ZN10cc1_plugin8callbackIyXadL_Z20plugin_get_bool_typePNS_10connectionEEEEENS_6statusES2_ 1763
plugin_init _ZN10cc1_plugin9callbacks12add_callbackEPKcPFNS_6statusEPNS_10connectionEE 1777
plugin_init _ZN10cc1_plugin8callbackIyXadL_Z23plugin_get_nullptr_typePNS_10connectionEEEEENS_6statusES2_ 1789
plugin_init _ZN10cc1_plugin9callbacks12add_callbackEPKcPFNS_6statusEPNS_10connectionEE 1803
plugin_init _ZN10cc1_plugin8callbackIyXadL_Z27plugin_get_nullptr_constantPNS_10connectionEEEEENS_6statusES2_ 1815
plugin_init _ZN10cc1_plugin9callbacks12add_callbackEPKcPFNS_6statusEPNS_10connectionEE 1829
plugin_init _ZN10cc1_plugin8callbackIyyiXadL_Z23plugin_build_array_typePNS_10connectionEyiEEEENS_6statusES2_ 1841
plugin_init _ZN10cc1_plugin9callbacks12add_callbackEPKcPFNS_6statusEPNS_10connectionEE 1855
plugin_init _ZN10cc1_plugin8callbackIyyyXadL_Z33plugin_build_dependent_array_typePNS_10connectionEyyEEEENS_6statusES2_ 1867
plugin_init _ZN10cc1_plugin9callbacks12add_callbackEPKcPFNS_6statusEPNS_10connectionEE 1881
plugin_init _ZN10cc1_plugin8callbackIyyPKcXadL_Z27plugin_build_vla_array_typePNS_10connectionEyS2_EEEENS_6statusES4_ 1893
plugin_init _ZN10cc1_plugin9callbacks12add_callbackEPKcPFNS_6statusEPNS_10connectionEE 1907
plugin_init _ZN10cc1_plugin8callbackIyy17gcc_cp_qualifiersXadL_Z27plugin_build_qualified_typePNS_10connectionEyS1_EEEENS_6statusES3_ 1919
plugin_init _ZN10cc1_plugin9callbacks12add_callbackEPKcPFNS_6statusEPNS_10connectionEE 1933
plugin_init _ZN10cc1_plugin8callbackIyyXadL_Z25plugin_build_complex_typePNS_10connectionEyEEEENS_6statusES2_ 1945
plugin_init _ZN10cc1_plugin9callbacks12add_callbackEPKcPFNS_6statusEPNS_10connectionEE 1959
plugin_init _ZN10cc1_plugin8callbackIyyiXadL_Z24plugin_build_vector_typePNS_10connectionEyiEEEENS_6statusES2_ 1971
plugin_init _ZN10cc1_plugin9callbacks12add_callbackEPKcPFNS_6statusEPNS_10connectionEE 1985
plugin_init _ZN10cc1_plugin8callbackIiyPKcmS2_jXadL_Z21plugin_build_constantPNS_10connectionEyS2_mS2_jEEEENS_6statusES4_ 1997
plugin_init _ZN10cc1_plugin9callbacks12add_callbackEPKcPFNS_6statusEPNS_10connectionEE 2011
plugin_init _ZN10cc1_plugin8callbackIyPKcXadL_Z12plugin_errorPNS_10connectionES2_EEEENS_6statusES4_ 2023
plugin_init _ZN10cc1_plugin9callbacks12add_callbackEPKcPFNS_6statusEPNS_10connectionEE 2037
plugin_init _ZN10cc1_plugin8callbackIiyPKcS2_jXadL_Z24plugin_add_static_assertPNS_10connectionEyS2_S2_jEEEENS_6statusES4_ 2049
plugin_init _ZN10cc1_plugin9callbacks12add_callbackEPKcPFNS_6statusEPNS_10connectionEE 2063
plugin_init input_location 2085
plugin_init _Z11fatal_errorjPKcz 2097
plugin_init input_location 2106
plugin_init _Z11fatal_errorjPKcz 2118
plugin_init input_location 2127
plugin_init _Z11fatal_errorjPKcz 2139
plugin_init _ZdlPv 2150
plugin_init _Unwind_Resume 2158
_ZN8hash_mapIPKv14mem_usage_pairI9mem_usageE21simple_hashmap_traitsI19default_hash_traitsIS1_ES4_EE3getERKS1_ prime_tab 39
_ZN8hash_mapIPKv14mem_usage_pairI9mem_usageE21simple_hashmap_traitsI19default_hash_traitsIS1_ES4_EE3getERKS1_ prime_tab 48
_ZN8hash_mapIPKv14mem_usage_pairI9mem_usageE21simple_hashmap_traitsI19default_hash_traitsIS1_ES4_EE3getERKS1_ prime_tab 55
_ZN8hash_mapIPKv14mem_usage_pairI9mem_usageE21simple_hashmap_traitsI19default_hash_traitsIS1_ES4_EE3getERKS1_ prime_tab 132
_ZN10cc1_plugin8callbackIyXadL_Z16plugin_char_typePNS_10connectionEEEEENS_6statusES2_ _ZN10cc1_plugin16unmarshall_checkEPNS_10connectionEy 20
_ZN10cc1_plugin8callbackIyXadL_Z16plugin_char_typePNS_10connectionEEEEENS_6statusES2_ integer_types 59
_ZN10cc1_plugin8callbackIyXadL_Z16plugin_char_typePNS_10connectionEEEEENS_6statusES2_ _ZN10cc1_plugin10connection4sendEc 64
_ZN10cc1_plugin8callbackIyXadL_Z16plugin_char_typePNS_10connectionEEEEENS_6statusES2_ _ZN10cc1_plugin16marshall_intlikeEPNS_10connectionEy 93
_ZN10cc1_plugin8callbackIyXadL_Z16plugin_bool_typePNS_10connectionEEEEENS_6statusES2_ _ZN10cc1_plugin16unmarshall_checkEPNS_10connectionEy 20
_ZN10cc1_plugin8callbackIyXadL_Z16plugin_bool_typePNS_10connectionEEEEENS_6statusES2_ global_trees 59
_ZN10cc1_plugin8callbackIyXadL_Z16plugin_bool_typePNS_10connectionEEEEENS_6statusES2_ _ZN10cc1_plugin10connection4sendEc 64
_ZN10cc1_plugin8callbackIyXadL_Z16plugin_bool_typePNS_10connectionEEEEENS_6statusES2_ _ZN10cc1_plugin16marshall_intlikeEPNS_10connectionEy 93
_ZN10cc1_plugin8callbackIyXadL_Z16plugin_void_typePNS_10connectionEEEEENS_6statusES2_ _ZN10cc1_plugin16unmarshall_checkEPNS_10connectionEy 20
_ZN10cc1_plugin8callbackIyXadL_Z16plugin_void_typePNS_10connectionEEEEENS_6statusES2_ global_trees 59
_ZN10cc1_plugin8callbackIyXadL_Z16plugin_void_typePNS_10connectionEEEEENS_6statusES2_ _ZN10cc1_plugin10connection4sendEc 64
_ZN10cc1_plugin8callbackIyXadL_Z16plugin_void_typePNS_10connectionEEEEENS_6statusES2_ _ZN10cc1_plugin16marshall_intlikeEPNS_10connectionEy 93
_ZN10cc1_plugin16argument_wrapperIPKcED1Ev _ZdaPv 9
_ZN21simple_hashmap_traitsI19default_hash_traitsIN21mem_alloc_descriptionI9mem_usageE17mem_location_hashEEPS2_E4hashERKP12mem_location iterative_hash 33
_ZN21simple_hashmap_traitsI19default_hash_traitsIN21mem_alloc_descriptionI9mem_usageE17mem_location_hashEEPS2_E4hashERKP12mem_location iterative_hash 57
_ZN10cc1_plugin8callbackIymXadL_Z20plugin_float_type_v0PNS_10connectionEmEEEENS_6statusES2_ _ZN10cc1_plugin16unmarshall_checkEPNS_10connectionEy 23
_ZN10cc1_plugin8callbackIymXadL_Z20plugin_float_type_v0PNS_10connectionEmEEEENS_6statusES2_ _ZN10cc1_plugin18unmarshall_intlikeEPNS_10connectionEPy 57
_ZN10cc1_plugin8callbackIymXadL_Z20plugin_float_type_v0PNS_10connectionEmEEEENS_6statusES2_ global_trees 68
_ZN10cc1_plugin8callbackIymXadL_Z20plugin_float_type_v0PNS_10connectionEmEEEENS_6statusES2_ global_trees 99
_ZN10cc1_plugin8callbackIymXadL_Z20plugin_float_type_v0PNS_10connectionEmEEEENS_6statusES2_ global_trees 121
_ZN10cc1_plugin8callbackIymXadL_Z20plugin_float_type_v0PNS_10connectionEmEEEENS_6statusES2_ global_trees 142
_ZN10cc1_plugin8callbackIymXadL_Z20plugin_float_type_v0PNS_10connectionEmEEEENS_6statusES2_ _ZN10cc1_plugin10connection4sendEc 155
_ZN10cc1_plugin8callbackIymXadL_Z20plugin_float_type_v0PNS_10connectionEmEEEENS_6statusES2_ _ZN10cc1_plugin16marshall_intlikeEPNS_10connectionEy 174
_ZN10cc1_plugin8callbackIymXadL_Z20plugin_float_type_v0PNS_10connectionEmEEEENS_6statusES2_ _Unwind_Resume 187
_ZN10cc1_plugin8callbackIyPKcXadL_Z12plugin_errorPNS_10connectionES2_EEEENS_6statusES4_ _ZN10cc1_plugin16unmarshall_checkEPNS_10connectionEy 36
_ZN10cc1_plugin8callbackIyPKcXadL_Z12plugin_errorPNS_10connectionES2_EEEENS_6statusES4_ _ZN10cc1_plugin10unmarshallEPNS_10connectionEPPc 51
_ZN10cc1_plugin8callbackIyPKcXadL_Z12plugin_errorPNS_10connectionES2_EEEENS_6statusES4_ _ZdaPv 71
_ZN10cc1_plugin8callbackIyPKcXadL_Z12plugin_errorPNS_10connectionES2_EEEENS_6statusES4_ _Z5errorPKcz 116
_ZN10cc1_plugin8callbackIyPKcXadL_Z12plugin_errorPNS_10connectionES2_EEEENS_6statusES4_ global_trees 131
_ZN10cc1_plugin8callbackIyPKcXadL_Z12plugin_errorPNS_10connectionES2_EEEENS_6statusES4_ _ZN10cc1_plugin10connection4sendEc 136
_ZN10cc1_plugin8callbackIyPKcXadL_Z12plugin_errorPNS_10connectionES2_EEEENS_6statusES4_ _ZN10cc1_plugin16marshall_intlikeEPNS_10connectionEy 151
_ZN10cc1_plugin8callbackIyPKcXadL_Z12plugin_errorPNS_10connectionES2_EEEENS_6statusES4_ _ZN10cc1_plugin16argument_wrapperIPKcED1Ev 166
_ZN10cc1_plugin8callbackIyPKcXadL_Z12plugin_errorPNS_10connectionES2_EEEENS_6statusES4_ _Unwind_Resume 174
_ZN10cc1_plugin8callbackIymPKcXadL_Z17plugin_float_typePNS_10connectionEmS2_EEEENS_6statusES4_ _ZN10cc1_plugin16unmarshall_checkEPNS_10connectionEy 42
_ZN10cc1_plugin8callbackIymPKcXadL_Z17plugin_float_typePNS_10connectionEmS2_EEEENS_6statusES4_ _ZN10cc1_plugin18unmarshall_intlikeEPNS_10connectionEPy 64
_ZN10cc1_plugin8callbackIymPKcXadL_Z17plugin_float_typePNS_10connectionEmS2_EEEENS_6statusES4_ _ZN10cc1_plugin10unmarshallEPNS_10connectionEPPc 89
_ZN10cc1_plugin8callbackIymPKcXadL_Z17plugin_float_typePNS_10connectionEmS2_EEEENS_6statusES4_ _ZdaPv 110
_ZN10cc1_plugin8callbackIymPKcXadL_Z17plugin_float_typePNS_10connectionEmS2_EEEENS_6statusES4_ _Z17plugin_float_typePN10cc1_plugin10connectionEmPKc 156
_ZN10cc1_plugin8callbackIymPKcXadL_Z17plugin_float_typePNS_10connectionEmS2_EEEENS_6statusES4_ _ZN10cc1_plugin10connection4sendEc 172
_ZN10cc1_plugin8callbackIymPKcXadL_Z17plugin_float_typePNS_10connectionEmS2_EEEENS_6statusES4_ _ZN10cc1_plugin16marshall_intlikeEPNS_10connectionEy 187
_ZN10cc1_plugin8callbackIymPKcXadL_Z17plugin_float_typePNS_10connectionEmS2_EEEENS_6statusES4_ _ZN10cc1_plugin16argument_wrapperIPKcED1Ev 202
_ZN10cc1_plugin8callbackIymPKcXadL_Z17plugin_float_typePNS_10connectionEmS2_EEEENS_6statusES4_ _Unwind_Resume 210
_ZN10cc1_plugin8callbackIiyiXadL_Z11plugin_bindPNS_10connectionEyiEEEENS_6statusES2_ _ZN10cc1_plugin16unmarshall_checkEPNS_10connectionEy 28
_ZN10cc1_plugin8callbackIiyiXadL_Z11plugin_bindPNS_10connectionEyiEEEENS_6statusES2_ _ZN10cc1_plugin18unmarshall_intlikeEPNS_10connectionEPy 76
_ZN10cc1_plugin8callbackIiyiXadL_Z11plugin_bindPNS_10connectionEyiEEEENS_6statusES2_ _ZN10cc1_plugin18unmarshall_intlikeEPNS_10connectionEPy 96
_ZN10cc1_plugin8callbackIiyiXadL_Z11plugin_bindPNS_10connectionEyiEEEENS_6statusES2_ _Z11plugin_bindPN10cc1_plugin10connectionEyi 115
_ZN10cc1_plugin8callbackIiyiXadL_Z11plugin_bindPNS_10connectionEyiEEEENS_6statusES2_ _ZN10cc1_plugin10connection4sendEc 130
_ZN10cc1_plugin8callbackIiyiXadL_Z11plugin_bindPNS_10connectionEyiEEEENS_6statusES2_ _ZN10cc1_plugin16marshall_intlikeEPNS_10connectionEy 145
_ZN10cc1_plugin8callbackIiyiXadL_Z11plugin_bindPNS_10connectionEyiEEEENS_6statusES2_ _Unwind_Resume 155
_ZN10cc1_plugin8callbackIyy14gcc_qualifiersXadL_Z27plugin_build_qualified_typePNS_10connectionEyS1_EEEENS_6statusES3_ _ZN10cc1_plugin16unmarshall_checkEPNS_10connectionEy 23
_ZN10cc1_plugin8callbackIyy14gcc_qualifiersXadL_Z27plugin_build_qualified_typePNS_10connectionEyS1_EEEENS_6statusES3_ _ZN10cc1_plugin18unmarshall_intlikeEPNS_10connectionEPy 57
_ZN10cc1_plugin8callbackIyy14gcc_qualifiersXadL_Z27plugin_build_qualified_typePNS_10connectionEyS1_EEEENS_6statusES3_ _ZN10cc1_plugin10unmarshallEPNS_10connectionEP14gcc_qualifiers 79
_ZN10cc1_plugin8callbackIyy14gcc_qualifiersXadL_Z27plugin_build_qualified_typePNS_10connectionEyS1_EEEENS_6statusES3_ _Z27plugin_build_qualified_typePN10cc1_plugin10connectionEy14gcc_qualifiers 98
_ZN10cc1_plugin8callbackIyy14gcc_qualifiersXadL_Z27plugin_build_qualified_typePNS_10connectionEyS1_EEEENS_6statusES3_ _ZN10cc1_plugin10connection4sendEc 114
_ZN10cc1_plugin8callbackIyy14gcc_qualifiersXadL_Z27plugin_build_qualified_typePNS_10connectionEyS1_EEEENS_6statusES3_ _ZN10cc1_plugin16marshall_intlikeEPNS_10connectionEy 129
_ZN10cc1_plugin8callbackIyy14gcc_qualifiersXadL_Z27plugin_build_qualified_typePNS_10connectionEyS1_EEEENS_6statusES3_ _Unwind_Resume 139
_ZN10cc1_plugin8callbackIyyXadL_Z25plugin_build_pointer_typePNS_10connectionEyEEEENS_6statusES2_ _ZN10cc1_plugin16unmarshall_checkEPNS_10connectionEy 23
_ZN10cc1_plugin8callbackIyyXadL_Z25plugin_build_pointer_typePNS_10connectionEyEEEENS_6statusES2_ _ZN10cc1_plugin18unmarshall_intlikeEPNS_10connectionEPy 57
_ZN10cc1_plugin8callbackIyyXadL_Z25plugin_build_pointer_typePNS_10connectionEyEEEENS_6statusES2_ _Z18build_pointer_typeP9tree_node 71
_ZN10cc1_plugin8callbackIyyXadL_Z25plugin_build_pointer_typePNS_10connectionEyEEEENS_6statusES2_ _ZN10cc1_plugin10connection4sendEc 87
_ZN10cc1_plugin8callbackIyyXadL_Z25plugin_build_pointer_typePNS_10connectionEyEEEENS_6statusES2_ _ZN10cc1_plugin16marshall_intlikeEPNS_10connectionEy 102
_ZN10cc1_plugin8callbackIyyXadL_Z25plugin_build_pointer_typePNS_10connectionEyEEEENS_6statusES2_ _Unwind_Resume 112
_ZN10cc1_plugin8callbackIiyXadL_Z23plugin_finish_enum_typePNS_10connectionEyEEEENS_6statusES2_ _ZN10cc1_plugin16unmarshall_checkEPNS_10connectionEy 23
_ZN10cc1_plugin8callbackIiyXadL_Z23plugin_finish_enum_typePNS_10connectionEyEEEENS_6statusES2_ _ZN10cc1_plugin18unmarshall_intlikeEPNS_10connectionEPy 57
_ZN10cc1_plugin8callbackIiyXadL_Z23plugin_finish_enum_typePNS_10connectionEyEEEENS_6statusES2_ _Z23plugin_finish_enum_typePN10cc1_plugin10connectionEy 74
_ZN10cc1_plugin8callbackIiyXadL_Z23plugin_finish_enum_typePNS_10connectionEyEEEENS_6statusES2_ _ZN10cc1_plugin10connection4sendEc 89
_ZN10cc1_plugin8callbackIiyXadL_Z23plugin_finish_enum_typePNS_10connectionEyEEEENS_6statusES2_ _ZN10cc1_plugin16marshall_intlikeEPNS_10connectionEy 104
_ZN10cc1_plugin8callbackIiyXadL_Z23plugin_finish_enum_typePNS_10connectionEyEEEENS_6statusES2_ _Unwind_Resume 114
_ZN10cc1_plugin8callbackIiymXadL_Z29plugin_finish_record_or_unionPNS_10connectionEymEEEENS_6statusES2_ _ZN10cc1_plugin16unmarshall_checkEPNS_10connectionEy 28
_ZN10cc1_plugin8callbackIiymXadL_Z29plugin_finish_record_or_unionPNS_10connectionEymEEEENS_6statusES2_ _ZN10cc1_plugin18unmarshall_intlikeEPNS_10connectionEPy 76
_ZN10cc1_plugin8callbackIiymXadL_Z29plugin_finish_record_or_unionPNS_10connectionEymEEEENS_6statusES2_ _ZN10cc1_plugin18unmarshall_intlikeEPNS_10connectionEPy 96
_ZN10cc1_plugin8callbackIiymXadL_Z29plugin_finish_record_or_unionPNS_10connectionEymEEEENS_6statusES2_ _Z29plugin_finish_record_or_unionPN10cc1_plugin10connectionEym 116
_ZN10cc1_plugin8callbackIiymXadL_Z29plugin_finish_record_or_unionPNS_10connectionEymEEEENS_6statusES2_ _ZN10cc1_plugin10connection4sendEc 131
_ZN10cc1_plugin8callbackIiymXadL_Z29plugin_finish_record_or_unionPNS_10connectionEymEEEENS_6statusES2_ _ZN10cc1_plugin16marshall_intlikeEPNS_10connectionEy 146
_ZN10cc1_plugin8callbackIiymXadL_Z29plugin_finish_record_or_unionPNS_10connectionEymEEEENS_6statusES2_ _Unwind_Resume 156
_ZN10cc1_plugin8callbackIiyPKcmXadL_Z30plugin_build_add_enum_constantPNS_10connectionEyS2_mEEEENS_6statusES4_ _ZN10cc1_plugin16unmarshall_checkEPNS_10connectionEy 47
_ZN10cc1_plugin8callbackIiyPKcmXadL_Z30plugin_build_add_enum_constantPNS_10connectionEyS2_mEEEENS_6statusES4_ _ZN10cc1_plugin18unmarshall_intlikeEPNS_10connectionEPy 72
_ZN10cc1_plugin8callbackIiyPKcmXadL_Z30plugin_build_add_enum_constantPNS_10connectionEyS2_mEEEENS_6statusES4_ _ZN10cc1_plugin10unmarshallEPNS_10connectionEPPc 97
_ZN10cc1_plugin8callbackIiyPKcmXadL_Z30plugin_build_add_enum_constantPNS_10connectionEyS2_mEEEENS_6statusES4_ _ZdaPv 118
_ZN10cc1_plugin8callbackIiyPKcmXadL_Z30plugin_build_add_enum_constantPNS_10connectionEyS2_mEEEENS_6statusES4_ _ZN10cc1_plugin18unmarshall_intlikeEPNS_10connectionEPy 159
_ZN10cc1_plugin8callbackIiyPKcmXadL_Z30plugin_build_add_enum_constantPNS_10connectionEyS2_mEEEENS_6statusES4_ _Z30plugin_build_add_enum_constantPN10cc1_plugin10connectionEyPKcm 184
_ZN10cc1_plugin8callbackIiyPKcmXadL_Z30plugin_build_add_enum_constantPNS_10connectionEyS2_mEEEENS_6statusES4_ _ZN10cc1_plugin10connection4sendEc 200
_ZN10cc1_plugin8callbackIiyPKcmXadL_Z30plugin_build_add_enum_constantPNS_10connectionEyS2_mEEEENS_6statusES4_ _ZN10cc1_plugin16marshall_intlikeEPNS_10connectionEy 215
_ZN10cc1_plugin8callbackIiyPKcmXadL_Z30plugin_build_add_enum_constantPNS_10connectionEyS2_mEEEENS_6statusES4_ _ZN10cc1_plugin16argument_wrapperIPKcED1Ev 230
_ZN10cc1_plugin8callbackIiyPKcmXadL_Z30plugin_build_add_enum_constantPNS_10connectionEyS2_mEEEENS_6statusES4_ _Unwind_Resume 238
_ZN10hash_tableIN8hash_mapIPKv14mem_usage_pairI9mem_usageE21simple_hashmap_traitsI19default_hash_traitsIS2_ES5_EE10hash_entryE11xcallocatorE6expandEv _Z29hash_table_higher_prime_indexm 64
_ZN10hash_tableIN8hash_mapIPKv14mem_usage_pairI9mem_usageE21simple_hashmap_traitsI19default_hash_traitsIS2_ES5_EE10hash_entryE11xcallocatorE6expandEv prime_tab 79
_ZN10hash_tableIN8hash_mapIPKv14mem_usage_pairI9mem_usageE21simple_hashmap_traitsI19default_hash_traitsIS2_ES5_EE10hash_entryE11xcallocatorE6expandEv xcalloc 112
_ZN10hash_tableIN8hash_mapIPKv14mem_usage_pairI9mem_usageE21simple_hashmap_traitsI19default_hash_traitsIS2_ES5_EE10hash_entryE11xcallocatorE6expandEv prime_tab 252
_ZN10hash_tableIN8hash_mapIPKv14mem_usage_pairI9mem_usageE21simple_hashmap_traitsI19default_hash_traitsIS2_ES5_EE10hash_entryE11xcallocatorE6expandEv prime_tab 258
_ZN10hash_tableIN8hash_mapIPKv14mem_usage_pairI9mem_usageE21simple_hashmap_traitsI19default_hash_traitsIS2_ES5_EE10hash_entryE11xcallocatorE6expandEv prime_tab 265
_ZN10hash_tableIN8hash_mapIPKv14mem_usage_pairI9mem_usageE21simple_hashmap_traitsI19default_hash_traitsIS2_ES5_EE10hash_entryE11xcallocatorE6expandEv prime_tab 321
_ZN10hash_tableIN8hash_mapIPKv14mem_usage_pairI9mem_usageE21simple_hashmap_traitsI19default_hash_traitsIS2_ES5_EE10hash_entryE11xcallocatorE6expandEv _Z26ggc_internal_cleared_allocmPFvPvEmm 480
_ZN10hash_tableIN8hash_mapIPKv14mem_usage_pairI9mem_usageE21simple_hashmap_traitsI19default_hash_traitsIS2_ES5_EE10hash_entryE11xcallocatorE6expandEv hash_table_usage 539
_ZN10hash_tableIN8hash_mapIPKv14mem_usage_pairI9mem_usageE21simple_hashmap_traitsI19default_hash_traitsIS2_ES5_EE10hash_entryE11xcallocatorE6expandEv prime_tab 571
_ZN10hash_tableIN8hash_mapIPKv14mem_usage_pairI9mem_usageE21simple_hashmap_traitsI19default_hash_traitsIS2_ES5_EE10hash_entryE11xcallocatorE6expandEv prime_tab 577
_ZN10hash_tableIN8hash_mapIPKv14mem_usage_pairI9mem_usageE21simple_hashmap_traitsI19default_hash_traitsIS2_ES5_EE10hash_entryE11xcallocatorE6expandEv prime_tab 583
_ZN10hash_tableIN8hash_mapIPKv14mem_usage_pairI9mem_usageE21simple_hashmap_traitsI19default_hash_traitsIS2_ES5_EE10hash_entryE11xcallocatorE6expandEv prime_tab 681
_ZN10hash_tableIN8hash_mapIPKv14mem_usage_pairI9mem_usageE21simple_hashmap_traitsI19default_hash_traitsIS2_ES5_EE10hash_entryE11xcallocatorE6expandEv hash_table_usage 867
_ZN10hash_tableIN8hash_mapIPKv14mem_usage_pairI9mem_usageE21simple_hashmap_traitsI19default_hash_traitsIS2_ES5_EE10hash_entryE11xcallocatorE6expandEv prime_tab 904
_ZN10hash_tableIN8hash_mapIPKv14mem_usage_pairI9mem_usageE21simple_hashmap_traitsI19default_hash_traitsIS2_ES5_EE10hash_entryE11xcallocatorE6expandEv prime_tab 910
_ZN10hash_tableIN8hash_mapIPKv14mem_usage_pairI9mem_usageE21simple_hashmap_traitsI19default_hash_traitsIS2_ES5_EE10hash_entryE11xcallocatorE6expandEv prime_tab 916
_ZN10hash_tableIN8hash_mapIPKv14mem_usage_pairI9mem_usageE21simple_hashmap_traitsI19default_hash_traitsIS2_ES5_EE10hash_entryE11xcallocatorE6expandEv prime_tab 1021
_ZN10hash_tableIN8hash_mapIPKv14mem_usage_pairI9mem_usageE21simple_hashmap_traitsI19default_hash_traitsIS2_ES5_EE10hash_entryE11xcallocatorE6expandEv _Z11fancy_abortPKciS0_ 1173
_ZN10hash_tableIN8hash_mapIPKv14mem_usage_pairI9mem_usageE21simple_hashmap_traitsI19default_hash_traitsIS2_ES5_EE10hash_entryE11xcallocatorE6expandEv _Z11fancy_abortPKciS0_ 1193
_ZN10hash_tableIN8hash_mapIPKv14mem_usage_pairI9mem_usageE21simple_hashmap_traitsI19default_hash_traitsIS2_ES5_EE10hash_entryE11xcallocatorE6expandEv _Z8ggc_freePv 459
_ZN10hash_tableIN8hash_mapIPKv14mem_usage_pairI9mem_usageE21simple_hashmap_traitsI19default_hash_traitsIS2_ES5_EE10hash_entryE11xcallocatorE6expandEv free 850
_ZN10hash_tableIN8hash_mapIPKv14mem_usage_pairI9mem_usageE21simple_hashmap_traitsI19default_hash_traitsIS2_ES5_EE10hash_entryE11xcallocatorE19find_slot_with_hashERKS2_j13insert_option prime_tab 48
_ZN10hash_tableIN8hash_mapIPKv14mem_usage_pairI9mem_usageE21simple_hashmap_traitsI19default_hash_traitsIS2_ES5_EE10hash_entryE11xcallocatorE19find_slot_with_hashERKS2_j13insert_option prime_tab 54
_ZN10hash_tableIN8hash_mapIPKv14mem_usage_pairI9mem_usageE21simple_hashmap_traitsI19default_hash_traitsIS2_ES5_EE10hash_entryE11xcallocatorE19find_slot_with_hashERKS2_j13insert_option prime_tab 61
_ZN10hash_tableIN8hash_mapIPKv14mem_usage_pairI9mem_usageE21simple_hashmap_traitsI19default_hash_traitsIS2_ES5_EE10hash_entryE11xcallocatorE19find_slot_with_hashERKS2_j13insert_option prime_tab 67
_ZN10hash_tableIN8hash_mapIPKv14mem_usage_pairI9mem_usageE21simple_hashmap_traitsI19default_hash_traitsIS2_ES5_EE10hash_entryE11xcallocatorE19find_slot_with_hashERKS2_j13insert_option _ZN10hash_tableIN8hash_mapIPKv14mem_usage_pairI9mem_usageE21simple_hashmap_traitsI19default_hash_traitsIS2_ES5_EE10hash_entryE11xcallocatorE6expandEv 346
_ZN10hash_tableI13string_hasher11xcallocatorE6expandEv _Z29hash_table_higher_prime_indexm 63
_ZN10hash_tableI13string_hasher11xcallocatorE6expandEv prime_tab 78
_ZN10hash_tableI13string_hasher11xcallocatorE6expandEv xcalloc 111
_ZN10hash_tableI13string_hasher11xcallocatorE6expandEv htab_hash_string 224
_ZN10hash_tableI13string_hasher11xcallocatorE6expandEv prime_tab 245
_ZN10hash_tableI13string_hasher11xcallocatorE6expandEv prime_tab 251
_ZN10hash_tableI13string_hasher11xcallocatorE6expandEv prime_tab 258
_ZN10hash_tableI13string_hasher11xcallocatorE6expandEv prime_tab 307
_ZN10hash_tableI13string_hasher11xcallocatorE6expandEv _Z8ggc_freePv 409
_ZN10hash_tableI13string_hasher11xcallocatorE6expandEv _Z26ggc_internal_cleared_allocmPFvPvEmm 447
_ZN10hash_tableI13string_hasher11xcallocatorE6expandEv hash_table_usage 507
_ZN10hash_tableI13string_hasher11xcallocatorE6expandEv _ZN8hash_mapIPKv14mem_usage_pairI9mem_usageE21simple_hashmap_traitsI19default_hash_traitsIS1_ES4_EE3getERKS1_ 522
_ZN10hash_tableI13string_hasher11xcallocatorE6expandEv free 580
_ZN10hash_tableI13string_hasher11xcallocatorE6expandEv hash_table_usage 611
_ZN10hash_tableI13string_hasher11xcallocatorE6expandEv prime_tab 648
_ZN10hash_tableI13string_hasher11xcallocatorE6expandEv prime_tab 654
_ZN10hash_tableI13string_hasher11xcallocatorE6expandEv prime_tab 660
_ZN10hash_tableI13string_hasher11xcallocatorE6expandEv prime_tab 760
_ZN10hash_tableI13string_hasher11xcallocatorE6expandEv _Z11fancy_abortPKciS0_ 905
_ZN10hash_tableI13string_hasher11xcallocatorE6expandEv _Z11fancy_abortPKciS0_ 925
_ZN10cc1_plugin8callbackIiyPKcmS2_jXadL_Z21plugin_build_constantPNS_10connectionEyS2_mS2_jEEEENS_6statusES4_ _ZN10cc1_plugin16unmarshall_checkEPNS_10connectionEy 66
_ZN10cc1_plugin8callbackIiyPKcmS2_jXadL_Z21plugin_build_constantPNS_10connectionEyS2_mS2_jEEEENS_6statusES4_ _ZN10cc1_plugin18unmarshall_intlikeEPNS_10connectionEPy 96
_ZN10cc1_plugin8callbackIiyPKcmS2_jXadL_Z21plugin_build_constantPNS_10connectionEyS2_mS2_jEEEENS_6statusES4_ _ZN10cc1_plugin10unmarshallEPNS_10connectionEPPc 126
_ZN10cc1_plugin8callbackIiyPKcmS2_jXadL_Z21plugin_build_constantPNS_10connectionEyS2_mS2_jEEEENS_6statusES4_ _ZdaPv 147
_ZN10cc1_plugin8callbackIiyPKcmS2_jXadL_Z21plugin_build_constantPNS_10connectionEyS2_mS2_jEEEENS_6statusES4_ _ZdaPv 162
_ZN10cc1_plugin8callbackIiyPKcmS2_jXadL_Z21plugin_build_constantPNS_10connectionEyS2_mS2_jEEEENS_6statusES4_ _ZN10cc1_plugin18unmarshall_intlikeEPNS_10connectionEPy 220
_ZN10cc1_plugin8callbackIiyPKcmS2_jXadL_Z21plugin_build_constantPNS_10connectionEyS2_mS2_jEEEENS_6statusES4_ _ZN10cc1_plugin10unmarshallEPNS_10connectionEPPc 245
_ZN10cc1_plugin8callbackIiyPKcmS2_jXadL_Z21plugin_build_constantPNS_10connectionEyS2_mS2_jEEEENS_6statusES4_ _ZN10cc1_plugin16argument_wrapperIjE10unmarshallEPNS_10connectionE 262
_ZN10cc1_plugin8callbackIiyPKcmS2_jXadL_Z21plugin_build_constantPNS_10connectionEyS2_mS2_jEEEENS_6statusES4_ _Z21plugin_build_constantPN10cc1_plugin10connectionEyPKcmS3_j 299
_ZN10cc1_plugin8callbackIiyPKcmS2_jXadL_Z21plugin_build_constantPNS_10connectionEyS2_mS2_jEEEENS_6statusES4_ _ZN10cc1_plugin10connection4sendEc 315
_ZN10cc1_plugin8callbackIiyPKcmS2_jXadL_Z21plugin_build_constantPNS_10connectionEyS2_mS2_jEEEENS_6statusES4_ _ZN10cc1_plugin16marshall_intlikeEPNS_10connectionEy 334
_ZN10cc1_plugin8callbackIiyPKcmS2_jXadL_Z21plugin_build_constantPNS_10connectionEyS2_mS2_jEEEENS_6statusES4_ _ZN10cc1_plugin16argument_wrapperIPKcED1Ev 352
_ZN10cc1_plugin8callbackIiyPKcmS2_jXadL_Z21plugin_build_constantPNS_10connectionEyS2_mS2_jEEEENS_6statusES4_ _ZN10cc1_plugin16argument_wrapperIPKcED1Ev 360
_ZN10cc1_plugin8callbackIiyPKcmS2_jXadL_Z21plugin_build_constantPNS_10connectionEyS2_mS2_jEEEENS_6statusES4_ _Unwind_Resume 368
_ZN10cc1_plugin8callbackIiPKcyS2_jXadL_Z14plugin_tagbindPNS_10connectionES2_yS2_jEEEENS_6statusES4_ _ZN10cc1_plugin16unmarshall_checkEPNS_10connectionEy 66
_ZN10cc1_plugin8callbackIiPKcyS2_jXadL_Z14plugin_tagbindPNS_10connectionES2_yS2_jEEEENS_6statusES4_ _ZN10cc1_plugin10unmarshallEPNS_10connectionEPPc 91
_ZN10cc1_plugin8callbackIiPKcyS2_jXadL_Z14plugin_tagbindPNS_10connectionES2_yS2_jEEEENS_6statusES4_ _ZdaPv 112
_ZN10cc1_plugin8callbackIiPKcyS2_jXadL_Z14plugin_tagbindPNS_10connectionES2_yS2_jEEEENS_6statusES4_ _ZdaPv 127
_ZN10cc1_plugin8callbackIiPKcyS2_jXadL_Z14plugin_tagbindPNS_10connectionES2_yS2_jEEEENS_6statusES4_ _ZN10cc1_plugin18unmarshall_intlikeEPNS_10connectionEPy 185
_ZN10cc1_plugin8callbackIiPKcyS2_jXadL_Z14plugin_tagbindPNS_10connectionES2_yS2_jEEEENS_6statusES4_ _ZN10cc1_plugin10unmarshallEPNS_10connectionEPPc 210
_ZN10cc1_plugin8callbackIiPKcyS2_jXadL_Z14plugin_tagbindPNS_10connectionES2_yS2_jEEEENS_6statusES4_ _ZN10cc1_plugin18unmarshall_intlikeEPNS_10connectionEPy 225
_ZN10cc1_plugin8callbackIiPKcyS2_jXadL_Z14plugin_tagbindPNS_10connectionES2_yS2_jEEEENS_6statusES4_ _Z14plugin_tagbindPN10cc1_plugin10connectionEPKcyS3_j 259
_ZN10cc1_plugin8callbackIiPKcyS2_jXadL_Z14plugin_tagbindPNS_10connectionES2_yS2_jEEEENS_6statusES4_ _ZN10cc1_plugin10connection4sendEc 275
_ZN10cc1_plugin8callbackIiPKcyS2_jXadL_Z14plugin_tagbindPNS_10connectionES2_yS2_jEEEENS_6statusES4_ _ZN10cc1_plugin16marshall_intlikeEPNS_10connectionEy 294
_ZN10cc1_plugin8callbackIiPKcyS2_jXadL_Z14plugin_tagbindPNS_10connectionES2_yS2_jEEEENS_6statusES4_ _ZN10cc1_plugin16argument_wrapperIPKcED1Ev 312
_ZN10cc1_plugin8callbackIiPKcyS2_jXadL_Z14plugin_tagbindPNS_10connectionES2_yS2_jEEEENS_6statusES4_ _ZN10cc1_plugin16argument_wrapperIPKcED1Ev 320
_ZN10cc1_plugin8callbackIiPKcyS2_jXadL_Z14plugin_tagbindPNS_10connectionES2_yS2_jEEEENS_6statusES4_ _Unwind_Resume 328
_ZN10hash_tableI13string_hasher11xcallocatorED1Ev free 52
_ZN10hash_tableI13string_hasher11xcallocatorED1Ev _Z8ggc_freePv 85
_ZN10hash_tableI13string_hasher11xcallocatorED1Ev hash_table_usage 98
_ZN10hash_tableI13string_hasher11xcallocatorED1Ev prime_tab 139
_ZN10hash_tableI13string_hasher11xcallocatorED1Ev prime_tab 146
_ZN10hash_tableI13string_hasher11xcallocatorED1Ev prime_tab 152
_ZN10hash_tableI13string_hasher11xcallocatorED1Ev prime_tab 241
_ZN10hash_tableI13string_hasher11xcallocatorED1Ev _ZN10hash_tableIN8hash_mapIPKv14mem_usage_pairI9mem_usageE21simple_hashmap_traitsI19default_hash_traitsIS2_ES5_EE10hash_entryE11xcallocatorE19find_slot_with_hashERKS2_j13insert_option 372
_ZN10hash_tableI13string_hasher11xcallocatorED1Ev _Z11fancy_abortPKciS0_ 447
_ZN10hash_tableI16decl_addr_hasher11xcallocatorED1Ev free 64
_ZN10hash_tableI16decl_addr_hasher11xcallocatorED1Ev free 96
_ZN10hash_tableI16decl_addr_hasher11xcallocatorED1Ev _Z8ggc_freePv 124
_ZN10hash_tableI16decl_addr_hasher11xcallocatorED1Ev hash_table_usage 137
_ZN10hash_tableI16decl_addr_hasher11xcallocatorED1Ev prime_tab 178
_ZN10hash_tableI16decl_addr_hasher11xcallocatorED1Ev prime_tab 185
_ZN10hash_tableI16decl_addr_hasher11xcallocatorED1Ev prime_tab 191
_ZN10hash_tableI16decl_addr_hasher11xcallocatorED1Ev prime_tab 280
_ZN10hash_tableI16decl_addr_hasher11xcallocatorED1Ev _ZN10hash_tableIN8hash_mapIPKv14mem_usage_pairI9mem_usageE21simple_hashmap_traitsI19default_hash_traitsIS2_ES5_EE10hash_entryE11xcallocatorE19find_slot_with_hashERKS2_j13insert_option 411
_ZN10hash_tableI16decl_addr_hasher11xcallocatorED1Ev _Z11fancy_abortPKciS0_ 487
_ZN10hash_tableI15nofree_ptr_hashI9tree_nodeE11xcallocatorED1Ev free 52
_ZN10hash_tableI15nofree_ptr_hashI9tree_nodeE11xcallocatorED1Ev _Z8ggc_freePv 85
_ZN10hash_tableI15nofree_ptr_hashI9tree_nodeE11xcallocatorED1Ev hash_table_usage 98
_ZN10hash_tableI15nofree_ptr_hashI9tree_nodeE11xcallocatorED1Ev prime_tab 139
_ZN10hash_tableI15nofree_ptr_hashI9tree_nodeE11xcallocatorED1Ev prime_tab 146
_ZN10hash_tableI15nofree_ptr_hashI9tree_nodeE11xcallocatorED1Ev prime_tab 152
_ZN10hash_tableI15nofree_ptr_hashI9tree_nodeE11xcallocatorED1Ev prime_tab 241
_ZN10hash_tableI15nofree_ptr_hashI9tree_nodeE11xcallocatorED1Ev _ZN10hash_tableIN8hash_mapIPKv14mem_usage_pairI9mem_usageE21simple_hashmap_traitsI19default_hash_traitsIS2_ES5_EE10hash_entryE11xcallocatorE19find_slot_with_hashERKS2_j13insert_option 372
_ZN10hash_tableI15nofree_ptr_hashI9tree_nodeE11xcallocatorED1Ev _Z11fancy_abortPKciS0_ 447
_ZN14plugin_contextD0Ev _ZTV14plugin_context 20
_ZN14plugin_contextD0Ev _ZN10hash_tableI13string_hasher11xcallocatorED1Ev 29
_ZN14plugin_contextD0Ev _ZN10hash_tableI15nofree_ptr_hashI9tree_nodeE11xcallocatorED1Ev 38
_ZN14plugin_contextD0Ev _ZN10hash_tableI16decl_addr_hasher11xcallocatorED1Ev 47
_ZN14plugin_contextD0Ev _ZN10cc1_plugin10connectionD2Ev 55
_ZN14plugin_contextD0Ev _ZN10hash_tableI15nofree_ptr_hashI9tree_nodeE11xcallocatorED1Ev 89
_ZN14plugin_contextD0Ev _ZN10hash_tableI16decl_addr_hasher11xcallocatorED1Ev 98
_ZN14plugin_contextD0Ev _ZN10cc1_plugin10connectionD2Ev 106
_ZN14plugin_contextD0Ev _Unwind_Resume 114
_ZN14plugin_contextD0Ev _ZdlPv 77
_ZN14plugin_contextD1Ev _ZTV14plugin_context 20
_ZN14plugin_contextD1Ev _ZN10hash_tableI13string_hasher11xcallocatorED1Ev 29
_ZN14plugin_contextD1Ev _ZN10hash_tableI15nofree_ptr_hashI9tree_nodeE11xcallocatorED1Ev 38
_ZN14plugin_contextD1Ev _ZN10hash_tableI16decl_addr_hasher11xcallocatorED1Ev 47
_ZN14plugin_contextD1Ev _ZN10hash_tableI15nofree_ptr_hashI9tree_nodeE11xcallocatorED1Ev 81
_ZN14plugin_contextD1Ev _ZN10hash_tableI16decl_addr_hasher11xcallocatorED1Ev 90
_ZN14plugin_contextD1Ev _ZN10cc1_plugin10connectionD2Ev 98
_ZN14plugin_contextD1Ev _Unwind_Resume 106
_ZN14plugin_contextD1Ev _ZN10cc1_plugin10connectionD2Ev 69
_ZN10hash_tableI16decl_addr_hasher11xcallocatorE6expandEv _Z29hash_table_higher_prime_indexm 63
_ZN10hash_tableI16decl_addr_hasher11xcallocatorE6expandEv prime_tab 78
_ZN10hash_tableI16decl_addr_hasher11xcallocatorE6expandEv xcalloc 111
_ZN10hash_tableI16decl_addr_hasher11xcallocatorE6expandEv prime_tab 242
_ZN10hash_tableI16decl_addr_hasher11xcallocatorE6expandEv prime_tab 248
_ZN10hash_tableI16decl_addr_hasher11xcallocatorE6expandEv prime_tab 261
_ZN10hash_tableI16decl_addr_hasher11xcallocatorE6expandEv prime_tab 312
_ZN10hash_tableI16decl_addr_hasher11xcallocatorE6expandEv _Z8ggc_freePv 413
_ZN10hash_tableI16decl_addr_hasher11xcallocatorE6expandEv _Z26ggc_internal_cleared_allocmPFvPvEmm 447
_ZN10hash_tableI16decl_addr_hasher11xcallocatorE6expandEv hash_table_usage 507
_ZN10hash_tableI16decl_addr_hasher11xcallocatorE6expandEv _ZN8hash_mapIPKv14mem_usage_pairI9mem_usageE21simple_hashmap_traitsI19default_hash_traitsIS1_ES4_EE3getERKS1_ 522
_ZN10hash_tableI16decl_addr_hasher11xcallocatorE6expandEv free 580
_ZN10hash_tableI16decl_addr_hasher11xcallocatorE6expandEv hash_table_usage 611
_ZN10hash_tableI16decl_addr_hasher11xcallocatorE6expandEv prime_tab 648
_ZN10hash_tableI16decl_addr_hasher11xcallocatorE6expandEv prime_tab 654
_ZN10hash_tableI16decl_addr_hasher11xcallocatorE6expandEv prime_tab 660
_ZN10hash_tableI16decl_addr_hasher11xcallocatorE6expandEv prime_tab 765
_ZN10hash_tableI16decl_addr_hasher11xcallocatorE6expandEv _Z11fancy_abortPKciS0_ 908
_ZN10hash_tableI16decl_addr_hasher11xcallocatorE6expandEv _Z11fancy_abortPKciS0_ 928
_ZN10hash_tableI15nofree_ptr_hashI9tree_nodeE11xcallocatorE6expandEv _Z29hash_table_higher_prime_indexm 63
_ZN10hash_tableI15nofree_ptr_hashI9tree_nodeE11xcallocatorE6expandEv prime_tab 78
_ZN10hash_tableI15nofree_ptr_hashI9tree_nodeE11xcallocatorE6expandEv xcalloc 111
_ZN10hash_tableI15nofree_ptr_hashI9tree_nodeE11xcallocatorE6expandEv prime_tab 248
_ZN10hash_tableI15nofree_ptr_hashI9tree_nodeE11xcallocatorE6expandEv prime_tab 254
_ZN10hash_tableI15nofree_ptr_hashI9tree_nodeE11xcallocatorE6expandEv prime_tab 261
_ZN10hash_tableI15nofree_ptr_hashI9tree_nodeE11xcallocatorE6expandEv prime_tab 312
_ZN10hash_tableI15nofree_ptr_hashI9tree_nodeE11xcallocatorE6expandEv _Z8ggc_freePv 405
_ZN10hash_tableI15nofree_ptr_hashI9tree_nodeE11xcallocatorE6expandEv _Z26ggc_internal_cleared_allocmPFvPvEmm 447
_ZN10hash_tableI15nofree_ptr_hashI9tree_nodeE11xcallocatorE6expandEv hash_table_usage 507
_ZN10hash_tableI15nofree_ptr_hashI9tree_nodeE11xcallocatorE6expandEv _ZN8hash_mapIPKv14mem_usage_pairI9mem_usageE21simple_hashmap_traitsI19default_hash_traitsIS1_ES4_EE3getERKS1_ 522
_ZN10hash_tableI15nofree_ptr_hashI9tree_nodeE11xcallocatorE6expandEv free 580
_ZN10hash_tableI15nofree_ptr_hashI9tree_nodeE11xcallocatorE6expandEv hash_table_usage 611
_ZN10hash_tableI15nofree_ptr_hashI9tree_nodeE11xcallocatorE6expandEv prime_tab 648
_ZN10hash_tableI15nofree_ptr_hashI9tree_nodeE11xcallocatorE6expandEv prime_tab 654
_ZN10hash_tableI15nofree_ptr_hashI9tree_nodeE11xcallocatorE6expandEv prime_tab 660
_ZN10hash_tableI15nofree_ptr_hashI9tree_nodeE11xcallocatorE6expandEv prime_tab 765
_ZN10hash_tableI15nofree_ptr_hashI9tree_nodeE11xcallocatorE6expandEv _Z11fancy_abortPKciS0_ 908
_ZN10hash_tableI15nofree_ptr_hashI9tree_nodeE11xcallocatorE6expandEv _Z11fancy_abortPKciS0_ 928
_ZN10cc1_plugin8callbackIyPKc17gcc_c_symbol_kindyS2_yS2_jXadL_Z17plugin_build_declPNS_10connectionES2_S3_yS2_yS2_jEEEENS_6statusES5_ _ZN10cc1_plugin16unmarshall_checkEPNS_10connectionEy 88
_ZN10cc1_plugin8callbackIyPKc17gcc_c_symbol_kindyS2_yS2_jXadL_Z17plugin_build_declPNS_10connectionES2_S3_yS2_yS2_jEEEENS_6statusES5_ _ZN10cc1_plugin10unmarshallEPNS_10connectionEPPc 118
_ZN10cc1_plugin8callbackIyPKc17gcc_c_symbol_kindyS2_yS2_jXadL_Z17plugin_build_declPNS_10connectionES2_S3_yS2_yS2_jEEEENS_6statusES5_ _ZdaPv 139
_ZN10cc1_plugin8callbackIyPKc17gcc_c_symbol_kindyS2_yS2_jXadL_Z17plugin_build_declPNS_10connectionES2_S3_yS2_yS2_jEEEENS_6statusES5_ _ZdaPv 154
_ZN10cc1_plugin8callbackIyPKc17gcc_c_symbol_kindyS2_yS2_jXadL_Z17plugin_build_declPNS_10connectionES2_S3_yS2_yS2_jEEEENS_6statusES5_ _ZdaPv 169
_ZN10cc1_plugin8callbackIyPKc17gcc_c_symbol_kindyS2_yS2_jXadL_Z17plugin_build_declPNS_10connectionES2_S3_yS2_yS2_jEEEENS_6statusES5_ _ZN10cc1_plugin10unmarshallEPNS_10connectionEP17gcc_c_symbol_kind 251
_ZN10cc1_plugin8callbackIyPKc17gcc_c_symbol_kindyS2_yS2_jXadL_Z17plugin_build_declPNS_10connectionES2_S3_yS2_yS2_jEEEENS_6statusES5_ _ZN10cc1_plugin18unmarshall_intlikeEPNS_10connectionEPy 285
_ZN10cc1_plugin8callbackIyPKc17gcc_c_symbol_kindyS2_yS2_jXadL_Z17plugin_build_declPNS_10connectionES2_S3_yS2_yS2_jEEEENS_6statusES5_ _ZN10cc1_plugin10unmarshallEPNS_10connectionEPPc 319
_ZN10cc1_plugin8callbackIyPKc17gcc_c_symbol_kindyS2_yS2_jXadL_Z17plugin_build_declPNS_10connectionES2_S3_yS2_yS2_jEEEENS_6statusES5_ _ZN10cc1_plugin18unmarshall_intlikeEPNS_10connectionEPy 343
_ZN10cc1_plugin8callbackIyPKc17gcc_c_symbol_kindyS2_yS2_jXadL_Z17plugin_build_declPNS_10connectionES2_S3_yS2_yS2_jEEEENS_6statusES5_ _ZN10cc1_plugin10unmarshallEPNS_10connectionEPPc 377
_ZN10cc1_plugin8callbackIyPKc17gcc_c_symbol_kindyS2_yS2_jXadL_Z17plugin_build_declPNS_10connectionES2_S3_yS2_yS2_jEEEENS_6statusES5_ _ZN10cc1_plugin18unmarshall_intlikeEPNS_10connectionEPy 396
_ZN10cc1_plugin8callbackIyPKc17gcc_c_symbol_kindyS2_yS2_jXadL_Z17plugin_build_declPNS_10connectionES2_S3_yS2_yS2_jEEEENS_6statusES5_ _Z17plugin_build_declPN10cc1_plugin10connectionEPKc17gcc_c_symbol_kindyS3_yS3_j 452
_ZN10cc1_plugin8callbackIyPKc17gcc_c_symbol_kindyS2_yS2_jXadL_Z17plugin_build_declPNS_10connectionES2_S3_yS2_yS2_jEEEENS_6statusES5_ _ZN10cc1_plugin10connection4sendEc 468
_ZN10cc1_plugin8callbackIyPKc17gcc_c_symbol_kindyS2_yS2_jXadL_Z17plugin_build_declPNS_10connectionES2_S3_yS2_yS2_jEEEENS_6statusES5_ _ZN10cc1_plugin16marshall_intlikeEPNS_10connectionEy 487
_ZN10cc1_plugin8callbackIyPKc17gcc_c_symbol_kindyS2_yS2_jXadL_Z17plugin_build_declPNS_10connectionES2_S3_yS2_yS2_jEEEENS_6statusES5_ _ZN10cc1_plugin16argument_wrapperIPKcED1Ev 505
_ZN10cc1_plugin8callbackIyPKc17gcc_c_symbol_kindyS2_yS2_jXadL_Z17plugin_build_declPNS_10connectionES2_S3_yS2_yS2_jEEEENS_6statusES5_ _ZN10cc1_plugin16argument_wrapperIPKcED1Ev 513
_ZN10cc1_plugin8callbackIyPKc17gcc_c_symbol_kindyS2_yS2_jXadL_Z17plugin_build_declPNS_10connectionES2_S3_yS2_yS2_jEEEENS_6statusES5_ _ZN10cc1_plugin16argument_wrapperIPKcED1Ev 521
_ZN10cc1_plugin8callbackIyPKc17gcc_c_symbol_kindyS2_yS2_jXadL_Z17plugin_build_declPNS_10connectionES2_S3_yS2_yS2_jEEEENS_6statusES5_ _Unwind_Resume 529
_ZN10hash_tableIN8hash_mapIN21mem_alloc_descriptionI9mem_usageE17mem_location_hashEPS2_21simple_hashmap_traitsI19default_hash_traitsIS4_ES5_EE10hash_entryE11xcallocatorE6expandEv _Z29hash_table_higher_prime_indexm 61
_ZN10hash_tableIN8hash_mapIN21mem_alloc_descriptionI9mem_usageE17mem_location_hashEPS2_21simple_hashmap_traitsI19default_hash_traitsIS4_ES5_EE10hash_entryE11xcallocatorE6expandEv prime_tab 76
_ZN10hash_tableIN8hash_mapIN21mem_alloc_descriptionI9mem_usageE17mem_location_hashEPS2_21simple_hashmap_traitsI19default_hash_traitsIS4_ES5_EE10hash_entryE11xcallocatorE6expandEv xcalloc 109
_ZN10hash_tableIN8hash_mapIN21mem_alloc_descriptionI9mem_usageE17mem_location_hashEPS2_21simple_hashmap_traitsI19default_hash_traitsIS4_ES5_EE10hash_entryE11xcallocatorE6expandEv iterative_hash 254
_ZN10hash_tableIN8hash_mapIN21mem_alloc_descriptionI9mem_usageE17mem_location_hashEPS2_21simple_hashmap_traitsI19default_hash_traitsIS4_ES5_EE10hash_entryE11xcallocatorE6expandEv iterative_hash 282
_ZN10hash_tableIN8hash_mapIN21mem_alloc_descriptionI9mem_usageE17mem_location_hashEPS2_21simple_hashmap_traitsI19default_hash_traitsIS4_ES5_EE10hash_entryE11xcallocatorE6expandEv prime_tab 416
_ZN10hash_tableIN8hash_mapIN21mem_alloc_descriptionI9mem_usageE17mem_location_hashEPS2_21simple_hashmap_traitsI19default_hash_traitsIS4_ES5_EE10hash_entryE11xcallocatorE6expandEv prime_tab 422
_ZN10hash_tableIN8hash_mapIN21mem_alloc_descriptionI9mem_usageE17mem_location_hashEPS2_21simple_hashmap_traitsI19default_hash_traitsIS4_ES5_EE10hash_entryE11xcallocatorE6expandEv prime_tab 429
_ZN10hash_tableIN8hash_mapIN21mem_alloc_descriptionI9mem_usageE17mem_location_hashEPS2_21simple_hashmap_traitsI19default_hash_traitsIS4_ES5_EE10hash_entryE11xcallocatorE6expandEv prime_tab 483
_ZN10hash_tableIN8hash_mapIN21mem_alloc_descriptionI9mem_usageE17mem_location_hashEPS2_21simple_hashmap_traitsI19default_hash_traitsIS4_ES5_EE10hash_entryE11xcallocatorE6expandEv _Z8ggc_freePv 599
_ZN10hash_tableIN8hash_mapIN21mem_alloc_descriptionI9mem_usageE17mem_location_hashEPS2_21simple_hashmap_traitsI19default_hash_traitsIS4_ES5_EE10hash_entryE11xcallocatorE6expandEv _Z26ggc_internal_cleared_allocmPFvPvEmm 638
_ZN10hash_tableIN8hash_mapIN21mem_alloc_descriptionI9mem_usageE17mem_location_hashEPS2_21simple_hashmap_traitsI19default_hash_traitsIS4_ES5_EE10hash_entryE11xcallocatorE6expandEv hash_table_usage 699
_ZN10hash_tableIN8hash_mapIN21mem_alloc_descriptionI9mem_usageE17mem_location_hashEPS2_21simple_hashmap_traitsI19default_hash_traitsIS4_ES5_EE10hash_entryE11xcallocatorE6expandEv prime_tab 731
_ZN10hash_tableIN8hash_mapIN21mem_alloc_descriptionI9mem_usageE17mem_location_hashEPS2_21simple_hashmap_traitsI19default_hash_traitsIS4_ES5_EE10hash_entryE11xcallocatorE6expandEv prime_tab 737
_ZN10hash_tableIN8hash_mapIN21mem_alloc_descriptionI9mem_usageE17mem_location_hashEPS2_21simple_hashmap_traitsI19default_hash_traitsIS4_ES5_EE10hash_entryE11xcallocatorE6expandEv prime_tab 743
_ZN10hash_tableIN8hash_mapIN21mem_alloc_descriptionI9mem_usageE17mem_location_hashEPS2_21simple_hashmap_traitsI19default_hash_traitsIS4_ES5_EE10hash_entryE11xcallocatorE6expandEv prime_tab 841
_ZN10hash_tableIN8hash_mapIN21mem_alloc_descriptionI9mem_usageE17mem_location_hashEPS2_21simple_hashmap_traitsI19default_hash_traitsIS4_ES5_EE10hash_entryE11xcallocatorE6expandEv free 996
_ZN10hash_tableIN8hash_mapIN21mem_alloc_descriptionI9mem_usageE17mem_location_hashEPS2_21simple_hashmap_traitsI19default_hash_traitsIS4_ES5_EE10hash_entryE11xcallocatorE6expandEv hash_table_usage 1027
_ZN10hash_tableIN8hash_mapIN21mem_alloc_descriptionI9mem_usageE17mem_location_hashEPS2_21simple_hashmap_traitsI19default_hash_traitsIS4_ES5_EE10hash_entryE11xcallocatorE6expandEv prime_tab 1064
_ZN10hash_tableIN8hash_mapIN21mem_alloc_descriptionI9mem_usageE17mem_location_hashEPS2_21simple_hashmap_traitsI19default_hash_traitsIS4_ES5_EE10hash_entryE11xcallocatorE6expandEv prime_tab 1070
_ZN10hash_tableIN8hash_mapIN21mem_alloc_descriptionI9mem_usageE17mem_location_hashEPS2_21simple_hashmap_traitsI19default_hash_traitsIS4_ES5_EE10hash_entryE11xcallocatorE6expandEv prime_tab 1076
_ZN10hash_tableIN8hash_mapIN21mem_alloc_descriptionI9mem_usageE17mem_location_hashEPS2_21simple_hashmap_traitsI19default_hash_traitsIS4_ES5_EE10hash_entryE11xcallocatorE6expandEv prime_tab 1176
_ZN10hash_tableIN8hash_mapIN21mem_alloc_descriptionI9mem_usageE17mem_location_hashEPS2_21simple_hashmap_traitsI19default_hash_traitsIS4_ES5_EE10hash_entryE11xcallocatorE6expandEv _Z11fancy_abortPKciS0_ 1337
_ZN10hash_tableIN8hash_mapIN21mem_alloc_descriptionI9mem_usageE17mem_location_hashEPS2_21simple_hashmap_traitsI19default_hash_traitsIS4_ES5_EE10hash_entryE11xcallocatorE6expandEv _Z11fancy_abortPKciS0_ 1357
_ZN10cc1_plugin8callbackIyyiXadL_Z24plugin_build_vector_typePNS_10connectionEyiEEEENS_6statusES2_ _ZN10cc1_plugin16unmarshall_checkEPNS_10connectionEy 28
_ZN10cc1_plugin8callbackIyyiXadL_Z24plugin_build_vector_typePNS_10connectionEyiEEEENS_6statusES2_ _ZN10cc1_plugin18unmarshall_intlikeEPNS_10connectionEPy 76
_ZN10cc1_plugin8callbackIyyiXadL_Z24plugin_build_vector_typePNS_10connectionEyiEEEENS_6statusES2_ _ZN10cc1_plugin18unmarshall_intlikeEPNS_10connectionEPy 96
_ZN10cc1_plugin8callbackIyyiXadL_Z24plugin_build_vector_typePNS_10connectionEyiEEEENS_6statusES2_ _Z24plugin_build_vector_typePN10cc1_plugin10connectionEyi 115
_ZN10cc1_plugin8callbackIyyiXadL_Z24plugin_build_vector_typePNS_10connectionEyiEEEENS_6statusES2_ _ZN10cc1_plugin10connection4sendEc 131
_ZN10cc1_plugin8callbackIyyiXadL_Z24plugin_build_vector_typePNS_10connectionEyiEEEENS_6statusES2_ _ZN10cc1_plugin16marshall_intlikeEPNS_10connectionEy 146
_ZN10cc1_plugin8callbackIyyiXadL_Z24plugin_build_vector_typePNS_10connectionEyiEEEENS_6statusES2_ _Unwind_Resume 156
_ZN10cc1_plugin8callbackIyyPK14gcc_type_arrayiXadL_Z26plugin_build_function_typePNS_10connectionEyS3_iEEEENS_6statusES5_ _ZN10cc1_plugin16unmarshall_checkEPNS_10connectionEy 47
_ZN10cc1_plugin8callbackIyyPK14gcc_type_arrayiXadL_Z26plugin_build_function_typePNS_10connectionEyS3_iEEEENS_6statusES5_ _ZN10cc1_plugin18unmarshall_intlikeEPNS_10connectionEPy 72
_ZN10cc1_plugin8callbackIyyPK14gcc_type_arrayiXadL_Z26plugin_build_function_typePNS_10connectionEyS3_iEEEENS_6statusES5_ _ZN10cc1_plugin10unmarshallEPNS_10connectionEPP14gcc_type_array 97
_ZN10cc1_plugin8callbackIyyPK14gcc_type_arrayiXadL_Z26plugin_build_function_typePNS_10connectionEyS3_iEEEENS_6statusES5_ _ZdaPv 130
_ZN10cc1_plugin8callbackIyyPK14gcc_type_arrayiXadL_Z26plugin_build_function_typePNS_10connectionEyS3_iEEEENS_6statusES5_ _ZdlPv 140
_ZN10cc1_plugin8callbackIyyPK14gcc_type_arrayiXadL_Z26plugin_build_function_typePNS_10connectionEyS3_iEEEENS_6statusES5_ _ZN10cc1_plugin18unmarshall_intlikeEPNS_10connectionEPy 183
_ZN10cc1_plugin8callbackIyyPK14gcc_type_arrayiXadL_Z26plugin_build_function_typePNS_10connectionEyS3_iEEEENS_6statusES5_ _Z26plugin_build_function_typePN10cc1_plugin10connectionEyPK14gcc_type_arrayi 207
_ZN10cc1_plugin8callbackIyyPK14gcc_type_arrayiXadL_Z26plugin_build_function_typePNS_10connectionEyS3_iEEEENS_6statusES5_ _ZN10cc1_plugin10connection4sendEc 223
_ZN10cc1_plugin8callbackIyyPK14gcc_type_arrayiXadL_Z26plugin_build_function_typePNS_10connectionEyS3_iEEEENS_6statusES5_ _ZN10cc1_plugin16marshall_intlikeEPNS_10connectionEy 238
_ZN10cc1_plugin8callbackIyyPK14gcc_type_arrayiXadL_Z26plugin_build_function_typePNS_10connectionEyS3_iEEEENS_6statusES5_ _ZN10cc1_plugin16argument_wrapperIPK14gcc_type_arrayED1Ev 256
_ZN10cc1_plugin8callbackIyyPK14gcc_type_arrayiXadL_Z26plugin_build_function_typePNS_10connectionEyS3_iEEEENS_6statusES5_ _Unwind_Resume 264
_ZN10cc1_plugin8callbackIyXadL_Z23plugin_build_union_typePNS_10connectionEEEEENS_6statusES2_ _ZN10cc1_plugin16unmarshall_checkEPNS_10connectionEy 20
_ZN10cc1_plugin8callbackIyXadL_Z23plugin_build_union_typePNS_10connectionEEEEENS_6statusES2_ _Z23plugin_build_union_typePN10cc1_plugin10connectionE 52
_ZN10cc1_plugin8callbackIyXadL_Z23plugin_build_union_typePNS_10connectionEEEEENS_6statusES2_ _ZN10cc1_plugin10connection4sendEc 68
_ZN10cc1_plugin8callbackIyXadL_Z23plugin_build_union_typePNS_10connectionEEEEENS_6statusES2_ _ZN10cc1_plugin16marshall_intlikeEPNS_10connectionEy 97
_ZN10cc1_plugin8callbackIyXadL_Z24plugin_build_record_typePNS_10connectionEEEEENS_6statusES2_ _ZN10cc1_plugin16unmarshall_checkEPNS_10connectionEy 20
_ZN10cc1_plugin8callbackIyXadL_Z24plugin_build_record_typePNS_10connectionEEEEENS_6statusES2_ _Z24plugin_build_record_typePN10cc1_plugin10connectionE 52
_ZN10cc1_plugin8callbackIyXadL_Z24plugin_build_record_typePNS_10connectionEEEEENS_6statusES2_ _ZN10cc1_plugin10connection4sendEc 68
_ZN10cc1_plugin8callbackIyXadL_Z24plugin_build_record_typePNS_10connectionEEEEENS_6statusES2_ _ZN10cc1_plugin16marshall_intlikeEPNS_10connectionEy 97
_ZN10cc1_plugin8callbackIyyXadL_Z25plugin_build_complex_typePNS_10connectionEyEEEENS_6statusES2_ _ZN10cc1_plugin16unmarshall_checkEPNS_10connectionEy 23
_ZN10cc1_plugin8callbackIyyXadL_Z25plugin_build_complex_typePNS_10connectionEyEEEENS_6statusES2_ _ZN10cc1_plugin18unmarshall_intlikeEPNS_10connectionEPy 57
_ZN10cc1_plugin8callbackIyyXadL_Z25plugin_build_complex_typePNS_10connectionEyEEEENS_6statusES2_ _Z25plugin_build_complex_typePN10cc1_plugin10connectionEy 74
_ZN10cc1_plugin8callbackIyyXadL_Z25plugin_build_complex_typePNS_10connectionEyEEEENS_6statusES2_ _ZN10cc1_plugin10connection4sendEc 90
_ZN10cc1_plugin8callbackIyyXadL_Z25plugin_build_complex_typePNS_10connectionEyEEEENS_6statusES2_ _ZN10cc1_plugin16marshall_intlikeEPNS_10connectionEy 105
_ZN10cc1_plugin8callbackIyyXadL_Z25plugin_build_complex_typePNS_10connectionEyEEEENS_6statusES2_ _Unwind_Resume 115
_ZN10cc1_plugin8callbackIyyPKcXadL_Z27plugin_build_vla_array_typePNS_10connectionEyS2_EEEENS_6statusES4_ _ZN10cc1_plugin16unmarshall_checkEPNS_10connectionEy 42
_ZN10cc1_plugin8callbackIyyPKcXadL_Z27plugin_build_vla_array_typePNS_10connectionEyS2_EEEENS_6statusES4_ _ZN10cc1_plugin18unmarshall_intlikeEPNS_10connectionEPy 64
_ZN10cc1_plugin8callbackIyyPKcXadL_Z27plugin_build_vla_array_typePNS_10connectionEyS2_EEEENS_6statusES4_ _ZN10cc1_plugin10unmarshallEPNS_10connectionEPPc 89
_ZN10cc1_plugin8callbackIyyPKcXadL_Z27plugin_build_vla_array_typePNS_10connectionEyS2_EEEENS_6statusES4_ _ZdaPv 110
_ZN10cc1_plugin8callbackIyyPKcXadL_Z27plugin_build_vla_array_typePNS_10connectionEyS2_EEEENS_6statusES4_ _Z27plugin_build_vla_array_typePN10cc1_plugin10connectionEyPKc 156
_ZN10cc1_plugin8callbackIyyPKcXadL_Z27plugin_build_vla_array_typePNS_10connectionEyS2_EEEENS_6statusES4_ _ZN10cc1_plugin10connection4sendEc 172
_ZN10cc1_plugin8callbackIyyPKcXadL_Z27plugin_build_vla_array_typePNS_10connectionEyS2_EEEENS_6statusES4_ _ZN10cc1_plugin16marshall_intlikeEPNS_10connectionEy 187
_ZN10cc1_plugin8callbackIyyPKcXadL_Z27plugin_build_vla_array_typePNS_10connectionEyS2_EEEENS_6statusES4_ _ZN10cc1_plugin16argument_wrapperIPKcED1Ev 202
_ZN10cc1_plugin8callbackIyyPKcXadL_Z27plugin_build_vla_array_typePNS_10connectionEyS2_EEEENS_6statusES4_ _Unwind_Resume 210
_ZN10cc1_plugin8callbackIyyiXadL_Z23plugin_build_array_typePNS_10connectionEyiEEEENS_6statusES2_ _ZN10cc1_plugin16unmarshall_checkEPNS_10connectionEy 28
_ZN10cc1_plugin8callbackIyyiXadL_Z23plugin_build_array_typePNS_10connectionEyiEEEENS_6statusES2_ _ZN10cc1_plugin18unmarshall_intlikeEPNS_10connectionEPy 76
_ZN10cc1_plugin8callbackIyyiXadL_Z23plugin_build_array_typePNS_10connectionEyiEEEENS_6statusES2_ _ZN10cc1_plugin18unmarshall_intlikeEPNS_10connectionEPy 96
_ZN10cc1_plugin8callbackIyyiXadL_Z23plugin_build_array_typePNS_10connectionEyiEEEENS_6statusES2_ _Z23plugin_build_array_typePN10cc1_plugin10connectionEyi 115
_ZN10cc1_plugin8callbackIyyiXadL_Z23plugin_build_array_typePNS_10connectionEyiEEEENS_6statusES2_ _ZN10cc1_plugin10connection4sendEc 131
_ZN10cc1_plugin8callbackIyyiXadL_Z23plugin_build_array_typePNS_10connectionEyiEEEENS_6statusES2_ _ZN10cc1_plugin16marshall_intlikeEPNS_10connectionEy 146
_ZN10cc1_plugin8callbackIyyiXadL_Z23plugin_build_array_typePNS_10connectionEyiEEEENS_6statusES2_ _Unwind_Resume 156
_ZN10cc1_plugin8callbackIyimXadL_Z18plugin_int_type_v0PNS_10connectionEimEEEENS_6statusES2_ _ZN10cc1_plugin16unmarshall_checkEPNS_10connectionEy 28
_ZN10cc1_plugin8callbackIyimXadL_Z18plugin_int_type_v0PNS_10connectionEimEEEENS_6statusES2_ _ZN10cc1_plugin18unmarshall_intlikeEPNS_10connectionEPy 76
_ZN10cc1_plugin8callbackIyimXadL_Z18plugin_int_type_v0PNS_10connectionEimEEEENS_6statusES2_ _ZN10cc1_plugin18unmarshall_intlikeEPNS_10connectionEPy 96
_ZN10cc1_plugin8callbackIyimXadL_Z18plugin_int_type_v0PNS_10connectionEimEEEENS_6statusES2_ _Z18plugin_int_type_v0PN10cc1_plugin10connectionEim 116
_ZN10cc1_plugin8callbackIyimXadL_Z18plugin_int_type_v0PNS_10connectionEimEEEENS_6statusES2_ _ZN10cc1_plugin10connection4sendEc 132
_ZN10cc1_plugin8callbackIyimXadL_Z18plugin_int_type_v0PNS_10connectionEimEEEENS_6statusES2_ _ZN10cc1_plugin16marshall_intlikeEPNS_10connectionEy 147
_ZN10cc1_plugin8callbackIyimXadL_Z18plugin_int_type_v0PNS_10connectionEimEEEENS_6statusES2_ _Unwind_Resume 157
_ZN10cc1_plugin8callbackIyimPKcXadL_Z15plugin_int_typePNS_10connectionEimS2_EEEENS_6statusES4_ _ZN10cc1_plugin16unmarshall_checkEPNS_10connectionEy 47
_ZN10cc1_plugin8callbackIyimPKcXadL_Z15plugin_int_typePNS_10connectionEimS2_EEEENS_6statusES4_ _ZN10cc1_plugin18unmarshall_intlikeEPNS_10connectionEPy 72
_ZN10cc1_plugin8callbackIyimPKcXadL_Z15plugin_int_typePNS_10connectionEimS2_EEEENS_6statusES4_ _ZN10cc1_plugin18unmarshall_intlikeEPNS_10connectionEPy 97
_ZN10cc1_plugin8callbackIyimPKcXadL_Z15plugin_int_typePNS_10connectionEimS2_EEEENS_6statusES4_ _ZN10cc1_plugin10unmarshallEPNS_10connectionEPPc 122
_ZN10cc1_plugin8callbackIyimPKcXadL_Z15plugin_int_typePNS_10connectionEimS2_EEEENS_6statusES4_ _ZdaPv 149
_ZN10cc1_plugin8callbackIyimPKcXadL_Z15plugin_int_typePNS_10connectionEimS2_EEEENS_6statusES4_ _Z15plugin_int_typePN10cc1_plugin10connectionEimPKc 199
_ZN10cc1_plugin8callbackIyimPKcXadL_Z15plugin_int_typePNS_10connectionEimS2_EEEENS_6statusES4_ _ZN10cc1_plugin10connection4sendEc 215
_ZN10cc1_plugin8callbackIyimPKcXadL_Z15plugin_int_typePNS_10connectionEimS2_EEEENS_6statusES4_ _ZN10cc1_plugin16marshall_intlikeEPNS_10connectionEy 230
_ZN10cc1_plugin8callbackIyimPKcXadL_Z15plugin_int_typePNS_10connectionEimS2_EEEENS_6statusES4_ _ZN10cc1_plugin16argument_wrapperIPKcED1Ev 245
_ZN10cc1_plugin8callbackIyimPKcXadL_Z15plugin_int_typePNS_10connectionEimS2_EEEENS_6statusES4_ _Unwind_Resume 253
_ZN10cc1_plugin8callbackIiyPKcymmXadL_Z22plugin_build_add_fieldPNS_10connectionEyS2_ymmEEEENS_6statusES4_ _ZN10cc1_plugin16unmarshall_checkEPNS_10connectionEy 57
_ZN10cc1_plugin8callbackIiyPKcymmXadL_Z22plugin_build_add_fieldPNS_10connectionEyS2_ymmEEEENS_6statusES4_ _ZN10cc1_plugin18unmarshall_intlikeEPNS_10connectionEPy 82
_ZN10cc1_plugin8callbackIiyPKcymmXadL_Z22plugin_build_add_fieldPNS_10connectionEyS2_ymmEEEENS_6statusES4_ _ZN10cc1_plugin10unmarshallEPNS_10connectionEPPc 107
_ZN10cc1_plugin8callbackIiyPKcymmXadL_Z22plugin_build_add_fieldPNS_10connectionEyS2_ymmEEEENS_6statusES4_ _ZdaPv 128
_ZN10cc1_plugin8callbackIiyPKcymmXadL_Z22plugin_build_add_fieldPNS_10connectionEyS2_ymmEEEENS_6statusES4_ _ZN10cc1_plugin18unmarshall_intlikeEPNS_10connectionEPy 183
_ZN10cc1_plugin8callbackIiyPKcymmXadL_Z22plugin_build_add_fieldPNS_10connectionEyS2_ymmEEEENS_6statusES4_ _ZN10cc1_plugin18unmarshall_intlikeEPNS_10connectionEPy 203
_ZN10cc1_plugin8callbackIiyPKcymmXadL_Z22plugin_build_add_fieldPNS_10connectionEyS2_ymmEEEENS_6statusES4_ _ZN10cc1_plugin18unmarshall_intlikeEPNS_10connectionEPy 223
_ZN10cc1_plugin8callbackIiyPKcymmXadL_Z22plugin_build_add_fieldPNS_10connectionEyS2_ymmEEEENS_6statusES4_ _Z22plugin_build_add_fieldPN10cc1_plugin10connectionEyPKcymm 254
_ZN10cc1_plugin8callbackIiyPKcymmXadL_Z22plugin_build_add_fieldPNS_10connectionEyS2_ymmEEEENS_6statusES4_ _ZN10cc1_plugin10connection4sendEc 270
_ZN10cc1_plugin8callbackIiyPKcymmXadL_Z22plugin_build_add_fieldPNS_10connectionEyS2_ymmEEEENS_6statusES4_ _ZN10cc1_plugin16marshall_intlikeEPNS_10connectionEy 289
_ZN10cc1_plugin8callbackIiyPKcymmXadL_Z22plugin_build_add_fieldPNS_10connectionEyS2_ymmEEEENS_6statusES4_ _ZN10cc1_plugin16argument_wrapperIPKcED1Ev 307
_ZN10cc1_plugin8callbackIiyPKcymmXadL_Z22plugin_build_add_fieldPNS_10connectionEyS2_ymmEEEENS_6statusES4_ _Unwind_Resume 315
_ZN10cc1_plugin8callbackIyyXadL_Z22plugin_build_enum_typePNS_10connectionEyEEEENS_6statusES2_ _ZN10cc1_plugin16unmarshall_checkEPNS_10connectionEy 23
_ZN10cc1_plugin8callbackIyyXadL_Z22plugin_build_enum_typePNS_10connectionEyEEEENS_6statusES2_ _ZN10cc1_plugin18unmarshall_intlikeEPNS_10connectionEPy 57
_ZN10cc1_plugin8callbackIyyXadL_Z22plugin_build_enum_typePNS_10connectionEyEEEENS_6statusES2_ _Z22plugin_build_enum_typePN10cc1_plugin10connectionEy 74
_ZN10cc1_plugin8callbackIyyXadL_Z22plugin_build_enum_typePNS_10connectionEyEEEENS_6statusES2_ _ZN10cc1_plugin10connection4sendEc 90
_ZN10cc1_plugin8callbackIyyXadL_Z22plugin_build_enum_typePNS_10connectionEyEEEENS_6statusES2_ _ZN10cc1_plugin16marshall_intlikeEPNS_10connectionEy 105
_ZN10cc1_plugin8callbackIyyXadL_Z22plugin_build_enum_typePNS_10connectionEyEEEENS_6statusES2_ _Unwind_Resume 115
_ZN10cc1_plugin9callbacks13find_callbackEPKc htab_find 15
_ZN10cc1_plugin9callbacks12add_callbackEPKcPFNS_6statusEPNS_10connectionEE htab_find_slot 26
_ZN10cc1_plugin9callbacks12add_callbackEPKcPFNS_6statusEPNS_10connectionEE xmalloc 39
_ZN10cc1_plugin9callbacksD1Ev htab_delete 4
_ZN10cc1_plugin9callbacksD2Ev htab_delete 4
_ZN10cc1_plugin9callbacksC1Ev free 3
_ZN10cc1_plugin9callbacksC1Ev xcalloc 12
_ZN10cc1_plugin9callbacksC1Ev htab_create_alloc 35
_ZN10cc1_plugin9callbacksC2Ev free 3
_ZN10cc1_plugin9callbacksC2Ev xcalloc 12
_ZN10cc1_plugin9callbacksC2Ev htab_create_alloc 35
_ZL9eq_methodPKvS0_ strcmp 11
_ZL11hash_methodPKv htab_hash_string 4
_ZN10cc1_plugin10connection3getEPvi read 11
_ZN10cc1_plugin10connection7requireEc read 21
_ZN10cc1_plugin10connection7do_waitEb select 185
_ZN10cc1_plugin10connection7do_waitEb read 319
_ZN10cc1_plugin10connection7do_waitEb __errno_location 377
_ZN10cc1_plugin10connection7do_waitEb _ZN10cc1_plugin10unmarshallEPNS_10connectionEPPc 407
_ZN10cc1_plugin10connection7do_waitEb _ZN10cc1_plugin9callbacks13find_callbackEPKc 426
_ZN10cc1_plugin10connection7do_waitEb read 481
_ZN10cc1_plugin10connection7do_waitEb _Unwind_Resume 546
_ZN10cc1_plugin10connection4sendEPKvi write 11
_ZN10cc1_plugin10connection4sendEc write 23
_ZN10cc1_plugin10connectionD1Ev _ZTVN10cc1_plugin10connectionE 3
_ZN10cc1_plugin10connectionD1Ev _ZN10cc1_plugin9callbacksD1Ev 12
_ZN10cc1_plugin10connectionD2Ev _ZTVN10cc1_plugin10connectionE 3
_ZN10cc1_plugin10connectionD2Ev _ZN10cc1_plugin9callbacksD1Ev 12
_ZN10cc1_plugin10connectionD0Ev _ZTVN10cc1_plugin10connectionE 7
_ZN10cc1_plugin10connectionD0Ev _ZN10cc1_plugin9callbacksD1Ev 16
_ZN10cc1_plugin10connectionD0Ev _ZdlPv 25
_ZN10cc1_plugin22unmarshall_array_elmtsEPNS_10connectionEmPv _ZN10cc1_plugin10connection3getEPvi 9
_ZN10cc1_plugin22unmarshall_array_startEPNS_10connectionEcPm _ZN10cc1_plugin10connection7requireEc 25
_ZN10cc1_plugin22unmarshall_array_startEPNS_10connectionEcPm _ZN10cc1_plugin10connection3getEPvi 70
_ZN10cc1_plugin10unmarshallEPNS_10connectionEPP14gcc_type_array _ZN10cc1_plugin22unmarshall_array_startEPNS_10connectionEcPm 36
_ZN10cc1_plugin10unmarshallEPNS_10connectionEPP14gcc_type_array _Znwm 62
_ZN10cc1_plugin10unmarshallEPNS_10connectionEPP14gcc_type_array _Znam 81
_ZN10cc1_plugin10unmarshallEPNS_10connectionEPP14gcc_type_array _ZN10cc1_plugin10connection3getEPvi 106
_ZN10cc1_plugin10unmarshallEPNS_10connectionEPP14gcc_type_array _ZdaPv 129
_ZN10cc1_plugin10unmarshallEPNS_10connectionEPP14gcc_type_array _ZdlPv 138
_ZN10cc1_plugin18unmarshall_intlikeEPNS_10connectionEPy _ZN10cc1_plugin10connection7requireEc 26
_ZN10cc1_plugin18unmarshall_intlikeEPNS_10connectionEPy _ZN10cc1_plugin10connection3getEPvi 82
_ZN10cc1_plugin16unmarshall_checkEPNS_10connectionEy _ZN10cc1_plugin18unmarshall_intlikeEPNS_10connectionEPy 14
_ZN10cc1_plugin20marshall_array_elmtsEPNS_10connectionEmPv _ZN10cc1_plugin10connection4sendEPKvi 9
_ZN10cc1_plugin20marshall_array_startEPNS_10connectionEcm _ZN10cc1_plugin10connection4sendEc 25
_ZN10cc1_plugin20marshall_array_startEPNS_10connectionEcm _ZN10cc1_plugin10connection4sendEPKvi 56
_ZN10cc1_plugin8marshallEPNS_10connectionEPK14gcc_type_array _ZN10cc1_plugin20marshall_array_startEPNS_10connectionEcm 52
_ZN10cc1_plugin8marshallEPNS_10connectionEPK14gcc_type_array _ZN10cc1_plugin10connection4sendEPKvi 103
_ZN10cc1_plugin16marshall_intlikeEPNS_10connectionEy _ZN10cc1_plugin10connection4sendEc 19
_ZN10cc1_plugin16marshall_intlikeEPNS_10connectionEy _ZN10cc1_plugin10connection4sendEPKvi 45
_ZN10cc1_plugin10unmarshallEPNS_10connectionEPPc _ZN10cc1_plugin10connection7requireEc 31
_ZN10cc1_plugin10unmarshallEPNS_10connectionEPPc _ZN10cc1_plugin10connection3getEPvi 78
_ZN10cc1_plugin10unmarshallEPNS_10connectionEPPc _ZSt7nothrow 100
_ZN10cc1_plugin10unmarshallEPNS_10connectionEPPc _ZnamRKSt9nothrow_t 109
_ZN10cc1_plugin10unmarshallEPNS_10connectionEPPc _ZN10cc1_plugin10connection3getEPvi 132
_ZN10cc1_plugin10unmarshallEPNS_10connectionEPPc _ZdaPv 144
_ZN10cc1_plugin8marshallEPNS_10connectionEPKc _ZN10cc1_plugin10connection4sendEc 18
_ZN10cc1_plugin8marshallEPNS_10connectionEPKc strlen 42
_ZN10cc1_plugin8marshallEPNS_10connectionEPKc _ZN10cc1_plugin10connection4sendEPKvi 65
_ZN10cc1_plugin8marshallEPNS_10connectionEPKc _ZN10cc1_plugin10connection4sendEPKvi 94
_Z20plugin_get_char_typePN10cc1_plugin10connectionE integer_types 3
_Z20plugin_get_void_typePN10cc1_plugin10connectionE global_trees 3
_Z20plugin_get_bool_typePN10cc1_plugin10connectionE global_trees 3
_Z23plugin_get_nullptr_typePN10cc1_plugin10connectionE cp_global_trees 3
_Z27plugin_get_nullptr_constantPN10cc1_plugin10connectionE cp_global_trees 3
_ZN10cc1_plugin10unmarshallEPNS_10connectionEP21gcc_cp_ref_qualifiers _ZN10cc1_plugin18unmarshall_intlikeEPNS_10connectionEPy 14
_ZN10cc1_plugin10unmarshallEPNS_10connectionEP17gcc_cp_qualifiers _ZN10cc1_plugin18unmarshall_intlikeEPNS_10connectionEPy 14
_ZN10cc1_plugin10unmarshallEPNS_10connectionEP21gcc_cp_oracle_request _ZN10cc1_plugin18unmarshall_intlikeEPNS_10connectionEPy 14
_ZN10cc1_plugin10unmarshallEPNS_10connectionEP18gcc_cp_symbol_kind _ZN10cc1_plugin18unmarshall_intlikeEPNS_10connectionEPy 14
_Z20plugin_get_decl_typePN10cc1_plugin10connectionEy _Z11fancy_abortPKciS0_ 34
_Z20plugin_get_type_declPN10cc1_plugin10connectionEy _Z11fancy_abortPKciS0_ 34
_ZL24at_fake_function_scope_pv cfun 7
_ZL24at_fake_function_scope_pv current_function_decl 21
_ZL24at_fake_function_scope_pv _Z13current_scopev 32
_ZL24at_fake_function_scope_pv current_function_decl 39
_ZL9pop_scopev _Z19toplevel_bindings_pv 5
_ZL9pop_scopev scope_chain 16
_ZL9pop_scopev global_namespace 23
_ZL9pop_scopev _Z20at_namespace_scope_pv 38
_ZL9pop_scopev _Z16at_class_scope_pv 51
_ZL9pop_scopev _Z19at_function_scope_pv 81
_ZL9pop_scopev cfun 96
_ZL9pop_scopev _Z11leave_scopev 193
_ZL9pop_scopev cfun 200
_ZL9pop_scopev function_depth 206
_ZL9pop_scopev current_function_decl 249
_ZL9pop_scopev _Z11leave_scopev 264
_ZL9pop_scopev cfun 271
_ZL9pop_scopev current_function_decl 278
_ZL9pop_scopev current_function_decl 357
_ZL9pop_scopev scope_chain 419
_ZL9pop_scopev scope_chain 443
_ZL9pop_scopev scope_chain 467
_ZL9pop_scopev scope_chain 491
_ZL9pop_scopev _Z11fancy_abortPKciS0_ 532
_ZL9pop_scopev _Z11fancy_abortPKciS0_ 552
_ZL9pop_scopev _Z11fancy_abortPKciS0_ 572
_ZL9pop_scopev _Z11fancy_abortPKciS0_ 592
_ZL9pop_scopev _Z13pop_namespacev 373
_ZL9pop_scopev _Z8popclassv 389
_ZL9pop_scopev _Z18pop_from_top_levelv 405
_ZL33plugin_pragma_pop_user_expressionP10cpp_reader cp_binding_oracle 31
_ZL33plugin_pragma_pop_user_expressionP10cpp_reader _Z19at_function_scope_pv 43
_ZL33plugin_pragma_pop_user_expressionP10cpp_reader cfun 58
_ZL33plugin_pragma_pop_user_expressionP10cpp_reader cfun 106
_ZL33plugin_pragma_pop_user_expressionP10cpp_reader current_function_decl 122
_ZL33plugin_pragma_pop_user_expressionP10cpp_reader _ZN10cc1_plugin4callIiEENS_6statusEPNS_10connectionEPKcPT_ 160
_ZL33plugin_pragma_pop_user_expressionP10cpp_reader cfun 167
_ZL33plugin_pragma_pop_user_expressionP10cpp_reader cp_binding_oracle 188
_ZL33plugin_pragma_pop_user_expressionP10cpp_reader _Z19at_function_scope_pv 197
_ZL33plugin_pragma_pop_user_expressionP10cpp_reader scope_chain 219
_ZL33plugin_pragma_pop_user_expressionP10cpp_reader scope_chain 243
_ZL33plugin_pragma_pop_user_expressionP10cpp_reader cfun 259
_ZL33plugin_pragma_pop_user_expressionP10cpp_reader _Z11fancy_abortPKciS0_ 281
_ZL33plugin_pragma_pop_user_expressionP10cpp_reader _Z11fancy_abortPKciS0_ 301
_ZL33plugin_pragma_pop_user_expressionP10cpp_reader _Z11fancy_abortPKciS0_ 321
_ZL33plugin_pragma_pop_user_expressionP10cpp_reader _Z11fancy_abortPKciS0_ 341
_Z37plugin_get_current_binding_level_declPN10cc1_plugin10connectionE _Z20at_namespace_scope_pv 5
_Z37plugin_get_current_binding_level_declPN10cc1_plugin10connectionE scope_chain 16
_Z37plugin_get_current_binding_level_declPN10cc1_plugin10connectionE _Z16at_class_scope_pv 33
_Z37plugin_get_current_binding_level_declPN10cc1_plugin10connectionE scope_chain 44
_Z37plugin_get_current_binding_level_declPN10cc1_plugin10connectionE current_function_decl 76
_Z37plugin_get_current_binding_level_declPN10cc1_plugin10connectionE _Z19at_function_scope_pv 89
_Z37plugin_get_current_binding_level_declPN10cc1_plugin10connectionE _Z11fancy_abortPKciS0_ 113
_ZL18push_fake_functionP9tree_node10scope_kind current_function_decl 12
_ZL18push_fake_functionP9tree_node10scope_kind _Z11begin_scope10scope_kindP9tree_node 19
_ZL18push_fake_functionP9tree_node10scope_kind function_depth 25
_ZL18push_fake_functionP9tree_node10scope_kind _Z11begin_scope10scope_kindP9tree_node 39
_Z20plugin_push_functionPN10cc1_plugin10connectionEy _Z13current_scopev 28
_Z20plugin_push_functionPN10cc1_plugin10connectionEy global_namespace 35
_Z20plugin_push_functionPN10cc1_plugin10connectionEy _Z13current_scopev 42
_Z20plugin_push_functionPN10cc1_plugin10connectionEy _Z13current_scopev 89
_Z20plugin_push_functionPN10cc1_plugin10connectionEy _Z11fancy_abortPKciS0_ 115
_Z20plugin_push_functionPN10cc1_plugin10connectionEy _Z11fancy_abortPKciS0_ 135
_ZL15reactivate_declP9tree_nodeP16cp_binding_level cfun 37
_ZL15reactivate_declP9tree_nodeP16cp_binding_level _Z16at_class_scope_pv 86
_ZL15reactivate_declP9tree_nodeP16cp_binding_level global_namespace 131
_ZL15reactivate_declP9tree_nodeP16cp_binding_level cfun 162
_ZL15reactivate_declP9tree_nodeP16cp_binding_level _Z12push_bindingP9tree_nodeS0_P16cp_binding_level 254
_ZL15reactivate_declP9tree_nodeP16cp_binding_level _Z14tree_cons_statP9tree_nodeS0_S0_ 315
_ZL15reactivate_declP9tree_nodeP16cp_binding_level _Z20build_tree_list_statP9tree_nodeS0_ 333
_ZL15reactivate_declP9tree_nodeP16cp_binding_level scope_chain 367
_ZL15reactivate_declP9tree_nodeP16cp_binding_level scope_chain 386
_ZL15reactivate_declP9tree_nodeP16cp_binding_level _Z14tree_cons_statP9tree_nodeS0_S0_ 506
_ZL15reactivate_declP9tree_nodeP16cp_binding_level _Z16strip_using_declP9tree_node 545
_ZL15reactivate_declP9tree_nodeP16cp_binding_level _Z16strip_using_declP9tree_node 558
_ZL15reactivate_declP9tree_nodeP16cp_binding_level global_trees 597
_ZL15reactivate_declP9tree_nodeP16cp_binding_level _Z27maybe_remove_implicit_aliasP9tree_node 700
_ZL15reactivate_declP9tree_nodeP16cp_binding_level _Z11fancy_abortPKciS0_ 729
_ZL15reactivate_declP9tree_nodeP16cp_binding_level scope_chain 864
_ZL15reactivate_declP9tree_nodeP16cp_binding_level _Z16dependent_type_pP9tree_node 916
_ZL15reactivate_declP9tree_nodeP16cp_binding_level _Z16dependent_type_pP9tree_node 947
_ZL15reactivate_declP9tree_nodeP16cp_binding_level _Z11fancy_abortPKciS0_ 995
_ZL15reactivate_declP9tree_nodeP16cp_binding_level _Z11fancy_abortPKciS0_ 1189
_ZL15reactivate_declP9tree_nodeP16cp_binding_level _Z11fancy_abortPKciS0_ 1209
_ZL15reactivate_declP9tree_nodeP16cp_binding_level tree_code_type 1261
_ZL15reactivate_declP9tree_nodeP16cp_binding_level _Z15duplicate_declsP9tree_nodeS0_b 1282
_ZL15reactivate_declP9tree_nodeP16cp_binding_level _Z9comptypesP9tree_nodeS0_i 1350
_ZL15reactivate_declP9tree_nodeP16cp_binding_level _Z19uses_template_parmsP9tree_node 1372
_ZL15reactivate_declP9tree_nodeP16cp_binding_level _Z19uses_template_parmsP9tree_node 1394
_ZL15reactivate_declP9tree_nodeP16cp_binding_level _Z9comptypesP9tree_nodeS0_i 1492
_ZL34plugin_pragma_push_user_expressionP10cpp_reader cfun 36
_ZL34plugin_pragma_push_user_expressionP10cpp_reader cp_binding_oracle 113
_ZL34plugin_pragma_push_user_expressionP10cpp_reader cp_binding_oracle 127
_ZL34plugin_pragma_push_user_expressionP10cpp_reader _Z19at_function_scope_pv 136
_ZL34plugin_pragma_push_user_expressionP10cpp_reader _Z19at_function_scope_pv 149
_ZL34plugin_pragma_push_user_expressionP10cpp_reader cfun 164
_ZL34plugin_pragma_push_user_expressionP10cpp_reader _ZN10cc1_plugin4callIiEENS_6statusEPNS_10connectionEPKcPT_ 221
_ZL34plugin_pragma_push_user_expressionP10cpp_reader current_function_decl 241
_ZL34plugin_pragma_push_user_expressionP10cpp_reader scope_chain 248
_ZL34plugin_pragma_push_user_expressionP10cpp_reader cfun 255
_ZL34plugin_pragma_push_user_expressionP10cpp_reader scope_chain 300
_ZL34plugin_pragma_push_user_expressionP10cpp_reader cfun 324
_ZL34plugin_pragma_push_user_expressionP10cpp_reader _Z19at_function_scope_pv 335
_ZL34plugin_pragma_push_user_expressionP10cpp_reader cfun 350
_ZL34plugin_pragma_push_user_expressionP10cpp_reader _Z26get_identifier_with_lengthPKcm 414
_ZL34plugin_pragma_push_user_expressionP10cpp_reader _Z11lookup_nameP9tree_node 422
_ZL34plugin_pragma_push_user_expressionP10cpp_reader cfun 429
_ZL34plugin_pragma_push_user_expressionP10cpp_reader _Z21cp_build_indirect_refP9tree_node12ref_operatori 480
_ZL34plugin_pragma_push_user_expressionP10cpp_reader cfun 487
_ZL34plugin_pragma_push_user_expressionP10cpp_reader scope_chain 538
_ZL34plugin_pragma_push_user_expressionP10cpp_reader scope_chain 557
_ZL34plugin_pragma_push_user_expressionP10cpp_reader scope_chain 576
_ZL34plugin_pragma_push_user_expressionP10cpp_reader _Z19at_function_scope_pv 590
_ZL34plugin_pragma_push_user_expressionP10cpp_reader _Z11fancy_abortPKciS0_ 618
_ZL34plugin_pragma_push_user_expressionP10cpp_reader current_function_decl 627
_ZL34plugin_pragma_push_user_expressionP10cpp_reader _Z17set_global_friendP9tree_node 632
_ZL34plugin_pragma_push_user_expressionP10cpp_reader scope_chain 644
_ZL34plugin_pragma_push_user_expressionP10cpp_reader scope_chain 660
_ZL34plugin_pragma_push_user_expressionP10cpp_reader scope_chain 676
_ZL34plugin_pragma_push_user_expressionP10cpp_reader cfun 692
_ZL34plugin_pragma_push_user_expressionP10cpp_reader _Z19at_function_scope_pv 697
_ZL34plugin_pragma_push_user_expressionP10cpp_reader cfun 712
_ZL34plugin_pragma_push_user_expressionP10cpp_reader cfun 899
_ZL34plugin_pragma_push_user_expressionP10cpp_reader scope_chain 994
_ZL34plugin_pragma_push_user_expressionP10cpp_reader _Z11fancy_abortPKciS0_ 1026
_ZL34plugin_pragma_push_user_expressionP10cpp_reader _Z11fancy_abortPKciS0_ 1046
_ZL34plugin_pragma_push_user_expressionP10cpp_reader _Z11fancy_abortPKciS0_ 1066
_ZL34plugin_pragma_push_user_expressionP10cpp_reader _Z11fancy_abortPKciS0_ 1086
_ZL34plugin_pragma_push_user_expressionP10cpp_reader _Z11fancy_abortPKciS0_ 1106
_ZL34plugin_pragma_push_user_expressionP10cpp_reader _Z11fancy_abortPKciS0_ 1126
_ZL34plugin_pragma_push_user_expressionP10cpp_reader _Z11fancy_abortPKciS0_ 1146
_ZL34plugin_pragma_push_user_expressionP10cpp_reader _Z11fancy_abortPKciS0_ 1166
_ZL34plugin_pragma_push_user_expressionP10cpp_reader _Z11fancy_abortPKciS0_ 1186
_ZL34plugin_pragma_push_user_expressionP10cpp_reader _Z11fancy_abortPKciS0_ 1206
_ZL34plugin_pragma_push_user_expressionP10cpp_reader _Z11fancy_abortPKciS0_ 1226
_ZL34plugin_pragma_push_user_expressionP10cpp_reader _Z11fancy_abortPKciS0_ 1246
_Z22plugin_reactivate_declPN10cc1_plugin10connectionEyy cfun 44
_Z22plugin_reactivate_declPN10cc1_plugin10connectionEyy global_namespace 83
_Z22plugin_reactivate_declPN10cc1_plugin10connectionEyy _Z11fancy_abortPKciS0_ 166
_Z22plugin_reactivate_declPN10cc1_plugin10connectionEyy scope_chain 179
_Z22plugin_reactivate_declPN10cc1_plugin10connectionEyy _Z16at_class_scope_pv 198
_Z22plugin_reactivate_declPN10cc1_plugin10connectionEyy cfun 214
_Z22plugin_reactivate_declPN10cc1_plugin10connectionEyy scope_chain 244
_Z22plugin_reactivate_declPN10cc1_plugin10connectionEyy _Z11fancy_abortPKciS0_ 276
_Z22plugin_reactivate_declPN10cc1_plugin10connectionEyy _Z11fancy_abortPKciS0_ 296
_Z22plugin_reactivate_declPN10cc1_plugin10connectionEyy _Z11fancy_abortPKciS0_ 316
_Z27plugin_build_qualified_typePN10cc1_plugin10connectionEy17gcc_cp_qualifiers _Z11fancy_abortPKciS0_ 88
_Z27plugin_build_qualified_typePN10cc1_plugin10connectionEy17gcc_cp_qualifiers _Z20build_qualified_typeP9tree_nodei 52
_Z21plugin_get_float_typePN10cc1_plugin10connectionEmPKc global_trees 59
_Z21plugin_get_float_typePN10cc1_plugin10connectionEmPKc global_trees 85
_Z21plugin_get_float_typePN10cc1_plugin10connectionEmPKc global_trees 107
_Z21plugin_get_float_typePN10cc1_plugin10connectionEmPKc global_trees 128
_Z21plugin_get_float_typePN10cc1_plugin10connectionEmPKc global_trees 147
_Z21plugin_get_float_typePN10cc1_plugin10connectionEmPKc _Z11fancy_abortPKciS0_ 169
_Z21plugin_get_float_typePN10cc1_plugin10connectionEmPKc _Z11fancy_abortPKciS0_ 189
_ZL8targlistPK20gcc_cp_template_args _Z18make_tree_vec_stati 14
_ZL8targlistPK20gcc_cp_template_args _Z11fancy_abortPKciS0_ 82
_Z26plugin_start_template_declPN10cc1_plugin10connectionE _Z24begin_template_parm_listv 5
_Z26plugin_start_template_declPN10cc1_plugin10connectionE scope_chain 12
_Z34plugin_get_function_parameter_declPN10cc1_plugin10connectionEyi _Z25skip_artificial_parms_forPK9tree_nodePS_ 29
_Z34plugin_get_function_parameter_declPN10cc1_plugin10connectionEyi _Z11fancy_abortPKciS0_ 123
_Z34plugin_get_function_parameter_declPN10cc1_plugin10connectionEyi _Z11fancy_abortPKciS0_ 143
_Z34plugin_get_function_parameter_declPN10cc1_plugin10connectionEyi _Z11fancy_abortPKciS0_ 163
_Z26plugin_build_enum_constantPN10cc1_plugin10connectionEyPKcm _Z13build_int_cstP9tree_nodel 38
_Z26plugin_build_enum_constantPN10cc1_plugin10connectionEyPKcm _Z14get_identifierPKc 49
_Z26plugin_build_enum_constantPN10cc1_plugin10connectionEyPKcm _Z16build_enumeratorP9tree_nodeS0_S0_S0_j 71
_Z26plugin_build_enum_constantPN10cc1_plugin10connectionEyPKcm _Z11fancy_abortPKciS0_ 121
_Z24plugin_finish_class_typePN10cc1_plugin10connectionEm scope_chain 17
_Z24plugin_finish_class_typePN10cc1_plugin10connectionEm _Z13finish_structP9tree_nodeS0_ 46
_Z24plugin_finish_class_typePN10cc1_plugin10connectionEm _Z16compare_tree_intPK9tree_nodem 58
_Z24plugin_finish_class_typePN10cc1_plugin10connectionEm _Z11fancy_abortPKciS0_ 102
_Z24plugin_finish_class_typePN10cc1_plugin10connectionEm _Z11fancy_abortPKciS0_ 122
_Z27plugin_build_reference_typePN10cc1_plugin10connectionEy21gcc_cp_ref_qualifiers _Z11fancy_abortPKciS0_ 37
_Z27plugin_build_reference_typePN10cc1_plugin10connectionEy21gcc_cp_ref_qualifiers _Z23cp_build_reference_typeP9tree_nodeb 55
_Z17plugin_add_friendPN10cc1_plugin10connectionEyy tree_code_type 24
_Z17plugin_add_friendPN10cc1_plugin10connectionEyy _Z10add_friendP9tree_nodeS0_b 45
_Z17plugin_add_friendPN10cc1_plugin10connectionEyy _Z17make_friend_classP9tree_nodeS0_b 74
_Z17plugin_add_friendPN10cc1_plugin10connectionEyy _Z16at_class_scope_pv 102
_Z17plugin_add_friendPN10cc1_plugin10connectionEyy scope_chain 118
_Z17plugin_add_friendPN10cc1_plugin10connectionEyy _Z11fancy_abortPKciS0_ 144
_Z17plugin_add_friendPN10cc1_plugin10connectionEyy _Z11fancy_abortPKciS0_ 164
_Z21plugin_add_using_declPN10cc1_plugin10connectionE18gcc_cp_symbol_kindy _Z21template_parm_scope_pv 57
_Z21plugin_add_using_declPN10cc1_plugin10connectionE18gcc_cp_symbol_kindy _Z16at_class_scope_pv 75
_Z21plugin_add_using_declPN10cc1_plugin10connectionE18gcc_cp_symbol_kindy _Z20at_namespace_scope_pv 128
_Z21plugin_add_using_declPN10cc1_plugin10connectionE18gcc_cp_symbol_kindy _Z22do_toplevel_using_declP9tree_nodeS0_S0_ 150
_Z21plugin_add_using_declPN10cc1_plugin10connectionE18gcc_cp_symbol_kindy _Z19do_class_using_declP9tree_nodeS0_ 199
_Z21plugin_add_using_declPN10cc1_plugin10connectionE18gcc_cp_symbol_kindy tree_code_type 223
_Z21plugin_add_using_declPN10cc1_plugin10connectionE18gcc_cp_symbol_kindy global_trees 275
_Z21plugin_add_using_declPN10cc1_plugin10connectionE18gcc_cp_symbol_kindy scope_chain 282
_Z21plugin_add_using_declPN10cc1_plugin10connectionE18gcc_cp_symbol_kindy _Z25finish_member_declarationP9tree_node 294
_Z21plugin_add_using_declPN10cc1_plugin10connectionE18gcc_cp_symbol_kindy global_namespace 329
_Z21plugin_add_using_declPN10cc1_plugin10connectionE18gcc_cp_symbol_kindy global_trees 351
_Z21plugin_add_using_declPN10cc1_plugin10connectionE18gcc_cp_symbol_kindy scope_chain 358
_Z21plugin_add_using_declPN10cc1_plugin10connectionE18gcc_cp_symbol_kindy global_trees 371
_Z21plugin_add_using_declPN10cc1_plugin10connectionE18gcc_cp_symbol_kindy scope_chain 378
_Z21plugin_add_using_declPN10cc1_plugin10connectionE18gcc_cp_symbol_kindy _Z11fancy_abortPKciS0_ 404
_Z21plugin_add_using_declPN10cc1_plugin10connectionE18gcc_cp_symbol_kindy _Z11fancy_abortPKciS0_ 424
_Z21plugin_add_using_declPN10cc1_plugin10connectionE18gcc_cp_symbol_kindy _Z11fancy_abortPKciS0_ 444
_Z21plugin_add_using_declPN10cc1_plugin10connectionE18gcc_cp_symbol_kindy _Z11fancy_abortPKciS0_ 464
_Z21plugin_add_using_declPN10cc1_plugin10connectionE18gcc_cp_symbol_kindy _Z11fancy_abortPKciS0_ 484
_Z21plugin_add_using_declPN10cc1_plugin10connectionE18gcc_cp_symbol_kindy _Z11fancy_abortPKciS0_ 504
_Z26plugin_add_namespace_aliasPN10cc1_plugin10connectionEPKcy _Z14get_identifierPKc 8
_Z26plugin_add_namespace_aliasPN10cc1_plugin10connectionEPKcy _Z18do_namespace_aliasP9tree_nodeS0_ 19
_Z26plugin_add_using_namespacePN10cc1_plugin10connectionEy _Z18do_using_directiveP9tree_node 14
_Z26plugin_add_using_namespacePN10cc1_plugin10connectionEy _Z11fancy_abortPKciS0_ 44
_Z28plugin_make_namespace_inlinePN10cc1_plugin10connectionE scope_chain 9
_Z28plugin_make_namespace_inlinePN10cc1_plugin10connectionE _Z19toplevel_bindings_pv 18
_Z28plugin_make_namespace_inlinePN10cc1_plugin10connectionE global_namespace 33
_Z28plugin_make_namespace_inlinePN10cc1_plugin10connectionE _Z14purpose_memberPK9tree_nodePS_ 69
_Z28plugin_make_namespace_inlinePN10cc1_plugin10connectionE _Z13pop_namespacev 105
_Z28plugin_make_namespace_inlinePN10cc1_plugin10connectionE scope_chain 112
_Z28plugin_make_namespace_inlinePN10cc1_plugin10connectionE _Z14tree_cons_statP9tree_nodeS0_S0_ 132
_Z28plugin_make_namespace_inlinePN10cc1_plugin10connectionE _Z18do_using_directiveP9tree_node 144
_Z28plugin_make_namespace_inlinePN10cc1_plugin10connectionE _Z14push_namespaceP9tree_node 153
_Z28plugin_make_namespace_inlinePN10cc1_plugin10connectionE _Z11fancy_abortPKciS0_ 185
_Z28plugin_make_namespace_inlinePN10cc1_plugin10connectionE _Z11fancy_abortPKciS0_ 205
_Z28plugin_make_namespace_inlinePN10cc1_plugin10connectionE _Z11fancy_abortPKciS0_ 225
_Z17plugin_push_classPN10cc1_plugin10connectionEy _Z13current_scopev 34
_Z17plugin_push_classPN10cc1_plugin10connectionEy global_namespace 41
_Z17plugin_push_classPN10cc1_plugin10connectionEy _Z13current_scopev 48
_Z17plugin_push_classPN10cc1_plugin10connectionEy _Z9pushclassP9tree_node 61
_Z17plugin_push_classPN10cc1_plugin10connectionEy _Z13current_scopev 89
_Z17plugin_push_classPN10cc1_plugin10connectionEy _Z11fancy_abortPKciS0_ 115
_Z17plugin_push_classPN10cc1_plugin10connectionEy _Z11fancy_abortPKciS0_ 135
_Z21plugin_push_namespacePN10cc1_plugin10connectionEPKc _Z14get_identifierPKc 20
_Z21plugin_push_namespacePN10cc1_plugin10connectionEPKc _Z14push_namespaceP9tree_node 28
_Z21plugin_push_namespacePN10cc1_plugin10connectionEPKc _Z17push_to_top_levelv 49
_ZN10cc1_plugin10unmarshallEPNS_10connectionEPP20gcc_cp_function_args _ZN10cc1_plugin22unmarshall_array_startEPNS_10connectionEcPm 36
_ZN10cc1_plugin10unmarshallEPNS_10connectionEPP20gcc_cp_function_args _Znwm 62
_ZN10cc1_plugin10unmarshallEPNS_10connectionEPP20gcc_cp_function_args _Znam 81
_ZN10cc1_plugin10unmarshallEPNS_10connectionEPP20gcc_cp_function_args _ZN10cc1_plugin22unmarshall_array_elmtsEPNS_10connectionEmPv 105
_ZN10cc1_plugin10unmarshallEPNS_10connectionEPP20gcc_cp_function_args _ZdaPv 123
_ZN10cc1_plugin10unmarshallEPNS_10connectionEPP20gcc_cp_function_args _ZdlPv 131
_ZN10cc1_plugin10unmarshallEPNS_10connectionEPP20gcc_cp_template_args _ZN10cc1_plugin22unmarshall_array_startEPNS_10connectionEcPm 36
_ZN10cc1_plugin10unmarshallEPNS_10connectionEPP20gcc_cp_template_args _Znwm 62
_ZN10cc1_plugin10unmarshallEPNS_10connectionEPP20gcc_cp_template_args _Znam 77
_ZN10cc1_plugin10unmarshallEPNS_10connectionEPP20gcc_cp_template_args _ZN10cc1_plugin22unmarshall_array_elmtsEPNS_10connectionEmPv 97
_ZN10cc1_plugin10unmarshallEPNS_10connectionEPP20gcc_cp_template_args _ZdaPv 115
_ZN10cc1_plugin10unmarshallEPNS_10connectionEPP20gcc_cp_template_args _ZdlPv 123
_ZN10cc1_plugin10unmarshallEPNS_10connectionEPP20gcc_cp_template_args _Znam 178
_ZN10cc1_plugin10unmarshallEPNS_10connectionEPP20gcc_cp_template_args _ZN10cc1_plugin22unmarshall_array_elmtsEPNS_10connectionEmPv 202
_ZN10cc1_plugin10unmarshallEPNS_10connectionEPP20gcc_cp_template_args _ZdaPv 225
_ZN10cc1_plugin10unmarshallEPNS_10connectionEPP15gcc_vbase_array _ZN10cc1_plugin22unmarshall_array_startEPNS_10connectionEcPm 36
_ZN10cc1_plugin10unmarshallEPNS_10connectionEPP15gcc_vbase_array _Znwm 62
_ZN10cc1_plugin10unmarshallEPNS_10connectionEPP15gcc_vbase_array _Znam 81
_ZN10cc1_plugin10unmarshallEPNS_10connectionEPP15gcc_vbase_array _ZN10cc1_plugin22unmarshall_array_elmtsEPNS_10connectionEmPv 105
_ZN10cc1_plugin10unmarshallEPNS_10connectionEPP15gcc_vbase_array _ZdaPv 123
_ZN10cc1_plugin10unmarshallEPNS_10connectionEPP15gcc_vbase_array _ZdlPv 131
_ZN10cc1_plugin10unmarshallEPNS_10connectionEPP15gcc_vbase_array _Znam 186
_ZN10cc1_plugin10unmarshallEPNS_10connectionEPP15gcc_vbase_array _ZN10cc1_plugin22unmarshall_array_elmtsEPNS_10connectionEmPv 210
_ZN10cc1_plugin10unmarshallEPNS_10connectionEPP15gcc_vbase_array _ZdaPv 228
_ZN10cc1_plugin8marshallEPNS_10connectionEPK20gcc_cp_function_args _ZN10cc1_plugin20marshall_array_startEPNS_10connectionEcm 52
_ZN10cc1_plugin8marshallEPNS_10connectionEPK20gcc_cp_function_args _ZN10cc1_plugin20marshall_array_elmtsEPNS_10connectionEmPv 103
_ZN10cc1_plugin8marshallEPNS_10connectionEPK20gcc_cp_template_args _ZN10cc1_plugin20marshall_array_startEPNS_10connectionEcm 52
_ZN10cc1_plugin8marshallEPNS_10connectionEPK20gcc_cp_template_args _ZN10cc1_plugin20marshall_array_elmtsEPNS_10connectionEmPv 81
_ZN10cc1_plugin8marshallEPNS_10connectionEPK20gcc_cp_template_args _ZN10cc1_plugin20marshall_array_elmtsEPNS_10connectionEmPv 146
_ZN10cc1_plugin8marshallEPNS_10connectionEPK15gcc_vbase_array _ZN10cc1_plugin20marshall_array_startEPNS_10connectionEcm 52
_ZN10cc1_plugin8marshallEPNS_10connectionEPK15gcc_vbase_array _ZN10cc1_plugin20marshall_array_elmtsEPNS_10connectionEmPv 86
_ZN10cc1_plugin8marshallEPNS_10connectionEPK15gcc_vbase_array _ZN10cc1_plugin20marshall_array_elmtsEPNS_10connectionEmPv 154
_ZL21plugin_binding_oracle17cp_oracle_requestP9tree_node _ZN10cc1_plugin10connection4sendEc 51
_ZL21plugin_binding_oracle17cp_oracle_requestP9tree_node _ZN10cc1_plugin8marshallEPNS_10connectionEPKc 89
_ZL21plugin_binding_oracle17cp_oracle_requestP9tree_node _ZN10cc1_plugin16marshall_intlikeEPNS_10connectionEy 106
_ZL21plugin_binding_oracle17cp_oracle_requestP9tree_node _ZN10cc1_plugin16marshall_intlikeEPNS_10connectionEy 120
_ZL21plugin_binding_oracle17cp_oracle_requestP9tree_node _ZN10cc1_plugin8marshallEPNS_10connectionEPKc 135
_ZL21plugin_binding_oracle17cp_oracle_requestP9tree_node _ZN10cc1_plugin10connection7do_waitEb 152
_ZL21plugin_binding_oracle17cp_oracle_requestP9tree_node _ZN10cc1_plugin18unmarshall_intlikeEPNS_10connectionEPy 169
_ZL21plugin_binding_oracle17cp_oracle_requestP9tree_node _Z11fancy_abortPKciS0_ 191
_ZL21plugin_binding_oracle17cp_oracle_requestP9tree_node _Z11fancy_abortPKciS0_ 211
_Z18plugin_build_fieldPN10cc1_plugin10connectionEPKcy18gcc_cp_symbol_kindmm scope_chain 42
_Z18plugin_build_fieldPN10cc1_plugin10connectionEPKcy18gcc_cp_symbol_kindmm _Z16at_class_scope_pv 60
_Z18plugin_build_fieldPN10cc1_plugin10connectionEPKcy18gcc_cp_symbol_kindmm _Z14get_identifierPKc 134
_Z18plugin_build_fieldPN10cc1_plugin10connectionEPKcy18gcc_cp_symbol_kindmm _Z15build_decl_statj9tree_codeP9tree_nodeS1_ 155
_Z18plugin_build_fieldPN10cc1_plugin10connectionEPKcy18gcc_cp_symbol_kindmm tree_code_type 173
_Z18plugin_build_fieldPN10cc1_plugin10connectionEPKcy18gcc_cp_symbol_kindmm _Z11fancy_abortPKciS0_ 196
_Z18plugin_build_fieldPN10cc1_plugin10connectionEPKcy18gcc_cp_symbol_kindmm global_trees 241
_Z18plugin_build_fieldPN10cc1_plugin10connectionEPKcy18gcc_cp_symbol_kindmm scope_chain 248
_Z18plugin_build_fieldPN10cc1_plugin10connectionEPKcy18gcc_cp_symbol_kindmm global_trees 267
_Z18plugin_build_fieldPN10cc1_plugin10connectionEPKcy18gcc_cp_symbol_kindmm scope_chain 274
_Z18plugin_build_fieldPN10cc1_plugin10connectionEPKcy18gcc_cp_symbol_kindmm global_trees 328
_Z18plugin_build_fieldPN10cc1_plugin10connectionEPKcy18gcc_cp_symbol_kindmm _Z13size_int_kindl14size_type_kind 382
_Z18plugin_build_fieldPN10cc1_plugin10connectionEPKcy18gcc_cp_symbol_kindmm _Z12pos_from_bitPP9tree_nodeS1_jS0_ 417
_Z18plugin_build_fieldPN10cc1_plugin10connectionEPKcy18gcc_cp_symbol_kindmm _Z13size_int_kindl14size_type_kind 430
_Z18plugin_build_fieldPN10cc1_plugin10connectionEPKcy18gcc_cp_symbol_kindmm _Z13size_int_kindl14size_type_kind 450
_Z18plugin_build_fieldPN10cc1_plugin10connectionEPKcy18gcc_cp_symbol_kindmm _Z29c_build_bitfield_integer_typemi 553
_Z18plugin_build_fieldPN10cc1_plugin10connectionEPKcy18gcc_cp_symbol_kindmm global_trees 584
_Z18plugin_build_fieldPN10cc1_plugin10connectionEPKcy18gcc_cp_symbol_kindmm scope_chain 591
_Z18plugin_build_fieldPN10cc1_plugin10connectionEPKcy18gcc_cp_symbol_kindmm _Z16vector_type_modePK9tree_node 612
_Z18plugin_build_fieldPN10cc1_plugin10connectionEPKcy18gcc_cp_symbol_kindmm _Z11fancy_abortPKciS0_ 637
_Z18plugin_build_fieldPN10cc1_plugin10connectionEPKcy18gcc_cp_symbol_kindmm _Z11fancy_abortPKciS0_ 657
_Z18plugin_build_fieldPN10cc1_plugin10connectionEPKcy18gcc_cp_symbol_kindmm _Z11fancy_abortPKciS0_ 677
_Z18plugin_build_fieldPN10cc1_plugin10connectionEPKcy18gcc_cp_symbol_kindmm _Z11fancy_abortPKciS0_ 697
_Z18plugin_build_fieldPN10cc1_plugin10connectionEPKcy18gcc_cp_symbol_kindmm _Z11fancy_abortPKciS0_ 717
T.1708 prime_tab 69
T.1708 prime_tab 75
T.1708 prime_tab 81
T.1708 prime_tab 87
T.1708 strcmp 190
T.1708 strcmp 229
T.1708 _ZN10hash_tableI13string_hasher11xcallocatorE6expandEv 365
_ZL19record_decl_addressP14plugin_context15decl_addr_value prime_tab 80
_ZL19record_decl_addressP14plugin_context15decl_addr_value prime_tab 86
_ZL19record_decl_addressP14plugin_context15decl_addr_value prime_tab 92
_ZL19record_decl_addressP14plugin_context15decl_addr_value prime_tab 98
_ZL19record_decl_addressP14plugin_context15decl_addr_value xmalloc 325
_ZL19record_decl_addressP14plugin_context15decl_addr_value _Z11fancy_abortPKciS0_ 388
_ZL19record_decl_addressP14plugin_context15decl_addr_value _ZN10hash_tableI16decl_addr_hasher11xcallocatorE6expandEv 405
_Z25plugin_define_cdtor_clonePN10cc1_plugin10connectionEPKcyy cp_global_trees 69
_Z25plugin_define_cdtor_clonePN10cc1_plugin10connectionEPKcyy _Z11fancy_abortPKciS0_ 111
_Z25plugin_define_cdtor_clonePN10cc1_plugin10connectionEPKcyy _Z11fancy_abortPKciS0_ 169
_Z25plugin_define_cdtor_clonePN10cc1_plugin10connectionEPKcyy cp_global_trees 186
_Z25plugin_define_cdtor_clonePN10cc1_plugin10connectionEPKcyy _Z22decl_cloned_function_pPK9tree_nodeb 222
_Z25plugin_define_cdtor_clonePN10cc1_plugin10connectionEPKcyy cp_global_trees 243
_Z25plugin_define_cdtor_clonePN10cc1_plugin10connectionEPKcyy _Z22decl_cloned_function_pPK9tree_nodeb 294
_Z25plugin_define_cdtor_clonePN10cc1_plugin10connectionEPKcyy global_trees 316
_Z25plugin_define_cdtor_clonePN10cc1_plugin10connectionEPKcyy _Z18build_int_cst_typeP9tree_nodel 324
_Z25plugin_define_cdtor_clonePN10cc1_plugin10connectionEPKcyy cp_global_trees 369
_Z25plugin_define_cdtor_clonePN10cc1_plugin10connectionEPKcyy _Z22decl_cloned_function_pPK9tree_nodeb 445
_Z25plugin_define_cdtor_clonePN10cc1_plugin10connectionEPKcyy cp_global_trees 466
_Z25plugin_define_cdtor_clonePN10cc1_plugin10connectionEPKcyy cp_global_trees 491
_Z25plugin_define_cdtor_clonePN10cc1_plugin10connectionEPKcyy cp_global_trees 500
_Z25plugin_define_cdtor_clonePN10cc1_plugin10connectionEPKcyy cp_global_trees 515
_Z25plugin_define_cdtor_clonePN10cc1_plugin10connectionEPKcyy cp_global_trees 527
_Z25plugin_define_cdtor_clonePN10cc1_plugin10connectionEPKcyy _Z11fancy_abortPKciS0_ 584
_Z21plugin_build_new_exprPN10cc1_plugin10connectionEPKcPK20gcc_cp_function_argsyS6_ _Z16make_tree_vectorv 68
_Z21plugin_build_new_exprPN10cc1_plugin10connectionEPKcPK20gcc_cp_function_argsyS6_ _ZN10vec_prefix22calculate_allocation_1Ejj 181
_Z21plugin_build_new_exprPN10cc1_plugin10connectionEPKcPK20gcc_cp_function_argsyS6_ _Z8ggc_freePv 200
_Z21plugin_build_new_exprPN10cc1_plugin10connectionEPKcPK20gcc_cp_function_argsyS6_ _Z20ggc_round_alloc_sizem 233
_Z21plugin_build_new_exprPN10cc1_plugin10connectionEPKcPK20gcc_cp_function_argsyS6_ _Z11ggc_reallocPvm 272
_Z21plugin_build_new_exprPN10cc1_plugin10connectionEPKcPK20gcc_cp_function_argsyS6_ _Z16make_tree_vectorv 354
_Z21plugin_build_new_exprPN10cc1_plugin10connectionEPKcPK20gcc_cp_function_argsyS6_ _ZN10vec_prefix22calculate_allocation_1Ejj 466
_Z21plugin_build_new_exprPN10cc1_plugin10connectionEPKcPK20gcc_cp_function_argsyS6_ _Z8ggc_freePv 484
_Z21plugin_build_new_exprPN10cc1_plugin10connectionEPKcPK20gcc_cp_function_argsyS6_ _Z20ggc_round_alloc_sizem 521
_Z21plugin_build_new_exprPN10cc1_plugin10connectionEPKcPK20gcc_cp_function_argsyS6_ _Z11ggc_reallocPvm 560
_Z21plugin_build_new_exprPN10cc1_plugin10connectionEPKcPK20gcc_cp_function_argsyS6_ tree_code_type 636
_Z21plugin_build_new_exprPN10cc1_plugin10connectionEPKcPK20gcc_cp_function_argsyS6_ _Z11fancy_abortPKciS0_ 711
_Z21plugin_build_new_exprPN10cc1_plugin10connectionEPKcPK20gcc_cp_function_argsyS6_ _Z20ggc_round_alloc_sizem 731
_Z21plugin_build_new_exprPN10cc1_plugin10connectionEPKcPK20gcc_cp_function_argsyS6_ _Z20ggc_round_alloc_sizem 771
_Z21plugin_build_new_exprPN10cc1_plugin10connectionEPKcPK20gcc_cp_function_argsyS6_ scope_chain 845
_Z21plugin_build_new_exprPN10cc1_plugin10connectionEPKcPK20gcc_cp_function_argsyS6_ _Z16dependent_type_pP9tree_node 867
_Z21plugin_build_new_exprPN10cc1_plugin10connectionEPKcPK20gcc_cp_function_argsyS6_ _Z9build_newPP3vecIP9tree_node5va_gc8vl_embedES1_S1_S6_ii 911
_Z21plugin_build_new_exprPN10cc1_plugin10connectionEPKcPK20gcc_cp_function_argsyS6_ scope_chain 921
_Z21plugin_build_new_exprPN10cc1_plugin10connectionEPKcPK20gcc_cp_function_argsyS6_ _Z19release_tree_vectorP3vecIP9tree_node5va_gc8vl_embedE 940
_Z21plugin_build_new_exprPN10cc1_plugin10connectionEPKcPK20gcc_cp_function_argsyS6_ _Z19release_tree_vectorP3vecIP9tree_node5va_gc8vl_embedE 955
_Z21plugin_build_new_exprPN10cc1_plugin10connectionEPKcPK20gcc_cp_function_argsyS6_ prime_tab 1014
_Z21plugin_build_new_exprPN10cc1_plugin10connectionEPKcPK20gcc_cp_function_argsyS6_ prime_tab 1020
_Z21plugin_build_new_exprPN10cc1_plugin10connectionEPKcPK20gcc_cp_function_argsyS6_ prime_tab 1026
_Z21plugin_build_new_exprPN10cc1_plugin10connectionEPKcPK20gcc_cp_function_argsyS6_ prime_tab 1032
_Z21plugin_build_new_exprPN10cc1_plugin10connectionEPKcPK20gcc_cp_function_argsyS6_ scope_chain 1321
_Z21plugin_build_new_exprPN10cc1_plugin10connectionEPKcPK20gcc_cp_function_argsyS6_ global_trees 1328
_Z21plugin_build_new_exprPN10cc1_plugin10connectionEPKcPK20gcc_cp_function_argsyS6_ _Z28value_dependent_expression_pP9tree_node 1344
_Z21plugin_build_new_exprPN10cc1_plugin10connectionEPKcPK20gcc_cp_function_argsyS6_ _Z20fold_build2_stat_locj9tree_codeP9tree_nodeS1_S1_ 1372
_Z21plugin_build_new_exprPN10cc1_plugin10connectionEPKcPK20gcc_cp_function_argsyS6_ scope_chain 1382
_Z21plugin_build_new_exprPN10cc1_plugin10connectionEPKcPK20gcc_cp_function_argsyS6_ _Z28value_dependent_expression_pP9tree_node 1444
_Z21plugin_build_new_exprPN10cc1_plugin10connectionEPKcPK20gcc_cp_function_argsyS6_ _Z30any_type_dependent_arguments_pPK3vecIP9tree_node5va_gc8vl_embedE 1467
_Z21plugin_build_new_exprPN10cc1_plugin10connectionEPKcPK20gcc_cp_function_argsyS6_ _Z30any_type_dependent_arguments_pPK3vecIP9tree_node5va_gc8vl_embedE 1490
_Z21plugin_build_new_exprPN10cc1_plugin10connectionEPKcPK20gcc_cp_function_argsyS6_ scope_chain 1505
_Z21plugin_build_new_exprPN10cc1_plugin10connectionEPKcPK20gcc_cp_function_argsyS6_ _Z9build_newPP3vecIP9tree_node5va_gc8vl_embedES1_S1_S6_ii 1545
_Z21plugin_build_new_exprPN10cc1_plugin10connectionEPKcPK20gcc_cp_function_argsyS6_ _ZN10hash_tableI15nofree_ptr_hashI9tree_nodeE11xcallocatorE6expandEv 1565
_Z21plugin_build_new_exprPN10cc1_plugin10connectionEPKcPK20gcc_cp_function_argsyS6_ _Z27type_dependent_expression_pP9tree_node 1588
_Z21plugin_build_new_exprPN10cc1_plugin10connectionEPKcPK20gcc_cp_function_argsyS6_ scope_chain 1603
_Z21plugin_build_new_exprPN10cc1_plugin10connectionEPKcPK20gcc_cp_function_argsyS6_ _Z16fold_convert_locjP9tree_nodeS0_ 1620
_Z21plugin_build_new_exprPN10cc1_plugin10connectionEPKcPK20gcc_cp_function_argsyS6_ _Z20fold_build2_stat_locj9tree_codeP9tree_nodeS1_S1_ 1640
_Z21plugin_build_new_exprPN10cc1_plugin10connectionEPKcPK20gcc_cp_function_argsyS6_ scope_chain 1650
_Z21plugin_build_new_exprPN10cc1_plugin10connectionEPKcPK20gcc_cp_function_argsyS6_ _Z11fancy_abortPKciS0_ 1697
_Z21plugin_build_new_exprPN10cc1_plugin10connectionEPKcPK20gcc_cp_function_argsyS6_ _Z11fancy_abortPKciS0_ 1717
_Z21plugin_build_new_exprPN10cc1_plugin10connectionEPKcPK20gcc_cp_function_argsyS6_ _Z11fancy_abortPKciS0_ 1737
_Z21plugin_build_new_exprPN10cc1_plugin10connectionEPKcPK20gcc_cp_function_argsyS6_ _Z11fancy_abortPKciS0_ 1757
_Z21plugin_build_new_exprPN10cc1_plugin10connectionEPKcPK20gcc_cp_function_argsyS6_ _Z11fancy_abortPKciS0_ 1777
T.1702 prime_tab 54
T.1702 prime_tab 60
T.1702 prime_tab 67
T.1702 prime_tab 73
T.1702 _ZN10hash_tableIN8hash_mapIN21mem_alloc_descriptionI9mem_usageE17mem_location_hashEPS2_21simple_hashmap_traitsI19default_hash_traitsIS4_ES5_EE10hash_entryE11xcallocatorE6expandEv 401
T.1703 _Z29hash_table_higher_prime_indexm 66
T.1703 prime_tab 86
T.1703 xcalloc 94
T.1703 _Z11fancy_abortPKciS0_ 175
_Z24plugin_add_static_assertPN10cc1_plugin10connectionEyPKcS3_j strlen 62
_Z24plugin_add_static_assertPN10cc1_plugin10connectionEyPKcS3_j _Z12build_stringiPKc 75
_Z24plugin_add_static_assertPN10cc1_plugin10connectionEyPKcS3_j c_global_trees 85
_Z24plugin_add_static_assertPN10cc1_plugin10connectionEyPKcS3_j _Z15fix_string_typeP9tree_node 97
_Z24plugin_add_static_assertPN10cc1_plugin10connectionEyPKcS3_j htab_hash_string 115
_Z24plugin_add_static_assertPN10cc1_plugin10connectionEyPKcS3_j line_table 153
_Z24plugin_add_static_assertPN10cc1_plugin10connectionEyPKcS3_j _Z11linemap_addP9line_maps9lc_reasonjPKcj 165
_Z24plugin_add_static_assertPN10cc1_plugin10connectionEyPKcS3_j line_table 172
_Z24plugin_add_static_assertPN10cc1_plugin10connectionEyPKcS3_j _Z18linemap_line_startP9line_mapsjj 182
_Z24plugin_add_static_assertPN10cc1_plugin10connectionEyPKcS3_j line_table 189
_Z24plugin_add_static_assertPN10cc1_plugin10connectionEyPKcS3_j _Z11linemap_addP9line_maps9lc_reasonjPKcj 208
_Z24plugin_add_static_assertPN10cc1_plugin10connectionEyPKcS3_j _Z16at_class_scope_pv 213
_Z24plugin_add_static_assertPN10cc1_plugin10connectionEyPKcS3_j _Z20finish_static_assertP9tree_nodeS0_jb 229
_Z24plugin_add_static_assertPN10cc1_plugin10connectionEyPKcS3_j xstrdup 310
_Z25plugin_build_literal_exprPN10cc1_plugin10connectionEym _Z18build_int_cst_typeP9tree_nodel 16
_Z25plugin_build_literal_exprPN10cc1_plugin10connectionEym prime_tab 75
_Z25plugin_build_literal_exprPN10cc1_plugin10connectionEym prime_tab 81
_Z25plugin_build_literal_exprPN10cc1_plugin10connectionEym prime_tab 88
_Z25plugin_build_literal_exprPN10cc1_plugin10connectionEym prime_tab 94
_Z25plugin_build_literal_exprPN10cc1_plugin10connectionEym _ZN10hash_tableI15nofree_ptr_hashI9tree_nodeE11xcallocatorE6expandEv 346
_Z37plugin_build_dependent_class_templatePN10cc1_plugin10connectionEyPKc _Z14get_identifierPKc 16
_Z37plugin_build_dependent_class_templatePN10cc1_plugin10connectionEyPKc _Z27make_unbound_class_templateP9tree_nodeS0_S0_i 34
_Z37plugin_build_dependent_class_templatePN10cc1_plugin10connectionEyPKc prime_tab 93
_Z37plugin_build_dependent_class_templatePN10cc1_plugin10connectionEyPKc prime_tab 99
_Z37plugin_build_dependent_class_templatePN10cc1_plugin10connectionEyPKc prime_tab 106
_Z37plugin_build_dependent_class_templatePN10cc1_plugin10connectionEyPKc prime_tab 112
_Z37plugin_build_dependent_class_templatePN10cc1_plugin10connectionEyPKc _ZN10hash_tableI15nofree_ptr_hashI9tree_nodeE11xcallocatorE6expandEv 378
_Z31plugin_build_dependent_typenamePN10cc1_plugin10connectionEyPKcPK20gcc_cp_template_args _Z14get_identifierPKc 23
_Z31plugin_build_dependent_typenamePN10cc1_plugin10connectionEyPKcPK20gcc_cp_template_args _Z16build_min_nt_locj9tree_codez 59
_Z31plugin_build_dependent_typenamePN10cc1_plugin10connectionEyPKcPK20gcc_cp_template_args _Z18make_typename_typeP9tree_nodeS0_9tag_typesi 83
_Z31plugin_build_dependent_typenamePN10cc1_plugin10connectionEyPKcPK20gcc_cp_template_args prime_tab 142
_Z31plugin_build_dependent_typenamePN10cc1_plugin10connectionEyPKcPK20gcc_cp_template_args prime_tab 148
_Z31plugin_build_dependent_typenamePN10cc1_plugin10connectionEyPKcPK20gcc_cp_template_args prime_tab 155
_Z31plugin_build_dependent_typenamePN10cc1_plugin10connectionEyPKcPK20gcc_cp_template_args prime_tab 161
_Z31plugin_build_dependent_typenamePN10cc1_plugin10connectionEyPKcPK20gcc_cp_template_args _ZN10hash_tableI15nofree_ptr_hashI9tree_nodeE11xcallocatorE6expandEv 434
_Z35plugin_build_pointer_to_member_typePN10cc1_plugin10connectionEyy _Z17build_ptrmem_typeP9tree_nodeS0_ 16
_Z35plugin_build_pointer_to_member_typePN10cc1_plugin10connectionEyy prime_tab 75
_Z35plugin_build_pointer_to_member_typePN10cc1_plugin10connectionEyy prime_tab 81
_Z35plugin_build_pointer_to_member_typePN10cc1_plugin10connectionEyy prime_tab 88
_Z35plugin_build_pointer_to_member_typePN10cc1_plugin10connectionEyy prime_tab 94
_Z35plugin_build_pointer_to_member_typePN10cc1_plugin10connectionEyy _ZN10hash_tableI15nofree_ptr_hashI9tree_nodeE11xcallocatorE6expandEv 346
_Z35plugin_build_exception_spec_variantPN10cc1_plugin10connectionEyPK14gcc_type_array _Z23add_exception_specifierP9tree_nodeS0_i 77
_Z35plugin_build_exception_spec_variantPN10cc1_plugin10connectionEyPK14gcc_type_array _Z23build_exception_variantP9tree_nodeS0_ 94
_Z35plugin_build_exception_spec_variantPN10cc1_plugin10connectionEyPK14gcc_type_array prime_tab 153
_Z35plugin_build_exception_spec_variantPN10cc1_plugin10connectionEyPK14gcc_type_array prime_tab 159
_Z35plugin_build_exception_spec_variantPN10cc1_plugin10connectionEyPK14gcc_type_array prime_tab 166
_Z35plugin_build_exception_spec_variantPN10cc1_plugin10connectionEyPK14gcc_type_array prime_tab 172
_Z35plugin_build_exception_spec_variantPN10cc1_plugin10connectionEyPK14gcc_type_array cp_global_trees 411
_Z35plugin_build_exception_spec_variantPN10cc1_plugin10connectionEyPK14gcc_type_array _ZN10hash_tableI15nofree_ptr_hashI9tree_nodeE11xcallocatorE6expandEv 458
_Z35plugin_build_exception_spec_variantPN10cc1_plugin10connectionEyPK14gcc_type_array cp_global_trees 523
_Z33plugin_build_dependent_array_typePN10cc1_plugin10connectionEyy _Z26get_identifier_with_lengthPKcm 30
_Z33plugin_build_dependent_array_typePN10cc1_plugin10connectionEyy scope_chain 40
_Z33plugin_build_dependent_array_typePN10cc1_plugin10connectionEyy _Z16dependent_type_pP9tree_node 52
_Z33plugin_build_dependent_array_typePN10cc1_plugin10connectionEyy _Z24compute_array_index_typeP9tree_nodeS0_i 76
_Z33plugin_build_dependent_array_typePN10cc1_plugin10connectionEyy _Z22build_cplus_array_typeP9tree_nodeS0_ 87
_Z33plugin_build_dependent_array_typePN10cc1_plugin10connectionEyy scope_chain 94
_Z33plugin_build_dependent_array_typePN10cc1_plugin10connectionEyy prime_tab 157
_Z33plugin_build_dependent_array_typePN10cc1_plugin10connectionEyy prime_tab 163
_Z33plugin_build_dependent_array_typePN10cc1_plugin10connectionEyy prime_tab 170
_Z33plugin_build_dependent_array_typePN10cc1_plugin10connectionEyy prime_tab 176
_Z33plugin_build_dependent_array_typePN10cc1_plugin10connectionEyy _Z27type_dependent_expression_pP9tree_node 444
_Z33plugin_build_dependent_array_typePN10cc1_plugin10connectionEyy _Z28value_dependent_expression_pP9tree_node 460
_Z33plugin_build_dependent_array_typePN10cc1_plugin10connectionEyy scope_chain 475
_Z33plugin_build_dependent_array_typePN10cc1_plugin10connectionEyy _Z24compute_array_index_typeP9tree_nodeS0_i 495
_Z33plugin_build_dependent_array_typePN10cc1_plugin10connectionEyy _Z22build_cplus_array_typeP9tree_nodeS0_ 506
_Z33plugin_build_dependent_array_typePN10cc1_plugin10connectionEyy _ZN10hash_tableI15nofree_ptr_hashI9tree_nodeE11xcallocatorE6expandEv 530
_Z42plugin_build_class_template_specializationPN10cc1_plugin10connectionEyPK20gcc_cp_template_argsPKcj htab_hash_string 40
_Z42plugin_build_class_template_specializationPN10cc1_plugin10connectionEyPK20gcc_cp_template_argsPKcj line_table 78
_Z42plugin_build_class_template_specializationPN10cc1_plugin10connectionEyPK20gcc_cp_template_argsPKcj _Z11linemap_addP9line_maps9lc_reasonjPKcj 90
_Z42plugin_build_class_template_specializationPN10cc1_plugin10connectionEyPK20gcc_cp_template_argsPKcj line_table 97
_Z42plugin_build_class_template_specializationPN10cc1_plugin10connectionEyPK20gcc_cp_template_argsPKcj _Z18linemap_line_startP9line_mapsjj 107
_Z42plugin_build_class_template_specializationPN10cc1_plugin10connectionEyPK20gcc_cp_template_argsPKcj line_table 114
_Z42plugin_build_class_template_specializationPN10cc1_plugin10connectionEyPK20gcc_cp_template_argsPKcj _Z11linemap_addP9line_maps9lc_reasonjPKcj 133
_Z42plugin_build_class_template_specializationPN10cc1_plugin10connectionEyPK20gcc_cp_template_argsPKcj _Z20finish_template_typeP9tree_nodeS0_i 154
_Z42plugin_build_class_template_specializationPN10cc1_plugin10connectionEyPK20gcc_cp_template_argsPKcj prime_tab 216
_Z42plugin_build_class_template_specializationPN10cc1_plugin10connectionEyPK20gcc_cp_template_argsPKcj prime_tab 222
_Z42plugin_build_class_template_specializationPN10cc1_plugin10connectionEyPK20gcc_cp_template_argsPKcj prime_tab 229
_Z42plugin_build_class_template_specializationPN10cc1_plugin10connectionEyPK20gcc_cp_template_argsPKcj prime_tab 235
_Z42plugin_build_class_template_specializationPN10cc1_plugin10connectionEyPK20gcc_cp_template_argsPKcj _ZN10hash_tableI15nofree_ptr_hashI9tree_nodeE11xcallocatorE6expandEv 506
_Z42plugin_build_class_template_specializationPN10cc1_plugin10connectionEyPK20gcc_cp_template_argsPKcj xstrdup 562
_Z39plugin_build_dependent_type_template_idPN10cc1_plugin10connectionEyPK20gcc_cp_template_args _Z20finish_template_typeP9tree_nodeS0_i 29
_Z39plugin_build_dependent_type_template_idPN10cc1_plugin10connectionEyPK20gcc_cp_template_args prime_tab 92
_Z39plugin_build_dependent_type_template_idPN10cc1_plugin10connectionEyPK20gcc_cp_template_args prime_tab 98
_Z39plugin_build_dependent_type_template_idPN10cc1_plugin10connectionEyPK20gcc_cp_template_args prime_tab 105
_Z39plugin_build_dependent_type_template_idPN10cc1_plugin10connectionEyPK20gcc_cp_template_args prime_tab 111
_Z39plugin_build_dependent_type_template_idPN10cc1_plugin10connectionEyPK20gcc_cp_template_args _ZN10hash_tableI15nofree_ptr_hashI9tree_nodeE11xcallocatorE6expandEv 362
_Z45plugin_build_function_template_specializationPN10cc1_plugin10connectionEyPK20gcc_cp_template_argsyPKcj htab_hash_string 45
_Z45plugin_build_function_template_specializationPN10cc1_plugin10connectionEyPK20gcc_cp_template_argsyPKcj line_table 83
_Z45plugin_build_function_template_specializationPN10cc1_plugin10connectionEyPK20gcc_cp_template_argsyPKcj _Z11linemap_addP9line_maps9lc_reasonjPKcj 95
_Z45plugin_build_function_template_specializationPN10cc1_plugin10connectionEyPK20gcc_cp_template_argsyPKcj line_table 102
_Z45plugin_build_function_template_specializationPN10cc1_plugin10connectionEyPK20gcc_cp_template_argsyPKcj _Z18linemap_line_startP9line_mapsjj 112
_Z45plugin_build_function_template_specializationPN10cc1_plugin10connectionEyPK20gcc_cp_template_argsyPKcj line_table 119
_Z45plugin_build_function_template_specializationPN10cc1_plugin10connectionEyPK20gcc_cp_template_argsyPKcj _Z11linemap_addP9line_maps9lc_reasonjPKcj 138
_Z45plugin_build_function_template_specializationPN10cc1_plugin10connectionEyPK20gcc_cp_template_argsyPKcj _Z6tsubstP9tree_nodeS0_iS0_ 164
_Z45plugin_build_function_template_specializationPN10cc1_plugin10connectionEyPK20gcc_cp_template_argsyPKcj global_trees 174
_Z45plugin_build_function_template_specializationPN10cc1_plugin10connectionEyPK20gcc_cp_template_argsyPKcj _Z18build_int_cst_typeP9tree_nodel 192
_Z45plugin_build_function_template_specializationPN10cc1_plugin10connectionEyPK20gcc_cp_template_argsyPKcj prime_tab 267
_Z45plugin_build_function_template_specializationPN10cc1_plugin10connectionEyPK20gcc_cp_template_argsyPKcj prime_tab 273
_Z45plugin_build_function_template_specializationPN10cc1_plugin10connectionEyPK20gcc_cp_template_argsyPKcj prime_tab 279
_Z45plugin_build_function_template_specializationPN10cc1_plugin10connectionEyPK20gcc_cp_template_argsyPKcj prime_tab 285
_Z45plugin_build_function_template_specializationPN10cc1_plugin10connectionEyPK20gcc_cp_template_argsyPKcj _ZN10hash_tableI15nofree_ptr_hashI9tree_nodeE11xcallocatorE6expandEv 549
_Z45plugin_build_function_template_specializationPN10cc1_plugin10connectionEyPK20gcc_cp_template_argsyPKcj xstrdup 588
_Z20plugin_get_expr_typePN10cc1_plugin10connectionEy prime_tab 77
_Z20plugin_get_expr_typePN10cc1_plugin10connectionEy prime_tab 83
_Z20plugin_get_expr_typePN10cc1_plugin10connectionEy prime_tab 90
_Z20plugin_get_expr_typePN10cc1_plugin10connectionEy prime_tab 96
_Z20plugin_get_expr_typePN10cc1_plugin10connectionEy _ZN10hash_tableI15nofree_ptr_hashI9tree_nodeE11xcallocatorE6expandEv 362
_Z20plugin_get_expr_typePN10cc1_plugin10connectionEy _Z18make_decltype_autov 417
_Z22plugin_build_call_exprPN10cc1_plugin10connectionEyiPK20gcc_cp_function_args _Z16make_tree_vectorv 35
_Z22plugin_build_call_exprPN10cc1_plugin10connectionEyiPK20gcc_cp_function_args _ZN10vec_prefix22calculate_allocation_1Ejj 146
_Z22plugin_build_call_exprPN10cc1_plugin10connectionEyiPK20gcc_cp_function_args _Z8ggc_freePv 164
_Z22plugin_build_call_exprPN10cc1_plugin10connectionEyiPK20gcc_cp_function_args _Z20ggc_round_alloc_sizem 201
_Z22plugin_build_call_exprPN10cc1_plugin10connectionEyiPK20gcc_cp_function_args _Z11ggc_reallocPvm 240
_Z22plugin_build_call_exprPN10cc1_plugin10connectionEyiPK20gcc_cp_function_args _Z20ggc_round_alloc_sizem 307
_Z22plugin_build_call_exprPN10cc1_plugin10connectionEyiPK20gcc_cp_function_args _Z31build_offset_ref_call_from_treeP9tree_nodePP3vecIS0_5va_gc8vl_embedEi 409
_Z22plugin_build_call_exprPN10cc1_plugin10connectionEyiPK20gcc_cp_function_args _Z19release_tree_vectorP3vecIP9tree_node5va_gc8vl_embedE 429
_Z22plugin_build_call_exprPN10cc1_plugin10connectionEyiPK20gcc_cp_function_args prime_tab 481
_Z22plugin_build_call_exprPN10cc1_plugin10connectionEyiPK20gcc_cp_function_args prime_tab 487
_Z22plugin_build_call_exprPN10cc1_plugin10connectionEyiPK20gcc_cp_function_args prime_tab 493
_Z22plugin_build_call_exprPN10cc1_plugin10connectionEyiPK20gcc_cp_function_args prime_tab 499
_Z22plugin_build_call_exprPN10cc1_plugin10connectionEyiPK20gcc_cp_function_args _Z16is_overloaded_fnP9tree_node 719
_Z22plugin_build_call_exprPN10cc1_plugin10connectionEyiPK20gcc_cp_function_args _Z12get_first_fnP9tree_node 737
_Z22plugin_build_call_exprPN10cc1_plugin10connectionEyiPK20gcc_cp_function_args _Z30any_type_dependent_arguments_pPK3vecIP9tree_node5va_gc8vl_embedE 813
_Z22plugin_build_call_exprPN10cc1_plugin10connectionEyiPK20gcc_cp_function_args tree_code_type 846
_Z22plugin_build_call_exprPN10cc1_plugin10connectionEyiPK20gcc_cp_function_args _Z21perform_koenig_lookup7cp_exprP3vecIP9tree_node5va_gc8vl_embedEi 887
_Z22plugin_build_call_exprPN10cc1_plugin10connectionEyiPK20gcc_cp_function_args _Z16finish_call_exprP9tree_nodePP3vecIS0_5va_gc8vl_embedEbbi 1021
_Z22plugin_build_call_exprPN10cc1_plugin10connectionEyiPK20gcc_cp_function_args _ZN10hash_tableI15nofree_ptr_hashI9tree_nodeE11xcallocatorE6expandEv 1061
_Z22plugin_build_call_exprPN10cc1_plugin10connectionEyiPK20gcc_cp_function_args _Z27type_dependent_expression_pP9tree_node 1092
_Z22plugin_build_call_exprPN10cc1_plugin10connectionEyiPK20gcc_cp_function_args _Z17build_nt_call_vecP9tree_nodeP3vecIS0_5va_gc8vl_embedE 1111
_Z22plugin_build_call_exprPN10cc1_plugin10connectionEyiPK20gcc_cp_function_args _Z27type_dependent_expression_pP9tree_node 1166
_Z22plugin_build_call_exprPN10cc1_plugin10connectionEyiPK20gcc_cp_function_args _Z30any_type_dependent_arguments_pPK3vecIP9tree_node5va_gc8vl_embedE 1180
_Z22plugin_build_call_exprPN10cc1_plugin10connectionEyiPK20gcc_cp_function_args _Z21build_new_method_callP9tree_nodeS0_PP3vecIS0_5va_gc8vl_embedES0_iPS0_i 1237
_Z22plugin_build_call_exprPN10cc1_plugin10connectionEyiPK20gcc_cp_function_args _Z16finish_call_exprP9tree_nodePP3vecIS0_5va_gc8vl_embedEbbi 1267
_Z36plugin_build_type_template_parameterPN10cc1_plugin10connectionEPKciyS3_j htab_hash_string 46
_Z36plugin_build_type_template_parameterPN10cc1_plugin10connectionEPKciyS3_j line_table 84
_Z36plugin_build_type_template_parameterPN10cc1_plugin10connectionEPKciyS3_j _Z11linemap_addP9line_maps9lc_reasonjPKcj 96
_Z36plugin_build_type_template_parameterPN10cc1_plugin10connectionEPKciyS3_j line_table 103
_Z36plugin_build_type_template_parameterPN10cc1_plugin10connectionEPKciyS3_j _Z18linemap_line_startP9line_mapsjj 113
_Z36plugin_build_type_template_parameterPN10cc1_plugin10connectionEPKciyS3_j line_table 120
_Z36plugin_build_type_template_parameterPN10cc1_plugin10connectionEPKciyS3_j _Z11linemap_addP9line_maps9lc_reasonjPKcj 140
_Z36plugin_build_type_template_parameterPN10cc1_plugin10connectionEPKciyS3_j _Z21template_parm_scope_pv 145
_Z36plugin_build_type_template_parameterPN10cc1_plugin10connectionEPKciyS3_j _Z14get_identifierPKc 161
_Z36plugin_build_type_template_parameterPN10cc1_plugin10connectionEPKciyS3_j cp_global_trees 168
_Z36plugin_build_type_template_parameterPN10cc1_plugin10connectionEPKciyS3_j _Z25finish_template_type_parmP9tree_nodeS0_ 176
_Z36plugin_build_type_template_parameterPN10cc1_plugin10connectionEPKciyS3_j _Z20build_tree_list_statP9tree_nodeS0_ 187
_Z36plugin_build_type_template_parameterPN10cc1_plugin10connectionEPKciyS3_j scope_chain 203
_Z36plugin_build_type_template_parameterPN10cc1_plugin10connectionEPKciyS3_j _Z21process_template_parmP9tree_nodejS0_bb 235
_Z36plugin_build_type_template_parameterPN10cc1_plugin10connectionEPKciyS3_j scope_chain 246
_Z36plugin_build_type_template_parameterPN10cc1_plugin10connectionEPKciyS3_j _Z9tree_lastP9tree_node 259
_Z36plugin_build_type_template_parameterPN10cc1_plugin10connectionEPKciyS3_j prime_tab 326
_Z36plugin_build_type_template_parameterPN10cc1_plugin10connectionEPKciyS3_j prime_tab 332
_Z36plugin_build_type_template_parameterPN10cc1_plugin10connectionEPKciyS3_j prime_tab 339
_Z36plugin_build_type_template_parameterPN10cc1_plugin10connectionEPKciyS3_j prime_tab 345
_Z36plugin_build_type_template_parameterPN10cc1_plugin10connectionEPKciyS3_j _ZN10hash_tableI15nofree_ptr_hashI9tree_nodeE11xcallocatorE6expandEv 602
_Z36plugin_build_type_template_parameterPN10cc1_plugin10connectionEPKciyS3_j xstrdup 644
_Z36plugin_build_type_template_parameterPN10cc1_plugin10connectionEPKciyS3_j _Z11fancy_abortPKciS0_ 676
_Z36plugin_build_type_template_parameterPN10cc1_plugin10connectionEPKciyS3_j _Z11fancy_abortPKciS0_ 705
_Z25plugin_build_ternary_exprPN10cc1_plugin10connectionEPKcyyy scope_chain 48
_Z25plugin_build_ternary_exprPN10cc1_plugin10connectionEPKcyyy _Z27type_dependent_expression_pP9tree_node 60
_Z25plugin_build_ternary_exprPN10cc1_plugin10connectionEPKcyyy _Z24build_x_conditional_exprjP9tree_nodeS0_S0_i 90
_Z25plugin_build_ternary_exprPN10cc1_plugin10connectionEPKcyyy scope_chain 97
_Z25plugin_build_ternary_exprPN10cc1_plugin10connectionEPKcyyy prime_tab 160
_Z25plugin_build_ternary_exprPN10cc1_plugin10connectionEPKcyyy prime_tab 166
_Z25plugin_build_ternary_exprPN10cc1_plugin10connectionEPKcyyy prime_tab 173
_Z25plugin_build_ternary_exprPN10cc1_plugin10connectionEPKcyyy prime_tab 179
_Z25plugin_build_ternary_exprPN10cc1_plugin10connectionEPKcyyy _ZN10hash_tableI15nofree_ptr_hashI9tree_nodeE11xcallocatorE6expandEv 450
_Z25plugin_build_ternary_exprPN10cc1_plugin10connectionEPKcyyy _Z28value_dependent_expression_pP9tree_node 476
_Z25plugin_build_ternary_exprPN10cc1_plugin10connectionEPKcyyy _Z27type_dependent_expression_pP9tree_node 492
_Z25plugin_build_ternary_exprPN10cc1_plugin10connectionEPKcyyy _Z28value_dependent_expression_pP9tree_node 508
_Z25plugin_build_ternary_exprPN10cc1_plugin10connectionEPKcyyy _Z27type_dependent_expression_pP9tree_node 524
_Z25plugin_build_ternary_exprPN10cc1_plugin10connectionEPKcyyy _Z28value_dependent_expression_pP9tree_node 540
_Z25plugin_build_ternary_exprPN10cc1_plugin10connectionEPKcyyy scope_chain 555
_Z25plugin_build_ternary_exprPN10cc1_plugin10connectionEPKcyyy _Z24build_x_conditional_exprjP9tree_nodeS0_S0_i 581
_Z25plugin_build_ternary_exprPN10cc1_plugin10connectionEPKcyyy _Z11fancy_abortPKciS0_ 634
_Z22plugin_build_decl_exprPN10cc1_plugin10connectionEyi tree_code_type 15
_Z22plugin_build_decl_exprPN10cc1_plugin10connectionEyi tree_code_type 52
_Z22plugin_build_decl_exprPN10cc1_plugin10connectionEyi _Z16build_offset_refP9tree_nodeS0_bi 74
_Z22plugin_build_decl_exprPN10cc1_plugin10connectionEyi prime_tab 133
_Z22plugin_build_decl_exprPN10cc1_plugin10connectionEyi prime_tab 139
_Z22plugin_build_decl_exprPN10cc1_plugin10connectionEyi prime_tab 146
_Z22plugin_build_decl_exprPN10cc1_plugin10connectionEyi prime_tab 152
_Z22plugin_build_decl_exprPN10cc1_plugin10connectionEyi _ZN10hash_tableI15nofree_ptr_hashI9tree_nodeE11xcallocatorE6expandEv 410
_Z22plugin_build_decl_exprPN10cc1_plugin10connectionEyi _Z11fancy_abortPKciS0_ 470
_Z22plugin_build_decl_exprPN10cc1_plugin10connectionEyi _Z11fancy_abortPKciS0_ 490
_Z27plugin_build_dependent_exprPN10cc1_plugin10connectionEy18gcc_cp_symbol_kindPKcyPK20gcc_cp_template_args _Z14get_identifierPKc 74
_Z27plugin_build_dependent_exprPN10cc1_plugin10connectionEy18gcc_cp_symbol_kindPKcyPK20gcc_cp_template_args tree_code_type 88
_Z27plugin_build_dependent_exprPN10cc1_plugin10connectionEy18gcc_cp_symbol_kindPKcyPK20gcc_cp_template_args _Z21lookup_qualified_nameP9tree_nodeS0_ibb 118
_Z27plugin_build_dependent_exprPN10cc1_plugin10connectionEy18gcc_cp_symbol_kindPKcyPK20gcc_cp_template_args _Z24lookup_template_functionP9tree_nodeS0_ 145
_Z27plugin_build_dependent_exprPN10cc1_plugin10connectionEy18gcc_cp_symbol_kindPKcyPK20gcc_cp_template_args _Z20build_qualified_nameP9tree_nodeS0_S0_b 174
_Z27plugin_build_dependent_exprPN10cc1_plugin10connectionEy18gcc_cp_symbol_kindPKcyPK20gcc_cp_template_args prime_tab 236
_Z27plugin_build_dependent_exprPN10cc1_plugin10connectionEy18gcc_cp_symbol_kindPKcyPK20gcc_cp_template_args prime_tab 242
_Z27plugin_build_dependent_exprPN10cc1_plugin10connectionEy18gcc_cp_symbol_kindPKcyPK20gcc_cp_template_args prime_tab 248
_Z27plugin_build_dependent_exprPN10cc1_plugin10connectionEy18gcc_cp_symbol_kindPKcyPK20gcc_cp_template_args prime_tab 254
_Z27plugin_build_dependent_exprPN10cc1_plugin10connectionEy18gcc_cp_symbol_kindPKcyPK20gcc_cp_template_args _ZN10hash_tableI15nofree_ptr_hashI9tree_nodeE11xcallocatorE6expandEv 517
_Z27plugin_build_dependent_exprPN10cc1_plugin10connectionEy18gcc_cp_symbol_kindPKcyPK20gcc_cp_template_args _Z17dependent_scope_pP9tree_node 687
_Z27plugin_build_dependent_exprPN10cc1_plugin10connectionEy18gcc_cp_symbol_kindPKcyPK20gcc_cp_template_args assignment_operator_name_info 879
_Z27plugin_build_dependent_exprPN10cc1_plugin10connectionEy18gcc_cp_symbol_kindPKcyPK20gcc_cp_template_args _Z11fancy_abortPKciS0_ 908
_Z27plugin_build_dependent_exprPN10cc1_plugin10connectionEy18gcc_cp_symbol_kindPKcyPK20gcc_cp_template_args _Z11fancy_abortPKciS0_ 998
_Z27plugin_build_dependent_exprPN10cc1_plugin10connectionEy18gcc_cp_symbol_kindPKcyPK20gcc_cp_template_args operator_name_info 1097
_Z27plugin_build_dependent_exprPN10cc1_plugin10connectionEy18gcc_cp_symbol_kindPKcyPK20gcc_cp_template_args cp_global_trees 1218
_Z27plugin_build_dependent_exprPN10cc1_plugin10connectionEy18gcc_cp_symbol_kindPKcyPK20gcc_cp_template_args cp_global_trees 1428
_Z27plugin_build_dependent_exprPN10cc1_plugin10connectionEy18gcc_cp_symbol_kindPKcyPK20gcc_cp_template_args xstrndup 1795
_Z27plugin_build_dependent_exprPN10cc1_plugin10connectionEy18gcc_cp_symbol_kindPKcyPK20gcc_cp_template_args _Z22cp_literal_operator_idPKc 1806
_Z27plugin_build_dependent_exprPN10cc1_plugin10connectionEy18gcc_cp_symbol_kindPKcyPK20gcc_cp_template_args free 1817
_Z27plugin_build_dependent_exprPN10cc1_plugin10connectionEy18gcc_cp_symbol_kindPKcyPK20gcc_cp_template_args _Z28mangle_conv_op_name_for_typeP9tree_node 1968
_Z27plugin_build_dependent_exprPN10cc1_plugin10connectionEy18gcc_cp_symbol_kindPKcyPK20gcc_cp_template_args _Z22cp_literal_operator_idPKc 2119
_Z27plugin_build_dependent_exprPN10cc1_plugin10connectionEy18gcc_cp_symbol_kindPKcyPK20gcc_cp_template_args _Z11fancy_abortPKciS0_ 2156
_Z27plugin_build_dependent_exprPN10cc1_plugin10connectionEy18gcc_cp_symbol_kindPKcyPK20gcc_cp_template_args _Z11fancy_abortPKciS0_ 2188
_Z27plugin_build_dependent_exprPN10cc1_plugin10connectionEy18gcc_cp_symbol_kindPKcyPK20gcc_cp_template_args _Z11fancy_abortPKciS0_ 2208
_Z27plugin_build_dependent_exprPN10cc1_plugin10connectionEy18gcc_cp_symbol_kindPKcyPK20gcc_cp_template_args _Z11fancy_abortPKciS0_ 2240
_Z27plugin_build_dependent_exprPN10cc1_plugin10connectionEy18gcc_cp_symbol_kindPKcyPK20gcc_cp_template_args _Z11fancy_abortPKciS0_ 2272
_Z24plugin_build_lambda_exprPN10cc1_plugin10connectionEy _Z19build_lambda_objectP9tree_node 59
_Z24plugin_build_lambda_exprPN10cc1_plugin10connectionEy prime_tab 118
_Z24plugin_build_lambda_exprPN10cc1_plugin10connectionEy prime_tab 124
_Z24plugin_build_lambda_exprPN10cc1_plugin10connectionEy prime_tab 131
_Z24plugin_build_lambda_exprPN10cc1_plugin10connectionEy prime_tab 137
_Z24plugin_build_lambda_exprPN10cc1_plugin10connectionEy _ZN10hash_tableI15nofree_ptr_hashI9tree_nodeE11xcallocatorE6expandEv 394
_Z24plugin_build_lambda_exprPN10cc1_plugin10connectionEy _Z11fancy_abortPKciS0_ 454
_Z31plugin_start_closure_class_typePN10cc1_plugin10connectionEiy18gcc_cp_symbol_kindPKcj _Z16at_class_scope_pv 71
_Z31plugin_start_closure_class_typePN10cc1_plugin10connectionEiy18gcc_cp_symbol_kindPKcj _Z19at_function_scope_pv 95
_Z31plugin_start_closure_class_typePN10cc1_plugin10connectionEiy18gcc_cp_symbol_kindPKcj _Z17build_lambda_exprv 153
_Z31plugin_start_closure_class_typePN10cc1_plugin10connectionEiy18gcc_cp_symbol_kindPKcj htab_hash_string 183
_Z31plugin_start_closure_class_typePN10cc1_plugin10connectionEiy18gcc_cp_symbol_kindPKcj line_table 226
_Z31plugin_start_closure_class_typePN10cc1_plugin10connectionEiy18gcc_cp_symbol_kindPKcj _Z11linemap_addP9line_maps9lc_reasonjPKcj 235
_Z31plugin_start_closure_class_typePN10cc1_plugin10connectionEiy18gcc_cp_symbol_kindPKcj line_table 246
_Z31plugin_start_closure_class_typePN10cc1_plugin10connectionEiy18gcc_cp_symbol_kindPKcj _Z18linemap_line_startP9line_mapsjj 253
_Z31plugin_start_closure_class_typePN10cc1_plugin10connectionEiy18gcc_cp_symbol_kindPKcj line_table 260
_Z31plugin_start_closure_class_typePN10cc1_plugin10connectionEiy18gcc_cp_symbol_kindPKcj _Z11linemap_addP9line_maps9lc_reasonjPKcj 280
_Z31plugin_start_closure_class_typePN10cc1_plugin10connectionEiy18gcc_cp_symbol_kindPKcj _Z17begin_lambda_typeP9tree_node 293
_Z31plugin_start_closure_class_typePN10cc1_plugin10connectionEiy18gcc_cp_symbol_kindPKcj _Z20determine_visibilityP9tree_node 322
_Z31plugin_start_closure_class_typePN10cc1_plugin10connectionEiy18gcc_cp_symbol_kindPKcj tree_code_type 346
_Z31plugin_start_closure_class_typePN10cc1_plugin10connectionEiy18gcc_cp_symbol_kindPKcj prime_tab 451
_Z31plugin_start_closure_class_typePN10cc1_plugin10connectionEiy18gcc_cp_symbol_kindPKcj prime_tab 457
_Z31plugin_start_closure_class_typePN10cc1_plugin10connectionEiy18gcc_cp_symbol_kindPKcj prime_tab 463
_Z31plugin_start_closure_class_typePN10cc1_plugin10connectionEiy18gcc_cp_symbol_kindPKcj prime_tab 469
_Z31plugin_start_closure_class_typePN10cc1_plugin10connectionEiy18gcc_cp_symbol_kindPKcj global_trees 719
_Z31plugin_start_closure_class_typePN10cc1_plugin10connectionEiy18gcc_cp_symbol_kindPKcj scope_chain 726
_Z31plugin_start_closure_class_typePN10cc1_plugin10connectionEiy18gcc_cp_symbol_kindPKcj _ZN10hash_tableI15nofree_ptr_hashI9tree_nodeE11xcallocatorE6expandEv 757
_Z31plugin_start_closure_class_typePN10cc1_plugin10connectionEiy18gcc_cp_symbol_kindPKcj global_trees 783
_Z31plugin_start_closure_class_typePN10cc1_plugin10connectionEiy18gcc_cp_symbol_kindPKcj scope_chain 790
_Z31plugin_start_closure_class_typePN10cc1_plugin10connectionEiy18gcc_cp_symbol_kindPKcj global_trees 811
_Z31plugin_start_closure_class_typePN10cc1_plugin10connectionEiy18gcc_cp_symbol_kindPKcj scope_chain 818
_Z31plugin_start_closure_class_typePN10cc1_plugin10connectionEiy18gcc_cp_symbol_kindPKcj current_function_decl 848
_Z31plugin_start_closure_class_typePN10cc1_plugin10connectionEiy18gcc_cp_symbol_kindPKcj _Z11fancy_abortPKciS0_ 898
_Z31plugin_start_closure_class_typePN10cc1_plugin10connectionEiy18gcc_cp_symbol_kindPKcj _Z16at_class_scope_pv 937
_Z31plugin_start_closure_class_typePN10cc1_plugin10connectionEiy18gcc_cp_symbol_kindPKcj scope_chain 952
_Z31plugin_start_closure_class_typePN10cc1_plugin10connectionEiy18gcc_cp_symbol_kindPKcj _Z11fancy_abortPKciS0_ 986
_Z31plugin_start_closure_class_typePN10cc1_plugin10connectionEiy18gcc_cp_symbol_kindPKcj xstrdup 998
_Z31plugin_start_closure_class_typePN10cc1_plugin10connectionEiy18gcc_cp_symbol_kindPKcj _Z11fancy_abortPKciS0_ 1030
_Z31plugin_start_closure_class_typePN10cc1_plugin10connectionEiy18gcc_cp_symbol_kindPKcj _Z11fancy_abortPKciS0_ 1050
_Z31plugin_start_closure_class_typePN10cc1_plugin10connectionEiy18gcc_cp_symbol_kindPKcj _Z11fancy_abortPKciS0_ 1070
_Z31plugin_start_closure_class_typePN10cc1_plugin10connectionEiy18gcc_cp_symbol_kindPKcj _Z11fancy_abortPKciS0_ 1090
_Z31plugin_start_closure_class_typePN10cc1_plugin10connectionEiy18gcc_cp_symbol_kindPKcj _Z11fancy_abortPKciS0_ 1110
_Z31plugin_start_closure_class_typePN10cc1_plugin10connectionEiy18gcc_cp_symbol_kindPKcj _Z11fancy_abortPKciS0_ 1130
_Z31plugin_start_closure_class_typePN10cc1_plugin10connectionEiy18gcc_cp_symbol_kindPKcj _Z11fancy_abortPKciS0_ 1150
_Z31plugin_start_closure_class_typePN10cc1_plugin10connectionEiy18gcc_cp_symbol_kindPKcj _Z11fancy_abortPKciS0_ 1170
_Z37plugin_build_value_template_parameterPN10cc1_plugin10connectionEyPKcyS3_j htab_hash_string 52
_Z37plugin_build_value_template_parameterPN10cc1_plugin10connectionEyPKcyS3_j line_table 93
_Z37plugin_build_value_template_parameterPN10cc1_plugin10connectionEyPKcyS3_j _Z11linemap_addP9line_maps9lc_reasonjPKcj 105
_Z37plugin_build_value_template_parameterPN10cc1_plugin10connectionEyPKcyS3_j line_table 112
_Z37plugin_build_value_template_parameterPN10cc1_plugin10connectionEyPKcyS3_j _Z18linemap_line_startP9line_mapsjj 121
_Z37plugin_build_value_template_parameterPN10cc1_plugin10connectionEyPKcyS3_j line_table 128
_Z37plugin_build_value_template_parameterPN10cc1_plugin10connectionEyPKcyS3_j _Z11linemap_addP9line_maps9lc_reasonjPKcj 148
_Z37plugin_build_value_template_parameterPN10cc1_plugin10connectionEyPKcyS3_j _Z21template_parm_scope_pv 153
_Z37plugin_build_value_template_parameterPN10cc1_plugin10connectionEyPKcyS3_j _Z14get_identifierPKc 206
_Z37plugin_build_value_template_parameterPN10cc1_plugin10connectionEyPKcyS3_j _Z14grokdeclaratorPK13cp_declaratorP21cp_decl_specifier_seq12decl_contextiPP9tree_node 283
_Z37plugin_build_value_template_parameterPN10cc1_plugin10connectionEyPKcyS3_j _Z20build_tree_list_statP9tree_nodeS0_ 294
_Z37plugin_build_value_template_parameterPN10cc1_plugin10connectionEyPKcyS3_j scope_chain 301
_Z37plugin_build_value_template_parameterPN10cc1_plugin10connectionEyPKcyS3_j _Z21process_template_parmP9tree_nodejS0_bb 328
_Z37plugin_build_value_template_parameterPN10cc1_plugin10connectionEyPKcyS3_j scope_chain 339
_Z37plugin_build_value_template_parameterPN10cc1_plugin10connectionEyPKcyS3_j _Z9tree_lastP9tree_node 352
_Z37plugin_build_value_template_parameterPN10cc1_plugin10connectionEyPKcyS3_j prime_tab 415
_Z37plugin_build_value_template_parameterPN10cc1_plugin10connectionEyPKcyS3_j prime_tab 421
_Z37plugin_build_value_template_parameterPN10cc1_plugin10connectionEyPKcyS3_j prime_tab 428
_Z37plugin_build_value_template_parameterPN10cc1_plugin10connectionEyPKcyS3_j prime_tab 434
_Z37plugin_build_value_template_parameterPN10cc1_plugin10connectionEyPKcyS3_j _ZN10hash_tableI15nofree_ptr_hashI9tree_nodeE11xcallocatorE6expandEv 698
_Z37plugin_build_value_template_parameterPN10cc1_plugin10connectionEyPKcyS3_j xstrdup 743
_Z37plugin_build_value_template_parameterPN10cc1_plugin10connectionEyPKcyS3_j _Z11fancy_abortPKciS0_ 775
_Z40plugin_build_template_template_parameterPN10cc1_plugin10connectionEPKciyS3_j htab_hash_string 46
_Z40plugin_build_template_template_parameterPN10cc1_plugin10connectionEPKciyS3_j line_table 84
_Z40plugin_build_template_template_parameterPN10cc1_plugin10connectionEPKciyS3_j _Z11linemap_addP9line_maps9lc_reasonjPKcj 96
_Z40plugin_build_template_template_parameterPN10cc1_plugin10connectionEPKciyS3_j line_table 103
_Z40plugin_build_template_template_parameterPN10cc1_plugin10connectionEPKciyS3_j _Z18linemap_line_startP9line_mapsjj 113
_Z40plugin_build_template_template_parameterPN10cc1_plugin10connectionEPKciyS3_j line_table 120
_Z40plugin_build_template_template_parameterPN10cc1_plugin10connectionEPKciyS3_j _Z11linemap_addP9line_maps9lc_reasonjPKcj 140
_Z40plugin_build_template_template_parameterPN10cc1_plugin10connectionEPKciyS3_j _Z21template_parm_scope_pv 145
_Z40plugin_build_template_template_parameterPN10cc1_plugin10connectionEPKciyS3_j scope_chain 160
_Z40plugin_build_template_template_parameterPN10cc1_plugin10connectionEPKciyS3_j _Z22end_template_parm_listP9tree_node 173
_Z40plugin_build_template_template_parameterPN10cc1_plugin10connectionEPKciyS3_j _Z21template_parm_scope_pv 178
_Z40plugin_build_template_template_parameterPN10cc1_plugin10connectionEPKciyS3_j _Z14get_identifierPKc 194
_Z40plugin_build_template_template_parameterPN10cc1_plugin10connectionEPKciyS3_j cp_global_trees 201
_Z40plugin_build_template_template_parameterPN10cc1_plugin10connectionEPKciyS3_j _Z29finish_template_template_parmP9tree_nodeS0_ 209
_Z40plugin_build_template_template_parameterPN10cc1_plugin10connectionEPKciyS3_j _Z20build_tree_list_statP9tree_nodeS0_ 220
_Z40plugin_build_template_template_parameterPN10cc1_plugin10connectionEPKciyS3_j scope_chain 236
_Z40plugin_build_template_template_parameterPN10cc1_plugin10connectionEPKciyS3_j _Z21process_template_parmP9tree_nodejS0_bb 268
_Z40plugin_build_template_template_parameterPN10cc1_plugin10connectionEPKciyS3_j scope_chain 279
_Z40plugin_build_template_template_parameterPN10cc1_plugin10connectionEPKciyS3_j _Z9tree_lastP9tree_node 292
_Z40plugin_build_template_template_parameterPN10cc1_plugin10connectionEPKciyS3_j prime_tab 355
_Z40plugin_build_template_template_parameterPN10cc1_plugin10connectionEPKciyS3_j prime_tab 361
_Z40plugin_build_template_template_parameterPN10cc1_plugin10connectionEPKciyS3_j prime_tab 368
_Z40plugin_build_template_template_parameterPN10cc1_plugin10connectionEPKciyS3_j prime_tab 374
_Z40plugin_build_template_template_parameterPN10cc1_plugin10connectionEPKciyS3_j _ZN10hash_tableI15nofree_ptr_hashI9tree_nodeE11xcallocatorE6expandEv 634
_Z40plugin_build_template_template_parameterPN10cc1_plugin10connectionEPKciyS3_j xstrdup 676
_Z40plugin_build_template_template_parameterPN10cc1_plugin10connectionEPKciyS3_j _Z11fancy_abortPKciS0_ 717
_Z40plugin_build_template_template_parameterPN10cc1_plugin10connectionEPKciyS3_j _Z11fancy_abortPKciS0_ 737
_Z40plugin_build_template_template_parameterPN10cc1_plugin10connectionEPKciyS3_j _Z11fancy_abortPKciS0_ 757
_Z23plugin_start_class_typePN10cc1_plugin10connectionEyPK15gcc_vbase_arrayPKcj htab_hash_string 41
_Z23plugin_start_class_typePN10cc1_plugin10connectionEyPK15gcc_vbase_arrayPKcj line_table 79
_Z23plugin_start_class_typePN10cc1_plugin10connectionEyPK15gcc_vbase_arrayPKcj _Z11linemap_addP9line_maps9lc_reasonjPKcj 91
_Z23plugin_start_class_typePN10cc1_plugin10connectionEyPK15gcc_vbase_arrayPKcj line_table 98
_Z23plugin_start_class_typePN10cc1_plugin10connectionEyPK15gcc_vbase_arrayPKcj _Z18linemap_line_startP9line_mapsjj 108
_Z23plugin_start_class_typePN10cc1_plugin10connectionEyPK15gcc_vbase_arrayPKcj line_table 115
_Z23plugin_start_class_typePN10cc1_plugin10connectionEyPK15gcc_vbase_arrayPKcj _Z11linemap_addP9line_maps9lc_reasonjPKcj 135
_Z23plugin_start_class_typePN10cc1_plugin10connectionEyPK15gcc_vbase_arrayPKcj _Z11fancy_abortPKciS0_ 270
_Z23plugin_start_class_typePN10cc1_plugin10connectionEyPK15gcc_vbase_arrayPKcj ridpointers 283
_Z23plugin_start_class_typePN10cc1_plugin10connectionEyPK15gcc_vbase_arrayPKcj _Z21finish_base_specifierP9tree_nodeS0_b 313
_Z23plugin_start_class_typePN10cc1_plugin10connectionEyPK15gcc_vbase_arrayPKcj ridpointers 363
_Z23plugin_start_class_typePN10cc1_plugin10connectionEyPK15gcc_vbase_arrayPKcj ridpointers 387
_Z23plugin_start_class_typePN10cc1_plugin10connectionEyPK15gcc_vbase_arrayPKcj _Z8nreverseP9tree_node 404
_Z23plugin_start_class_typePN10cc1_plugin10connectionEyPK15gcc_vbase_arrayPKcj _Z14xref_basetypesP9tree_nodeS0_ 418
_Z23plugin_start_class_typePN10cc1_plugin10connectionEyPK15gcc_vbase_arrayPKcj _Z22begin_class_definitionP9tree_node 430
_Z23plugin_start_class_typePN10cc1_plugin10connectionEyPK15gcc_vbase_arrayPKcj prime_tab 482
_Z23plugin_start_class_typePN10cc1_plugin10connectionEyPK15gcc_vbase_arrayPKcj prime_tab 488
_Z23plugin_start_class_typePN10cc1_plugin10connectionEyPK15gcc_vbase_arrayPKcj prime_tab 494
_Z23plugin_start_class_typePN10cc1_plugin10connectionEyPK15gcc_vbase_arrayPKcj prime_tab 500
_Z23plugin_start_class_typePN10cc1_plugin10connectionEyPK15gcc_vbase_arrayPKcj xstrdup 742
_Z23plugin_start_class_typePN10cc1_plugin10connectionEyPK15gcc_vbase_arrayPKcj _ZN10hash_tableI15nofree_ptr_hashI9tree_nodeE11xcallocatorE6expandEv 789
_Z23plugin_start_class_typePN10cc1_plugin10connectionEyPK15gcc_vbase_arrayPKcj _Z11fancy_abortPKciS0_ 832
_Z23plugin_start_class_typePN10cc1_plugin10connectionEyPK15gcc_vbase_arrayPKcj _Z11fancy_abortPKciS0_ 852
_Z23plugin_start_class_typePN10cc1_plugin10connectionEyPK15gcc_vbase_arrayPKcj _Z11fancy_abortPKciS0_ 872
_Z24plugin_build_binary_exprPN10cc1_plugin10connectionEPKcyy scope_chain 251
_Z24plugin_build_binary_exprPN10cc1_plugin10connectionEPKcyy _Z27type_dependent_expression_pP9tree_node 266
_Z24plugin_build_binary_exprPN10cc1_plugin10connectionEPKcyy _Z17build_x_binary_opj9tree_codeP9tree_nodeS_S1_S_PS1_i 339
_Z24plugin_build_binary_exprPN10cc1_plugin10connectionEPKcyy scope_chain 351
_Z24plugin_build_binary_exprPN10cc1_plugin10connectionEPKcyy prime_tab 414
_Z24plugin_build_binary_exprPN10cc1_plugin10connectionEPKcyy prime_tab 420
_Z24plugin_build_binary_exprPN10cc1_plugin10connectionEPKcyy prime_tab 427
_Z24plugin_build_binary_exprPN10cc1_plugin10connectionEPKcyy prime_tab 433
_Z24plugin_build_binary_exprPN10cc1_plugin10connectionEPKcyy _Z11fancy_abortPKciS0_ 816
_Z24plugin_build_binary_exprPN10cc1_plugin10connectionEPKcyy _Z13build_x_arrowjP9tree_nodei 1003
_Z24plugin_build_binary_exprPN10cc1_plugin10connectionEPKcyy tree_code_type 1022
_Z24plugin_build_binary_exprPN10cc1_plugin10connectionEPKcyy _Z31finish_class_member_access_expr7cp_exprP9tree_nodebi 1063
_Z24plugin_build_binary_exprPN10cc1_plugin10connectionEPKcyy _Z28value_dependent_expression_pP9tree_node 1105
_Z24plugin_build_binary_exprPN10cc1_plugin10connectionEPKcyy _Z27type_dependent_expression_pP9tree_node 1121
_Z24plugin_build_binary_exprPN10cc1_plugin10connectionEPKcyy _Z28value_dependent_expression_pP9tree_node 1137
_Z24plugin_build_binary_exprPN10cc1_plugin10connectionEPKcyy scope_chain 1152
_Z24plugin_build_binary_exprPN10cc1_plugin10connectionEPKcyy _ZN10hash_tableI15nofree_ptr_hashI9tree_nodeE11xcallocatorE6expandEv 1178
_Z23plugin_build_unary_exprPN10cc1_plugin10connectionEPKcy scope_chain 421
_Z23plugin_build_unary_exprPN10cc1_plugin10connectionEPKcy _Z27type_dependent_expression_pP9tree_node 447
_Z23plugin_build_unary_exprPN10cc1_plugin10connectionEPKcy tree_code_type 497
_Z23plugin_build_unary_exprPN10cc1_plugin10connectionEPKcy _Z16build_x_unary_opj9tree_code7cp_expri 541
_Z23plugin_build_unary_exprPN10cc1_plugin10connectionEPKcy scope_chain 560
_Z23plugin_build_unary_exprPN10cc1_plugin10connectionEPKcy prime_tab 623
_Z23plugin_build_unary_exprPN10cc1_plugin10connectionEPKcy prime_tab 629
_Z23plugin_build_unary_exprPN10cc1_plugin10connectionEPKcy prime_tab 636
_Z23plugin_build_unary_exprPN10cc1_plugin10connectionEPKcy prime_tab 642
_Z23plugin_build_unary_exprPN10cc1_plugin10connectionEPKcy _Z19make_pack_expansionP9tree_node 893
_Z23plugin_build_unary_exprPN10cc1_plugin10connectionEPKcy _Z19make_pack_expansionP9tree_node 906
_Z23plugin_build_unary_exprPN10cc1_plugin10connectionEPKcy _Z20finish_noexcept_exprP9tree_nodei 928
_Z23plugin_build_unary_exprPN10cc1_plugin10connectionEPKcy _Z12build_typeidP9tree_nodei 946
_Z23plugin_build_unary_exprPN10cc1_plugin10connectionEPKcy _Z11build_throwP9tree_node 959
_Z23plugin_build_unary_exprPN10cc1_plugin10connectionEPKcy _Z13delete_sanityP9tree_nodeS0_bii 996
_Z23plugin_build_unary_exprPN10cc1_plugin10connectionEPKcy _Z26cxx_sizeof_or_alignof_exprP9tree_node9tree_codeb 1017
_Z23plugin_build_unary_exprPN10cc1_plugin10connectionEPKcy _ZN10hash_tableI15nofree_ptr_hashI9tree_nodeE11xcallocatorE6expandEv 1098
_Z23plugin_build_unary_exprPN10cc1_plugin10connectionEPKcy _Z28value_dependent_expression_pP9tree_node 1124
_Z23plugin_build_unary_exprPN10cc1_plugin10connectionEPKcy scope_chain 1139
_Z23plugin_build_unary_exprPN10cc1_plugin10connectionEPKcy _Z11fancy_abortPKciS0_ 1328
_Z23plugin_build_unary_exprPN10cc1_plugin10connectionEPKcy _Z11fancy_abortPKciS0_ 1462
_Z23plugin_build_unary_exprPN10cc1_plugin10connectionEPKcy _Z11fancy_abortPKciS0_ 1499
_Z23plugin_build_unary_exprPN10cc1_plugin10connectionEPKcy _Z11fancy_abortPKciS0_ 1519
_Z23plugin_build_unary_exprPN10cc1_plugin10connectionEPKcy _Z11fancy_abortPKciS0_ 1539
_Z23plugin_build_unary_exprPN10cc1_plugin10connectionEPKcy _Z11fancy_abortPKciS0_ 1572
_Z22plugin_start_enum_typePN10cc1_plugin10connectionEPKcy18gcc_cp_symbol_kindS3_j _Z16at_class_scope_pv 74
_Z22plugin_start_enum_typePN10cc1_plugin10connectionEPKcy18gcc_cp_symbol_kindS3_j global_trees 100
_Z22plugin_start_enum_typePN10cc1_plugin10connectionEPKcy18gcc_cp_symbol_kindS3_j _Z14get_identifierPKc 131
_Z22plugin_start_enum_typePN10cc1_plugin10connectionEPKcy18gcc_cp_symbol_kindS3_j _Z10start_enumP9tree_nodeS0_S0_S0_bPb 162
_Z22plugin_start_enum_typePN10cc1_plugin10connectionEPKcy18gcc_cp_symbol_kindS3_j htab_hash_string 197
_Z22plugin_start_enum_typePN10cc1_plugin10connectionEPKcy18gcc_cp_symbol_kindS3_j line_table 240
_Z22plugin_start_enum_typePN10cc1_plugin10connectionEPKcy18gcc_cp_symbol_kindS3_j _Z11linemap_addP9line_maps9lc_reasonjPKcj 249
_Z22plugin_start_enum_typePN10cc1_plugin10connectionEPKcy18gcc_cp_symbol_kindS3_j line_table 260
_Z22plugin_start_enum_typePN10cc1_plugin10connectionEPKcy18gcc_cp_symbol_kindS3_j _Z18linemap_line_startP9line_mapsjj 267
_Z22plugin_start_enum_typePN10cc1_plugin10connectionEPKcy18gcc_cp_symbol_kindS3_j line_table 274
_Z22plugin_start_enum_typePN10cc1_plugin10connectionEPKcy18gcc_cp_symbol_kindS3_j _Z11linemap_addP9line_maps9lc_reasonjPKcj 294
_Z22plugin_start_enum_typePN10cc1_plugin10connectionEPKcy18gcc_cp_symbol_kindS3_j tree_code_type 333
_Z22plugin_start_enum_typePN10cc1_plugin10connectionEPKcy18gcc_cp_symbol_kindS3_j global_trees 389
_Z22plugin_start_enum_typePN10cc1_plugin10connectionEPKcy18gcc_cp_symbol_kindS3_j scope_chain 396
_Z22plugin_start_enum_typePN10cc1_plugin10connectionEPKcy18gcc_cp_symbol_kindS3_j prime_tab 459
_Z22plugin_start_enum_typePN10cc1_plugin10connectionEPKcy18gcc_cp_symbol_kindS3_j prime_tab 465
_Z22plugin_start_enum_typePN10cc1_plugin10connectionEPKcy18gcc_cp_symbol_kindS3_j prime_tab 471
_Z22plugin_start_enum_typePN10cc1_plugin10connectionEPKcy18gcc_cp_symbol_kindS3_j prime_tab 477
_Z22plugin_start_enum_typePN10cc1_plugin10connectionEPKcy18gcc_cp_symbol_kindS3_j global_trees 727
_Z22plugin_start_enum_typePN10cc1_plugin10connectionEPKcy18gcc_cp_symbol_kindS3_j scope_chain 734
_Z22plugin_start_enum_typePN10cc1_plugin10connectionEPKcy18gcc_cp_symbol_kindS3_j _ZN10hash_tableI15nofree_ptr_hashI9tree_nodeE11xcallocatorE6expandEv 773
_Z22plugin_start_enum_typePN10cc1_plugin10connectionEPKcy18gcc_cp_symbol_kindS3_j global_trees 795
_Z22plugin_start_enum_typePN10cc1_plugin10connectionEPKcy18gcc_cp_symbol_kindS3_j scope_chain 802
_Z22plugin_start_enum_typePN10cc1_plugin10connectionEPKcy18gcc_cp_symbol_kindS3_j _Z14make_anon_namev 817
_Z22plugin_start_enum_typePN10cc1_plugin10connectionEPKcy18gcc_cp_symbol_kindS3_j xstrdup 861
_Z22plugin_start_enum_typePN10cc1_plugin10connectionEPKcy18gcc_cp_symbol_kindS3_j _Z11fancy_abortPKciS0_ 893
_Z22plugin_start_enum_typePN10cc1_plugin10connectionEPKcy18gcc_cp_symbol_kindS3_j _Z11fancy_abortPKciS0_ 913
_Z22plugin_start_enum_typePN10cc1_plugin10connectionEPKcy18gcc_cp_symbol_kindS3_j _Z11fancy_abortPKciS0_ 933
_Z22plugin_start_enum_typePN10cc1_plugin10connectionEPKcy18gcc_cp_symbol_kindS3_j _Z11fancy_abortPKciS0_ 953
_Z22plugin_start_enum_typePN10cc1_plugin10connectionEPKcy18gcc_cp_symbol_kindS3_j _Z11fancy_abortPKciS0_ 973
_Z19plugin_get_int_typePN10cc1_plugin10connectionEimPKc prime_tab 169
_Z19plugin_get_int_typePN10cc1_plugin10connectionEimPKc prime_tab 175
_Z19plugin_get_int_typePN10cc1_plugin10connectionEimPKc prime_tab 182
_Z19plugin_get_int_typePN10cc1_plugin10connectionEimPKc prime_tab 188
_Z19plugin_get_int_typePN10cc1_plugin10connectionEimPKc _ZN10hash_tableI15nofree_ptr_hashI9tree_nodeE11xcallocatorE6expandEv 442
_Z19plugin_get_int_typePN10cc1_plugin10connectionEimPKc _Z22c_common_type_for_sizeji 472
_Z19plugin_get_int_typePN10cc1_plugin10connectionEimPKc global_trees 491
_Z19plugin_get_int_typePN10cc1_plugin10connectionEimPKc _Z11fancy_abortPKciS0_ 542
_Z19plugin_get_int_typePN10cc1_plugin10connectionEimPKc _Z11fancy_abortPKciS0_ 562
_Z19plugin_get_int_typePN10cc1_plugin10connectionEimPKc _Z11fancy_abortPKciS0_ 582
_Z19plugin_get_int_typePN10cc1_plugin10connectionEimPKc _Z11fancy_abortPKciS0_ 602
_Z22plugin_build_cast_exprPN10cc1_plugin10connectionEPKcyy _Z17build_static_castP9tree_nodeS0_i 62
_Z22plugin_build_cast_exprPN10cc1_plugin10connectionEPKcyy _Z11fancy_abortPKciS0_ 84
_Z22plugin_build_cast_exprPN10cc1_plugin10connectionEPKcyy _Z15cp_build_c_castP9tree_nodeS0_i 116
_Z22plugin_build_cast_exprPN10cc1_plugin10connectionEPKcyy scope_chain 123
_Z22plugin_build_cast_exprPN10cc1_plugin10connectionEPKcyy _Z16dependent_type_pP9tree_node 135
_Z22plugin_build_cast_exprPN10cc1_plugin10connectionEPKcyy scope_chain 164
_Z22plugin_build_cast_exprPN10cc1_plugin10connectionEPKcyy prime_tab 227
_Z22plugin_build_cast_exprPN10cc1_plugin10connectionEPKcyy prime_tab 233
_Z22plugin_build_cast_exprPN10cc1_plugin10connectionEPKcyy prime_tab 240
_Z22plugin_build_cast_exprPN10cc1_plugin10connectionEPKcyy prime_tab 246
_Z22plugin_build_cast_exprPN10cc1_plugin10connectionEPKcyy _ZN10hash_tableI15nofree_ptr_hashI9tree_nodeE11xcallocatorE6expandEv 522
_Z22plugin_build_cast_exprPN10cc1_plugin10connectionEPKcyy _Z27type_dependent_expression_pP9tree_node 548
_Z22plugin_build_cast_exprPN10cc1_plugin10connectionEPKcyy _Z28value_dependent_expression_pP9tree_node 564
_Z22plugin_build_cast_exprPN10cc1_plugin10connectionEPKcyy scope_chain 579
_Z22plugin_build_cast_exprPN10cc1_plugin10connectionEPKcyy _Z16build_const_castP9tree_nodeS0_i 610
_Z22plugin_build_cast_exprPN10cc1_plugin10connectionEPKcyy _Z18build_dynamic_castP9tree_nodeS0_i 626
_Z22plugin_build_cast_exprPN10cc1_plugin10connectionEPKcyy _Z22build_reinterpret_castP9tree_nodeS0_i 642
_Z17plugin_build_declPN10cc1_plugin10connectionEPKc18gcc_cp_symbol_kindyS3_yS3_j strchr 60
_Z17plugin_build_declPN10cc1_plugin10connectionEPKc18gcc_cp_symbol_kindyS3_yS3_j _Z11fancy_abortPKciS0_ 114
_Z17plugin_build_declPN10cc1_plugin10connectionEPKc18gcc_cp_symbol_kindyS3_yS3_j _Z21template_parm_scope_pv 177
_Z17plugin_build_declPN10cc1_plugin10connectionEPKc18gcc_cp_symbol_kindyS3_yS3_j scope_chain 217
_Z17plugin_build_declPN10cc1_plugin10connectionEPKc18gcc_cp_symbol_kindyS3_yS3_j _Z22end_template_parm_listP9tree_node 230
_Z17plugin_build_declPN10cc1_plugin10connectionEPKc18gcc_cp_symbol_kindyS3_yS3_j htab_hash_string 280
_Z17plugin_build_declPN10cc1_plugin10connectionEPKc18gcc_cp_symbol_kindyS3_yS3_j line_table 326
_Z17plugin_build_declPN10cc1_plugin10connectionEPKc18gcc_cp_symbol_kindyS3_yS3_j _Z11linemap_addP9line_maps9lc_reasonjPKcj 335
_Z17plugin_build_declPN10cc1_plugin10connectionEPKc18gcc_cp_symbol_kindyS3_yS3_j line_table 349
_Z17plugin_build_declPN10cc1_plugin10connectionEPKc18gcc_cp_symbol_kindyS3_yS3_j _Z18linemap_line_startP9line_mapsjj 356
_Z17plugin_build_declPN10cc1_plugin10connectionEPKc18gcc_cp_symbol_kindyS3_yS3_j line_table 363
_Z17plugin_build_declPN10cc1_plugin10connectionEPKc18gcc_cp_symbol_kindyS3_yS3_j _Z11linemap_addP9line_maps9lc_reasonjPKcj 384
_Z17plugin_build_declPN10cc1_plugin10connectionEPKc18gcc_cp_symbol_kindyS3_yS3_j _Z16at_class_scope_pv 389
_Z17plugin_build_declPN10cc1_plugin10connectionEPKc18gcc_cp_symbol_kindyS3_yS3_j _Z14get_identifierPKc 451
_Z17plugin_build_declPN10cc1_plugin10connectionEPKc18gcc_cp_symbol_kindyS3_yS3_j _Z19build_lang_decl_locj9tree_codeP9tree_nodeS1_ 511
_Z17plugin_build_declPN10cc1_plugin10connectionEPKc18gcc_cp_symbol_kindyS3_yS3_j scope_chain 553
_Z17plugin_build_declPN10cc1_plugin10connectionEPKc18gcc_cp_symbol_kindyS3_yS3_j global_namespace 564
_Z17plugin_build_declPN10cc1_plugin10connectionEPKc18gcc_cp_symbol_kindyS3_yS3_j tree_code_type 596
_Z17plugin_build_declPN10cc1_plugin10connectionEPKc18gcc_cp_symbol_kindyS3_yS3_j global_trees 649
_Z17plugin_build_declPN10cc1_plugin10connectionEPKc18gcc_cp_symbol_kindyS3_yS3_j scope_chain 656
_Z17plugin_build_declPN10cc1_plugin10connectionEPKc18gcc_cp_symbol_kindyS3_yS3_j cp_binding_oracle 763
_Z17plugin_build_declPN10cc1_plugin10connectionEPKc18gcc_cp_symbol_kindyS3_yS3_j cp_binding_oracle 773
_Z17plugin_build_declPN10cc1_plugin10connectionEPKc18gcc_cp_symbol_kindyS3_yS3_j _Z18push_template_declP9tree_node 782
_Z17plugin_build_declPN10cc1_plugin10connectionEPKc18gcc_cp_symbol_kindyS3_yS3_j cp_binding_oracle 792
_Z17plugin_build_declPN10cc1_plugin10connectionEPKc18gcc_cp_symbol_kindyS3_yS3_j _Z17end_template_declv 809
_Z17plugin_build_declPN10cc1_plugin10connectionEPKc18gcc_cp_symbol_kindyS3_yS3_j _Z21template_parm_scope_pv 814
_Z17plugin_build_declPN10cc1_plugin10connectionEPKc18gcc_cp_symbol_kindyS3_yS3_j scope_chain 853
_Z17plugin_build_declPN10cc1_plugin10connectionEPKc18gcc_cp_symbol_kindyS3_yS3_j _Z19toplevel_bindings_pv 875
_Z17plugin_build_declPN10cc1_plugin10connectionEPKc18gcc_cp_symbol_kindyS3_yS3_j _Z24rest_of_decl_compilationP9tree_nodeii 888
_Z17plugin_build_declPN10cc1_plugin10connectionEPKc18gcc_cp_symbol_kindyS3_yS3_j prime_tab 947
_Z17plugin_build_declPN10cc1_plugin10connectionEPKc18gcc_cp_symbol_kindyS3_yS3_j prime_tab 953
_Z17plugin_build_declPN10cc1_plugin10connectionEPKc18gcc_cp_symbol_kindyS3_yS3_j prime_tab 959
_Z17plugin_build_declPN10cc1_plugin10connectionEPKc18gcc_cp_symbol_kindyS3_yS3_j prime_tab 965
_Z17plugin_build_declPN10cc1_plugin10connectionEPKc18gcc_cp_symbol_kindyS3_yS3_j _Z25finish_member_declarationP9tree_node 1371
_Z17plugin_build_declPN10cc1_plugin10connectionEPKc18gcc_cp_symbol_kindyS3_yS3_j _Z15build_decl_statj9tree_codeP9tree_nodeS1_ 1418
_Z17plugin_build_declPN10cc1_plugin10connectionEPKc18gcc_cp_symbol_kindyS3_yS3_j _Z20at_namespace_scope_pv 1452
_Z17plugin_build_declPN10cc1_plugin10connectionEPKc18gcc_cp_symbol_kindyS3_yS3_j _ZN10hash_tableI15nofree_ptr_hashI9tree_nodeE11xcallocatorE6expandEv 1489
_Z17plugin_build_declPN10cc1_plugin10connectionEPKc18gcc_cp_symbol_kindyS3_yS3_j scope_chain 1683
_Z17plugin_build_declPN10cc1_plugin10connectionEPKc18gcc_cp_symbol_kindyS3_yS3_j tree_code_type 1813
_Z17plugin_build_declPN10cc1_plugin10connectionEPKc18gcc_cp_symbol_kindyS3_yS3_j _Z15anon_aggrname_pPK9tree_node 1825
_Z17plugin_build_declPN10cc1_plugin10connectionEPKc18gcc_cp_symbol_kindyS3_yS3_j _Z17name_unnamed_typeP9tree_nodeS0_ 1846
_Z17plugin_build_declPN10cc1_plugin10connectionEPKc18gcc_cp_symbol_kindyS3_yS3_j _Z14make_anon_namev 1873
_Z17plugin_build_declPN10cc1_plugin10connectionEPKc18gcc_cp_symbol_kindyS3_yS3_j _Z19build_lang_decl_locj9tree_codeP9tree_nodeS1_ 1950
_Z17plugin_build_declPN10cc1_plugin10connectionEPKc18gcc_cp_symbol_kindyS3_yS3_j global_trees 2004
_Z17plugin_build_declPN10cc1_plugin10connectionEPKc18gcc_cp_symbol_kindyS3_yS3_j _Z18cp_build_parm_declP9tree_nodeS0_ 2039
_Z17plugin_build_declPN10cc1_plugin10connectionEPKc18gcc_cp_symbol_kindyS3_yS3_j global_trees 2073
_Z17plugin_build_declPN10cc1_plugin10connectionEPKc18gcc_cp_symbol_kindyS3_yS3_j _Z8nreverseP9tree_node 2088
_Z17plugin_build_declPN10cc1_plugin10connectionEPKc18gcc_cp_symbol_kindyS3_yS3_j ridpointers 2238
_Z17plugin_build_declPN10cc1_plugin10connectionEPKc18gcc_cp_symbol_kindyS3_yS3_j global_trees 2319
_Z17plugin_build_declPN10cc1_plugin10connectionEPKc18gcc_cp_symbol_kindyS3_yS3_j global_trees 2407
_Z17plugin_build_declPN10cc1_plugin10connectionEPKc18gcc_cp_symbol_kindyS3_yS3_j scope_chain 2414
_Z17plugin_build_declPN10cc1_plugin10connectionEPKc18gcc_cp_symbol_kindyS3_yS3_j global_trees 2435
_Z17plugin_build_declPN10cc1_plugin10connectionEPKc18gcc_cp_symbol_kindyS3_yS3_j scope_chain 2442
_Z17plugin_build_declPN10cc1_plugin10connectionEPKc18gcc_cp_symbol_kindyS3_yS3_j cp_binding_oracle 2467
_Z17plugin_build_declPN10cc1_plugin10connectionEPKc18gcc_cp_symbol_kindyS3_yS3_j cp_binding_oracle 2479
_Z17plugin_build_declPN10cc1_plugin10connectionEPKc18gcc_cp_symbol_kindyS3_yS3_j _Z21pushdecl_maybe_friendP9tree_nodeb 2488
_Z17plugin_build_declPN10cc1_plugin10connectionEPKc18gcc_cp_symbol_kindyS3_yS3_j cp_binding_oracle 2495
_Z17plugin_build_declPN10cc1_plugin10connectionEPKc18gcc_cp_symbol_kindyS3_yS3_j _Z25finish_member_declarationP9tree_node 2516
_Z17plugin_build_declPN10cc1_plugin10connectionEPKc18gcc_cp_symbol_kindyS3_yS3_j _Z27finish_member_template_declP9tree_node 2532
_Z17plugin_build_declPN10cc1_plugin10connectionEPKc18gcc_cp_symbol_kindyS3_yS3_j _Z22maybe_retrofit_in_chrgP9tree_node 2560
_Z17plugin_build_declPN10cc1_plugin10connectionEPKc18gcc_cp_symbol_kindyS3_yS3_j _Z30grok_special_member_propertiesP9tree_node 2568
_Z17plugin_build_declPN10cc1_plugin10connectionEPKc18gcc_cp_symbol_kindyS3_yS3_j _Z11fancy_abortPKciS0_ 2637
_Z17plugin_build_declPN10cc1_plugin10connectionEPKc18gcc_cp_symbol_kindyS3_yS3_j cp_binding_oracle 2755
_Z17plugin_build_declPN10cc1_plugin10connectionEPKc18gcc_cp_symbol_kindyS3_yS3_j cp_binding_oracle 2773
_Z17plugin_build_declPN10cc1_plugin10connectionEPKc18gcc_cp_symbol_kindyS3_yS3_j _Z7pushtagP9tree_nodeS0_9tag_scope 2782
_Z17plugin_build_declPN10cc1_plugin10connectionEPKc18gcc_cp_symbol_kindyS3_yS3_j cp_binding_oracle 2789
_Z17plugin_build_declPN10cc1_plugin10connectionEPKc18gcc_cp_symbol_kindyS3_yS3_j _Z22current_decl_namespacev 2818
_Z17plugin_build_declPN10cc1_plugin10connectionEPKc18gcc_cp_symbol_kindyS3_yS3_j _Z19at_function_scope_pv 2874
_Z17plugin_build_declPN10cc1_plugin10connectionEPKc18gcc_cp_symbol_kindyS3_yS3_j _Z15make_class_type9tree_code 2890
_Z17plugin_build_declPN10cc1_plugin10connectionEPKc18gcc_cp_symbol_kindyS3_yS3_j _Z15build_decl_statj9tree_codeP9tree_nodeS1_ 2915
_Z17plugin_build_declPN10cc1_plugin10connectionEPKc18gcc_cp_symbol_kindyS3_yS3_j _Z22current_decl_namespacev 3057
_Z17plugin_build_declPN10cc1_plugin10connectionEPKc18gcc_cp_symbol_kindyS3_yS3_j global_namespace 3064
_Z17plugin_build_declPN10cc1_plugin10connectionEPKc18gcc_cp_symbol_kindyS3_yS3_j _Z22current_decl_namespacev 3075
_Z17plugin_build_declPN10cc1_plugin10connectionEPKc18gcc_cp_symbol_kindyS3_yS3_j _Z19clone_function_declP9tree_nodei 3105
_Z17plugin_build_declPN10cc1_plugin10connectionEPKc18gcc_cp_symbol_kindyS3_yS3_j scope_chain 3112
_Z17plugin_build_declPN10cc1_plugin10connectionEPKc18gcc_cp_symbol_kindyS3_yS3_j _Z8nreverseP9tree_node 3137
_Z17plugin_build_declPN10cc1_plugin10connectionEPKc18gcc_cp_symbol_kindyS3_yS3_j _Z11fancy_abortPKciS0_ 3286
_Z17plugin_build_declPN10cc1_plugin10connectionEPKc18gcc_cp_symbol_kindyS3_yS3_j _Z11fancy_abortPKciS0_ 3326
_Z17plugin_build_declPN10cc1_plugin10connectionEPKc18gcc_cp_symbol_kindyS3_yS3_j cp_binding_oracle 3339
_Z17plugin_build_declPN10cc1_plugin10connectionEPKc18gcc_cp_symbol_kindyS3_yS3_j cp_binding_oracle 3357
_Z17plugin_build_declPN10cc1_plugin10connectionEPKc18gcc_cp_symbol_kindyS3_yS3_j _Z7pushtagP9tree_nodeS0_9tag_scope 3366
_Z17plugin_build_declPN10cc1_plugin10connectionEPKc18gcc_cp_symbol_kindyS3_yS3_j cp_binding_oracle 3373
_Z17plugin_build_declPN10cc1_plugin10connectionEPKc18gcc_cp_symbol_kindyS3_yS3_j _Z14get_identifierPKc 3404
_Z17plugin_build_declPN10cc1_plugin10connectionEPKc18gcc_cp_symbol_kindyS3_yS3_j _Z11lookup_nameP9tree_node 3412
_Z17plugin_build_declPN10cc1_plugin10connectionEPKc18gcc_cp_symbol_kindyS3_yS3_j operator_name_info 3510
_Z17plugin_build_declPN10cc1_plugin10connectionEPKc18gcc_cp_symbol_kindyS3_yS3_j xstrdup 3550
_Z17plugin_build_declPN10cc1_plugin10connectionEPKc18gcc_cp_symbol_kindyS3_yS3_j _Z13cp_type_qualsPK9tree_node 3625
_Z17plugin_build_declPN10cc1_plugin10connectionEPKc18gcc_cp_symbol_kindyS3_yS3_j scope_chain 3634
_Z17plugin_build_declPN10cc1_plugin10connectionEPKc18gcc_cp_symbol_kindyS3_yS3_j _Z15build_this_parmP9tree_nodei 3643
_Z17plugin_build_declPN10cc1_plugin10connectionEPKc18gcc_cp_symbol_kindyS3_yS3_j assignment_operator_name_info 3849
_Z17plugin_build_declPN10cc1_plugin10connectionEPKc18gcc_cp_symbol_kindyS3_yS3_j global_trees 3972
_Z17plugin_build_declPN10cc1_plugin10connectionEPKc18gcc_cp_symbol_kindyS3_yS3_j _Z18build_int_cst_typeP9tree_nodel 3977
_Z17plugin_build_declPN10cc1_plugin10connectionEPKc18gcc_cp_symbol_kindyS3_yS3_j global_trees 4416
_Z17plugin_build_declPN10cc1_plugin10connectionEPKc18gcc_cp_symbol_kindyS3_yS3_j _Z28mangle_conv_op_name_for_typeP9tree_node 4777
_Z17plugin_build_declPN10cc1_plugin10connectionEPKc18gcc_cp_symbol_kindyS3_yS3_j xstrndup 5262
_Z17plugin_build_declPN10cc1_plugin10connectionEPKc18gcc_cp_symbol_kindyS3_yS3_j _Z22cp_literal_operator_idPKc 5273
_Z17plugin_build_declPN10cc1_plugin10connectionEPKc18gcc_cp_symbol_kindyS3_yS3_j free 5286
_Z17plugin_build_declPN10cc1_plugin10connectionEPKc18gcc_cp_symbol_kindyS3_yS3_j _Z22cp_literal_operator_idPKc 5337
_Z17plugin_build_declPN10cc1_plugin10connectionEPKc18gcc_cp_symbol_kindyS3_yS3_j _Z11fancy_abortPKciS0_ 5384
_Z17plugin_build_declPN10cc1_plugin10connectionEPKc18gcc_cp_symbol_kindyS3_yS3_j _Z11fancy_abortPKciS0_ 5404
_Z17plugin_build_declPN10cc1_plugin10connectionEPKc18gcc_cp_symbol_kindyS3_yS3_j _Z11fancy_abortPKciS0_ 5424
_Z17plugin_build_declPN10cc1_plugin10connectionEPKc18gcc_cp_symbol_kindyS3_yS3_j _Z11fancy_abortPKciS0_ 5444
_Z17plugin_build_declPN10cc1_plugin10connectionEPKc18gcc_cp_symbol_kindyS3_yS3_j _Z11fancy_abortPKciS0_ 5464
_Z17plugin_build_declPN10cc1_plugin10connectionEPKc18gcc_cp_symbol_kindyS3_yS3_j _Z11fancy_abortPKciS0_ 5484
_Z17plugin_build_declPN10cc1_plugin10connectionEPKc18gcc_cp_symbol_kindyS3_yS3_j _Z11fancy_abortPKciS0_ 5504
_Z17plugin_build_declPN10cc1_plugin10connectionEPKc18gcc_cp_symbol_kindyS3_yS3_j _Z11fancy_abortPKciS0_ 5524
_Z17plugin_build_declPN10cc1_plugin10connectionEPKc18gcc_cp_symbol_kindyS3_yS3_j _Z11fancy_abortPKciS0_ 5544
_Z17plugin_build_declPN10cc1_plugin10connectionEPKc18gcc_cp_symbol_kindyS3_yS3_j _Z11fancy_abortPKciS0_ 5564
_Z17plugin_build_declPN10cc1_plugin10connectionEPKc18gcc_cp_symbol_kindyS3_yS3_j _Z11fancy_abortPKciS0_ 5584
_Z17plugin_build_declPN10cc1_plugin10connectionEPKc18gcc_cp_symbol_kindyS3_yS3_j _Z11fancy_abortPKciS0_ 5604
_Z17plugin_build_declPN10cc1_plugin10connectionEPKc18gcc_cp_symbol_kindyS3_yS3_j _Z11fancy_abortPKciS0_ 5624
_Z17plugin_build_declPN10cc1_plugin10connectionEPKc18gcc_cp_symbol_kindyS3_yS3_j _Z11fancy_abortPKciS0_ 5644
_Z17plugin_build_declPN10cc1_plugin10connectionEPKc18gcc_cp_symbol_kindyS3_yS3_j _Z11fancy_abortPKciS0_ 5664
_Z17plugin_build_declPN10cc1_plugin10connectionEPKc18gcc_cp_symbol_kindyS3_yS3_j _Z11fancy_abortPKciS0_ 5684
_Z17plugin_build_declPN10cc1_plugin10connectionEPKc18gcc_cp_symbol_kindyS3_yS3_j _Z11fancy_abortPKciS0_ 5704
_Z17plugin_build_declPN10cc1_plugin10connectionEPKc18gcc_cp_symbol_kindyS3_yS3_j _Z11fancy_abortPKciS0_ 5724
_Z17plugin_build_declPN10cc1_plugin10connectionEPKc18gcc_cp_symbol_kindyS3_yS3_j _Z11fancy_abortPKciS0_ 5744
_Z17plugin_build_declPN10cc1_plugin10connectionEPKc18gcc_cp_symbol_kindyS3_yS3_j _Z11fancy_abortPKciS0_ 5764
_Z17plugin_build_declPN10cc1_plugin10connectionEPKc18gcc_cp_symbol_kindyS3_yS3_j _Z11fancy_abortPKciS0_ 5784
_Z17plugin_build_declPN10cc1_plugin10connectionEPKc18gcc_cp_symbol_kindyS3_yS3_j _Z11fancy_abortPKciS0_ 5804
_Z28plugin_build_unary_type_exprPN10cc1_plugin10connectionEPKcy scope_chain 85
_Z28plugin_build_unary_type_exprPN10cc1_plugin10connectionEPKcy _Z16dependent_type_pP9tree_node 97
_Z28plugin_build_unary_type_exprPN10cc1_plugin10connectionEPKcy scope_chain 111
_Z28plugin_build_unary_type_exprPN10cc1_plugin10connectionEPKcy _Z26cxx_sizeof_or_alignof_typeP9tree_node9tree_codeb 157
_Z28plugin_build_unary_type_exprPN10cc1_plugin10connectionEPKcy scope_chain 169
_Z28plugin_build_unary_type_exprPN10cc1_plugin10connectionEPKcy prime_tab 232
_Z28plugin_build_unary_type_exprPN10cc1_plugin10connectionEPKcy prime_tab 238
_Z28plugin_build_unary_type_exprPN10cc1_plugin10connectionEPKcy prime_tab 245
_Z28plugin_build_unary_type_exprPN10cc1_plugin10connectionEPKcy prime_tab 251
_Z28plugin_build_unary_type_exprPN10cc1_plugin10connectionEPKcy _Z11fancy_abortPKciS0_ 470
_Z28plugin_build_unary_type_exprPN10cc1_plugin10connectionEPKcy _Z19make_pack_expansionP9tree_node 556
_Z28plugin_build_unary_type_exprPN10cc1_plugin10connectionEPKcy _Z10get_typeidP9tree_nodei 585
_Z28plugin_build_unary_type_exprPN10cc1_plugin10connectionEPKcy _ZN10hash_tableI15nofree_ptr_hashI9tree_nodeE11xcallocatorE6expandEv 610
_Z24plugin_build_method_typePN10cc1_plugin10connectionEyy17gcc_cp_qualifiers21gcc_cp_ref_qualifiers _Z16build_memfn_typeP9tree_nodeS0_i16cp_ref_qualifier 82
_Z24plugin_build_method_typePN10cc1_plugin10connectionEyy17gcc_cp_qualifiers21gcc_cp_ref_qualifiers prime_tab 141
_Z24plugin_build_method_typePN10cc1_plugin10connectionEyy17gcc_cp_qualifiers21gcc_cp_ref_qualifiers prime_tab 147
_Z24plugin_build_method_typePN10cc1_plugin10connectionEyy17gcc_cp_qualifiers21gcc_cp_ref_qualifiers prime_tab 154
_Z24plugin_build_method_typePN10cc1_plugin10connectionEyy17gcc_cp_qualifiers21gcc_cp_ref_qualifiers prime_tab 160
_Z24plugin_build_method_typePN10cc1_plugin10connectionEyy17gcc_cp_qualifiers21gcc_cp_ref_qualifiers _Z11fancy_abortPKciS0_ 416
_Z24plugin_build_method_typePN10cc1_plugin10connectionEyy17gcc_cp_qualifiers21gcc_cp_ref_qualifiers _Z17apply_memfn_qualsP9tree_nodei16cp_ref_qualifier 467
_Z24plugin_build_method_typePN10cc1_plugin10connectionEyy17gcc_cp_qualifiers21gcc_cp_ref_qualifiers _ZN10hash_tableI15nofree_ptr_hashI9tree_nodeE11xcallocatorE6expandEv 506
_Z24plugin_build_method_typePN10cc1_plugin10connectionEyy17gcc_cp_qualifiers21gcc_cp_ref_qualifiers _Z11fancy_abortPKciS0_ 561
_Z33plugin_build_expression_list_exprPN10cc1_plugin10connectionEPKcyPK20gcc_cp_function_args _Z11fancy_abortPKciS0_ 80
_Z33plugin_build_expression_list_exprPN10cc1_plugin10connectionEPKcyPK20gcc_cp_function_args tree_code_type 95
_Z33plugin_build_expression_list_exprPN10cc1_plugin10connectionEPKcyPK20gcc_cp_function_args _Z20build_tree_list_statP9tree_nodeS0_ 148
_Z33plugin_build_expression_list_exprPN10cc1_plugin10connectionEPKcyPK20gcc_cp_function_args _Z21build_functional_castP9tree_nodeS0_i 179
_Z33plugin_build_expression_list_exprPN10cc1_plugin10connectionEPKcyPK20gcc_cp_function_args prime_tab 241
_Z33plugin_build_expression_list_exprPN10cc1_plugin10connectionEPKcyPK20gcc_cp_function_args prime_tab 247
_Z33plugin_build_expression_list_exprPN10cc1_plugin10connectionEPKcyPK20gcc_cp_function_args prime_tab 253
_Z33plugin_build_expression_list_exprPN10cc1_plugin10connectionEPKcyPK20gcc_cp_function_args prime_tab 259
_Z33plugin_build_expression_list_exprPN10cc1_plugin10connectionEPKcyPK20gcc_cp_function_args tree_code_type 544
_Z33plugin_build_expression_list_exprPN10cc1_plugin10connectionEPKcyPK20gcc_cp_function_args _Z14make_node_stat9tree_code 564
_Z33plugin_build_expression_list_exprPN10cc1_plugin10connectionEPKcyPK20gcc_cp_function_args _ZN10vec_prefix22calculate_allocation_1Ejj 700
_Z33plugin_build_expression_list_exprPN10cc1_plugin10connectionEPKcyPK20gcc_cp_function_args _Z8ggc_freePv 736
_Z33plugin_build_expression_list_exprPN10cc1_plugin10connectionEPKcyPK20gcc_cp_function_args _Z20ggc_round_alloc_sizem 792
_Z33plugin_build_expression_list_exprPN10cc1_plugin10connectionEPKcyPK20gcc_cp_function_args _Z11ggc_reallocPvm 858
_Z33plugin_build_expression_list_exprPN10cc1_plugin10connectionEPKcyPK20gcc_cp_function_args _Z14make_node_stat9tree_code 946
_Z33plugin_build_expression_list_exprPN10cc1_plugin10connectionEPKcyPK20gcc_cp_function_args _ZN10vec_prefix22calculate_allocation_1Ejj 1076
_Z33plugin_build_expression_list_exprPN10cc1_plugin10connectionEPKcyPK20gcc_cp_function_args _Z8ggc_freePv 1112
_Z33plugin_build_expression_list_exprPN10cc1_plugin10connectionEPKcyPK20gcc_cp_function_args _Z20ggc_round_alloc_sizem 1168
_Z33plugin_build_expression_list_exprPN10cc1_plugin10connectionEPKcyPK20gcc_cp_function_args _Z11ggc_reallocPvm 1234
_Z33plugin_build_expression_list_exprPN10cc1_plugin10connectionEPKcyPK20gcc_cp_function_args _Z23finish_compound_literalP9tree_nodeS0_i 1345
_Z33plugin_build_expression_list_exprPN10cc1_plugin10connectionEPKcyPK20gcc_cp_function_args _Z20ggc_round_alloc_sizem 1372
_Z33plugin_build_expression_list_exprPN10cc1_plugin10connectionEPKcyPK20gcc_cp_function_args _Z20ggc_round_alloc_sizem 1420
_Z33plugin_build_expression_list_exprPN10cc1_plugin10connectionEPKcyPK20gcc_cp_function_args _ZN10hash_tableI15nofree_ptr_hashI9tree_nodeE11xcallocatorE6expandEv 1461
_Z33plugin_build_expression_list_exprPN10cc1_plugin10connectionEPKcyPK20gcc_cp_function_args _Z11fancy_abortPKciS0_ 1513
_Z33plugin_build_expression_list_exprPN10cc1_plugin10connectionEPKcyPK20gcc_cp_function_args _Z11fancy_abortPKciS0_ 1533
_Z33plugin_build_expression_list_exprPN10cc1_plugin10connectionEPKcyPK20gcc_cp_function_args _Z11fancy_abortPKciS0_ 1553
_Z33plugin_build_expression_list_exprPN10cc1_plugin10connectionEPKcyPK20gcc_cp_function_args _Z11fancy_abortPKciS0_ 1573
T.1705 _Z29hash_table_higher_prime_indexm 66
T.1705 prime_tab 86
T.1705 xcalloc 94
T.1705 _Z11fancy_abortPKciS0_ 175
T.1704 _Z29hash_table_higher_prime_indexm 66
T.1704 prime_tab 86
T.1704 xcalloc 94
T.1704 _Z11fancy_abortPKciS0_ 175
_ZN10cc1_plugin16argument_wrapperIyE10unmarshallEPNS_10connectionE _ZN10cc1_plugin18unmarshall_intlikeEPNS_10connectionEPy 17
_ZN10cc1_plugin16argument_wrapperIjE10unmarshallEPNS_10connectionE _ZN10cc1_plugin18unmarshall_intlikeEPNS_10connectionEPy 17
_ZN10cc1_plugin8callbackIyXadL_Z27plugin_get_nullptr_constantPNS_10connectionEEEEENS_6statusES2_ _ZN10cc1_plugin16unmarshall_checkEPNS_10connectionEy 20
_ZN10cc1_plugin8callbackIyXadL_Z27plugin_get_nullptr_constantPNS_10connectionEEEEENS_6statusES2_ cp_global_trees 59
_ZN10cc1_plugin8callbackIyXadL_Z27plugin_get_nullptr_constantPNS_10connectionEEEEENS_6statusES2_ _ZN10cc1_plugin10connection4sendEc 64
_ZN10cc1_plugin8callbackIyXadL_Z27plugin_get_nullptr_constantPNS_10connectionEEEEENS_6statusES2_ _ZN10cc1_plugin16marshall_intlikeEPNS_10connectionEy 93
_ZN10cc1_plugin8callbackIyXadL_Z23plugin_get_nullptr_typePNS_10connectionEEEEENS_6statusES2_ _ZN10cc1_plugin16unmarshall_checkEPNS_10connectionEy 20
_ZN10cc1_plugin8callbackIyXadL_Z23plugin_get_nullptr_typePNS_10connectionEEEEENS_6statusES2_ cp_global_trees 59
_ZN10cc1_plugin8callbackIyXadL_Z23plugin_get_nullptr_typePNS_10connectionEEEEENS_6statusES2_ _ZN10cc1_plugin10connection4sendEc 64
_ZN10cc1_plugin8callbackIyXadL_Z23plugin_get_nullptr_typePNS_10connectionEEEEENS_6statusES2_ _ZN10cc1_plugin16marshall_intlikeEPNS_10connectionEy 93
_ZN10cc1_plugin8callbackIyXadL_Z20plugin_get_bool_typePNS_10connectionEEEEENS_6statusES2_ _ZN10cc1_plugin16unmarshall_checkEPNS_10connectionEy 20
_ZN10cc1_plugin8callbackIyXadL_Z20plugin_get_bool_typePNS_10connectionEEEEENS_6statusES2_ global_trees 59
_ZN10cc1_plugin8callbackIyXadL_Z20plugin_get_bool_typePNS_10connectionEEEEENS_6statusES2_ _ZN10cc1_plugin10connection4sendEc 64
_ZN10cc1_plugin8callbackIyXadL_Z20plugin_get_bool_typePNS_10connectionEEEEENS_6statusES2_ _ZN10cc1_plugin16marshall_intlikeEPNS_10connectionEy 93
_ZN10cc1_plugin8callbackIyXadL_Z20plugin_get_void_typePNS_10connectionEEEEENS_6statusES2_ _ZN10cc1_plugin16unmarshall_checkEPNS_10connectionEy 20
_ZN10cc1_plugin8callbackIyXadL_Z20plugin_get_void_typePNS_10connectionEEEEENS_6statusES2_ global_trees 59
_ZN10cc1_plugin8callbackIyXadL_Z20plugin_get_void_typePNS_10connectionEEEEENS_6statusES2_ _ZN10cc1_plugin10connection4sendEc 64
_ZN10cc1_plugin8callbackIyXadL_Z20plugin_get_void_typePNS_10connectionEEEEENS_6statusES2_ _ZN10cc1_plugin16marshall_intlikeEPNS_10connectionEy 93
_ZN10cc1_plugin8callbackIyXadL_Z20plugin_get_char_typePNS_10connectionEEEEENS_6statusES2_ _ZN10cc1_plugin16unmarshall_checkEPNS_10connectionEy 20
_ZN10cc1_plugin8callbackIyXadL_Z20plugin_get_char_typePNS_10connectionEEEEENS_6statusES2_ integer_types 59
_ZN10cc1_plugin8callbackIyXadL_Z20plugin_get_char_typePNS_10connectionEEEEENS_6statusES2_ _ZN10cc1_plugin10connection4sendEc 64
_ZN10cc1_plugin8callbackIyXadL_Z20plugin_get_char_typePNS_10connectionEEEEENS_6statusES2_ _ZN10cc1_plugin16marshall_intlikeEPNS_10connectionEy 93
_ZN10cc1_plugin16argument_wrapperIPK14gcc_type_arrayED1Ev _ZdaPv 25
_ZN10cc1_plugin16argument_wrapperIPK14gcc_type_arrayED1Ev _ZdlPv 34
_ZN10cc1_plugin16argument_wrapperIPK20gcc_cp_template_argsED1Ev _ZdaPv 25
_ZN10cc1_plugin16argument_wrapperIPK20gcc_cp_template_argsED1Ev _ZdaPv 45
_ZN10cc1_plugin16argument_wrapperIPK20gcc_cp_template_argsED1Ev _ZdlPv 54
_ZN10cc1_plugin16argument_wrapperIPK20gcc_cp_function_argsED1Ev _ZdaPv 25
_ZN10cc1_plugin16argument_wrapperIPK20gcc_cp_function_argsED1Ev _ZdlPv 34
_ZN10cc1_plugin4callIiEENS_6statusEPNS_10connectionEPKcPT_ _ZN10cc1_plugin10connection4sendEc 34
_ZN10cc1_plugin4callIiEENS_6statusEPNS_10connectionEPKcPT_ _ZN10cc1_plugin8marshallEPNS_10connectionEPKc 71
_ZN10cc1_plugin4callIiEENS_6statusEPNS_10connectionEPKcPT_ _ZN10cc1_plugin16marshall_intlikeEPNS_10connectionEy 85
_ZN10cc1_plugin4callIiEENS_6statusEPNS_10connectionEPKcPT_ _ZN10cc1_plugin10connection15wait_for_resultEv 97
_ZN10cc1_plugin4callIiEENS_6statusEPNS_10connectionEPKcPT_ _ZN10cc1_plugin10unmarshallIiEENS_6statusEPNS_10connectionEPT_ 112
_ZN10cc1_plugin8callbackIiXadL_Z24plugin_pop_binding_levelPNS_10connectionEEEEENS_6statusES2_ _ZN10cc1_plugin16unmarshall_checkEPNS_10connectionEy 7
_ZN10cc1_plugin8callbackIiXadL_Z24plugin_pop_binding_levelPNS_10connectionEEEEENS_6statusES2_ _ZN10cc1_plugin10connection4sendEc 38
_ZN10cc1_plugin8callbackIiXadL_Z24plugin_pop_binding_levelPNS_10connectionEEEEENS_6statusES2_ _ZN10cc1_plugin16marshall_intlikeEPNS_10connectionEy 56
_ZN10cc1_plugin8callbackIyXadL_Z37plugin_get_current_binding_level_declPNS_10connectionEEEEENS_6statusES2_ _ZN10cc1_plugin16unmarshall_checkEPNS_10connectionEy 20
_ZN10cc1_plugin8callbackIyXadL_Z37plugin_get_current_binding_level_declPNS_10connectionEEEEENS_6statusES2_ _Z37plugin_get_current_binding_level_declPN10cc1_plugin10connectionE 52
_ZN10cc1_plugin8callbackIyXadL_Z37plugin_get_current_binding_level_declPNS_10connectionEEEEENS_6statusES2_ _ZN10cc1_plugin10connection4sendEc 68
_ZN10cc1_plugin8callbackIyXadL_Z37plugin_get_current_binding_level_declPNS_10connectionEEEEENS_6statusES2_ _ZN10cc1_plugin16marshall_intlikeEPNS_10connectionEy 97
_ZN10cc1_plugin8callbackIiXadL_Z26plugin_start_template_declPNS_10connectionEEEEENS_6statusES2_ _ZN10cc1_plugin16unmarshall_checkEPNS_10connectionEy 7
_ZN10cc1_plugin8callbackIiXadL_Z26plugin_start_template_declPNS_10connectionEEEEENS_6statusES2_ _Z24begin_template_parm_listv 25
_ZN10cc1_plugin8callbackIiXadL_Z26plugin_start_template_declPNS_10connectionEEEEENS_6statusES2_ scope_chain 32
_ZN10cc1_plugin8callbackIiXadL_Z26plugin_start_template_declPNS_10connectionEEEEENS_6statusES2_ _ZN10cc1_plugin10connection4sendEc 57
_ZN10cc1_plugin8callbackIiXadL_Z26plugin_start_template_declPNS_10connectionEEEEENS_6statusES2_ _ZN10cc1_plugin16marshall_intlikeEPNS_10connectionEy 75
_ZN10cc1_plugin8callbackIiXadL_Z28plugin_make_namespace_inlinePNS_10connectionEEEEENS_6statusES2_ _ZN10cc1_plugin16unmarshall_checkEPNS_10connectionEy 20
_ZN10cc1_plugin8callbackIiXadL_Z28plugin_make_namespace_inlinePNS_10connectionEEEEENS_6statusES2_ _Z28plugin_make_namespace_inlinePN10cc1_plugin10connectionE 52
_ZN10cc1_plugin8callbackIiXadL_Z28plugin_make_namespace_inlinePNS_10connectionEEEEENS_6statusES2_ _ZN10cc1_plugin10connection4sendEc 67
_ZN10cc1_plugin8callbackIiXadL_Z28plugin_make_namespace_inlinePNS_10connectionEEEEENS_6statusES2_ _ZN10cc1_plugin16marshall_intlikeEPNS_10connectionEy 96
_ZN10cc1_plugin8callbackIimXadL_Z24plugin_finish_class_typePNS_10connectionEmEEEENS_6statusES2_ _ZN10cc1_plugin16unmarshall_checkEPNS_10connectionEy 23
_ZN10cc1_plugin8callbackIimXadL_Z24plugin_finish_class_typePNS_10connectionEmEEEENS_6statusES2_ _ZN10cc1_plugin18unmarshall_intlikeEPNS_10connectionEPy 57
_ZN10cc1_plugin8callbackIimXadL_Z24plugin_finish_class_typePNS_10connectionEmEEEENS_6statusES2_ _Z24plugin_finish_class_typePN10cc1_plugin10connectionEm 74
_ZN10cc1_plugin8callbackIimXadL_Z24plugin_finish_class_typePNS_10connectionEmEEEENS_6statusES2_ _ZN10cc1_plugin10connection4sendEc 89
_ZN10cc1_plugin8callbackIimXadL_Z24plugin_finish_class_typePNS_10connectionEmEEEENS_6statusES2_ _ZN10cc1_plugin16marshall_intlikeEPNS_10connectionEy 104
_ZN10cc1_plugin8callbackIimXadL_Z24plugin_finish_class_typePNS_10connectionEmEEEENS_6statusES2_ _Unwind_Resume 114
_ZN10cc1_plugin8callbackIymPKcXadL_Z21plugin_get_float_typePNS_10connectionEmS2_EEEENS_6statusES4_ _ZN10cc1_plugin16unmarshall_checkEPNS_10connectionEy 42
_ZN10cc1_plugin8callbackIymPKcXadL_Z21plugin_get_float_typePNS_10connectionEmS2_EEEENS_6statusES4_ _ZN10cc1_plugin18unmarshall_intlikeEPNS_10connectionEPy 64
_ZN10cc1_plugin8callbackIymPKcXadL_Z21plugin_get_float_typePNS_10connectionEmS2_EEEENS_6statusES4_ _ZN10cc1_plugin10unmarshallEPNS_10connectionEPPc 89
_ZN10cc1_plugin8callbackIymPKcXadL_Z21plugin_get_float_typePNS_10connectionEmS2_EEEENS_6statusES4_ _ZdaPv 110
_ZN10cc1_plugin8callbackIymPKcXadL_Z21plugin_get_float_typePNS_10connectionEmS2_EEEENS_6statusES4_ _Z21plugin_get_float_typePN10cc1_plugin10connectionEmPKc 156
_ZN10cc1_plugin8callbackIymPKcXadL_Z21plugin_get_float_typePNS_10connectionEmS2_EEEENS_6statusES4_ _ZN10cc1_plugin10connection4sendEc 172
_ZN10cc1_plugin8callbackIymPKcXadL_Z21plugin_get_float_typePNS_10connectionEmS2_EEEENS_6statusES4_ _ZN10cc1_plugin16marshall_intlikeEPNS_10connectionEy 187
_ZN10cc1_plugin8callbackIymPKcXadL_Z21plugin_get_float_typePNS_10connectionEmS2_EEEENS_6statusES4_ _ZN10cc1_plugin16argument_wrapperIPKcED1Ev 202
_ZN10cc1_plugin8callbackIymPKcXadL_Z21plugin_get_float_typePNS_10connectionEmS2_EEEENS_6statusES4_ _Unwind_Resume 210
_ZN10cc1_plugin8callbackIiPKcXadL_Z21plugin_push_namespacePNS_10connectionES2_EEEENS_6statusES4_ _ZN10cc1_plugin16unmarshall_checkEPNS_10connectionEy 36
_ZN10cc1_plugin8callbackIiPKcXadL_Z21plugin_push_namespacePNS_10connectionES2_EEEENS_6statusES4_ _ZN10cc1_plugin10unmarshallEPNS_10connectionEPPc 51
_ZN10cc1_plugin8callbackIiPKcXadL_Z21plugin_push_namespacePNS_10connectionES2_EEEENS_6statusES4_ _ZdaPv 71
_ZN10cc1_plugin8callbackIiPKcXadL_Z21plugin_push_namespacePNS_10connectionES2_EEEENS_6statusES4_ _Z21plugin_push_namespacePN10cc1_plugin10connectionEPKc 112
_ZN10cc1_plugin8callbackIiPKcXadL_Z21plugin_push_namespacePNS_10connectionES2_EEEENS_6statusES4_ _ZN10cc1_plugin10connection4sendEc 128
_ZN10cc1_plugin8callbackIiPKcXadL_Z21plugin_push_namespacePNS_10connectionES2_EEEENS_6statusES4_ _ZN10cc1_plugin16marshall_intlikeEPNS_10connectionEy 143
_ZN10cc1_plugin8callbackIiPKcXadL_Z21plugin_push_namespacePNS_10connectionES2_EEEENS_6statusES4_ _ZN10cc1_plugin16argument_wrapperIPKcED1Ev 158
_ZN10cc1_plugin8callbackIiPKcXadL_Z21plugin_push_namespacePNS_10connectionES2_EEEENS_6statusES4_ _Unwind_Resume 166
_ZN10cc1_plugin8callbackIyyPKcmXadL_Z26plugin_build_enum_constantPNS_10connectionEyS2_mEEEENS_6statusES4_ _ZN10cc1_plugin16unmarshall_checkEPNS_10connectionEy 47
_ZN10cc1_plugin8callbackIyyPKcmXadL_Z26plugin_build_enum_constantPNS_10connectionEyS2_mEEEENS_6statusES4_ _ZN10cc1_plugin18unmarshall_intlikeEPNS_10connectionEPy 72
_ZN10cc1_plugin8callbackIyyPKcmXadL_Z26plugin_build_enum_constantPNS_10connectionEyS2_mEEEENS_6statusES4_ _ZN10cc1_plugin10unmarshallEPNS_10connectionEPPc 97
_ZN10cc1_plugin8callbackIyyPKcmXadL_Z26plugin_build_enum_constantPNS_10connectionEyS2_mEEEENS_6statusES4_ _ZdaPv 118
_ZN10cc1_plugin8callbackIyyPKcmXadL_Z26plugin_build_enum_constantPNS_10connectionEyS2_mEEEENS_6statusES4_ _ZN10cc1_plugin18unmarshall_intlikeEPNS_10connectionEPy 159
_ZN10cc1_plugin8callbackIyyPKcmXadL_Z26plugin_build_enum_constantPNS_10connectionEyS2_mEEEENS_6statusES4_ _Z26plugin_build_enum_constantPN10cc1_plugin10connectionEyPKcm 184
_ZN10cc1_plugin8callbackIyyPKcmXadL_Z26plugin_build_enum_constantPNS_10connectionEyS2_mEEEENS_6statusES4_ _ZN10cc1_plugin10connection4sendEc 200
_ZN10cc1_plugin8callbackIyyPKcmXadL_Z26plugin_build_enum_constantPNS_10connectionEyS2_mEEEENS_6statusES4_ _ZN10cc1_plugin16marshall_intlikeEPNS_10connectionEy 215
_ZN10cc1_plugin8callbackIyyPKcmXadL_Z26plugin_build_enum_constantPNS_10connectionEyS2_mEEEENS_6statusES4_ _ZN10cc1_plugin16argument_wrapperIPKcED1Ev 230
_ZN10cc1_plugin8callbackIyyPKcmXadL_Z26plugin_build_enum_constantPNS_10connectionEyS2_mEEEENS_6statusES4_ _Unwind_Resume 238
_ZN10cc1_plugin8callbackIiyXadL_Z26plugin_add_using_namespacePNS_10connectionEyEEEENS_6statusES2_ _ZN10cc1_plugin16unmarshall_checkEPNS_10connectionEy 23
_ZN10cc1_plugin8callbackIiyXadL_Z26plugin_add_using_namespacePNS_10connectionEyEEEENS_6statusES2_ _ZN10cc1_plugin18unmarshall_intlikeEPNS_10connectionEPy 57
_ZN10cc1_plugin8callbackIiyXadL_Z26plugin_add_using_namespacePNS_10connectionEyEEEENS_6statusES2_ _Z26plugin_add_using_namespacePN10cc1_plugin10connectionEy 74
_ZN10cc1_plugin8callbackIiyXadL_Z26plugin_add_using_namespacePNS_10connectionEyEEEENS_6statusES2_ _ZN10cc1_plugin10connection4sendEc 89
_ZN10cc1_plugin8callbackIiyXadL_Z26plugin_add_using_namespacePNS_10connectionEyEEEENS_6statusES2_ _ZN10cc1_plugin16marshall_intlikeEPNS_10connectionEy 104
_ZN10cc1_plugin8callbackIiyXadL_Z26plugin_add_using_namespacePNS_10connectionEyEEEENS_6statusES2_ _Unwind_Resume 114
_ZN10cc1_plugin8callbackIiyXadL_Z17plugin_push_classPNS_10connectionEyEEEENS_6statusES2_ _ZN10cc1_plugin16unmarshall_checkEPNS_10connectionEy 23
_ZN10cc1_plugin8callbackIiyXadL_Z17plugin_push_classPNS_10connectionEyEEEENS_6statusES2_ _ZN10cc1_plugin18unmarshall_intlikeEPNS_10connectionEPy 57
_ZN10cc1_plugin8callbackIiyXadL_Z17plugin_push_classPNS_10connectionEyEEEENS_6statusES2_ _Z17plugin_push_classPN10cc1_plugin10connectionEy 74
_ZN10cc1_plugin8callbackIiyXadL_Z17plugin_push_classPNS_10connectionEyEEEENS_6statusES2_ _ZN10cc1_plugin10connection4sendEc 89
_ZN10cc1_plugin8callbackIiyXadL_Z17plugin_push_classPNS_10connectionEyEEEENS_6statusES2_ _ZN10cc1_plugin16marshall_intlikeEPNS_10connectionEy 104
_ZN10cc1_plugin8callbackIiyXadL_Z17plugin_push_classPNS_10connectionEyEEEENS_6statusES2_ _Unwind_Resume 114
_ZN10cc1_plugin8callbackIyy21gcc_cp_ref_qualifiersXadL_Z27plugin_build_reference_typePNS_10connectionEyS1_EEEENS_6statusES3_ _ZN10cc1_plugin16unmarshall_checkEPNS_10connectionEy 23
_ZN10cc1_plugin8callbackIyy21gcc_cp_ref_qualifiersXadL_Z27plugin_build_reference_typePNS_10connectionEyS1_EEEENS_6statusES3_ _ZN10cc1_plugin18unmarshall_intlikeEPNS_10connectionEPy 57
_ZN10cc1_plugin8callbackIyy21gcc_cp_ref_qualifiersXadL_Z27plugin_build_reference_typePNS_10connectionEyS1_EEEENS_6statusES3_ _ZN10cc1_plugin10unmarshallEPNS_10connectionEP21gcc_cp_ref_qualifiers 79
_ZN10cc1_plugin8callbackIyy21gcc_cp_ref_qualifiersXadL_Z27plugin_build_reference_typePNS_10connectionEyS1_EEEENS_6statusES3_ _Z27plugin_build_reference_typePN10cc1_plugin10connectionEy21gcc_cp_ref_qualifiers 98
_ZN10cc1_plugin8callbackIyy21gcc_cp_ref_qualifiersXadL_Z27plugin_build_reference_typePNS_10connectionEyS1_EEEENS_6statusES3_ _ZN10cc1_plugin10connection4sendEc 114
_ZN10cc1_plugin8callbackIyy21gcc_cp_ref_qualifiersXadL_Z27plugin_build_reference_typePNS_10connectionEyS1_EEEENS_6statusES3_ _ZN10cc1_plugin16marshall_intlikeEPNS_10connectionEy 129
_ZN10cc1_plugin8callbackIyy21gcc_cp_ref_qualifiersXadL_Z27plugin_build_reference_typePNS_10connectionEyS1_EEEENS_6statusES3_ _Unwind_Resume 139
_ZN10cc1_plugin8callbackIyyiXadL_Z34plugin_get_function_parameter_declPNS_10connectionEyiEEEENS_6statusES2_ _ZN10cc1_plugin16unmarshall_checkEPNS_10connectionEy 28
_ZN10cc1_plugin8callbackIyyiXadL_Z34plugin_get_function_parameter_declPNS_10connectionEyiEEEENS_6statusES2_ _ZN10cc1_plugin18unmarshall_intlikeEPNS_10connectionEPy 76
_ZN10cc1_plugin8callbackIyyiXadL_Z34plugin_get_function_parameter_declPNS_10connectionEyiEEEENS_6statusES2_ _ZN10cc1_plugin18unmarshall_intlikeEPNS_10connectionEPy 96
_ZN10cc1_plugin8callbackIyyiXadL_Z34plugin_get_function_parameter_declPNS_10connectionEyiEEEENS_6statusES2_ _Z34plugin_get_function_parameter_declPN10cc1_plugin10connectionEyi 115
_ZN10cc1_plugin8callbackIyyiXadL_Z34plugin_get_function_parameter_declPNS_10connectionEyiEEEENS_6statusES2_ _ZN10cc1_plugin10connection4sendEc 131
_ZN10cc1_plugin8callbackIyyiXadL_Z34plugin_get_function_parameter_declPNS_10connectionEyiEEEENS_6statusES2_ _ZN10cc1_plugin16marshall_intlikeEPNS_10connectionEy 146
_ZN10cc1_plugin8callbackIyyiXadL_Z34plugin_get_function_parameter_declPNS_10connectionEyiEEEENS_6statusES2_ _Unwind_Resume 156
_ZN10cc1_plugin8callbackIyyXadL_Z20plugin_get_type_declPNS_10connectionEyEEEENS_6statusES2_ _ZN10cc1_plugin16unmarshall_checkEPNS_10connectionEy 23
_ZN10cc1_plugin8callbackIyyXadL_Z20plugin_get_type_declPNS_10connectionEyEEEENS_6statusES2_ _ZN10cc1_plugin18unmarshall_intlikeEPNS_10connectionEPy 57
_ZN10cc1_plugin8callbackIyyXadL_Z20plugin_get_type_declPNS_10connectionEyEEEENS_6statusES2_ _Z20plugin_get_type_declPN10cc1_plugin10connectionEy 74
_ZN10cc1_plugin8callbackIyyXadL_Z20plugin_get_type_declPNS_10connectionEyEEEENS_6statusES2_ _ZN10cc1_plugin10connection4sendEc 90
_ZN10cc1_plugin8callbackIyyXadL_Z20plugin_get_type_declPNS_10connectionEyEEEENS_6statusES2_ _ZN10cc1_plugin16marshall_intlikeEPNS_10connectionEy 105
_ZN10cc1_plugin8callbackIyyXadL_Z20plugin_get_type_declPNS_10connectionEyEEEENS_6statusES2_ _Unwind_Resume 115
_ZN10cc1_plugin8callbackIiyXadL_Z20plugin_push_functionPNS_10connectionEyEEEENS_6statusES2_ _ZN10cc1_plugin16unmarshall_checkEPNS_10connectionEy 23
_ZN10cc1_plugin8callbackIiyXadL_Z20plugin_push_functionPNS_10connectionEyEEEENS_6statusES2_ _ZN10cc1_plugin18unmarshall_intlikeEPNS_10connectionEPy 57
_ZN10cc1_plugin8callbackIiyXadL_Z20plugin_push_functionPNS_10connectionEyEEEENS_6statusES2_ _Z20plugin_push_functionPN10cc1_plugin10connectionEy 74
_ZN10cc1_plugin8callbackIiyXadL_Z20plugin_push_functionPNS_10connectionEyEEEENS_6statusES2_ _ZN10cc1_plugin10connection4sendEc 89
_ZN10cc1_plugin8callbackIiyXadL_Z20plugin_push_functionPNS_10connectionEyEEEENS_6statusES2_ _ZN10cc1_plugin16marshall_intlikeEPNS_10connectionEy 104
_ZN10cc1_plugin8callbackIiyXadL_Z20plugin_push_functionPNS_10connectionEyEEEENS_6statusES2_ _Unwind_Resume 114
_ZN10cc1_plugin8callbackIyy17gcc_cp_qualifiersXadL_Z27plugin_build_qualified_typePNS_10connectionEyS1_EEEENS_6statusES3_ _ZN10cc1_plugin16unmarshall_checkEPNS_10connectionEy 23
_ZN10cc1_plugin8callbackIyy17gcc_cp_qualifiersXadL_Z27plugin_build_qualified_typePNS_10connectionEyS1_EEEENS_6statusES3_ _ZN10cc1_plugin18unmarshall_intlikeEPNS_10connectionEPy 57
_ZN10cc1_plugin8callbackIyy17gcc_cp_qualifiersXadL_Z27plugin_build_qualified_typePNS_10connectionEyS1_EEEENS_6statusES3_ _ZN10cc1_plugin10unmarshallEPNS_10connectionEP17gcc_cp_qualifiers 79
_ZN10cc1_plugin8callbackIyy17gcc_cp_qualifiersXadL_Z27plugin_build_qualified_typePNS_10connectionEyS1_EEEENS_6statusES3_ _Z27plugin_build_qualified_typePN10cc1_plugin10connectionEy17gcc_cp_qualifiers 98
_ZN10cc1_plugin8callbackIyy17gcc_cp_qualifiersXadL_Z27plugin_build_qualified_typePNS_10connectionEyS1_EEEENS_6statusES3_ _ZN10cc1_plugin10connection4sendEc 114
_ZN10cc1_plugin8callbackIyy17gcc_cp_qualifiersXadL_Z27plugin_build_qualified_typePNS_10connectionEyS1_EEEENS_6statusES3_ _ZN10cc1_plugin16marshall_intlikeEPNS_10connectionEy 129
_ZN10cc1_plugin8callbackIyy17gcc_cp_qualifiersXadL_Z27plugin_build_qualified_typePNS_10connectionEyS1_EEEENS_6statusES3_ _Unwind_Resume 139
_ZN10cc1_plugin8callbackIyyXadL_Z20plugin_get_decl_typePNS_10connectionEyEEEENS_6statusES2_ _ZN10cc1_plugin16unmarshall_checkEPNS_10connectionEy 23
_ZN10cc1_plugin8callbackIyyXadL_Z20plugin_get_decl_typePNS_10connectionEyEEEENS_6statusES2_ _ZN10cc1_plugin18unmarshall_intlikeEPNS_10connectionEPy 57
_ZN10cc1_plugin8callbackIyyXadL_Z20plugin_get_decl_typePNS_10connectionEyEEEENS_6statusES2_ _Z20plugin_get_decl_typePN10cc1_plugin10connectionEy 74
_ZN10cc1_plugin8callbackIyyXadL_Z20plugin_get_decl_typePNS_10connectionEyEEEENS_6statusES2_ _ZN10cc1_plugin10connection4sendEc 90
_ZN10cc1_plugin8callbackIyyXadL_Z20plugin_get_decl_typePNS_10connectionEyEEEENS_6statusES2_ _ZN10cc1_plugin16marshall_intlikeEPNS_10connectionEy 105
_ZN10cc1_plugin8callbackIyyXadL_Z20plugin_get_decl_typePNS_10connectionEyEEEENS_6statusES2_ _Unwind_Resume 115
_ZN10cc1_plugin8callbackIiPKcyXadL_Z26plugin_add_namespace_aliasPNS_10connectionES2_yEEEENS_6statusES4_ _ZN10cc1_plugin16unmarshall_checkEPNS_10connectionEy 42
_ZN10cc1_plugin8callbackIiPKcyXadL_Z26plugin_add_namespace_aliasPNS_10connectionES2_yEEEENS_6statusES4_ _ZN10cc1_plugin10unmarshallEPNS_10connectionEPPc 62
_ZN10cc1_plugin8callbackIiPKcyXadL_Z26plugin_add_namespace_aliasPNS_10connectionES2_yEEEENS_6statusES4_ _ZdaPv 83
_ZN10cc1_plugin8callbackIiPKcyXadL_Z26plugin_add_namespace_aliasPNS_10connectionES2_yEEEENS_6statusES4_ _ZN10cc1_plugin18unmarshall_intlikeEPNS_10connectionEPy 121
_ZN10cc1_plugin8callbackIiPKcyXadL_Z26plugin_add_namespace_aliasPNS_10connectionES2_yEEEENS_6statusES4_ _Z26plugin_add_namespace_aliasPN10cc1_plugin10connectionEPKcy 143
_ZN10cc1_plugin8callbackIiPKcyXadL_Z26plugin_add_namespace_aliasPNS_10connectionES2_yEEEENS_6statusES4_ _ZN10cc1_plugin10connection4sendEc 159
_ZN10cc1_plugin8callbackIiPKcyXadL_Z26plugin_add_namespace_aliasPNS_10connectionES2_yEEEENS_6statusES4_ _ZN10cc1_plugin16marshall_intlikeEPNS_10connectionEy 174
_ZN10cc1_plugin8callbackIiPKcyXadL_Z26plugin_add_namespace_aliasPNS_10connectionES2_yEEEENS_6statusES4_ _ZN10cc1_plugin16argument_wrapperIPKcED1Ev 189
_ZN10cc1_plugin8callbackIiPKcyXadL_Z26plugin_add_namespace_aliasPNS_10connectionES2_yEEEENS_6statusES4_ _Unwind_Resume 197
_ZN10cc1_plugin8callbackIi18gcc_cp_symbol_kindyXadL_Z21plugin_add_using_declPNS_10connectionES1_yEEEENS_6statusES3_ _ZN10cc1_plugin16unmarshall_checkEPNS_10connectionEy 23
_ZN10cc1_plugin8callbackIi18gcc_cp_symbol_kindyXadL_Z21plugin_add_using_declPNS_10connectionES1_yEEEENS_6statusES3_ _ZN10cc1_plugin10unmarshallEPNS_10connectionEP18gcc_cp_symbol_kind 57
_ZN10cc1_plugin8callbackIi18gcc_cp_symbol_kindyXadL_Z21plugin_add_using_declPNS_10connectionES1_yEEEENS_6statusES3_ _ZN10cc1_plugin18unmarshall_intlikeEPNS_10connectionEPy 74
_ZN10cc1_plugin8callbackIi18gcc_cp_symbol_kindyXadL_Z21plugin_add_using_declPNS_10connectionES1_yEEEENS_6statusES3_ _Z21plugin_add_using_declPN10cc1_plugin10connectionE18gcc_cp_symbol_kindy 95
_ZN10cc1_plugin8callbackIi18gcc_cp_symbol_kindyXadL_Z21plugin_add_using_declPNS_10connectionES1_yEEEENS_6statusES3_ _ZN10cc1_plugin10connection4sendEc 110
_ZN10cc1_plugin8callbackIi18gcc_cp_symbol_kindyXadL_Z21plugin_add_using_declPNS_10connectionES1_yEEEENS_6statusES3_ _ZN10cc1_plugin16marshall_intlikeEPNS_10connectionEy 125
_ZN10cc1_plugin8callbackIi18gcc_cp_symbol_kindyXadL_Z21plugin_add_using_declPNS_10connectionES1_yEEEENS_6statusES3_ _Unwind_Resume 135
_ZN10cc1_plugin8callbackIiyyXadL_Z17plugin_add_friendPNS_10connectionEyyEEEENS_6statusES2_ _ZN10cc1_plugin16unmarshall_checkEPNS_10connectionEy 28
_ZN10cc1_plugin8callbackIiyyXadL_Z17plugin_add_friendPNS_10connectionEyyEEEENS_6statusES2_ _ZN10cc1_plugin18unmarshall_intlikeEPNS_10connectionEPy 76
_ZN10cc1_plugin8callbackIiyyXadL_Z17plugin_add_friendPNS_10connectionEyyEEEENS_6statusES2_ _ZN10cc1_plugin18unmarshall_intlikeEPNS_10connectionEPy 96
_ZN10cc1_plugin8callbackIiyyXadL_Z17plugin_add_friendPNS_10connectionEyyEEEENS_6statusES2_ _Z17plugin_add_friendPN10cc1_plugin10connectionEyy 116
_ZN10cc1_plugin8callbackIiyyXadL_Z17plugin_add_friendPNS_10connectionEyyEEEENS_6statusES2_ _ZN10cc1_plugin10connection4sendEc 131
_ZN10cc1_plugin8callbackIiyyXadL_Z17plugin_add_friendPNS_10connectionEyyEEEENS_6statusES2_ _ZN10cc1_plugin16marshall_intlikeEPNS_10connectionEy 146
_ZN10cc1_plugin8callbackIiyyXadL_Z17plugin_add_friendPNS_10connectionEyyEEEENS_6statusES2_ _Unwind_Resume 156
_ZN10cc1_plugin8callbackIiyyXadL_Z22plugin_reactivate_declPNS_10connectionEyyEEEENS_6statusES2_ _ZN10cc1_plugin16unmarshall_checkEPNS_10connectionEy 28
_ZN10cc1_plugin8callbackIiyyXadL_Z22plugin_reactivate_declPNS_10connectionEyyEEEENS_6statusES2_ _ZN10cc1_plugin18unmarshall_intlikeEPNS_10connectionEPy 76
_ZN10cc1_plugin8callbackIiyyXadL_Z22plugin_reactivate_declPNS_10connectionEyyEEEENS_6statusES2_ _ZN10cc1_plugin18unmarshall_intlikeEPNS_10connectionEPy 96
_ZN10cc1_plugin8callbackIiyyXadL_Z22plugin_reactivate_declPNS_10connectionEyyEEEENS_6statusES2_ _Z22plugin_reactivate_declPN10cc1_plugin10connectionEyy 116
_ZN10cc1_plugin8callbackIiyyXadL_Z22plugin_reactivate_declPNS_10connectionEyyEEEENS_6statusES2_ _ZN10cc1_plugin10connection4sendEc 131
_ZN10cc1_plugin8callbackIiyyXadL_Z22plugin_reactivate_declPNS_10connectionEyyEEEENS_6statusES2_ _ZN10cc1_plugin16marshall_intlikeEPNS_10connectionEy 146
_ZN10cc1_plugin8callbackIiyyXadL_Z22plugin_reactivate_declPNS_10connectionEyyEEEENS_6statusES2_ _Unwind_Resume 156
_ZN10cc1_plugin8callbackIyPKcy18gcc_cp_symbol_kindmmXadL_Z18plugin_build_fieldPNS_10connectionES2_yS3_mmEEEENS_6statusES5_ _ZN10cc1_plugin16unmarshall_checkEPNS_10connectionEy 52
_ZN10cc1_plugin8callbackIyPKcy18gcc_cp_symbol_kindmmXadL_Z18plugin_build_fieldPNS_10connectionES2_yS3_mmEEEENS_6statusES5_ _ZN10cc1_plugin10unmarshallEPNS_10connectionEPPc 72
_ZN10cc1_plugin8callbackIyPKcy18gcc_cp_symbol_kindmmXadL_Z18plugin_build_fieldPNS_10connectionES2_yS3_mmEEEENS_6statusES5_ _ZdaPv 93
_ZN10cc1_plugin8callbackIyPKcy18gcc_cp_symbol_kindmmXadL_Z18plugin_build_fieldPNS_10connectionES2_yS3_mmEEEENS_6statusES5_ _ZN10cc1_plugin18unmarshall_intlikeEPNS_10connectionEPy 148
_ZN10cc1_plugin8callbackIyPKcy18gcc_cp_symbol_kindmmXadL_Z18plugin_build_fieldPNS_10connectionES2_yS3_mmEEEENS_6statusES5_ _ZN10cc1_plugin10unmarshallEPNS_10connectionEP18gcc_cp_symbol_kind 170
_ZN10cc1_plugin8callbackIyPKcy18gcc_cp_symbol_kindmmXadL_Z18plugin_build_fieldPNS_10connectionES2_yS3_mmEEEENS_6statusES5_ _ZN10cc1_plugin18unmarshall_intlikeEPNS_10connectionEPy 185
_ZN10cc1_plugin8callbackIyPKcy18gcc_cp_symbol_kindmmXadL_Z18plugin_build_fieldPNS_10connectionES2_yS3_mmEEEENS_6statusES5_ _ZN10cc1_plugin18unmarshall_intlikeEPNS_10connectionEPy 205
_ZN10cc1_plugin8callbackIyPKcy18gcc_cp_symbol_kindmmXadL_Z18plugin_build_fieldPNS_10connectionES2_yS3_mmEEEENS_6statusES5_ _Z18plugin_build_fieldPN10cc1_plugin10connectionEPKcy18gcc_cp_symbol_kindmm 241
_ZN10cc1_plugin8callbackIyPKcy18gcc_cp_symbol_kindmmXadL_Z18plugin_build_fieldPNS_10connectionES2_yS3_mmEEEENS_6statusES5_ _ZN10cc1_plugin10connection4sendEc 257
_ZN10cc1_plugin8callbackIyPKcy18gcc_cp_symbol_kindmmXadL_Z18plugin_build_fieldPNS_10connectionES2_yS3_mmEEEENS_6statusES5_ _ZN10cc1_plugin16marshall_intlikeEPNS_10connectionEy 276
_ZN10cc1_plugin8callbackIyPKcy18gcc_cp_symbol_kindmmXadL_Z18plugin_build_fieldPNS_10connectionES2_yS3_mmEEEENS_6statusES5_ _ZN10cc1_plugin16argument_wrapperIPKcED1Ev 294
_ZN10cc1_plugin8callbackIyPKcy18gcc_cp_symbol_kindmmXadL_Z18plugin_build_fieldPNS_10connectionES2_yS3_mmEEEENS_6statusES5_ _Unwind_Resume 302
_ZN10cc1_plugin8callbackIyPKcyyXadL_Z25plugin_define_cdtor_clonePNS_10connectionES2_yyEEEENS_6statusES4_ _ZN10cc1_plugin16unmarshall_checkEPNS_10connectionEy 42
_ZN10cc1_plugin8callbackIyPKcyyXadL_Z25plugin_define_cdtor_clonePNS_10connectionES2_yyEEEENS_6statusES4_ _ZN10cc1_plugin10unmarshallEPNS_10connectionEPPc 62
_ZN10cc1_plugin8callbackIyPKcyyXadL_Z25plugin_define_cdtor_clonePNS_10connectionES2_yyEEEENS_6statusES4_ _ZdaPv 83
_ZN10cc1_plugin8callbackIyPKcyyXadL_Z25plugin_define_cdtor_clonePNS_10connectionES2_yyEEEENS_6statusES4_ _ZN10cc1_plugin18unmarshall_intlikeEPNS_10connectionEPy 121
_ZN10cc1_plugin8callbackIyPKcyyXadL_Z25plugin_define_cdtor_clonePNS_10connectionES2_yyEEEENS_6statusES4_ _ZN10cc1_plugin16argument_wrapperIyE10unmarshallEPNS_10connectionE 143
_ZN10cc1_plugin8callbackIyPKcyyXadL_Z25plugin_define_cdtor_clonePNS_10connectionES2_yyEEEENS_6statusES4_ _Z25plugin_define_cdtor_clonePN10cc1_plugin10connectionEPKcyy 168
_ZN10cc1_plugin8callbackIyPKcyyXadL_Z25plugin_define_cdtor_clonePNS_10connectionES2_yyEEEENS_6statusES4_ _ZN10cc1_plugin10connection4sendEc 184
_ZN10cc1_plugin8callbackIyPKcyyXadL_Z25plugin_define_cdtor_clonePNS_10connectionES2_yyEEEENS_6statusES4_ _ZN10cc1_plugin16marshall_intlikeEPNS_10connectionEy 199
_ZN10cc1_plugin8callbackIyPKcyyXadL_Z25plugin_define_cdtor_clonePNS_10connectionES2_yyEEEENS_6statusES4_ _ZN10cc1_plugin16argument_wrapperIPKcED1Ev 217
_ZN10cc1_plugin8callbackIyPKcyyXadL_Z25plugin_define_cdtor_clonePNS_10connectionES2_yyEEEENS_6statusES4_ _Unwind_Resume 225
_ZN10cc1_plugin8callbackIyPKcPK20gcc_cp_function_argsyS5_XadL_Z21plugin_build_new_exprPNS_10connectionES2_S5_yS5_EEEENS_6statusES7_ _ZN10cc1_plugin16unmarshall_checkEPNS_10connectionEy 74
_ZN10cc1_plugin8callbackIyPKcPK20gcc_cp_function_argsyS5_XadL_Z21plugin_build_new_exprPNS_10connectionES2_S5_yS5_EEEENS_6statusES7_ _ZN10cc1_plugin10unmarshallEPNS_10connectionEPPc 99
_ZN10cc1_plugin8callbackIyPKcPK20gcc_cp_function_argsyS5_XadL_Z21plugin_build_new_exprPNS_10connectionES2_S5_yS5_EEEENS_6statusES7_ _ZdaPv 131
_ZN10cc1_plugin8callbackIyPKcPK20gcc_cp_function_argsyS5_XadL_Z21plugin_build_new_exprPNS_10connectionES2_S5_yS5_EEEENS_6statusES7_ _ZdlPv 140
_ZN10cc1_plugin8callbackIyPKcPK20gcc_cp_function_argsyS5_XadL_Z21plugin_build_new_exprPNS_10connectionES2_S5_yS5_EEEENS_6statusES7_ _ZdaPv 167
_ZN10cc1_plugin8callbackIyPKcPK20gcc_cp_function_argsyS5_XadL_Z21plugin_build_new_exprPNS_10connectionES2_S5_yS5_EEEENS_6statusES7_ _ZdlPv 177
_ZN10cc1_plugin8callbackIyPKcPK20gcc_cp_function_argsyS5_XadL_Z21plugin_build_new_exprPNS_10connectionES2_S5_yS5_EEEENS_6statusES7_ _ZdaPv 192
_ZN10cc1_plugin8callbackIyPKcPK20gcc_cp_function_argsyS5_XadL_Z21plugin_build_new_exprPNS_10connectionES2_S5_yS5_EEEENS_6statusES7_ _ZN10cc1_plugin10unmarshallEPNS_10connectionEPP20gcc_cp_function_args 244
_ZN10cc1_plugin8callbackIyPKcPK20gcc_cp_function_argsyS5_XadL_Z21plugin_build_new_exprPNS_10connectionES2_S5_yS5_EEEENS_6statusES7_ _ZN10cc1_plugin16argument_wrapperIyE10unmarshallEPNS_10connectionE 265
_ZN10cc1_plugin8callbackIyPKcPK20gcc_cp_function_argsyS5_XadL_Z21plugin_build_new_exprPNS_10connectionES2_S5_yS5_EEEENS_6statusES7_ _ZN10cc1_plugin10unmarshallEPNS_10connectionEPP20gcc_cp_function_args 284
_ZN10cc1_plugin8callbackIyPKcPK20gcc_cp_function_argsyS5_XadL_Z21plugin_build_new_exprPNS_10connectionES2_S5_yS5_EEEENS_6statusES7_ _Z21plugin_build_new_exprPN10cc1_plugin10connectionEPKcPK20gcc_cp_function_argsyS6_ 319
_ZN10cc1_plugin8callbackIyPKcPK20gcc_cp_function_argsyS5_XadL_Z21plugin_build_new_exprPNS_10connectionES2_S5_yS5_EEEENS_6statusES7_ _ZN10cc1_plugin10connection4sendEc 335
_ZN10cc1_plugin8callbackIyPKcPK20gcc_cp_function_argsyS5_XadL_Z21plugin_build_new_exprPNS_10connectionES2_S5_yS5_EEEENS_6statusES7_ _ZN10cc1_plugin16marshall_intlikeEPNS_10connectionEy 354
_ZN10cc1_plugin8callbackIyPKcPK20gcc_cp_function_argsyS5_XadL_Z21plugin_build_new_exprPNS_10connectionES2_S5_yS5_EEEENS_6statusES7_ _ZN10cc1_plugin16argument_wrapperIPK20gcc_cp_function_argsED1Ev 372
_ZN10cc1_plugin8callbackIyPKcPK20gcc_cp_function_argsyS5_XadL_Z21plugin_build_new_exprPNS_10connectionES2_S5_yS5_EEEENS_6statusES7_ _ZN10cc1_plugin16argument_wrapperIPK20gcc_cp_function_argsED1Ev 380
_ZN10cc1_plugin8callbackIyPKcPK20gcc_cp_function_argsyS5_XadL_Z21plugin_build_new_exprPNS_10connectionES2_S5_yS5_EEEENS_6statusES7_ _ZN10cc1_plugin16argument_wrapperIPKcED1Ev 388
_ZN10cc1_plugin8callbackIyPKcPK20gcc_cp_function_argsyS5_XadL_Z21plugin_build_new_exprPNS_10connectionES2_S5_yS5_EEEENS_6statusES7_ _Unwind_Resume 396
_ZN10cc1_plugin8callbackIiyPKcS2_jXadL_Z24plugin_add_static_assertPNS_10connectionEyS2_S2_jEEEENS_6statusES4_ _ZN10cc1_plugin16unmarshall_checkEPNS_10connectionEy 61
_ZN10cc1_plugin8callbackIiyPKcS2_jXadL_Z24plugin_add_static_assertPNS_10connectionEyS2_S2_jEEEENS_6statusES4_ _ZN10cc1_plugin18unmarshall_intlikeEPNS_10connectionEPy 88
_ZN10cc1_plugin8callbackIiyPKcS2_jXadL_Z24plugin_add_static_assertPNS_10connectionEyS2_S2_jEEEENS_6statusES4_ _ZN10cc1_plugin10unmarshallEPNS_10connectionEPPc 118
_ZN10cc1_plugin8callbackIiyPKcS2_jXadL_Z24plugin_add_static_assertPNS_10connectionEyS2_S2_jEEEENS_6statusES4_ _ZdaPv 139
_ZN10cc1_plugin8callbackIiyPKcS2_jXadL_Z24plugin_add_static_assertPNS_10connectionEyS2_S2_jEEEENS_6statusES4_ _ZdaPv 154
_ZN10cc1_plugin8callbackIiyPKcS2_jXadL_Z24plugin_add_static_assertPNS_10connectionEyS2_S2_jEEEENS_6statusES4_ _ZN10cc1_plugin10unmarshallEPNS_10connectionEPPc 204
_ZN10cc1_plugin8callbackIiyPKcS2_jXadL_Z24plugin_add_static_assertPNS_10connectionEyS2_S2_jEEEENS_6statusES4_ _ZN10cc1_plugin16argument_wrapperIjE10unmarshallEPNS_10connectionE 221
_ZN10cc1_plugin8callbackIiyPKcS2_jXadL_Z24plugin_add_static_assertPNS_10connectionEyS2_S2_jEEEENS_6statusES4_ _Z24plugin_add_static_assertPN10cc1_plugin10connectionEyPKcS3_j 251
_ZN10cc1_plugin8callbackIiyPKcS2_jXadL_Z24plugin_add_static_assertPNS_10connectionEyS2_S2_jEEEENS_6statusES4_ _ZN10cc1_plugin10connection4sendEc 267
_ZN10cc1_plugin8callbackIiyPKcS2_jXadL_Z24plugin_add_static_assertPNS_10connectionEyS2_S2_jEEEENS_6statusES4_ _ZN10cc1_plugin16marshall_intlikeEPNS_10connectionEy 286
_ZN10cc1_plugin8callbackIiyPKcS2_jXadL_Z24plugin_add_static_assertPNS_10connectionEyS2_S2_jEEEENS_6statusES4_ _ZN10cc1_plugin16argument_wrapperIPKcED1Ev 304
_ZN10cc1_plugin8callbackIiyPKcS2_jXadL_Z24plugin_add_static_assertPNS_10connectionEyS2_S2_jEEEENS_6statusES4_ _ZN10cc1_plugin16argument_wrapperIPKcED1Ev 312
_ZN10cc1_plugin8callbackIiyPKcS2_jXadL_Z24plugin_add_static_assertPNS_10connectionEyS2_S2_jEEEENS_6statusES4_ _Unwind_Resume 320
_ZN10cc1_plugin8callbackIyymXadL_Z25plugin_build_literal_exprPNS_10connectionEymEEEENS_6statusES2_ _ZN10cc1_plugin16unmarshall_checkEPNS_10connectionEy 28
_ZN10cc1_plugin8callbackIyymXadL_Z25plugin_build_literal_exprPNS_10connectionEymEEEENS_6statusES2_ _ZN10cc1_plugin18unmarshall_intlikeEPNS_10connectionEPy 76
_ZN10cc1_plugin8callbackIyymXadL_Z25plugin_build_literal_exprPNS_10connectionEymEEEENS_6statusES2_ _ZN10cc1_plugin18unmarshall_intlikeEPNS_10connectionEPy 96
_ZN10cc1_plugin8callbackIyymXadL_Z25plugin_build_literal_exprPNS_10connectionEymEEEENS_6statusES2_ _Z25plugin_build_literal_exprPN10cc1_plugin10connectionEym 116
_ZN10cc1_plugin8callbackIyymXadL_Z25plugin_build_literal_exprPNS_10connectionEymEEEENS_6statusES2_ _ZN10cc1_plugin10connection4sendEc 132
_ZN10cc1_plugin8callbackIyymXadL_Z25plugin_build_literal_exprPNS_10connectionEymEEEENS_6statusES2_ _ZN10cc1_plugin16marshall_intlikeEPNS_10connectionEy 147
_ZN10cc1_plugin8callbackIyymXadL_Z25plugin_build_literal_exprPNS_10connectionEymEEEENS_6statusES2_ _Unwind_Resume 157
_ZN10cc1_plugin8callbackIyyPKcXadL_Z37plugin_build_dependent_class_templatePNS_10connectionEyS2_EEEENS_6statusES4_ _ZN10cc1_plugin16unmarshall_checkEPNS_10connectionEy 42
_ZN10cc1_plugin8callbackIyyPKcXadL_Z37plugin_build_dependent_class_templatePNS_10connectionEyS2_EEEENS_6statusES4_ _ZN10cc1_plugin18unmarshall_intlikeEPNS_10connectionEPy 64
_ZN10cc1_plugin8callbackIyyPKcXadL_Z37plugin_build_dependent_class_templatePNS_10connectionEyS2_EEEENS_6statusES4_ _ZN10cc1_plugin10unmarshallEPNS_10connectionEPPc 89
_ZN10cc1_plugin8callbackIyyPKcXadL_Z37plugin_build_dependent_class_templatePNS_10connectionEyS2_EEEENS_6statusES4_ _ZdaPv 110
_ZN10cc1_plugin8callbackIyyPKcXadL_Z37plugin_build_dependent_class_templatePNS_10connectionEyS2_EEEENS_6statusES4_ _Z37plugin_build_dependent_class_templatePN10cc1_plugin10connectionEyPKc 156
_ZN10cc1_plugin8callbackIyyPKcXadL_Z37plugin_build_dependent_class_templatePNS_10connectionEyS2_EEEENS_6statusES4_ _ZN10cc1_plugin10connection4sendEc 172
_ZN10cc1_plugin8callbackIyyPKcXadL_Z37plugin_build_dependent_class_templatePNS_10connectionEyS2_EEEENS_6statusES4_ _ZN10cc1_plugin16marshall_intlikeEPNS_10connectionEy 187
_ZN10cc1_plugin8callbackIyyPKcXadL_Z37plugin_build_dependent_class_templatePNS_10connectionEyS2_EEEENS_6statusES4_ _ZN10cc1_plugin16argument_wrapperIPKcED1Ev 202
_ZN10cc1_plugin8callbackIyyPKcXadL_Z37plugin_build_dependent_class_templatePNS_10connectionEyS2_EEEENS_6statusES4_ _Unwind_Resume 210
_ZN10cc1_plugin8callbackIyyPKcPK20gcc_cp_template_argsXadL_Z31plugin_build_dependent_typenamePNS_10connectionEyS2_S5_EEEENS_6statusES7_ _ZN10cc1_plugin16unmarshall_checkEPNS_10connectionEy 61
_ZN10cc1_plugin8callbackIyyPKcPK20gcc_cp_template_argsXadL_Z31plugin_build_dependent_typenamePNS_10connectionEyS2_S5_EEEENS_6statusES7_ _ZN10cc1_plugin18unmarshall_intlikeEPNS_10connectionEPy 88
_ZN10cc1_plugin8callbackIyyPKcPK20gcc_cp_template_argsXadL_Z31plugin_build_dependent_typenamePNS_10connectionEyS2_S5_EEEENS_6statusES7_ _ZN10cc1_plugin10unmarshallEPNS_10connectionEPPc 118
_ZN10cc1_plugin8callbackIyyPKcPK20gcc_cp_template_argsXadL_Z31plugin_build_dependent_typenamePNS_10connectionEyS2_S5_EEEENS_6statusES7_ _ZdaPv 151
_ZN10cc1_plugin8callbackIyyPKcPK20gcc_cp_template_argsXadL_Z31plugin_build_dependent_typenamePNS_10connectionEyS2_S5_EEEENS_6statusES7_ _ZdaPv 173
_ZN10cc1_plugin8callbackIyyPKcPK20gcc_cp_template_argsXadL_Z31plugin_build_dependent_typenamePNS_10connectionEyS2_S5_EEEENS_6statusES7_ _ZdlPv 183
_ZN10cc1_plugin8callbackIyyPKcPK20gcc_cp_template_argsXadL_Z31plugin_build_dependent_typenamePNS_10connectionEyS2_S5_EEEENS_6statusES7_ _ZdaPv 198
_ZN10cc1_plugin8callbackIyyPKcPK20gcc_cp_template_argsXadL_Z31plugin_build_dependent_typenamePNS_10connectionEyS2_S5_EEEENS_6statusES7_ _ZN10cc1_plugin10unmarshallEPNS_10connectionEPP20gcc_cp_template_args 244
_ZN10cc1_plugin8callbackIyyPKcPK20gcc_cp_template_argsXadL_Z31plugin_build_dependent_typenamePNS_10connectionEyS2_S5_EEEENS_6statusES7_ _Z31plugin_build_dependent_typenamePN10cc1_plugin10connectionEyPKcPK20gcc_cp_template_args 269
_ZN10cc1_plugin8callbackIyyPKcPK20gcc_cp_template_argsXadL_Z31plugin_build_dependent_typenamePNS_10connectionEyS2_S5_EEEENS_6statusES7_ _ZN10cc1_plugin10connection4sendEc 285
_ZN10cc1_plugin8callbackIyyPKcPK20gcc_cp_template_argsXadL_Z31plugin_build_dependent_typenamePNS_10connectionEyS2_S5_EEEENS_6statusES7_ _ZN10cc1_plugin16marshall_intlikeEPNS_10connectionEy 304
_ZN10cc1_plugin8callbackIyyPKcPK20gcc_cp_template_argsXadL_Z31plugin_build_dependent_typenamePNS_10connectionEyS2_S5_EEEENS_6statusES7_ _ZN10cc1_plugin16argument_wrapperIPK20gcc_cp_template_argsED1Ev 322
_ZN10cc1_plugin8callbackIyyPKcPK20gcc_cp_template_argsXadL_Z31plugin_build_dependent_typenamePNS_10connectionEyS2_S5_EEEENS_6statusES7_ _ZN10cc1_plugin16argument_wrapperIPKcED1Ev 330
_ZN10cc1_plugin8callbackIyyPKcPK20gcc_cp_template_argsXadL_Z31plugin_build_dependent_typenamePNS_10connectionEyS2_S5_EEEENS_6statusES7_ _Unwind_Resume 338
_ZN10cc1_plugin8callbackIyyyXadL_Z35plugin_build_pointer_to_member_typePNS_10connectionEyyEEEENS_6statusES2_ _ZN10cc1_plugin16unmarshall_checkEPNS_10connectionEy 28
_ZN10cc1_plugin8callbackIyyyXadL_Z35plugin_build_pointer_to_member_typePNS_10connectionEyyEEEENS_6statusES2_ _ZN10cc1_plugin18unmarshall_intlikeEPNS_10connectionEPy 76
_ZN10cc1_plugin8callbackIyyyXadL_Z35plugin_build_pointer_to_member_typePNS_10connectionEyyEEEENS_6statusES2_ _ZN10cc1_plugin18unmarshall_intlikeEPNS_10connectionEPy 96
_ZN10cc1_plugin8callbackIyyyXadL_Z35plugin_build_pointer_to_member_typePNS_10connectionEyyEEEENS_6statusES2_ _Z35plugin_build_pointer_to_member_typePN10cc1_plugin10connectionEyy 116
_ZN10cc1_plugin8callbackIyyyXadL_Z35plugin_build_pointer_to_member_typePNS_10connectionEyyEEEENS_6statusES2_ _ZN10cc1_plugin10connection4sendEc 132
_ZN10cc1_plugin8callbackIyyyXadL_Z35plugin_build_pointer_to_member_typePNS_10connectionEyyEEEENS_6statusES2_ _ZN10cc1_plugin16marshall_intlikeEPNS_10connectionEy 147
_ZN10cc1_plugin8callbackIyyyXadL_Z35plugin_build_pointer_to_member_typePNS_10connectionEyyEEEENS_6statusES2_ _Unwind_Resume 157
_ZN10cc1_plugin8callbackIyyPK14gcc_type_arrayXadL_Z35plugin_build_exception_spec_variantPNS_10connectionEyS3_EEEENS_6statusES5_ _ZN10cc1_plugin16unmarshall_checkEPNS_10connectionEy 42
_ZN10cc1_plugin8callbackIyyPK14gcc_type_arrayXadL_Z35plugin_build_exception_spec_variantPNS_10connectionEyS3_EEEENS_6statusES5_ _ZN10cc1_plugin18unmarshall_intlikeEPNS_10connectionEPy 64
_ZN10cc1_plugin8callbackIyyPK14gcc_type_arrayXadL_Z35plugin_build_exception_spec_variantPNS_10connectionEyS3_EEEENS_6statusES5_ _ZN10cc1_plugin10unmarshallEPNS_10connectionEPP14gcc_type_array 89
_ZN10cc1_plugin8callbackIyyPK14gcc_type_arrayXadL_Z35plugin_build_exception_spec_variantPNS_10connectionEyS3_EEEENS_6statusES5_ _ZdaPv 122
_ZN10cc1_plugin8callbackIyyPK14gcc_type_arrayXadL_Z35plugin_build_exception_spec_variantPNS_10connectionEyS3_EEEENS_6statusES5_ _ZdlPv 132
_ZN10cc1_plugin8callbackIyyPK14gcc_type_arrayXadL_Z35plugin_build_exception_spec_variantPNS_10connectionEyS3_EEEENS_6statusES5_ _Z35plugin_build_exception_spec_variantPN10cc1_plugin10connectionEyPK14gcc_type_array 172
_ZN10cc1_plugin8callbackIyyPK14gcc_type_arrayXadL_Z35plugin_build_exception_spec_variantPNS_10connectionEyS3_EEEENS_6statusES5_ _ZN10cc1_plugin10connection4sendEc 188
_ZN10cc1_plugin8callbackIyyPK14gcc_type_arrayXadL_Z35plugin_build_exception_spec_variantPNS_10connectionEyS3_EEEENS_6statusES5_ _ZN10cc1_plugin16marshall_intlikeEPNS_10connectionEy 203
_ZN10cc1_plugin8callbackIyyPK14gcc_type_arrayXadL_Z35plugin_build_exception_spec_variantPNS_10connectionEyS3_EEEENS_6statusES5_ _ZN10cc1_plugin16argument_wrapperIPK14gcc_type_arrayED1Ev 218
_ZN10cc1_plugin8callbackIyyPK14gcc_type_arrayXadL_Z35plugin_build_exception_spec_variantPNS_10connectionEyS3_EEEENS_6statusES5_ _Unwind_Resume 226
_ZN10cc1_plugin8callbackIyyyXadL_Z33plugin_build_dependent_array_typePNS_10connectionEyyEEEENS_6statusES2_ _ZN10cc1_plugin16unmarshall_checkEPNS_10connectionEy 28
_ZN10cc1_plugin8callbackIyyyXadL_Z33plugin_build_dependent_array_typePNS_10connectionEyyEEEENS_6statusES2_ _ZN10cc1_plugin18unmarshall_intlikeEPNS_10connectionEPy 76
_ZN10cc1_plugin8callbackIyyyXadL_Z33plugin_build_dependent_array_typePNS_10connectionEyyEEEENS_6statusES2_ _ZN10cc1_plugin18unmarshall_intlikeEPNS_10connectionEPy 96
_ZN10cc1_plugin8callbackIyyyXadL_Z33plugin_build_dependent_array_typePNS_10connectionEyyEEEENS_6statusES2_ _Z33plugin_build_dependent_array_typePN10cc1_plugin10connectionEyy 116
_ZN10cc1_plugin8callbackIyyyXadL_Z33plugin_build_dependent_array_typePNS_10connectionEyyEEEENS_6statusES2_ _ZN10cc1_plugin10connection4sendEc 132
_ZN10cc1_plugin8callbackIyyyXadL_Z33plugin_build_dependent_array_typePNS_10connectionEyyEEEENS_6statusES2_ _ZN10cc1_plugin16marshall_intlikeEPNS_10connectionEy 147
_ZN10cc1_plugin8callbackIyyyXadL_Z33plugin_build_dependent_array_typePNS_10connectionEyyEEEENS_6statusES2_ _Unwind_Resume 157
_ZN10cc1_plugin8callbackIyyPK20gcc_cp_template_argsPKcjXadL_Z42plugin_build_class_template_specializationPNS_10connectionEyS3_S5_jEEEENS_6statusES7_ _ZN10cc1_plugin16unmarshall_checkEPNS_10connectionEy 61
_ZN10cc1_plugin8callbackIyyPK20gcc_cp_template_argsPKcjXadL_Z42plugin_build_class_template_specializationPNS_10connectionEyS3_S5_jEEEENS_6statusES7_ _ZN10cc1_plugin18unmarshall_intlikeEPNS_10connectionEPy 88
_ZN10cc1_plugin8callbackIyyPK20gcc_cp_template_argsPKcjXadL_Z42plugin_build_class_template_specializationPNS_10connectionEyS3_S5_jEEEENS_6statusES7_ _ZN10cc1_plugin10unmarshallEPNS_10connectionEPP20gcc_cp_template_args 118
_ZN10cc1_plugin8callbackIyyPK20gcc_cp_template_argsPKcjXadL_Z42plugin_build_class_template_specializationPNS_10connectionEyS3_S5_jEEEENS_6statusES7_ _ZdaPv 139
_ZN10cc1_plugin8callbackIyyPK20gcc_cp_template_argsPKcjXadL_Z42plugin_build_class_template_specializationPNS_10connectionEyS3_S5_jEEEENS_6statusES7_ _ZdaPv 166
_ZN10cc1_plugin8callbackIyyPK20gcc_cp_template_argsPKcjXadL_Z42plugin_build_class_template_specializationPNS_10connectionEyS3_S5_jEEEENS_6statusES7_ _ZdaPv 188
_ZN10cc1_plugin8callbackIyyPK20gcc_cp_template_argsPKcjXadL_Z42plugin_build_class_template_specializationPNS_10connectionEyS3_S5_jEEEENS_6statusES7_ _ZdlPv 198
_ZN10cc1_plugin8callbackIyyPK20gcc_cp_template_argsPKcjXadL_Z42plugin_build_class_template_specializationPNS_10connectionEyS3_S5_jEEEENS_6statusES7_ _ZN10cc1_plugin10unmarshallEPNS_10connectionEPPc 244
_ZN10cc1_plugin8callbackIyyPK20gcc_cp_template_argsPKcjXadL_Z42plugin_build_class_template_specializationPNS_10connectionEyS3_S5_jEEEENS_6statusES7_ _ZN10cc1_plugin16argument_wrapperIjE10unmarshallEPNS_10connectionE 261
_ZN10cc1_plugin8callbackIyyPK20gcc_cp_template_argsPKcjXadL_Z42plugin_build_class_template_specializationPNS_10connectionEyS3_S5_jEEEENS_6statusES7_ _Z42plugin_build_class_template_specializationPN10cc1_plugin10connectionEyPK20gcc_cp_template_argsPKcj 295
_ZN10cc1_plugin8callbackIyyPK20gcc_cp_template_argsPKcjXadL_Z42plugin_build_class_template_specializationPNS_10connectionEyS3_S5_jEEEENS_6statusES7_ _ZN10cc1_plugin10connection4sendEc 311
_ZN10cc1_plugin8callbackIyyPK20gcc_cp_template_argsPKcjXadL_Z42plugin_build_class_template_specializationPNS_10connectionEyS3_S5_jEEEENS_6statusES7_ _ZN10cc1_plugin16marshall_intlikeEPNS_10connectionEy 330
_ZN10cc1_plugin8callbackIyyPK20gcc_cp_template_argsPKcjXadL_Z42plugin_build_class_template_specializationPNS_10connectionEyS3_S5_jEEEENS_6statusES7_ _ZN10cc1_plugin16argument_wrapperIPKcED1Ev 348
_ZN10cc1_plugin8callbackIyyPK20gcc_cp_template_argsPKcjXadL_Z42plugin_build_class_template_specializationPNS_10connectionEyS3_S5_jEEEENS_6statusES7_ _ZN10cc1_plugin16argument_wrapperIPK20gcc_cp_template_argsED1Ev 356
_ZN10cc1_plugin8callbackIyyPK20gcc_cp_template_argsPKcjXadL_Z42plugin_build_class_template_specializationPNS_10connectionEyS3_S5_jEEEENS_6statusES7_ _Unwind_Resume 364
_ZN10cc1_plugin8callbackIyyPK20gcc_cp_template_argsXadL_Z39plugin_build_dependent_type_template_idPNS_10connectionEyS3_EEEENS_6statusES5_ _ZN10cc1_plugin16unmarshall_checkEPNS_10connectionEy 42
_ZN10cc1_plugin8callbackIyyPK20gcc_cp_template_argsXadL_Z39plugin_build_dependent_type_template_idPNS_10connectionEyS3_EEEENS_6statusES5_ _ZN10cc1_plugin18unmarshall_intlikeEPNS_10connectionEPy 64
_ZN10cc1_plugin8callbackIyyPK20gcc_cp_template_argsXadL_Z39plugin_build_dependent_type_template_idPNS_10connectionEyS3_EEEENS_6statusES5_ _ZN10cc1_plugin10unmarshallEPNS_10connectionEPP20gcc_cp_template_args 89
_ZN10cc1_plugin8callbackIyyPK20gcc_cp_template_argsXadL_Z39plugin_build_dependent_type_template_idPNS_10connectionEyS3_EEEENS_6statusES5_ _ZdaPv 122
_ZN10cc1_plugin8callbackIyyPK20gcc_cp_template_argsXadL_Z39plugin_build_dependent_type_template_idPNS_10connectionEyS3_EEEENS_6statusES5_ _ZdaPv 144
_ZN10cc1_plugin8callbackIyyPK20gcc_cp_template_argsXadL_Z39plugin_build_dependent_type_template_idPNS_10connectionEyS3_EEEENS_6statusES5_ _ZdlPv 154
_ZN10cc1_plugin8callbackIyyPK20gcc_cp_template_argsXadL_Z39plugin_build_dependent_type_template_idPNS_10connectionEyS3_EEEENS_6statusES5_ _Z39plugin_build_dependent_type_template_idPN10cc1_plugin10connectionEyPK20gcc_cp_template_args 196
_ZN10cc1_plugin8callbackIyyPK20gcc_cp_template_argsXadL_Z39plugin_build_dependent_type_template_idPNS_10connectionEyS3_EEEENS_6statusES5_ _ZN10cc1_plugin10connection4sendEc 212
_ZN10cc1_plugin8callbackIyyPK20gcc_cp_template_argsXadL_Z39plugin_build_dependent_type_template_idPNS_10connectionEyS3_EEEENS_6statusES5_ _ZN10cc1_plugin16marshall_intlikeEPNS_10connectionEy 227
_ZN10cc1_plugin8callbackIyyPK20gcc_cp_template_argsXadL_Z39plugin_build_dependent_type_template_idPNS_10connectionEyS3_EEEENS_6statusES5_ _ZN10cc1_plugin16argument_wrapperIPK20gcc_cp_template_argsED1Ev 245
_ZN10cc1_plugin8callbackIyyPK20gcc_cp_template_argsXadL_Z39plugin_build_dependent_type_template_idPNS_10connectionEyS3_EEEENS_6statusES5_ _Unwind_Resume 253
_ZN10cc1_plugin8callbackIyyPK20gcc_cp_template_argsyPKcjXadL_Z45plugin_build_function_template_specializationPNS_10connectionEyS3_yS5_jEEEENS_6statusES7_ _ZN10cc1_plugin16unmarshall_checkEPNS_10connectionEy 61
_ZN10cc1_plugin8callbackIyyPK20gcc_cp_template_argsyPKcjXadL_Z45plugin_build_function_template_specializationPNS_10connectionEyS3_yS5_jEEEENS_6statusES7_ _ZN10cc1_plugin18unmarshall_intlikeEPNS_10connectionEPy 88
_ZN10cc1_plugin8callbackIyyPK20gcc_cp_template_argsyPKcjXadL_Z45plugin_build_function_template_specializationPNS_10connectionEyS3_yS5_jEEEENS_6statusES7_ _ZN10cc1_plugin10unmarshallEPNS_10connectionEPP20gcc_cp_template_args 118
_ZN10cc1_plugin8callbackIyyPK20gcc_cp_template_argsyPKcjXadL_Z45plugin_build_function_template_specializationPNS_10connectionEyS3_yS5_jEEEENS_6statusES7_ _ZdaPv 139
_ZN10cc1_plugin8callbackIyyPK20gcc_cp_template_argsyPKcjXadL_Z45plugin_build_function_template_specializationPNS_10connectionEyS3_yS5_jEEEENS_6statusES7_ _ZdaPv 166
_ZN10cc1_plugin8callbackIyyPK20gcc_cp_template_argsyPKcjXadL_Z45plugin_build_function_template_specializationPNS_10connectionEyS3_yS5_jEEEENS_6statusES7_ _ZdaPv 188
_ZN10cc1_plugin8callbackIyyPK20gcc_cp_template_argsyPKcjXadL_Z45plugin_build_function_template_specializationPNS_10connectionEyS3_yS5_jEEEENS_6statusES7_ _ZdlPv 198
_ZN10cc1_plugin8callbackIyyPK20gcc_cp_template_argsyPKcjXadL_Z45plugin_build_function_template_specializationPNS_10connectionEyS3_yS5_jEEEENS_6statusES7_ _ZN10cc1_plugin16argument_wrapperIyE10unmarshallEPNS_10connectionE 246
_ZN10cc1_plugin8callbackIyyPK20gcc_cp_template_argsyPKcjXadL_Z45plugin_build_function_template_specializationPNS_10connectionEyS3_yS5_jEEEENS_6statusES7_ _ZN10cc1_plugin10unmarshallEPNS_10connectionEPPc 266
_ZN10cc1_plugin8callbackIyyPK20gcc_cp_template_argsyPKcjXadL_Z45plugin_build_function_template_specializationPNS_10connectionEyS3_yS5_jEEEENS_6statusES7_ _ZN10cc1_plugin16argument_wrapperIjE10unmarshallEPNS_10connectionE 287
_ZN10cc1_plugin8callbackIyyPK20gcc_cp_template_argsyPKcjXadL_Z45plugin_build_function_template_specializationPNS_10connectionEyS3_yS5_jEEEENS_6statusES7_ _Z45plugin_build_function_template_specializationPN10cc1_plugin10connectionEyPK20gcc_cp_template_argsyPKcj 326
_ZN10cc1_plugin8callbackIyyPK20gcc_cp_template_argsyPKcjXadL_Z45plugin_build_function_template_specializationPNS_10connectionEyS3_yS5_jEEEENS_6statusES7_ _ZN10cc1_plugin10connection4sendEc 342
_ZN10cc1_plugin8callbackIyyPK20gcc_cp_template_argsyPKcjXadL_Z45plugin_build_function_template_specializationPNS_10connectionEyS3_yS5_jEEEENS_6statusES7_ _ZN10cc1_plugin16marshall_intlikeEPNS_10connectionEy 361
_ZN10cc1_plugin8callbackIyyPK20gcc_cp_template_argsyPKcjXadL_Z45plugin_build_function_template_specializationPNS_10connectionEyS3_yS5_jEEEENS_6statusES7_ _ZN10cc1_plugin16argument_wrapperIPKcED1Ev 379
_ZN10cc1_plugin8callbackIyyPK20gcc_cp_template_argsyPKcjXadL_Z45plugin_build_function_template_specializationPNS_10connectionEyS3_yS5_jEEEENS_6statusES7_ _ZN10cc1_plugin16argument_wrapperIPK20gcc_cp_template_argsED1Ev 387
_ZN10cc1_plugin8callbackIyyPK20gcc_cp_template_argsyPKcjXadL_Z45plugin_build_function_template_specializationPNS_10connectionEyS3_yS5_jEEEENS_6statusES7_ _Unwind_Resume 395
_ZN10cc1_plugin8callbackIyyXadL_Z20plugin_get_expr_typePNS_10connectionEyEEEENS_6statusES2_ _ZN10cc1_plugin16unmarshall_checkEPNS_10connectionEy 23
_ZN10cc1_plugin8callbackIyyXadL_Z20plugin_get_expr_typePNS_10connectionEyEEEENS_6statusES2_ _ZN10cc1_plugin18unmarshall_intlikeEPNS_10connectionEPy 57
_ZN10cc1_plugin8callbackIyyXadL_Z20plugin_get_expr_typePNS_10connectionEyEEEENS_6statusES2_ _Z20plugin_get_expr_typePN10cc1_plugin10connectionEy 74
_ZN10cc1_plugin8callbackIyyXadL_Z20plugin_get_expr_typePNS_10connectionEyEEEENS_6statusES2_ _ZN10cc1_plugin10connection4sendEc 90
_ZN10cc1_plugin8callbackIyyXadL_Z20plugin_get_expr_typePNS_10connectionEyEEEENS_6statusES2_ _ZN10cc1_plugin16marshall_intlikeEPNS_10connectionEy 105
_ZN10cc1_plugin8callbackIyyXadL_Z20plugin_get_expr_typePNS_10connectionEyEEEENS_6statusES2_ _Unwind_Resume 115
_ZN10cc1_plugin8callbackIyyiPK20gcc_cp_function_argsXadL_Z22plugin_build_call_exprPNS_10connectionEyiS3_EEEENS_6statusES5_ _ZN10cc1_plugin16unmarshall_checkEPNS_10connectionEy 47
_ZN10cc1_plugin8callbackIyyiPK20gcc_cp_function_argsXadL_Z22plugin_build_call_exprPNS_10connectionEyiS3_EEEENS_6statusES5_ _ZN10cc1_plugin18unmarshall_intlikeEPNS_10connectionEPy 72
_ZN10cc1_plugin8callbackIyyiPK20gcc_cp_function_argsXadL_Z22plugin_build_call_exprPNS_10connectionEyiS3_EEEENS_6statusES5_ _ZN10cc1_plugin18unmarshall_intlikeEPNS_10connectionEPy 97
_ZN10cc1_plugin8callbackIyyiPK20gcc_cp_function_argsXadL_Z22plugin_build_call_exprPNS_10connectionEyiS3_EEEENS_6statusES5_ _ZN10cc1_plugin10unmarshallEPNS_10connectionEPP20gcc_cp_function_args 122
_ZN10cc1_plugin8callbackIyyiPK20gcc_cp_function_argsXadL_Z22plugin_build_call_exprPNS_10connectionEyiS3_EEEENS_6statusES5_ _ZdaPv 161
_ZN10cc1_plugin8callbackIyyiPK20gcc_cp_function_argsXadL_Z22plugin_build_call_exprPNS_10connectionEyiS3_EEEENS_6statusES5_ _ZdlPv 171
_ZN10cc1_plugin8callbackIyyiPK20gcc_cp_function_argsXadL_Z22plugin_build_call_exprPNS_10connectionEyiS3_EEEENS_6statusES5_ _Z22plugin_build_call_exprPN10cc1_plugin10connectionEyiPK20gcc_cp_function_args 223
_ZN10cc1_plugin8callbackIyyiPK20gcc_cp_function_argsXadL_Z22plugin_build_call_exprPNS_10connectionEyiS3_EEEENS_6statusES5_ _ZN10cc1_plugin10connection4sendEc 239
_ZN10cc1_plugin8callbackIyyiPK20gcc_cp_function_argsXadL_Z22plugin_build_call_exprPNS_10connectionEyiS3_EEEENS_6statusES5_ _ZN10cc1_plugin16marshall_intlikeEPNS_10connectionEy 254
_ZN10cc1_plugin8callbackIyyiPK20gcc_cp_function_argsXadL_Z22plugin_build_call_exprPNS_10connectionEyiS3_EEEENS_6statusES5_ _ZN10cc1_plugin16argument_wrapperIPK20gcc_cp_function_argsED1Ev 269
_ZN10cc1_plugin8callbackIyyiPK20gcc_cp_function_argsXadL_Z22plugin_build_call_exprPNS_10connectionEyiS3_EEEENS_6statusES5_ _Unwind_Resume 277
_ZN10cc1_plugin8callbackIyPKciyS2_jXadL_Z36plugin_build_type_template_parameterPNS_10connectionES2_iyS2_jEEEENS_6statusES4_ _ZN10cc1_plugin16unmarshall_checkEPNS_10connectionEy 61
_ZN10cc1_plugin8callbackIyPKciyS2_jXadL_Z36plugin_build_type_template_parameterPNS_10connectionES2_iyS2_jEEEENS_6statusES4_ _ZN10cc1_plugin10unmarshallEPNS_10connectionEPPc 86
_ZN10cc1_plugin8callbackIyPKciyS2_jXadL_Z36plugin_build_type_template_parameterPNS_10connectionES2_iyS2_jEEEENS_6statusES4_ _ZdaPv 107
_ZN10cc1_plugin8callbackIyPKciyS2_jXadL_Z36plugin_build_type_template_parameterPNS_10connectionES2_iyS2_jEEEENS_6statusES4_ _ZdaPv 122
_ZN10cc1_plugin8callbackIyPKciyS2_jXadL_Z36plugin_build_type_template_parameterPNS_10connectionES2_iyS2_jEEEENS_6statusES4_ _ZN10cc1_plugin18unmarshall_intlikeEPNS_10connectionEPy 174
_ZN10cc1_plugin8callbackIyPKciyS2_jXadL_Z36plugin_build_type_template_parameterPNS_10connectionES2_iyS2_jEEEENS_6statusES4_ _ZN10cc1_plugin16argument_wrapperIyE10unmarshallEPNS_10connectionE 201
_ZN10cc1_plugin8callbackIyPKciyS2_jXadL_Z36plugin_build_type_template_parameterPNS_10connectionES2_iyS2_jEEEENS_6statusES4_ _ZN10cc1_plugin10unmarshallEPNS_10connectionEPPc 221
_ZN10cc1_plugin8callbackIyPKciyS2_jXadL_Z36plugin_build_type_template_parameterPNS_10connectionES2_iyS2_jEEEENS_6statusES4_ _ZN10cc1_plugin16argument_wrapperIjE10unmarshallEPNS_10connectionE 242
_ZN10cc1_plugin8callbackIyPKciyS2_jXadL_Z36plugin_build_type_template_parameterPNS_10connectionES2_iyS2_jEEEENS_6statusES4_ _Z36plugin_build_type_template_parameterPN10cc1_plugin10connectionEPKciyS3_j 281
_ZN10cc1_plugin8callbackIyPKciyS2_jXadL_Z36plugin_build_type_template_parameterPNS_10connectionES2_iyS2_jEEEENS_6statusES4_ _ZN10cc1_plugin10connection4sendEc 297
_ZN10cc1_plugin8callbackIyPKciyS2_jXadL_Z36plugin_build_type_template_parameterPNS_10connectionES2_iyS2_jEEEENS_6statusES4_ _ZN10cc1_plugin16marshall_intlikeEPNS_10connectionEy 316
_ZN10cc1_plugin8callbackIyPKciyS2_jXadL_Z36plugin_build_type_template_parameterPNS_10connectionES2_iyS2_jEEEENS_6statusES4_ _ZN10cc1_plugin16argument_wrapperIPKcED1Ev 334
_ZN10cc1_plugin8callbackIyPKciyS2_jXadL_Z36plugin_build_type_template_parameterPNS_10connectionES2_iyS2_jEEEENS_6statusES4_ _ZN10cc1_plugin16argument_wrapperIPKcED1Ev 342
_ZN10cc1_plugin8callbackIyPKciyS2_jXadL_Z36plugin_build_type_template_parameterPNS_10connectionES2_iyS2_jEEEENS_6statusES4_ _Unwind_Resume 350
_ZN10cc1_plugin8callbackIyPKcyyyXadL_Z25plugin_build_ternary_exprPNS_10connectionES2_yyyEEEENS_6statusES4_ _ZN10cc1_plugin16unmarshall_checkEPNS_10connectionEy 42
_ZN10cc1_plugin8callbackIyPKcyyyXadL_Z25plugin_build_ternary_exprPNS_10connectionES2_yyyEEEENS_6statusES4_ _ZN10cc1_plugin10unmarshallEPNS_10connectionEPPc 62
_ZN10cc1_plugin8callbackIyPKcyyyXadL_Z25plugin_build_ternary_exprPNS_10connectionES2_yyyEEEENS_6statusES4_ _ZdaPv 83
_ZN10cc1_plugin8callbackIyPKcyyyXadL_Z25plugin_build_ternary_exprPNS_10connectionES2_yyyEEEENS_6statusES4_ _ZN10cc1_plugin18unmarshall_intlikeEPNS_10connectionEPy 121
_ZN10cc1_plugin8callbackIyPKcyyyXadL_Z25plugin_build_ternary_exprPNS_10connectionES2_yyyEEEENS_6statusES4_ _ZN10cc1_plugin16argument_wrapperIyE10unmarshallEPNS_10connectionE 143
_ZN10cc1_plugin8callbackIyPKcyyyXadL_Z25plugin_build_ternary_exprPNS_10connectionES2_yyyEEEENS_6statusES4_ _ZN10cc1_plugin16argument_wrapperIyE10unmarshallEPNS_10connectionE 160
_ZN10cc1_plugin8callbackIyPKcyyyXadL_Z25plugin_build_ternary_exprPNS_10connectionES2_yyyEEEENS_6statusES4_ _Z25plugin_build_ternary_exprPN10cc1_plugin10connectionEPKcyyy 190
_ZN10cc1_plugin8callbackIyPKcyyyXadL_Z25plugin_build_ternary_exprPNS_10connectionES2_yyyEEEENS_6statusES4_ _ZN10cc1_plugin10connection4sendEc 206
_ZN10cc1_plugin8callbackIyPKcyyyXadL_Z25plugin_build_ternary_exprPNS_10connectionES2_yyyEEEENS_6statusES4_ _ZN10cc1_plugin16marshall_intlikeEPNS_10connectionEy 225
_ZN10cc1_plugin8callbackIyPKcyyyXadL_Z25plugin_build_ternary_exprPNS_10connectionES2_yyyEEEENS_6statusES4_ _ZN10cc1_plugin16argument_wrapperIPKcED1Ev 243
_ZN10cc1_plugin8callbackIyPKcyyyXadL_Z25plugin_build_ternary_exprPNS_10connectionES2_yyyEEEENS_6statusES4_ _Unwind_Resume 251
_ZN10cc1_plugin8callbackIyyiXadL_Z22plugin_build_decl_exprPNS_10connectionEyiEEEENS_6statusES2_ _ZN10cc1_plugin16unmarshall_checkEPNS_10connectionEy 28
_ZN10cc1_plugin8callbackIyyiXadL_Z22plugin_build_decl_exprPNS_10connectionEyiEEEENS_6statusES2_ _ZN10cc1_plugin18unmarshall_intlikeEPNS_10connectionEPy 76
_ZN10cc1_plugin8callbackIyyiXadL_Z22plugin_build_decl_exprPNS_10connectionEyiEEEENS_6statusES2_ _ZN10cc1_plugin18unmarshall_intlikeEPNS_10connectionEPy 96
_ZN10cc1_plugin8callbackIyyiXadL_Z22plugin_build_decl_exprPNS_10connectionEyiEEEENS_6statusES2_ _Z22plugin_build_decl_exprPN10cc1_plugin10connectionEyi 115
_ZN10cc1_plugin8callbackIyyiXadL_Z22plugin_build_decl_exprPNS_10connectionEyiEEEENS_6statusES2_ _ZN10cc1_plugin10connection4sendEc 131
_ZN10cc1_plugin8callbackIyyiXadL_Z22plugin_build_decl_exprPNS_10connectionEyiEEEENS_6statusES2_ _ZN10cc1_plugin16marshall_intlikeEPNS_10connectionEy 146
_ZN10cc1_plugin8callbackIyyiXadL_Z22plugin_build_decl_exprPNS_10connectionEyiEEEENS_6statusES2_ _Unwind_Resume 156
_ZN10cc1_plugin8callbackIyy18gcc_cp_symbol_kindPKcyPK20gcc_cp_template_argsXadL_Z27plugin_build_dependent_exprPNS_10connectionEyS1_S3_yS6_EEEENS_6statusES8_ _ZN10cc1_plugin16unmarshall_checkEPNS_10connectionEy 61
_ZN10cc1_plugin8callbackIyy18gcc_cp_symbol_kindPKcyPK20gcc_cp_template_argsXadL_Z27plugin_build_dependent_exprPNS_10connectionEyS1_S3_yS6_EEEENS_6statusES8_ _ZN10cc1_plugin18unmarshall_intlikeEPNS_10connectionEPy 88
_ZN10cc1_plugin8callbackIyy18gcc_cp_symbol_kindPKcyPK20gcc_cp_template_argsXadL_Z27plugin_build_dependent_exprPNS_10connectionEyS1_S3_yS6_EEEENS_6statusES8_ _ZN10cc1_plugin10unmarshallEPNS_10connectionEP18gcc_cp_symbol_kind 120
_ZN10cc1_plugin8callbackIyy18gcc_cp_symbol_kindPKcyPK20gcc_cp_template_argsXadL_Z27plugin_build_dependent_exprPNS_10connectionEyS1_S3_yS6_EEEENS_6statusES8_ _ZdaPv 153
_ZN10cc1_plugin8callbackIyy18gcc_cp_symbol_kindPKcyPK20gcc_cp_template_argsXadL_Z27plugin_build_dependent_exprPNS_10connectionEyS1_S3_yS6_EEEENS_6statusES8_ _ZdaPv 175
_ZN10cc1_plugin8callbackIyy18gcc_cp_symbol_kindPKcyPK20gcc_cp_template_argsXadL_Z27plugin_build_dependent_exprPNS_10connectionEyS1_S3_yS6_EEEENS_6statusES8_ _ZdlPv 185
_ZN10cc1_plugin8callbackIyy18gcc_cp_symbol_kindPKcyPK20gcc_cp_template_argsXadL_Z27plugin_build_dependent_exprPNS_10connectionEyS1_S3_yS6_EEEENS_6statusES8_ _ZdaPv 200
_ZN10cc1_plugin8callbackIyy18gcc_cp_symbol_kindPKcyPK20gcc_cp_template_argsXadL_Z27plugin_build_dependent_exprPNS_10connectionEyS1_S3_yS6_EEEENS_6statusES8_ _ZN10cc1_plugin10unmarshallEPNS_10connectionEPPc 257
_ZN10cc1_plugin8callbackIyy18gcc_cp_symbol_kindPKcyPK20gcc_cp_template_argsXadL_Z27plugin_build_dependent_exprPNS_10connectionEyS1_S3_yS6_EEEENS_6statusES8_ _ZN10cc1_plugin16argument_wrapperIyE10unmarshallEPNS_10connectionE 283
_ZN10cc1_plugin8callbackIyy18gcc_cp_symbol_kindPKcyPK20gcc_cp_template_argsXadL_Z27plugin_build_dependent_exprPNS_10connectionEyS1_S3_yS6_EEEENS_6statusES8_ _ZN10cc1_plugin10unmarshallEPNS_10connectionEPP20gcc_cp_template_args 307
_ZN10cc1_plugin8callbackIyy18gcc_cp_symbol_kindPKcyPK20gcc_cp_template_argsXadL_Z27plugin_build_dependent_exprPNS_10connectionEyS1_S3_yS6_EEEENS_6statusES8_ _Z27plugin_build_dependent_exprPN10cc1_plugin10connectionEy18gcc_cp_symbol_kindPKcyPK20gcc_cp_template_args 345
_ZN10cc1_plugin8callbackIyy18gcc_cp_symbol_kindPKcyPK20gcc_cp_template_argsXadL_Z27plugin_build_dependent_exprPNS_10connectionEyS1_S3_yS6_EEEENS_6statusES8_ _ZN10cc1_plugin10connection4sendEc 361
_ZN10cc1_plugin8callbackIyy18gcc_cp_symbol_kindPKcyPK20gcc_cp_template_argsXadL_Z27plugin_build_dependent_exprPNS_10connectionEyS1_S3_yS6_EEEENS_6statusES8_ _ZN10cc1_plugin16marshall_intlikeEPNS_10connectionEy 380
_ZN10cc1_plugin8callbackIyy18gcc_cp_symbol_kindPKcyPK20gcc_cp_template_argsXadL_Z27plugin_build_dependent_exprPNS_10connectionEyS1_S3_yS6_EEEENS_6statusES8_ _ZN10cc1_plugin16argument_wrapperIPK20gcc_cp_template_argsED1Ev 398
_ZN10cc1_plugin8callbackIyy18gcc_cp_symbol_kindPKcyPK20gcc_cp_template_argsXadL_Z27plugin_build_dependent_exprPNS_10connectionEyS1_S3_yS6_EEEENS_6statusES8_ _ZN10cc1_plugin16argument_wrapperIPKcED1Ev 406
_ZN10cc1_plugin8callbackIyy18gcc_cp_symbol_kindPKcyPK20gcc_cp_template_argsXadL_Z27plugin_build_dependent_exprPNS_10connectionEyS1_S3_yS6_EEEENS_6statusES8_ _Unwind_Resume 414
_ZN10cc1_plugin8callbackIyyXadL_Z24plugin_build_lambda_exprPNS_10connectionEyEEEENS_6statusES2_ _ZN10cc1_plugin16unmarshall_checkEPNS_10connectionEy 23
_ZN10cc1_plugin8callbackIyyXadL_Z24plugin_build_lambda_exprPNS_10connectionEyEEEENS_6statusES2_ _ZN10cc1_plugin18unmarshall_intlikeEPNS_10connectionEPy 57
_ZN10cc1_plugin8callbackIyyXadL_Z24plugin_build_lambda_exprPNS_10connectionEyEEEENS_6statusES2_ _Z24plugin_build_lambda_exprPN10cc1_plugin10connectionEy 74
_ZN10cc1_plugin8callbackIyyXadL_Z24plugin_build_lambda_exprPNS_10connectionEyEEEENS_6statusES2_ _ZN10cc1_plugin10connection4sendEc 90
_ZN10cc1_plugin8callbackIyyXadL_Z24plugin_build_lambda_exprPNS_10connectionEyEEEENS_6statusES2_ _ZN10cc1_plugin16marshall_intlikeEPNS_10connectionEy 105
_ZN10cc1_plugin8callbackIyyXadL_Z24plugin_build_lambda_exprPNS_10connectionEyEEEENS_6statusES2_ _Unwind_Resume 115
_ZN10cc1_plugin8callbackIyiy18gcc_cp_symbol_kindPKcjXadL_Z31plugin_start_closure_class_typePNS_10connectionEiyS1_S3_jEEEENS_6statusES5_ _ZN10cc1_plugin16unmarshall_checkEPNS_10connectionEy 47
_ZN10cc1_plugin8callbackIyiy18gcc_cp_symbol_kindPKcjXadL_Z31plugin_start_closure_class_typePNS_10connectionEiyS1_S3_jEEEENS_6statusES5_ _ZN10cc1_plugin18unmarshall_intlikeEPNS_10connectionEPy 72
_ZN10cc1_plugin8callbackIyiy18gcc_cp_symbol_kindPKcjXadL_Z31plugin_start_closure_class_typePNS_10connectionEiyS1_S3_jEEEENS_6statusES5_ _ZN10cc1_plugin18unmarshall_intlikeEPNS_10connectionEPy 97
_ZN10cc1_plugin8callbackIyiy18gcc_cp_symbol_kindPKcjXadL_Z31plugin_start_closure_class_typePNS_10connectionEiyS1_S3_jEEEENS_6statusES5_ _ZN10cc1_plugin10unmarshallEPNS_10connectionEP18gcc_cp_symbol_kind 124
_ZN10cc1_plugin8callbackIyiy18gcc_cp_symbol_kindPKcjXadL_Z31plugin_start_closure_class_typePNS_10connectionEiyS1_S3_jEEEENS_6statusES5_ _ZdaPv 149
_ZN10cc1_plugin8callbackIyiy18gcc_cp_symbol_kindPKcjXadL_Z31plugin_start_closure_class_typePNS_10connectionEiyS1_S3_jEEEENS_6statusES5_ _ZN10cc1_plugin10unmarshallEPNS_10connectionEPPc 196
_ZN10cc1_plugin8callbackIyiy18gcc_cp_symbol_kindPKcjXadL_Z31plugin_start_closure_class_typePNS_10connectionEiyS1_S3_jEEEENS_6statusES5_ _ZN10cc1_plugin16argument_wrapperIjE10unmarshallEPNS_10connectionE 213
_ZN10cc1_plugin8callbackIyiy18gcc_cp_symbol_kindPKcjXadL_Z31plugin_start_closure_class_typePNS_10connectionEiyS1_S3_jEEEENS_6statusES5_ _Z31plugin_start_closure_class_typePN10cc1_plugin10connectionEiy18gcc_cp_symbol_kindPKcj 245
_ZN10cc1_plugin8callbackIyiy18gcc_cp_symbol_kindPKcjXadL_Z31plugin_start_closure_class_typePNS_10connectionEiyS1_S3_jEEEENS_6statusES5_ _ZN10cc1_plugin10connection4sendEc 261
_ZN10cc1_plugin8callbackIyiy18gcc_cp_symbol_kindPKcjXadL_Z31plugin_start_closure_class_typePNS_10connectionEiyS1_S3_jEEEENS_6statusES5_ _ZN10cc1_plugin16marshall_intlikeEPNS_10connectionEy 280
_ZN10cc1_plugin8callbackIyiy18gcc_cp_symbol_kindPKcjXadL_Z31plugin_start_closure_class_typePNS_10connectionEiyS1_S3_jEEEENS_6statusES5_ _ZN10cc1_plugin16argument_wrapperIPKcED1Ev 298
_ZN10cc1_plugin8callbackIyiy18gcc_cp_symbol_kindPKcjXadL_Z31plugin_start_closure_class_typePNS_10connectionEiyS1_S3_jEEEENS_6statusES5_ _Unwind_Resume 306
_ZN10cc1_plugin8callbackIyyPKcyS2_jXadL_Z37plugin_build_value_template_parameterPNS_10connectionEyS2_yS2_jEEEENS_6statusES4_ _ZN10cc1_plugin16unmarshall_checkEPNS_10connectionEy 61
_ZN10cc1_plugin8callbackIyyPKcyS2_jXadL_Z37plugin_build_value_template_parameterPNS_10connectionEyS2_yS2_jEEEENS_6statusES4_ _ZN10cc1_plugin18unmarshall_intlikeEPNS_10connectionEPy 88
_ZN10cc1_plugin8callbackIyyPKcyS2_jXadL_Z37plugin_build_value_template_parameterPNS_10connectionEyS2_yS2_jEEEENS_6statusES4_ _ZN10cc1_plugin10unmarshallEPNS_10connectionEPPc 118
_ZN10cc1_plugin8callbackIyyPKcyS2_jXadL_Z37plugin_build_value_template_parameterPNS_10connectionEyS2_yS2_jEEEENS_6statusES4_ _ZdaPv 139
_ZN10cc1_plugin8callbackIyyPKcyS2_jXadL_Z37plugin_build_value_template_parameterPNS_10connectionEyS2_yS2_jEEEENS_6statusES4_ _ZdaPv 154
_ZN10cc1_plugin8callbackIyyPKcyS2_jXadL_Z37plugin_build_value_template_parameterPNS_10connectionEyS2_yS2_jEEEENS_6statusES4_ _ZN10cc1_plugin16argument_wrapperIyE10unmarshallEPNS_10connectionE 206
_ZN10cc1_plugin8callbackIyyPKcyS2_jXadL_Z37plugin_build_value_template_parameterPNS_10connectionEyS2_yS2_jEEEENS_6statusES4_ _ZN10cc1_plugin10unmarshallEPNS_10connectionEPPc 226
_ZN10cc1_plugin8callbackIyyPKcyS2_jXadL_Z37plugin_build_value_template_parameterPNS_10connectionEyS2_yS2_jEEEENS_6statusES4_ _ZN10cc1_plugin16argument_wrapperIjE10unmarshallEPNS_10connectionE 243
_ZN10cc1_plugin8callbackIyyPKcyS2_jXadL_Z37plugin_build_value_template_parameterPNS_10connectionEyS2_yS2_jEEEENS_6statusES4_ _Z37plugin_build_value_template_parameterPN10cc1_plugin10connectionEyPKcyS3_j 278
_ZN10cc1_plugin8callbackIyyPKcyS2_jXadL_Z37plugin_build_value_template_parameterPNS_10connectionEyS2_yS2_jEEEENS_6statusES4_ _ZN10cc1_plugin10connection4sendEc 294
_ZN10cc1_plugin8callbackIyyPKcyS2_jXadL_Z37plugin_build_value_template_parameterPNS_10connectionEyS2_yS2_jEEEENS_6statusES4_ _ZN10cc1_plugin16marshall_intlikeEPNS_10connectionEy 313
_ZN10cc1_plugin8callbackIyyPKcyS2_jXadL_Z37plugin_build_value_template_parameterPNS_10connectionEyS2_yS2_jEEEENS_6statusES4_ _ZN10cc1_plugin16argument_wrapperIPKcED1Ev 331
_ZN10cc1_plugin8callbackIyyPKcyS2_jXadL_Z37plugin_build_value_template_parameterPNS_10connectionEyS2_yS2_jEEEENS_6statusES4_ _ZN10cc1_plugin16argument_wrapperIPKcED1Ev 339
_ZN10cc1_plugin8callbackIyyPKcyS2_jXadL_Z37plugin_build_value_template_parameterPNS_10connectionEyS2_yS2_jEEEENS_6statusES4_ _Unwind_Resume 347
_ZN10cc1_plugin8callbackIyPKciyS2_jXadL_Z40plugin_build_template_template_parameterPNS_10connectionES2_iyS2_jEEEENS_6statusES4_ _ZN10cc1_plugin16unmarshall_checkEPNS_10connectionEy 61
_ZN10cc1_plugin8callbackIyPKciyS2_jXadL_Z40plugin_build_template_template_parameterPNS_10connectionES2_iyS2_jEEEENS_6statusES4_ _ZN10cc1_plugin10unmarshallEPNS_10connectionEPPc 86
_ZN10cc1_plugin8callbackIyPKciyS2_jXadL_Z40plugin_build_template_template_parameterPNS_10connectionES2_iyS2_jEEEENS_6statusES4_ _ZdaPv 107
_ZN10cc1_plugin8callbackIyPKciyS2_jXadL_Z40plugin_build_template_template_parameterPNS_10connectionES2_iyS2_jEEEENS_6statusES4_ _ZdaPv 122
_ZN10cc1_plugin8callbackIyPKciyS2_jXadL_Z40plugin_build_template_template_parameterPNS_10connectionES2_iyS2_jEEEENS_6statusES4_ _ZN10cc1_plugin18unmarshall_intlikeEPNS_10connectionEPy 174
_ZN10cc1_plugin8callbackIyPKciyS2_jXadL_Z40plugin_build_template_template_parameterPNS_10connectionES2_iyS2_jEEEENS_6statusES4_ _ZN10cc1_plugin16argument_wrapperIyE10unmarshallEPNS_10connectionE 201
_ZN10cc1_plugin8callbackIyPKciyS2_jXadL_Z40plugin_build_template_template_parameterPNS_10connectionES2_iyS2_jEEEENS_6statusES4_ _ZN10cc1_plugin10unmarshallEPNS_10connectionEPPc 221
_ZN10cc1_plugin8callbackIyPKciyS2_jXadL_Z40plugin_build_template_template_parameterPNS_10connectionES2_iyS2_jEEEENS_6statusES4_ _ZN10cc1_plugin16argument_wrapperIjE10unmarshallEPNS_10connectionE 242
_ZN10cc1_plugin8callbackIyPKciyS2_jXadL_Z40plugin_build_template_template_parameterPNS_10connectionES2_iyS2_jEEEENS_6statusES4_ _Z40plugin_build_template_template_parameterPN10cc1_plugin10connectionEPKciyS3_j 281
_ZN10cc1_plugin8callbackIyPKciyS2_jXadL_Z40plugin_build_template_template_parameterPNS_10connectionES2_iyS2_jEEEENS_6statusES4_ _ZN10cc1_plugin10connection4sendEc 297
_ZN10cc1_plugin8callbackIyPKciyS2_jXadL_Z40plugin_build_template_template_parameterPNS_10connectionES2_iyS2_jEEEENS_6statusES4_ _ZN10cc1_plugin16marshall_intlikeEPNS_10connectionEy 316
_ZN10cc1_plugin8callbackIyPKciyS2_jXadL_Z40plugin_build_template_template_parameterPNS_10connectionES2_iyS2_jEEEENS_6statusES4_ _ZN10cc1_plugin16argument_wrapperIPKcED1Ev 334
_ZN10cc1_plugin8callbackIyPKciyS2_jXadL_Z40plugin_build_template_template_parameterPNS_10connectionES2_iyS2_jEEEENS_6statusES4_ _ZN10cc1_plugin16argument_wrapperIPKcED1Ev 342
_ZN10cc1_plugin8callbackIyPKciyS2_jXadL_Z40plugin_build_template_template_parameterPNS_10connectionES2_iyS2_jEEEENS_6statusES4_ _Unwind_Resume 350
_ZN10cc1_plugin8callbackIyyPK15gcc_vbase_arrayPKcjXadL_Z23plugin_start_class_typePNS_10connectionEyS3_S5_jEEEENS_6statusES7_ _ZN10cc1_plugin16unmarshall_checkEPNS_10connectionEy 51
_ZN10cc1_plugin8callbackIyyPK15gcc_vbase_arrayPKcjXadL_Z23plugin_start_class_typePNS_10connectionEyS3_S5_jEEEENS_6statusES7_ _ZN10cc1_plugin18unmarshall_intlikeEPNS_10connectionEPy 73
_ZN10cc1_plugin8callbackIyyPK15gcc_vbase_arrayPKcjXadL_Z23plugin_start_class_typePNS_10connectionEyS3_S5_jEEEENS_6statusES7_ _ZN10cc1_plugin10unmarshallEPNS_10connectionEPP15gcc_vbase_array 100
_ZN10cc1_plugin8callbackIyyPK15gcc_vbase_arrayPKcjXadL_Z23plugin_start_class_typePNS_10connectionEyS3_S5_jEEEENS_6statusES7_ _ZdaPv 121
_ZN10cc1_plugin8callbackIyyPK15gcc_vbase_arrayPKcjXadL_Z23plugin_start_class_typePNS_10connectionEyS3_S5_jEEEENS_6statusES7_ _ZdaPv 148
_ZN10cc1_plugin8callbackIyyPK15gcc_vbase_arrayPKcjXadL_Z23plugin_start_class_typePNS_10connectionEyS3_S5_jEEEENS_6statusES7_ _ZdaPv 170
_ZN10cc1_plugin8callbackIyyPK15gcc_vbase_arrayPKcjXadL_Z23plugin_start_class_typePNS_10connectionEyS3_S5_jEEEENS_6statusES7_ _ZdlPv 180
_ZN10cc1_plugin8callbackIyyPK15gcc_vbase_arrayPKcjXadL_Z23plugin_start_class_typePNS_10connectionEyS3_S5_jEEEENS_6statusES7_ _ZN10cc1_plugin10unmarshallEPNS_10connectionEPPc 220
_ZN10cc1_plugin8callbackIyyPK15gcc_vbase_arrayPKcjXadL_Z23plugin_start_class_typePNS_10connectionEyS3_S5_jEEEENS_6statusES7_ _ZN10cc1_plugin16argument_wrapperIjE10unmarshallEPNS_10connectionE 237
_ZN10cc1_plugin8callbackIyyPK15gcc_vbase_arrayPKcjXadL_Z23plugin_start_class_typePNS_10connectionEyS3_S5_jEEEENS_6statusES7_ _Z23plugin_start_class_typePN10cc1_plugin10connectionEyPK15gcc_vbase_arrayPKcj 271
_ZN10cc1_plugin8callbackIyyPK15gcc_vbase_arrayPKcjXadL_Z23plugin_start_class_typePNS_10connectionEyS3_S5_jEEEENS_6statusES7_ _ZN10cc1_plugin10connection4sendEc 287
_ZN10cc1_plugin8callbackIyyPK15gcc_vbase_arrayPKcjXadL_Z23plugin_start_class_typePNS_10connectionEyS3_S5_jEEEENS_6statusES7_ _ZN10cc1_plugin16marshall_intlikeEPNS_10connectionEy 306
_ZN10cc1_plugin8callbackIyyPK15gcc_vbase_arrayPKcjXadL_Z23plugin_start_class_typePNS_10connectionEyS3_S5_jEEEENS_6statusES7_ _ZN10cc1_plugin16argument_wrapperIPKcED1Ev 324
_ZN10cc1_plugin8callbackIyyPK15gcc_vbase_arrayPKcjXadL_Z23plugin_start_class_typePNS_10connectionEyS3_S5_jEEEENS_6statusES7_ _ZdaPv 348
_ZN10cc1_plugin8callbackIyyPK15gcc_vbase_arrayPKcjXadL_Z23plugin_start_class_typePNS_10connectionEyS3_S5_jEEEENS_6statusES7_ _ZdaPv 367
_ZN10cc1_plugin8callbackIyyPK15gcc_vbase_arrayPKcjXadL_Z23plugin_start_class_typePNS_10connectionEyS3_S5_jEEEENS_6statusES7_ _ZdlPv 380
_ZN10cc1_plugin8callbackIyyPK15gcc_vbase_arrayPKcjXadL_Z23plugin_start_class_typePNS_10connectionEyS3_S5_jEEEENS_6statusES7_ _Unwind_Resume 388
_ZN10cc1_plugin8callbackIyPKcyyXadL_Z24plugin_build_binary_exprPNS_10connectionES2_yyEEEENS_6statusES4_ _ZN10cc1_plugin16unmarshall_checkEPNS_10connectionEy 42
_ZN10cc1_plugin8callbackIyPKcyyXadL_Z24plugin_build_binary_exprPNS_10connectionES2_yyEEEENS_6statusES4_ _ZN10cc1_plugin10unmarshallEPNS_10connectionEPPc 62
_ZN10cc1_plugin8callbackIyPKcyyXadL_Z24plugin_build_binary_exprPNS_10connectionES2_yyEEEENS_6statusES4_ _ZdaPv 83
_ZN10cc1_plugin8callbackIyPKcyyXadL_Z24plugin_build_binary_exprPNS_10connectionES2_yyEEEENS_6statusES4_ _ZN10cc1_plugin18unmarshall_intlikeEPNS_10connectionEPy 121
_ZN10cc1_plugin8callbackIyPKcyyXadL_Z24plugin_build_binary_exprPNS_10connectionES2_yyEEEENS_6statusES4_ _ZN10cc1_plugin16argument_wrapperIyE10unmarshallEPNS_10connectionE 143
_ZN10cc1_plugin8callbackIyPKcyyXadL_Z24plugin_build_binary_exprPNS_10connectionES2_yyEEEENS_6statusES4_ _Z24plugin_build_binary_exprPN10cc1_plugin10connectionEPKcyy 168
_ZN10cc1_plugin8callbackIyPKcyyXadL_Z24plugin_build_binary_exprPNS_10connectionES2_yyEEEENS_6statusES4_ _ZN10cc1_plugin10connection4sendEc 184
_ZN10cc1_plugin8callbackIyPKcyyXadL_Z24plugin_build_binary_exprPNS_10connectionES2_yyEEEENS_6statusES4_ _ZN10cc1_plugin16marshall_intlikeEPNS_10connectionEy 199
_ZN10cc1_plugin8callbackIyPKcyyXadL_Z24plugin_build_binary_exprPNS_10connectionES2_yyEEEENS_6statusES4_ _ZN10cc1_plugin16argument_wrapperIPKcED1Ev 217
_ZN10cc1_plugin8callbackIyPKcyyXadL_Z24plugin_build_binary_exprPNS_10connectionES2_yyEEEENS_6statusES4_ _Unwind_Resume 225
_ZN10cc1_plugin8callbackIyPKcyXadL_Z23plugin_build_unary_exprPNS_10connectionES2_yEEEENS_6statusES4_ _ZN10cc1_plugin16unmarshall_checkEPNS_10connectionEy 42
_ZN10cc1_plugin8callbackIyPKcyXadL_Z23plugin_build_unary_exprPNS_10connectionES2_yEEEENS_6statusES4_ _ZN10cc1_plugin10unmarshallEPNS_10connectionEPPc 62
_ZN10cc1_plugin8callbackIyPKcyXadL_Z23plugin_build_unary_exprPNS_10connectionES2_yEEEENS_6statusES4_ _ZdaPv 83
_ZN10cc1_plugin8callbackIyPKcyXadL_Z23plugin_build_unary_exprPNS_10connectionES2_yEEEENS_6statusES4_ _ZN10cc1_plugin18unmarshall_intlikeEPNS_10connectionEPy 121
_ZN10cc1_plugin8callbackIyPKcyXadL_Z23plugin_build_unary_exprPNS_10connectionES2_yEEEENS_6statusES4_ _Z23plugin_build_unary_exprPN10cc1_plugin10connectionEPKcy 143
_ZN10cc1_plugin8callbackIyPKcyXadL_Z23plugin_build_unary_exprPNS_10connectionES2_yEEEENS_6statusES4_ _ZN10cc1_plugin10connection4sendEc 159
_ZN10cc1_plugin8callbackIyPKcyXadL_Z23plugin_build_unary_exprPNS_10connectionES2_yEEEENS_6statusES4_ _ZN10cc1_plugin16marshall_intlikeEPNS_10connectionEy 174
_ZN10cc1_plugin8callbackIyPKcyXadL_Z23plugin_build_unary_exprPNS_10connectionES2_yEEEENS_6statusES4_ _ZN10cc1_plugin16argument_wrapperIPKcED1Ev 189
_ZN10cc1_plugin8callbackIyPKcyXadL_Z23plugin_build_unary_exprPNS_10connectionES2_yEEEENS_6statusES4_ _Unwind_Resume 197
_ZN10cc1_plugin8callbackIyPKcy18gcc_cp_symbol_kindS2_jXadL_Z22plugin_start_enum_typePNS_10connectionES2_yS3_S2_jEEEENS_6statusES5_ _ZN10cc1_plugin16unmarshall_checkEPNS_10connectionEy 61
_ZN10cc1_plugin8callbackIyPKcy18gcc_cp_symbol_kindS2_jXadL_Z22plugin_start_enum_typePNS_10connectionES2_yS3_S2_jEEEENS_6statusES5_ _ZN10cc1_plugin10unmarshallEPNS_10connectionEPPc 86
_ZN10cc1_plugin8callbackIyPKcy18gcc_cp_symbol_kindS2_jXadL_Z22plugin_start_enum_typePNS_10connectionES2_yS3_S2_jEEEENS_6statusES5_ _ZdaPv 107
_ZN10cc1_plugin8callbackIyPKcy18gcc_cp_symbol_kindS2_jXadL_Z22plugin_start_enum_typePNS_10connectionES2_yS3_S2_jEEEENS_6statusES5_ _ZdaPv 122
_ZN10cc1_plugin8callbackIyPKcy18gcc_cp_symbol_kindS2_jXadL_Z22plugin_start_enum_typePNS_10connectionES2_yS3_S2_jEEEENS_6statusES5_ _ZN10cc1_plugin18unmarshall_intlikeEPNS_10connectionEPy 174
_ZN10cc1_plugin8callbackIyPKcy18gcc_cp_symbol_kindS2_jXadL_Z22plugin_start_enum_typePNS_10connectionES2_yS3_S2_jEEEENS_6statusES5_ _ZN10cc1_plugin10unmarshallEPNS_10connectionEP18gcc_cp_symbol_kind 201
_ZN10cc1_plugin8callbackIyPKcy18gcc_cp_symbol_kindS2_jXadL_Z22plugin_start_enum_typePNS_10connectionES2_yS3_S2_jEEEENS_6statusES5_ _ZN10cc1_plugin10unmarshallEPNS_10connectionEPPc 221
_ZN10cc1_plugin8callbackIyPKcy18gcc_cp_symbol_kindS2_jXadL_Z22plugin_start_enum_typePNS_10connectionES2_yS3_S2_jEEEENS_6statusES5_ _ZN10cc1_plugin16argument_wrapperIjE10unmarshallEPNS_10connectionE 242
_ZN10cc1_plugin8callbackIyPKcy18gcc_cp_symbol_kindS2_jXadL_Z22plugin_start_enum_typePNS_10connectionES2_yS3_S2_jEEEENS_6statusES5_ _Z22plugin_start_enum_typePN10cc1_plugin10connectionEPKcy18gcc_cp_symbol_kindS3_j 280
_ZN10cc1_plugin8callbackIyPKcy18gcc_cp_symbol_kindS2_jXadL_Z22plugin_start_enum_typePNS_10connectionES2_yS3_S2_jEEEENS_6statusES5_ _ZN10cc1_plugin10connection4sendEc 296
_ZN10cc1_plugin8callbackIyPKcy18gcc_cp_symbol_kindS2_jXadL_Z22plugin_start_enum_typePNS_10connectionES2_yS3_S2_jEEEENS_6statusES5_ _ZN10cc1_plugin16marshall_intlikeEPNS_10connectionEy 315
_ZN10cc1_plugin8callbackIyPKcy18gcc_cp_symbol_kindS2_jXadL_Z22plugin_start_enum_typePNS_10connectionES2_yS3_S2_jEEEENS_6statusES5_ _ZN10cc1_plugin16argument_wrapperIPKcED1Ev 333
_ZN10cc1_plugin8callbackIyPKcy18gcc_cp_symbol_kindS2_jXadL_Z22plugin_start_enum_typePNS_10connectionES2_yS3_S2_jEEEENS_6statusES5_ _ZN10cc1_plugin16argument_wrapperIPKcED1Ev 341
_ZN10cc1_plugin8callbackIyPKcy18gcc_cp_symbol_kindS2_jXadL_Z22plugin_start_enum_typePNS_10connectionES2_yS3_S2_jEEEENS_6statusES5_ _Unwind_Resume 349
_ZN10cc1_plugin8callbackIyimPKcXadL_Z19plugin_get_int_typePNS_10connectionEimS2_EEEENS_6statusES4_ _ZN10cc1_plugin16unmarshall_checkEPNS_10connectionEy 47
_ZN10cc1_plugin8callbackIyimPKcXadL_Z19plugin_get_int_typePNS_10connectionEimS2_EEEENS_6statusES4_ _ZN10cc1_plugin18unmarshall_intlikeEPNS_10connectionEPy 72
_ZN10cc1_plugin8callbackIyimPKcXadL_Z19plugin_get_int_typePNS_10connectionEimS2_EEEENS_6statusES4_ _ZN10cc1_plugin18unmarshall_intlikeEPNS_10connectionEPy 97
_ZN10cc1_plugin8callbackIyimPKcXadL_Z19plugin_get_int_typePNS_10connectionEimS2_EEEENS_6statusES4_ _ZN10cc1_plugin10unmarshallEPNS_10connectionEPPc 122
_ZN10cc1_plugin8callbackIyimPKcXadL_Z19plugin_get_int_typePNS_10connectionEimS2_EEEENS_6statusES4_ _ZdaPv 149
_ZN10cc1_plugin8callbackIyimPKcXadL_Z19plugin_get_int_typePNS_10connectionEimS2_EEEENS_6statusES4_ _Z19plugin_get_int_typePN10cc1_plugin10connectionEimPKc 199
_ZN10cc1_plugin8callbackIyimPKcXadL_Z19plugin_get_int_typePNS_10connectionEimS2_EEEENS_6statusES4_ _ZN10cc1_plugin10connection4sendEc 215
_ZN10cc1_plugin8callbackIyimPKcXadL_Z19plugin_get_int_typePNS_10connectionEimS2_EEEENS_6statusES4_ _ZN10cc1_plugin16marshall_intlikeEPNS_10connectionEy 230
_ZN10cc1_plugin8callbackIyimPKcXadL_Z19plugin_get_int_typePNS_10connectionEimS2_EEEENS_6statusES4_ _ZN10cc1_plugin16argument_wrapperIPKcED1Ev 245
_ZN10cc1_plugin8callbackIyimPKcXadL_Z19plugin_get_int_typePNS_10connectionEimS2_EEEENS_6statusES4_ _Unwind_Resume 253
_ZN10cc1_plugin8callbackIyPKcyyXadL_Z22plugin_build_cast_exprPNS_10connectionES2_yyEEEENS_6statusES4_ _ZN10cc1_plugin16unmarshall_checkEPNS_10connectionEy 42
_ZN10cc1_plugin8callbackIyPKcyyXadL_Z22plugin_build_cast_exprPNS_10connectionES2_yyEEEENS_6statusES4_ _ZN10cc1_plugin10unmarshallEPNS_10connectionEPPc 62
_ZN10cc1_plugin8callbackIyPKcyyXadL_Z22plugin_build_cast_exprPNS_10connectionES2_yyEEEENS_6statusES4_ _ZdaPv 83
_ZN10cc1_plugin8callbackIyPKcyyXadL_Z22plugin_build_cast_exprPNS_10connectionES2_yyEEEENS_6statusES4_ _ZN10cc1_plugin18unmarshall_intlikeEPNS_10connectionEPy 121
_ZN10cc1_plugin8callbackIyPKcyyXadL_Z22plugin_build_cast_exprPNS_10connectionES2_yyEEEENS_6statusES4_ _ZN10cc1_plugin16argument_wrapperIyE10unmarshallEPNS_10connectionE 143
_ZN10cc1_plugin8callbackIyPKcyyXadL_Z22plugin_build_cast_exprPNS_10connectionES2_yyEEEENS_6statusES4_ _Z22plugin_build_cast_exprPN10cc1_plugin10connectionEPKcyy 168
_ZN10cc1_plugin8callbackIyPKcyyXadL_Z22plugin_build_cast_exprPNS_10connectionES2_yyEEEENS_6statusES4_ _ZN10cc1_plugin10connection4sendEc 184
_ZN10cc1_plugin8callbackIyPKcyyXadL_Z22plugin_build_cast_exprPNS_10connectionES2_yyEEEENS_6statusES4_ _ZN10cc1_plugin16marshall_intlikeEPNS_10connectionEy 199
_ZN10cc1_plugin8callbackIyPKcyyXadL_Z22plugin_build_cast_exprPNS_10connectionES2_yyEEEENS_6statusES4_ _ZN10cc1_plugin16argument_wrapperIPKcED1Ev 217
_ZN10cc1_plugin8callbackIyPKcyyXadL_Z22plugin_build_cast_exprPNS_10connectionES2_yyEEEENS_6statusES4_ _Unwind_Resume 225
_ZN10cc1_plugin8callbackIyPKc18gcc_cp_symbol_kindyS2_yS2_jXadL_Z17plugin_build_declPNS_10connectionES2_S3_yS2_yS2_jEEEENS_6statusES5_ _ZN10cc1_plugin16unmarshall_checkEPNS_10connectionEy 83
_ZN10cc1_plugin8callbackIyPKc18gcc_cp_symbol_kindyS2_yS2_jXadL_Z17plugin_build_declPNS_10connectionES2_S3_yS2_yS2_jEEEENS_6statusES5_ _ZN10cc1_plugin10unmarshallEPNS_10connectionEPPc 113
_ZN10cc1_plugin8callbackIyPKc18gcc_cp_symbol_kindyS2_yS2_jXadL_Z17plugin_build_declPNS_10connectionES2_S3_yS2_yS2_jEEEENS_6statusES5_ _ZdaPv 134
_ZN10cc1_plugin8callbackIyPKc18gcc_cp_symbol_kindyS2_yS2_jXadL_Z17plugin_build_declPNS_10connectionES2_S3_yS2_yS2_jEEEENS_6statusES5_ _ZdaPv 149
_ZN10cc1_plugin8callbackIyPKc18gcc_cp_symbol_kindyS2_yS2_jXadL_Z17plugin_build_declPNS_10connectionES2_S3_yS2_yS2_jEEEENS_6statusES5_ _ZdaPv 164
_ZN10cc1_plugin8callbackIyPKc18gcc_cp_symbol_kindyS2_yS2_jXadL_Z17plugin_build_declPNS_10connectionES2_S3_yS2_yS2_jEEEENS_6statusES5_ _ZN10cc1_plugin10unmarshallEPNS_10connectionEP18gcc_cp_symbol_kind 243
_ZN10cc1_plugin8callbackIyPKc18gcc_cp_symbol_kindyS2_yS2_jXadL_Z17plugin_build_declPNS_10connectionES2_S3_yS2_yS2_jEEEENS_6statusES5_ _ZN10cc1_plugin16argument_wrapperIyE10unmarshallEPNS_10connectionE 274
_ZN10cc1_plugin8callbackIyPKc18gcc_cp_symbol_kindyS2_yS2_jXadL_Z17plugin_build_declPNS_10connectionES2_S3_yS2_yS2_jEEEENS_6statusES5_ _ZN10cc1_plugin10unmarshallEPNS_10connectionEPPc 303
_ZN10cc1_plugin8callbackIyPKc18gcc_cp_symbol_kindyS2_yS2_jXadL_Z17plugin_build_declPNS_10connectionES2_S3_yS2_yS2_jEEEENS_6statusES5_ _ZN10cc1_plugin16argument_wrapperIyE10unmarshallEPNS_10connectionE 329
_ZN10cc1_plugin8callbackIyPKc18gcc_cp_symbol_kindyS2_yS2_jXadL_Z17plugin_build_declPNS_10connectionES2_S3_yS2_yS2_jEEEENS_6statusES5_ _ZN10cc1_plugin10unmarshallEPNS_10connectionEPPc 353
_ZN10cc1_plugin8callbackIyPKc18gcc_cp_symbol_kindyS2_yS2_jXadL_Z17plugin_build_declPNS_10connectionES2_S3_yS2_yS2_jEEEENS_6statusES5_ _ZN10cc1_plugin16argument_wrapperIjE10unmarshallEPNS_10connectionE 374
_ZN10cc1_plugin8callbackIyPKc18gcc_cp_symbol_kindyS2_yS2_jXadL_Z17plugin_build_declPNS_10connectionES2_S3_yS2_yS2_jEEEENS_6statusES5_ _Z17plugin_build_declPN10cc1_plugin10connectionEPKc18gcc_cp_symbol_kindyS3_yS3_j 431
_ZN10cc1_plugin8callbackIyPKc18gcc_cp_symbol_kindyS2_yS2_jXadL_Z17plugin_build_declPNS_10connectionES2_S3_yS2_yS2_jEEEENS_6statusES5_ _ZN10cc1_plugin10connection4sendEc 447
_ZN10cc1_plugin8callbackIyPKc18gcc_cp_symbol_kindyS2_yS2_jXadL_Z17plugin_build_declPNS_10connectionES2_S3_yS2_yS2_jEEEENS_6statusES5_ _ZN10cc1_plugin16marshall_intlikeEPNS_10connectionEy 466
_ZN10cc1_plugin8callbackIyPKc18gcc_cp_symbol_kindyS2_yS2_jXadL_Z17plugin_build_declPNS_10connectionES2_S3_yS2_yS2_jEEEENS_6statusES5_ _ZN10cc1_plugin16argument_wrapperIPKcED1Ev 484
_ZN10cc1_plugin8callbackIyPKc18gcc_cp_symbol_kindyS2_yS2_jXadL_Z17plugin_build_declPNS_10connectionES2_S3_yS2_yS2_jEEEENS_6statusES5_ _ZN10cc1_plugin16argument_wrapperIPKcED1Ev 492
_ZN10cc1_plugin8callbackIyPKc18gcc_cp_symbol_kindyS2_yS2_jXadL_Z17plugin_build_declPNS_10connectionES2_S3_yS2_yS2_jEEEENS_6statusES5_ _ZN10cc1_plugin16argument_wrapperIPKcED1Ev 500
_ZN10cc1_plugin8callbackIyPKc18gcc_cp_symbol_kindyS2_yS2_jXadL_Z17plugin_build_declPNS_10connectionES2_S3_yS2_yS2_jEEEENS_6statusES5_ _Unwind_Resume 508
_ZN10cc1_plugin8callbackIyPKcyXadL_Z28plugin_build_unary_type_exprPNS_10connectionES2_yEEEENS_6statusES4_ _ZN10cc1_plugin16unmarshall_checkEPNS_10connectionEy 42
_ZN10cc1_plugin8callbackIyPKcyXadL_Z28plugin_build_unary_type_exprPNS_10connectionES2_yEEEENS_6statusES4_ _ZN10cc1_plugin10unmarshallEPNS_10connectionEPPc 62
_ZN10cc1_plugin8callbackIyPKcyXadL_Z28plugin_build_unary_type_exprPNS_10connectionES2_yEEEENS_6statusES4_ _ZdaPv 83
_ZN10cc1_plugin8callbackIyPKcyXadL_Z28plugin_build_unary_type_exprPNS_10connectionES2_yEEEENS_6statusES4_ _ZN10cc1_plugin18unmarshall_intlikeEPNS_10connectionEPy 121
_ZN10cc1_plugin8callbackIyPKcyXadL_Z28plugin_build_unary_type_exprPNS_10connectionES2_yEEEENS_6statusES4_ _Z28plugin_build_unary_type_exprPN10cc1_plugin10connectionEPKcy 143
_ZN10cc1_plugin8callbackIyPKcyXadL_Z28plugin_build_unary_type_exprPNS_10connectionES2_yEEEENS_6statusES4_ _ZN10cc1_plugin10connection4sendEc 159
_ZN10cc1_plugin8callbackIyPKcyXadL_Z28plugin_build_unary_type_exprPNS_10connectionES2_yEEEENS_6statusES4_ _ZN10cc1_plugin16marshall_intlikeEPNS_10connectionEy 174
_ZN10cc1_plugin8callbackIyPKcyXadL_Z28plugin_build_unary_type_exprPNS_10connectionES2_yEEEENS_6statusES4_ _ZN10cc1_plugin16argument_wrapperIPKcED1Ev 189
_ZN10cc1_plugin8callbackIyPKcyXadL_Z28plugin_build_unary_type_exprPNS_10connectionES2_yEEEENS_6statusES4_ _Unwind_Resume 197
_ZN10cc1_plugin8callbackIyyy17gcc_cp_qualifiers21gcc_cp_ref_qualifiersXadL_Z24plugin_build_method_typePNS_10connectionEyyS1_S2_EEEENS_6statusES4_ _ZN10cc1_plugin16unmarshall_checkEPNS_10connectionEy 28
_ZN10cc1_plugin8callbackIyyy17gcc_cp_qualifiers21gcc_cp_ref_qualifiersXadL_Z24plugin_build_method_typePNS_10connectionEyyS1_S2_EEEENS_6statusES4_ _ZN10cc1_plugin18unmarshall_intlikeEPNS_10connectionEPy 76
_ZN10cc1_plugin8callbackIyyy17gcc_cp_qualifiers21gcc_cp_ref_qualifiersXadL_Z24plugin_build_method_typePNS_10connectionEyyS1_S2_EEEENS_6statusES4_ _ZN10cc1_plugin18unmarshall_intlikeEPNS_10connectionEPy 96
_ZN10cc1_plugin8callbackIyyy17gcc_cp_qualifiers21gcc_cp_ref_qualifiersXadL_Z24plugin_build_method_typePNS_10connectionEyyS1_S2_EEEENS_6statusES4_ _ZN10cc1_plugin10unmarshallEPNS_10connectionEP17gcc_cp_qualifiers 118
_ZN10cc1_plugin8callbackIyyy17gcc_cp_qualifiers21gcc_cp_ref_qualifiersXadL_Z24plugin_build_method_typePNS_10connectionEyyS1_S2_EEEENS_6statusES4_ _ZN10cc1_plugin10unmarshallEPNS_10connectionEP21gcc_cp_ref_qualifiers 135
_ZN10cc1_plugin8callbackIyyy17gcc_cp_qualifiers21gcc_cp_ref_qualifiersXadL_Z24plugin_build_method_typePNS_10connectionEyyS1_S2_EEEENS_6statusES4_ _Z24plugin_build_method_typePN10cc1_plugin10connectionEyy17gcc_cp_qualifiers21gcc_cp_ref_qualifiers 162
_ZN10cc1_plugin8callbackIyyy17gcc_cp_qualifiers21gcc_cp_ref_qualifiersXadL_Z24plugin_build_method_typePNS_10connectionEyyS1_S2_EEEENS_6statusES4_ _ZN10cc1_plugin10connection4sendEc 178
_ZN10cc1_plugin8callbackIyyy17gcc_cp_qualifiers21gcc_cp_ref_qualifiersXadL_Z24plugin_build_method_typePNS_10connectionEyyS1_S2_EEEENS_6statusES4_ _ZN10cc1_plugin16marshall_intlikeEPNS_10connectionEy 197
_ZN10cc1_plugin8callbackIyyy17gcc_cp_qualifiers21gcc_cp_ref_qualifiersXadL_Z24plugin_build_method_typePNS_10connectionEyyS1_S2_EEEENS_6statusES4_ _Unwind_Resume 210
_ZN10cc1_plugin8callbackIyPKcyPK20gcc_cp_function_argsXadL_Z33plugin_build_expression_list_exprPNS_10connectionES2_yS5_EEEENS_6statusES7_ _ZN10cc1_plugin16unmarshall_checkEPNS_10connectionEy 61
_ZN10cc1_plugin8callbackIyPKcyPK20gcc_cp_function_argsXadL_Z33plugin_build_expression_list_exprPNS_10connectionES2_yS5_EEEENS_6statusES7_ _ZN10cc1_plugin10unmarshallEPNS_10connectionEPPc 86
_ZN10cc1_plugin8callbackIyPKcyPK20gcc_cp_function_argsXadL_Z33plugin_build_expression_list_exprPNS_10connectionES2_yS5_EEEENS_6statusES7_ _ZdaPv 119
_ZN10cc1_plugin8callbackIyPKcyPK20gcc_cp_function_argsXadL_Z33plugin_build_expression_list_exprPNS_10connectionES2_yS5_EEEENS_6statusES7_ _ZdlPv 129
_ZN10cc1_plugin8callbackIyPKcyPK20gcc_cp_function_argsXadL_Z33plugin_build_expression_list_exprPNS_10connectionES2_yS5_EEEENS_6statusES7_ _ZdaPv 144
_ZN10cc1_plugin8callbackIyPKcyPK20gcc_cp_function_argsXadL_Z33plugin_build_expression_list_exprPNS_10connectionES2_yS5_EEEENS_6statusES7_ _ZN10cc1_plugin18unmarshall_intlikeEPNS_10connectionEPy 190
_ZN10cc1_plugin8callbackIyPKcyPK20gcc_cp_function_argsXadL_Z33plugin_build_expression_list_exprPNS_10connectionES2_yS5_EEEENS_6statusES7_ _ZN10cc1_plugin10unmarshallEPNS_10connectionEPP20gcc_cp_function_args 215
_ZN10cc1_plugin8callbackIyPKcyPK20gcc_cp_function_argsXadL_Z33plugin_build_expression_list_exprPNS_10connectionES2_yS5_EEEENS_6statusES7_ _Z33plugin_build_expression_list_exprPN10cc1_plugin10connectionEPKcyPK20gcc_cp_function_args 244
_ZN10cc1_plugin8callbackIyPKcyPK20gcc_cp_function_argsXadL_Z33plugin_build_expression_list_exprPNS_10connectionES2_yS5_EEEENS_6statusES7_ _ZN10cc1_plugin10connection4sendEc 260
_ZN10cc1_plugin8callbackIyPKcyPK20gcc_cp_function_argsXadL_Z33plugin_build_expression_list_exprPNS_10connectionES2_yS5_EEEENS_6statusES7_ _ZN10cc1_plugin16marshall_intlikeEPNS_10connectionEy 279
_ZN10cc1_plugin8callbackIyPKcyPK20gcc_cp_function_argsXadL_Z33plugin_build_expression_list_exprPNS_10connectionES2_yS5_EEEENS_6statusES7_ _ZN10cc1_plugin16argument_wrapperIPK20gcc_cp_function_argsED1Ev 297
_ZN10cc1_plugin8callbackIyPKcyPK20gcc_cp_function_argsXadL_Z33plugin_build_expression_list_exprPNS_10connectionES2_yS5_EEEENS_6statusES7_ _ZN10cc1_plugin16argument_wrapperIPKcED1Ev 305
_ZN10cc1_plugin8callbackIyPKcyPK20gcc_cp_function_argsXadL_Z33plugin_build_expression_list_exprPNS_10connectionES2_yS5_EEEENS_6statusES7_ _Unwind_Resume 313
_Z13find_compilerRK17re_pattern_bufferPSs getenv 28
_Z13find_compilerRK17re_pattern_bufferPSs _ZNSsC1EPKcRKSaIcE 57
_Z13find_compilerRK17re_pattern_bufferPSs _ZNSsC1ERKSsmm 143
_Z13find_compilerRK17re_pattern_bufferPSs _ZNSs6assignERKSs 156
_Z13find_compilerRK17re_pattern_bufferPSs _ZNSs4_Rep20_S_empty_rep_storageE 172
_Z13find_compilerRK17re_pattern_bufferPSs _ZNKSs7compareEPKc 191
_Z13find_compilerRK17re_pattern_bufferPSs _ZNSs6assignEPKcm 213
_Z13find_compilerRK17re_pattern_bufferPSs opendir 223
_Z13find_compilerRK17re_pattern_bufferPSs _ZNSs4_Rep20_S_empty_rep_storageE 251
_Z13find_compilerRK17re_pattern_bufferPSs _ZNKSs4findEcm 290
_Z13find_compilerRK17re_pattern_bufferPSs _ZNSs4_Rep20_S_empty_rep_storageE 303
_Z13find_compilerRK17re_pattern_bufferPSs _ZNSsC1ERKSsmm 353
_Z13find_compilerRK17re_pattern_bufferPSs _ZNSs6assignERKSs 366
_Z13find_compilerRK17re_pattern_bufferPSs _ZNSs4_Rep20_S_empty_rep_storageE 382
_Z13find_compilerRK17re_pattern_bufferPSs pthread_cancel 393
_Z13find_compilerRK17re_pattern_bufferPSs _ZNSs4_Rep10_M_destroyERKSaIcE 428
_Z13find_compilerRK17re_pattern_bufferPSs readdir 444
_Z13find_compilerRK17re_pattern_bufferPSs xregexec 475
_Z13find_compilerRK17re_pattern_bufferPSs _ZNSsC1ERKSs 490
_Z13find_compilerRK17re_pattern_bufferPSs _ZNSs6appendEmc 508
_Z13find_compilerRK17re_pattern_bufferPSs _ZNSsC1ERKSs 519
_Z13find_compilerRK17re_pattern_bufferPSs strlen 527
_Z13find_compilerRK17re_pattern_bufferPSs _ZNSs6appendEPKcm 541
_Z13find_compilerRK17re_pattern_bufferPSs _ZNSs6assignERKSs 554
_Z13find_compilerRK17re_pattern_bufferPSs _ZNSs4_Rep20_S_empty_rep_storageE 570
_Z13find_compilerRK17re_pattern_bufferPSs _ZNSs4_Rep20_S_empty_rep_storageE 586
_Z13find_compilerRK17re_pattern_bufferPSs closedir 608
_Z13find_compilerRK17re_pattern_bufferPSs _ZNSs4_Rep20_S_empty_rep_storageE 633
_Z13find_compilerRK17re_pattern_bufferPSs _ZNSs4_Rep20_S_empty_rep_storageE 660
_Z13find_compilerRK17re_pattern_bufferPSs pthread_cancel 709
_Z13find_compilerRK17re_pattern_bufferPSs _ZNSs4_Rep10_M_destroyERKSaIcE 744
_Z13find_compilerRK17re_pattern_bufferPSs pthread_cancel 754
_Z13find_compilerRK17re_pattern_bufferPSs _ZNSs4_Rep10_M_destroyERKSaIcE 789
_Z13find_compilerRK17re_pattern_bufferPSs pthread_cancel 799
_Z13find_compilerRK17re_pattern_bufferPSs _ZNSs4_Rep10_M_destroyERKSaIcE 830
_Z13find_compilerRK17re_pattern_bufferPSs _ZNSsD1Ev 848
_Z13find_compilerRK17re_pattern_bufferPSs _ZNSsD1Ev 856
_Z13find_compilerRK17re_pattern_bufferPSs _ZNSsD1Ev 866
_Z13find_compilerRK17re_pattern_bufferPSs _Unwind_Resume 874
_Z13find_compilerRK17re_pattern_bufferPSs _ZSt20__throw_out_of_rangePKc 889
_Z13find_compilerRK17re_pattern_bufferPSs _ZNSsD1Ev 921
_Z13find_compilerRK17re_pattern_bufferPSs _ZNSsD1Ev 929
_Z13find_compilerRK17re_pattern_bufferPSs closedir 942
_Z13find_compilerRK17re_pattern_bufferPSs _ZNSsD1Ev 950
_Z13find_compilerRK17re_pattern_bufferPSs pthread_cancel 979
_Z13find_compilerRK17re_pattern_bufferPSs _ZNSs4_Rep10_M_destroyERKSaIcE 1010
_Z13find_compilerRK17re_pattern_bufferPSs _ZNSsD1Ev 1026
_Z13find_compilerRK17re_pattern_bufferPSs _ZNSsD1Ev 1066
_Z13find_compilerRK17re_pattern_bufferPSs _ZSt20__throw_out_of_rangePKc 1086
_Z13find_compilerRK17re_pattern_bufferPSs pthread_cancel 1091
_Z13find_compilerRK17re_pattern_bufferPSs _ZNSs4_Rep10_M_destroyERKSaIcE 1127
_Z13find_compilerRK17re_pattern_bufferPSs pthread_cancel 1142
_Z13find_compilerRK17re_pattern_bufferPSs _ZNSs4_Rep10_M_destroyERKSaIcE 1176
_Z13find_compilerRK17re_pattern_bufferPSs _Unwind_Resume 1215
_ZN10cc1_plugin8callbackIyPKcXadL_ZN12_GLOBAL__N_121c_call_symbol_addressEPNS_10connectionES2_EEEENS_6statusES5_ _ZN10cc1_plugin16unmarshall_checkEPNS_10connectionEy 31
_ZN10cc1_plugin8callbackIyPKcXadL_ZN12_GLOBAL__N_121c_call_symbol_addressEPNS_10connectionES2_EEEENS_6statusES5_ _ZdaPv 51
_ZN10cc1_plugin8callbackIyPKcXadL_ZN12_GLOBAL__N_121c_call_symbol_addressEPNS_10connectionES2_EEEENS_6statusES5_ _ZN10cc1_plugin10unmarshallEPNS_10connectionEPPc 87
_ZN10cc1_plugin8callbackIyPKcXadL_ZN12_GLOBAL__N_121c_call_symbol_addressEPNS_10connectionES2_EEEENS_6statusES5_ _ZN10cc1_plugin10connection4sendEc 125
_ZN10cc1_plugin8callbackIyPKcXadL_ZN12_GLOBAL__N_121c_call_symbol_addressEPNS_10connectionES2_EEEENS_6statusES5_ _ZN10cc1_plugin16marshall_intlikeEPNS_10connectionEy 140
_ZN10cc1_plugin8callbackIyPKcXadL_ZN12_GLOBAL__N_121c_call_symbol_addressEPNS_10connectionES2_EEEENS_6statusES5_ _ZdaPv 161
_ZN10cc1_plugin8callbackIyPKcXadL_ZN12_GLOBAL__N_121c_call_symbol_addressEPNS_10connectionES2_EEEENS_6statusES5_ _Unwind_Resume 169
_ZN10cc1_plugin8callbackIi20gcc_c_oracle_requestPKcXadL_ZN12_GLOBAL__N_121c_call_binding_oracleEPNS_10connectionES1_S3_EEEENS_6statusES6_ _ZN10cc1_plugin16unmarshall_checkEPNS_10connectionEy 22
_ZN10cc1_plugin8callbackIi20gcc_c_oracle_requestPKcXadL_ZN12_GLOBAL__N_121c_call_binding_oracleEPNS_10connectionES1_S3_EEEENS_6statusES6_ _ZdaPv 42
_ZN10cc1_plugin8callbackIi20gcc_c_oracle_requestPKcXadL_ZN12_GLOBAL__N_121c_call_binding_oracleEPNS_10connectionES1_S3_EEEENS_6statusES6_ _ZN10cc1_plugin10unmarshallEPNS_10connectionEP20gcc_c_oracle_request 73
_ZN10cc1_plugin8callbackIi20gcc_c_oracle_requestPKcXadL_ZN12_GLOBAL__N_121c_call_binding_oracleEPNS_10connectionES1_S3_EEEENS_6statusES6_ _ZN10cc1_plugin10unmarshallEPNS_10connectionEPPc 88
_ZN10cc1_plugin8callbackIi20gcc_c_oracle_requestPKcXadL_ZN12_GLOBAL__N_121c_call_binding_oracleEPNS_10connectionES1_S3_EEEENS_6statusES6_ _ZN10cc1_plugin10connection4sendEc 127
_ZN10cc1_plugin8callbackIi20gcc_c_oracle_requestPKcXadL_ZN12_GLOBAL__N_121c_call_binding_oracleEPNS_10connectionES1_S3_EEEENS_6statusES6_ _ZN10cc1_plugin16marshall_intlikeEPNS_10connectionEy 144
_ZN10cc1_plugin8callbackIi20gcc_c_oracle_requestPKcXadL_ZN12_GLOBAL__N_121c_call_binding_oracleEPNS_10connectionES1_S3_EEEENS_6statusES6_ _ZdaPv 165
_ZN10cc1_plugin8callbackIi20gcc_c_oracle_requestPKcXadL_ZN12_GLOBAL__N_121c_call_binding_oracleEPNS_10connectionES1_S3_EEEENS_6statusES6_ _Unwind_Resume 173
_ZL22libcc1_set_source_fileP16gcc_base_contextPKc strlen 24
_ZL22libcc1_set_source_fileP16gcc_base_contextPKc _ZNSs6assignEPKcm 53
_ZNK6libcc124compiler_driver_filename4findERSs stderr 37
_ZNK6libcc124compiler_driver_filename4findERSs fprintf 49
_ZNK6libcc124compiler_driver_filename4findERSs _ZNSs6assignERKSs 61
_ZNK6libcc18compiler4findERSs xstrdup 6
_ZN6libcc1C1EPK15gcc_base_vtablePK15gcc_c_fe_vtable _ZNSs4_Rep20_S_empty_rep_storageE 104
_ZN6libcc1C1EPK15gcc_base_vtablePK15gcc_c_fe_vtable _Znwm 118
_ZN6libcc1C1EPK15gcc_base_vtablePK15gcc_c_fe_vtable _ZTVN6libcc18compilerE 125
_ZN6libcc1C1EPK15gcc_base_vtablePK15gcc_c_fe_vtable _ZNSsD1Ev 171
_ZN6libcc1C1EPK15gcc_base_vtablePK15gcc_c_fe_vtable _ZNSt6vectorISsSaISsEED1Ev 180
_ZN6libcc1C1EPK15gcc_base_vtablePK15gcc_c_fe_vtable _Unwind_Resume 188
gcc_c_fe_context _Znwm 35
gcc_c_fe_context _ZN6libcc1C1EPK15gcc_base_vtablePK15gcc_c_fe_vtable 56
gcc_c_fe_context _ZdlPv 78
gcc_c_fe_context _Unwind_Resume 91
_ZN6libcc1C2EPK15gcc_base_vtablePK15gcc_c_fe_vtable _ZNSs4_Rep20_S_empty_rep_storageE 104
_ZN6libcc1C2EPK15gcc_base_vtablePK15gcc_c_fe_vtable _Znwm 118
_ZN6libcc1C2EPK15gcc_base_vtablePK15gcc_c_fe_vtable _ZTVN6libcc18compilerE 125
_ZN6libcc1C2EPK15gcc_base_vtablePK15gcc_c_fe_vtable _ZNSsD1Ev 171
_ZN6libcc1C2EPK15gcc_base_vtablePK15gcc_c_fe_vtable _ZNSt6vectorISsSaISsEED1Ev 180
_ZN6libcc1C2EPK15gcc_base_vtablePK15gcc_c_fe_vtable _Unwind_Resume 188
_ZL25libcc1_set_triplet_regexpP16gcc_base_contextPKc _ZNSsC1EPKcRKSaIcE 61
_ZL25libcc1_set_triplet_regexpP16gcc_base_contextPKc _Znwm 71
_ZL25libcc1_set_triplet_regexpP16gcc_base_contextPKc _ZTVN6libcc123compiler_triplet_regexpE 86
_ZL25libcc1_set_triplet_regexpP16gcc_base_contextPKc _ZNSsC1ERKSs 97
_ZL25libcc1_set_triplet_regexpP16gcc_base_contextPKc _ZNSs4_Rep20_S_empty_rep_storageE 117
_ZL25libcc1_set_triplet_regexpP16gcc_base_contextPKc pthread_cancel 146
_ZL25libcc1_set_triplet_regexpP16gcc_base_contextPKc _ZNSs4_Rep10_M_destroyERKSaIcE 173
_ZL25libcc1_set_triplet_regexpP16gcc_base_contextPKc _ZTVN6libcc18compilerE 182
_ZL25libcc1_set_triplet_regexpP16gcc_base_contextPKc _ZdlPv 193
_ZL25libcc1_set_triplet_regexpP16gcc_base_contextPKc _ZNSsD1Ev 201
_ZL25libcc1_set_triplet_regexpP16gcc_base_contextPKc _Unwind_Resume 209
_ZL26libcc1_set_driver_filenameP16gcc_base_contextPKc _ZNSsC1EPKcRKSaIcE 61
_ZL26libcc1_set_driver_filenameP16gcc_base_contextPKc _Znwm 71
_ZL26libcc1_set_driver_filenameP16gcc_base_contextPKc _ZTVN6libcc124compiler_driver_filenameE 86
_ZL26libcc1_set_driver_filenameP16gcc_base_contextPKc _ZNSsC1ERKSs 97
_ZL26libcc1_set_driver_filenameP16gcc_base_contextPKc _ZNSs4_Rep20_S_empty_rep_storageE 117
_ZL26libcc1_set_driver_filenameP16gcc_base_contextPKc pthread_cancel 146
_ZL26libcc1_set_driver_filenameP16gcc_base_contextPKc _ZNSs4_Rep10_M_destroyERKSaIcE 173
_ZL26libcc1_set_driver_filenameP16gcc_base_contextPKc _ZTVN6libcc18compilerE 182
_ZL26libcc1_set_driver_filenameP16gcc_base_contextPKc _ZdlPv 193
_ZL26libcc1_set_driver_filenameP16gcc_base_contextPKc _ZNSsD1Ev 201
_ZL26libcc1_set_driver_filenameP16gcc_base_contextPKc _Unwind_Resume 209
_ZN6libcc1D2Ev _ZNSs4_Rep20_S_empty_rep_storageE 53
_ZN6libcc1D2Ev pthread_cancel 85
_ZN6libcc1D2Ev _ZdlPv 128
_ZN6libcc1D2Ev _ZNSs4_Rep10_M_destroyERKSaIcE 173
_ZN6libcc1D2Ev pthread_cancel 185
_ZN6libcc1D2Ev _ZNSs4_Rep10_M_destroyERKSaIcE 216
_ZN6libcc1D2Ev _ZNSsD1Ev 233
_ZN6libcc1D2Ev _ZNSt6vectorISsSaISsEED1Ev 242
_ZN6libcc1D2Ev _Unwind_Resume 250
_ZN6libcc1D1Ev _ZNSs4_Rep20_S_empty_rep_storageE 53
_ZN6libcc1D1Ev pthread_cancel 85
_ZN6libcc1D1Ev _ZdlPv 128
_ZN6libcc1D1Ev _ZNSs4_Rep10_M_destroyERKSaIcE 173
_ZN6libcc1D1Ev pthread_cancel 185
_ZN6libcc1D1Ev _ZNSs4_Rep10_M_destroyERKSaIcE 216
_ZN6libcc1D1Ev _ZNSsD1Ev 233
_ZN6libcc1D1Ev _ZNSt6vectorISsSaISsEED1Ev 242
_ZN6libcc1D1Ev _Unwind_Resume 250
_ZL14libcc1_destroyP16gcc_base_context _ZN6libcc1D1Ev 10
_ZL14libcc1_destroyP16gcc_base_context _ZdlPv 19
_ZNK6libcc123compiler_triplet_regexp4findERSs _ZNSt8ios_baseC2Ev 50
_ZNK6libcc123compiler_triplet_regexp4findERSs _ZTTSt18basic_stringstreamIcSt11char_traitsIcESaIcEE 57
_ZNK6libcc123compiler_triplet_regexp4findERSs _ZTTSt18basic_stringstreamIcSt11char_traitsIcESaIcEE 74
_ZNK6libcc123compiler_triplet_regexp4findERSs _ZTVSt9basic_iosIcSt11char_traitsIcEE 85
_ZNK6libcc123compiler_triplet_regexp4findERSs _ZNSt9basic_iosIcSt11char_traitsIcEE4initEPSt15basic_streambufIcS1_E 195
_ZNK6libcc123compiler_triplet_regexp4findERSs _ZTTSt18basic_stringstreamIcSt11char_traitsIcESaIcEE 202
_ZNK6libcc123compiler_triplet_regexp4findERSs _ZTTSt18basic_stringstreamIcSt11char_traitsIcESaIcEE 209
_ZNK6libcc123compiler_triplet_regexp4findERSs _ZNSt9basic_iosIcSt11char_traitsIcEE4initEPSt15basic_streambufIcS1_E 253
_ZNK6libcc123compiler_triplet_regexp4findERSs _ZTTSt18basic_stringstreamIcSt11char_traitsIcESaIcEE 260
_ZNK6libcc123compiler_triplet_regexp4findERSs _ZTTSt18basic_stringstreamIcSt11char_traitsIcESaIcEE 267
_ZNK6libcc123compiler_triplet_regexp4findERSs _ZTVSt18basic_stringstreamIcSt11char_traitsIcESaIcEE 360
_ZNK6libcc123compiler_triplet_regexp4findERSs _ZTVSt18basic_stringstreamIcSt11char_traitsIcESaIcEE 371
_ZNK6libcc123compiler_triplet_regexp4findERSs _ZTVSt18basic_stringstreamIcSt11char_traitsIcESaIcEE 382
_ZNK6libcc123compiler_triplet_regexp4findERSs _ZTVSt15basic_streambufIcSt11char_traitsIcEE 393
_ZNK6libcc123compiler_triplet_regexp4findERSs _ZNSt6localeC1Ev 398
_ZNK6libcc123compiler_triplet_regexp4findERSs _ZTVSt15basic_stringbufIcSt11char_traitsIcESaIcEE 417
_ZNK6libcc123compiler_triplet_regexp4findERSs _ZNSs4_Rep20_S_empty_rep_storageE 438
_ZNK6libcc123compiler_triplet_regexp4findERSs _ZNSt9basic_iosIcSt11char_traitsIcEE4initEPSt15basic_streambufIcS1_E 443
_ZNK6libcc123compiler_triplet_regexp4findERSs _ZSt16__ostream_insertIcSt11char_traitsIcEERSt13basic_ostreamIT_T0_ES6_PKS3_l 462
_ZNK6libcc123compiler_triplet_regexp4findERSs strlen 479
_ZNK6libcc123compiler_triplet_regexp4findERSs _ZSt16__ostream_insertIcSt11char_traitsIcEERSt13basic_ostreamIT_T0_ES6_PKS3_l 494
_ZNK6libcc123compiler_triplet_regexp4findERSs _ZSt16__ostream_insertIcSt11char_traitsIcEERSt13basic_ostreamIT_T0_ES6_PKS3_l 513
_ZNK6libcc123compiler_triplet_regexp4findERSs _ZSt16__ostream_insertIcSt11char_traitsIcEERSt13basic_ostreamIT_T0_ES6_PKS3_l 559
_ZNK6libcc123compiler_triplet_regexp4findERSs _ZSt16__ostream_insertIcSt11char_traitsIcEERSt13basic_ostreamIT_T0_ES6_PKS3_l 608
_ZNK6libcc123compiler_triplet_regexp4findERSs _ZSt16__ostream_insertIcSt11char_traitsIcEERSt13basic_ostreamIT_T0_ES6_PKS3_l 639
_ZNK6libcc123compiler_triplet_regexp4findERSs _ZNSs4_Rep20_S_empty_rep_storageE 654
_ZNK6libcc123compiler_triplet_regexp4findERSs _ZNSs12_S_constructIPcEES0_T_S1_RKSaIcESt20forward_iterator_tag 702
_ZNK6libcc123compiler_triplet_regexp4findERSs _ZNSs6assignERKSs 732
_ZNK6libcc123compiler_triplet_regexp4findERSs _ZNSs4_Rep20_S_empty_rep_storageE 747
_ZNK6libcc123compiler_triplet_regexp4findERSs _ZNSs4_Rep20_S_empty_rep_storageE 758
_ZNK6libcc123compiler_triplet_regexp4findERSs _ZTVSt18basic_stringstreamIcSt11char_traitsIcESaIcEE 782
_ZNK6libcc123compiler_triplet_regexp4findERSs _ZTVSt18basic_stringstreamIcSt11char_traitsIcESaIcEE 793
_ZNK6libcc123compiler_triplet_regexp4findERSs _ZTVSt18basic_stringstreamIcSt11char_traitsIcESaIcEE 804
_ZNK6libcc123compiler_triplet_regexp4findERSs _ZTVSt15basic_stringbufIcSt11char_traitsIcESaIcEE 815
_ZNK6libcc123compiler_triplet_regexp4findERSs _ZNSs4_Rep20_S_empty_rep_storageE 826
_ZNK6libcc123compiler_triplet_regexp4findERSs _ZTVSt15basic_streambufIcSt11char_traitsIcEE 847
_ZNK6libcc123compiler_triplet_regexp4findERSs _ZNSt6localeD1Ev 852
_ZNK6libcc123compiler_triplet_regexp4findERSs _ZTTSt18basic_stringstreamIcSt11char_traitsIcESaIcEE 859
_ZNK6libcc123compiler_triplet_regexp4findERSs _ZTTSt18basic_stringstreamIcSt11char_traitsIcESaIcEE 874
_ZNK6libcc123compiler_triplet_regexp4findERSs _ZTTSt18basic_stringstreamIcSt11char_traitsIcESaIcEE 885
_ZNK6libcc123compiler_triplet_regexp4findERSs _ZTTSt18basic_stringstreamIcSt11char_traitsIcESaIcEE 892
_ZNK6libcc123compiler_triplet_regexp4findERSs _ZTTSt18basic_stringstreamIcSt11char_traitsIcESaIcEE 919
_ZNK6libcc123compiler_triplet_regexp4findERSs _ZTVSt9basic_iosIcSt11char_traitsIcEE 952
_ZNK6libcc123compiler_triplet_regexp4findERSs _ZNSt8ios_baseD2Ev 957
_ZNK6libcc123compiler_triplet_regexp4findERSs stderr 985
_ZNK6libcc123compiler_triplet_regexp4findERSs fprintf 997
_ZNK6libcc123compiler_triplet_regexp4findERSs xregcomp 1021
_ZNK6libcc123compiler_triplet_regexp4findERSs xregerror 1049
_ZNK6libcc123compiler_triplet_regexp4findERSs xregerror 1086
_ZNK6libcc123compiler_triplet_regexp4findERSs concat 1113
_ZNK6libcc123compiler_triplet_regexp4findERSs _ZNSs12_S_constructIPcEES0_T_S1_RKSaIcESt20forward_iterator_tag 1176
_ZNK6libcc123compiler_triplet_regexp4findERSs _ZNSs6assignERKSs 1206
_ZNK6libcc123compiler_triplet_regexp4findERSs _ZNSs4_Rep20_S_empty_rep_storageE 1221
_ZNK6libcc123compiler_triplet_regexp4findERSs _ZNSs4_Rep20_S_empty_rep_storageE 1232
_ZNK6libcc123compiler_triplet_regexp4findERSs pthread_cancel 1243
_ZNK6libcc123compiler_triplet_regexp4findERSs _ZNSs4_Rep10_M_destroyERKSaIcE 1277
_ZNK6libcc123compiler_triplet_regexp4findERSs _Z13find_compilerRK17re_pattern_bufferPSs 1307
_ZNK6libcc123compiler_triplet_regexp4findERSs xregfree 1319
_ZNK6libcc123compiler_triplet_regexp4findERSs concat 1342
_ZNK6libcc123compiler_triplet_regexp4findERSs xregfree 1355
_ZNK6libcc123compiler_triplet_regexp4findERSs stderr 1392
_ZNK6libcc123compiler_triplet_regexp4findERSs fprintf 1407
_ZNK6libcc123compiler_triplet_regexp4findERSs _ZNSt9basic_iosIcSt11char_traitsIcEE5clearESt12_Ios_Iostate 1439
_ZNK6libcc123compiler_triplet_regexp4findERSs _ZNSs6assignERKSs 1467
_ZNK6libcc123compiler_triplet_regexp4findERSs _ZNSs4_Rep20_S_empty_rep_storageE 1478
_ZNK6libcc123compiler_triplet_regexp4findERSs pthread_cancel 1488
_ZNK6libcc123compiler_triplet_regexp4findERSs _ZNSs4_Rep10_M_destroyERKSaIcE 1518
_ZNK6libcc123compiler_triplet_regexp4findERSs pthread_cancel 1528
_ZNK6libcc123compiler_triplet_regexp4findERSs _ZNSs4_Rep10_M_destroyERKSaIcE 1558
_ZNK6libcc123compiler_triplet_regexp4findERSs _ZNSsD1Ev 1578
_ZNK6libcc123compiler_triplet_regexp4findERSs _Unwind_Resume 1586
_ZNK6libcc123compiler_triplet_regexp4findERSs pthread_cancel 1621
_ZNK6libcc123compiler_triplet_regexp4findERSs _ZNSs4_Rep10_M_destroyERKSaIcE 1658
_ZNK6libcc123compiler_triplet_regexp4findERSs _ZNSsD1Ev 1696
_ZNK6libcc123compiler_triplet_regexp4findERSs _ZNSt18basic_stringstreamIcSt11char_traitsIcESaIcEED1Ev 1704
_ZNK6libcc123compiler_triplet_regexp4findERSs _Unwind_Resume 1712
_ZNK6libcc123compiler_triplet_regexp4findERSs _ZNSsD1Ev 1723
_ZNK6libcc123compiler_triplet_regexp4findERSs _ZTTSt18basic_stringstreamIcSt11char_traitsIcESaIcEE 1750
_ZNK6libcc123compiler_triplet_regexp4findERSs _ZNSt9basic_iosIcSt11char_traitsIcEED2Ev 1781
_ZNK6libcc123compiler_triplet_regexp4findERSs _Unwind_Resume 1789
_ZNK6libcc123compiler_triplet_regexp4findERSs _ZTVSt15basic_stringbufIcSt11char_traitsIcESaIcEE 1854
_ZNK6libcc123compiler_triplet_regexp4findERSs _ZNSs4_Rep20_S_empty_rep_storageE 1865
_ZNK6libcc123compiler_triplet_regexp4findERSs _ZTVSt15basic_streambufIcSt11char_traitsIcEE 1882
_ZNK6libcc123compiler_triplet_regexp4findERSs _ZNSt6localeD1Ev 1890
_ZNK6libcc123compiler_triplet_regexp4findERSs _ZTTSt18basic_stringstreamIcSt11char_traitsIcESaIcEE 1897
_ZNK6libcc123compiler_triplet_regexp4findERSs _ZTTSt18basic_stringstreamIcSt11char_traitsIcESaIcEE 1904
_ZNK6libcc123compiler_triplet_regexp4findERSs _ZTTSt18basic_stringstreamIcSt11char_traitsIcESaIcEE 1919
_ZNK6libcc123compiler_triplet_regexp4findERSs _ZTTSt18basic_stringstreamIcSt11char_traitsIcESaIcEE 1926
_ZNK6libcc123compiler_triplet_regexp4findERSs pthread_cancel 1960
_ZNK6libcc123compiler_triplet_regexp4findERSs _ZNSs4_Rep10_M_destroyERKSaIcE 1986
_ZL14libcc1_compileP16gcc_base_contextPKc socketpair 44
_ZL14libcc1_compileP16gcc_base_contextPKc pipe 65
_ZL14libcc1_compileP16gcc_base_contextPKc _ZNSsC1EPKcRKSaIcE 102
_ZL14libcc1_compileP16gcc_base_contextPKc _ZNSsC1ERKSs 137
_ZL14libcc1_compileP16gcc_base_contextPKc _ZNSs4_Rep20_S_empty_rep_storageE 162
_ZL14libcc1_compileP16gcc_base_contextPKc snprintf 207
_ZL14libcc1_compileP16gcc_base_contextPKc _ZNSsC1EPKcRKSaIcE 243
_ZL14libcc1_compileP16gcc_base_contextPKc _ZNSsC1ERKSs 274
_ZL14libcc1_compileP16gcc_base_contextPKc _ZNSsC1ERKSs 339
_ZL14libcc1_compileP16gcc_base_contextPKc _ZNSsC1EPKcRKSaIcE 380
_ZL14libcc1_compileP16gcc_base_contextPKc _ZNSsC1ERKSs 411
_ZL14libcc1_compileP16gcc_base_contextPKc _ZNSsC1EPKcRKSaIcE 473
_ZL14libcc1_compileP16gcc_base_contextPKc _ZNSsC1ERKSs 504
_ZL14libcc1_compileP16gcc_base_contextPKc _ZNSsC1EPKcRKSaIcE 564
_ZL14libcc1_compileP16gcc_base_contextPKc _ZNSsC1ERKSs 595
_ZL14libcc1_compileP16gcc_base_contextPKc _ZNSsC1EPKcRKSaIcE 663
_ZL14libcc1_compileP16gcc_base_contextPKc _ZNSsC1ERKSs 694
_ZL14libcc1_compileP16gcc_base_contextPKc _Znwm 737
_ZL14libcc1_compileP16gcc_base_contextPKc _ZTVN10cc1_plugin10connectionE 766
_ZL14libcc1_compileP16gcc_base_contextPKc _ZN10cc1_plugin9callbacksC1Ev 780
_ZL14libcc1_compileP16gcc_base_contextPKc _ZTV17libcc1_connection 791
_ZL14libcc1_compileP16gcc_base_contextPKc _ZN10cc1_plugin9callbacks12add_callbackEPKcPFNS_6statusEPNS_10connectionEE 814
_ZL14libcc1_compileP16gcc_base_contextPKc _ZN10cc1_plugin9callbacks12add_callbackEPKcPFNS_6statusEPNS_10connectionEE 837
_ZL14libcc1_compileP16gcc_base_contextPKc _ZSt7nothrow 850
_ZL14libcc1_compileP16gcc_base_contextPKc _ZnamRKSt9nothrow_t 867
_ZL14libcc1_compileP16gcc_base_contextPKc fork 939
_ZL14libcc1_compileP16gcc_base_contextPKc close 970
_ZL14libcc1_compileP16gcc_base_contextPKc close 982
_ZL14libcc1_compileP16gcc_base_contextPKc _ZN10cc1_plugin10connection4sendEc 996
_ZL14libcc1_compileP16gcc_base_contextPKc close 1018
_ZL14libcc1_compileP16gcc_base_contextPKc close 1030
_ZL14libcc1_compileP16gcc_base_contextPKc waitpid 1047
_ZL14libcc1_compileP16gcc_base_contextPKc close 1108
_ZL14libcc1_compileP16gcc_base_contextPKc close 1120
_ZL14libcc1_compileP16gcc_base_contextPKc __errno_location 1153
_ZL14libcc1_compileP16gcc_base_contextPKc _ZN10cc1_plugin16marshall_intlikeEPNS_10connectionEy 1210
_ZL14libcc1_compileP16gcc_base_contextPKc _ZN10cc1_plugin10connection7do_waitEb 1229
_ZL14libcc1_compileP16gcc_base_contextPKc close 1359
_ZL14libcc1_compileP16gcc_base_contextPKc close 1371
_ZL14libcc1_compileP16gcc_base_contextPKc close 1383
_ZL14libcc1_compileP16gcc_base_contextPKc close 1395
_ZL14libcc1_compileP16gcc_base_contextPKc _ZNSt6vectorISsSaISsEE13_M_insert_auxEN9__gnu_cxx17__normal_iteratorIPSsS1_EERKSs 1416
_ZL14libcc1_compileP16gcc_base_contextPKc _ZNSt6vectorISsSaISsEE13_M_insert_auxEN9__gnu_cxx17__normal_iteratorIPSsS1_EERKSs 1435
_ZL14libcc1_compileP16gcc_base_contextPKc _ZNSt6vectorISsSaISsEE13_M_insert_auxEN9__gnu_cxx17__normal_iteratorIPSsS1_EERKSs 1455
_ZL14libcc1_compileP16gcc_base_contextPKc _ZNSt6vectorISsSaISsEE13_M_insert_auxEN9__gnu_cxx17__normal_iteratorIPSsS1_EERKSs 1474
_ZL14libcc1_compileP16gcc_base_contextPKc _ZNSt6vectorISsSaISsEE13_M_insert_auxEN9__gnu_cxx17__normal_iteratorIPSsS1_EERKSs 1493
_ZL14libcc1_compileP16gcc_base_contextPKc _ZNSt6vectorISsSaISsEE13_M_insert_auxEN9__gnu_cxx17__normal_iteratorIPSsS1_EERKSs 1512
_ZL14libcc1_compileP16gcc_base_contextPKc _ZNSt6vectorISsSaISsEE13_M_insert_auxEN9__gnu_cxx17__normal_iteratorIPSsS1_EERKSs 1531
_ZL14libcc1_compileP16gcc_base_contextPKc _Unwind_Resume 1545
_ZL14libcc1_compileP16gcc_base_contextPKc _ZNSsD1Ev 1558
_ZL14libcc1_compileP16gcc_base_contextPKc _ZNSsD1Ev 1578
_ZL14libcc1_compileP16gcc_base_contextPKc pthread_cancel 1592
_ZL14libcc1_compileP16gcc_base_contextPKc _ZNSs4_Rep10_M_destroyERKSaIcE 1626
_ZL14libcc1_compileP16gcc_base_contextPKc pthread_cancel 1651
_ZL14libcc1_compileP16gcc_base_contextPKc _ZNSs4_Rep10_M_destroyERKSaIcE 1685
_ZL14libcc1_compileP16gcc_base_contextPKc dup2 1707
_ZL14libcc1_compileP16gcc_base_contextPKc dup2 1724
_ZL14libcc1_compileP16gcc_base_contextPKc close 1736
_ZL14libcc1_compileP16gcc_base_contextPKc close 1748
_ZL14libcc1_compileP16gcc_base_contextPKc close 1760
_ZL14libcc1_compileP16gcc_base_contextPKc execvp 1772
_ZL14libcc1_compileP16gcc_base_contextPKc _exit 1782
_ZL14libcc1_compileP16gcc_base_contextPKc pthread_cancel 1814
_ZL14libcc1_compileP16gcc_base_contextPKc _ZNSs4_Rep10_M_destroyERKSaIcE 1851
_ZL14libcc1_compileP16gcc_base_contextPKc _ZNSsD1Ev 1885
_ZL14libcc1_compileP16gcc_base_contextPKc pthread_cancel 1905
_ZL14libcc1_compileP16gcc_base_contextPKc _ZNSs4_Rep10_M_destroyERKSaIcE 1939
_ZL14libcc1_compileP16gcc_base_contextPKc abort 1949
_ZL14libcc1_compileP16gcc_base_contextPKc _ZdlPv 1978
_ZL14libcc1_compileP16gcc_base_contextPKc pthread_cancel 1998
_ZL14libcc1_compileP16gcc_base_contextPKc _ZNSs4_Rep10_M_destroyERKSaIcE 2032
_ZL14libcc1_compileP16gcc_base_contextPKc pthread_cancel 2042
_ZL14libcc1_compileP16gcc_base_contextPKc _ZNSs4_Rep10_M_destroyERKSaIcE 2076
_ZL20libcc1_set_argumentsP16gcc_base_contextiPPc _ZNSs4_Rep20_S_empty_rep_storageE 32
_ZL20libcc1_set_argumentsP16gcc_base_contextiPPc _ZNSs4_Rep20_S_empty_rep_storageE 67
_ZL20libcc1_set_argumentsP16gcc_base_contextiPPc _ZNSsC1ERKSs 134
_ZL20libcc1_set_argumentsP16gcc_base_contextiPPc _ZNSsC1ERKSs 180
_ZL20libcc1_set_argumentsP16gcc_base_contextiPPc _ZNSs4_Rep20_S_empty_rep_storageE 208
_ZL20libcc1_set_argumentsP16gcc_base_contextiPPc _ZNSsC1EPKcRKSaIcE 242
_ZL20libcc1_set_argumentsP16gcc_base_contextiPPc _ZNSt6vectorISsSaISsEE13_M_insert_auxEN9__gnu_cxx17__normal_iteratorIPSsS1_EERKSs 284
_ZL20libcc1_set_argumentsP16gcc_base_contextiPPc _ZNSt6vectorISsSaISsEE13_M_insert_auxEN9__gnu_cxx17__normal_iteratorIPSsS1_EERKSs 311
_ZL20libcc1_set_argumentsP16gcc_base_contextiPPc pthread_cancel 321
_ZL20libcc1_set_argumentsP16gcc_base_contextiPPc _ZNSs4_Rep10_M_destroyERKSaIcE 348
_ZL20libcc1_set_argumentsP16gcc_base_contextiPPc pthread_cancel 358
_ZL20libcc1_set_argumentsP16gcc_base_contextiPPc _ZNSs4_Rep10_M_destroyERKSaIcE 389
_ZL20libcc1_set_argumentsP16gcc_base_contextiPPc _ZNSsD1Ev 407
_ZL20libcc1_set_argumentsP16gcc_base_contextiPPc _Unwind_Resume 415
_ZL20libcc1_set_argumentsP16gcc_base_contextiPPc _ZNSsD1Ev 448
_ZN6libcc18compilerD1Ev _ZTVN6libcc18compilerE 3
_ZN6libcc18compilerD0Ev _ZTVN6libcc18compilerE 3
_ZN6libcc18compilerD0Ev _ZdlPv 8
_ZN10cc1_plugin10connection15wait_for_resultEv _ZN10cc1_plugin10connection7do_waitEb 6
_ZN10cc1_plugin10unmarshallIyEENS_6statusEPNS_10connectionEPT_ _ZN10cc1_plugin18unmarshall_intlikeEPNS_10connectionEPy 14
_ZN10cc1_plugin4callIymPKcEENS_6statusEPNS_10connectionES2_PT_T0_T1_ _ZN10cc1_plugin10connection4sendEc 50
_ZN10cc1_plugin4callIymPKcEENS_6statusEPNS_10connectionES2_PT_T0_T1_ _ZN10cc1_plugin8marshallEPNS_10connectionEPKc 103
_ZN10cc1_plugin4callIymPKcEENS_6statusEPNS_10connectionES2_PT_T0_T1_ _ZN10cc1_plugin16marshall_intlikeEPNS_10connectionEy 120
_ZN10cc1_plugin4callIymPKcEENS_6statusEPNS_10connectionES2_PT_T0_T1_ _ZN10cc1_plugin16marshall_intlikeEPNS_10connectionEy 135
_ZN10cc1_plugin4callIymPKcEENS_6statusEPNS_10connectionES2_PT_T0_T1_ _ZN10cc1_plugin8marshallEPNS_10connectionEPKc 150
_ZN10cc1_plugin4callIymPKcEENS_6statusEPNS_10connectionES2_PT_T0_T1_ _ZN10cc1_plugin10connection15wait_for_resultEv 162
_ZN10cc1_plugin4callIymPKcEENS_6statusEPNS_10connectionES2_PT_T0_T1_ _ZN10cc1_plugin10unmarshallIyEENS_6statusEPNS_10connectionEPT_ 177
_Z3rpcIyLZN10cc1_plugin1c10float_typeEEmPKcET_P13gcc_c_contextT1_T2_ _ZN10cc1_plugin1c10float_typeE 14
_Z3rpcIyLZN10cc1_plugin1c10float_typeEEmPKcET_P13gcc_c_contextT1_T2_ _ZN10cc1_plugin4callIymPKcEENS_6statusEPNS_10connectionES2_PT_T0_T1_ 27
_ZN10cc1_plugin4callIyEENS_6statusEPNS_10connectionEPKcPT_ _ZN10cc1_plugin10connection4sendEc 34
_ZN10cc1_plugin4callIyEENS_6statusEPNS_10connectionEPKcPT_ _ZN10cc1_plugin8marshallEPNS_10connectionEPKc 71
_ZN10cc1_plugin4callIyEENS_6statusEPNS_10connectionEPKcPT_ _ZN10cc1_plugin16marshall_intlikeEPNS_10connectionEy 85
_ZN10cc1_plugin4callIyEENS_6statusEPNS_10connectionEPKcPT_ _ZN10cc1_plugin10connection15wait_for_resultEv 97
_ZN10cc1_plugin4callIyEENS_6statusEPNS_10connectionEPKcPT_ _ZN10cc1_plugin10unmarshallIyEENS_6statusEPNS_10connectionEPT_ 112
_Z3rpcIyLZN10cc1_plugin1c9char_typeEEET_P13gcc_c_context _ZN10cc1_plugin1c9char_typeE 11
_Z3rpcIyLZN10cc1_plugin1c9char_typeEEET_P13gcc_c_context _ZN10cc1_plugin4callIyEENS_6statusEPNS_10connectionEPKcPT_ 21
_Z3rpcIyLZN10cc1_plugin1c9bool_typeEEET_P13gcc_c_context _ZN10cc1_plugin1c9bool_typeE 11
_Z3rpcIyLZN10cc1_plugin1c9bool_typeEEET_P13gcc_c_context _ZN10cc1_plugin4callIyEENS_6statusEPNS_10connectionEPKcPT_ 21
_Z3rpcIyLZN10cc1_plugin1c9void_typeEEET_P13gcc_c_context _ZN10cc1_plugin1c9void_typeE 11
_Z3rpcIyLZN10cc1_plugin1c9void_typeEEET_P13gcc_c_context _ZN10cc1_plugin4callIyEENS_6statusEPNS_10connectionEPKcPT_ 21
_Z3rpcIyLZN10cc1_plugin1c16build_union_typeEEET_P13gcc_c_context _ZN10cc1_plugin1c16build_union_typeE 11
_Z3rpcIyLZN10cc1_plugin1c16build_union_typeEEET_P13gcc_c_context _ZN10cc1_plugin4callIyEENS_6statusEPNS_10connectionEPKcPT_ 21
_Z3rpcIyLZN10cc1_plugin1c17build_record_typeEEET_P13gcc_c_context _ZN10cc1_plugin1c17build_record_typeE 11
_Z3rpcIyLZN10cc1_plugin1c17build_record_typeEEET_P13gcc_c_context _ZN10cc1_plugin4callIyEENS_6statusEPNS_10connectionEPKcPT_ 21
_ZN10cc1_plugin4callIyimPKcEENS_6statusEPNS_10connectionES2_PT_T0_T1_T2_ _ZN10cc1_plugin10connection4sendEc 58
_ZN10cc1_plugin4callIyimPKcEENS_6statusEPNS_10connectionES2_PT_T0_T1_T2_ _ZN10cc1_plugin8marshallEPNS_10connectionEPKc 119
_ZN10cc1_plugin4callIyimPKcEENS_6statusEPNS_10connectionES2_PT_T0_T1_T2_ _ZN10cc1_plugin16marshall_intlikeEPNS_10connectionEy 136
_ZN10cc1_plugin4callIyimPKcEENS_6statusEPNS_10connectionES2_PT_T0_T1_T2_ _ZN10cc1_plugin16marshall_intlikeEPNS_10connectionEy 151
_ZN10cc1_plugin4callIyimPKcEENS_6statusEPNS_10connectionES2_PT_T0_T1_T2_ _ZN10cc1_plugin16marshall_intlikeEPNS_10connectionEy 166
_ZN10cc1_plugin4callIyimPKcEENS_6statusEPNS_10connectionES2_PT_T0_T1_T2_ _ZN10cc1_plugin8marshallEPNS_10connectionEPKc 181
_ZN10cc1_plugin4callIyimPKcEENS_6statusEPNS_10connectionES2_PT_T0_T1_T2_ _ZN10cc1_plugin10connection15wait_for_resultEv 193
_ZN10cc1_plugin4callIyimPKcEENS_6statusEPNS_10connectionES2_PT_T0_T1_T2_ _ZN10cc1_plugin10unmarshallIyEENS_6statusEPNS_10connectionEPT_ 212
_Z3rpcIyLZN10cc1_plugin1c8int_typeEEimPKcET_P13gcc_c_contextT1_T2_T3_ _ZN10cc1_plugin1c8int_typeE 16
_Z3rpcIyLZN10cc1_plugin1c8int_typeEEimPKcET_P13gcc_c_contextT1_T2_T3_ _ZN10cc1_plugin4callIyimPKcEENS_6statusEPNS_10connectionES2_PT_T0_T1_T2_ 29
_ZN10cc1_plugin4callIyPKcEENS_6statusEPNS_10connectionES2_PT_T0_ _ZN10cc1_plugin10connection4sendEc 42
_ZN10cc1_plugin4callIyPKcEENS_6statusEPNS_10connectionES2_PT_T0_ _ZN10cc1_plugin8marshallEPNS_10connectionEPKc 87
_ZN10cc1_plugin4callIyPKcEENS_6statusEPNS_10connectionES2_PT_T0_ _ZN10cc1_plugin16marshall_intlikeEPNS_10connectionEy 104
_ZN10cc1_plugin4callIyPKcEENS_6statusEPNS_10connectionES2_PT_T0_ _ZN10cc1_plugin8marshallEPNS_10connectionEPKc 119
_ZN10cc1_plugin4callIyPKcEENS_6statusEPNS_10connectionES2_PT_T0_ _ZN10cc1_plugin10connection15wait_for_resultEv 131
_ZN10cc1_plugin4callIyPKcEENS_6statusEPNS_10connectionES2_PT_T0_ _ZN10cc1_plugin10unmarshallIyEENS_6statusEPNS_10connectionEPT_ 146
_Z3rpcIyLZN10cc1_plugin1c5errorEEPKcET_P13gcc_c_contextT1_ _ZN10cc1_plugin1c5errorE 14
_Z3rpcIyLZN10cc1_plugin1c5errorEEPKcET_P13gcc_c_contextT1_ _ZN10cc1_plugin4callIyPKcEENS_6statusEPNS_10connectionES2_PT_T0_ 24
_ZN10cc1_plugin4callIyyiEENS_6statusEPNS_10connectionEPKcPT_T0_T1_ _ZN10cc1_plugin10connection4sendEc 50
_ZN10cc1_plugin4callIyyiEENS_6statusEPNS_10connectionEPKcPT_T0_T1_ _ZN10cc1_plugin8marshallEPNS_10connectionEPKc 103
_ZN10cc1_plugin4callIyyiEENS_6statusEPNS_10connectionEPKcPT_T0_T1_ _ZN10cc1_plugin16marshall_intlikeEPNS_10connectionEy 120
_ZN10cc1_plugin4callIyyiEENS_6statusEPNS_10connectionEPKcPT_T0_T1_ _ZN10cc1_plugin16marshall_intlikeEPNS_10connectionEy 135
_ZN10cc1_plugin4callIyyiEENS_6statusEPNS_10connectionEPKcPT_T0_T1_ _ZN10cc1_plugin16marshall_intlikeEPNS_10connectionEy 150
_ZN10cc1_plugin4callIyyiEENS_6statusEPNS_10connectionEPKcPT_T0_T1_ _ZN10cc1_plugin10connection15wait_for_resultEv 162
_ZN10cc1_plugin4callIyyiEENS_6statusEPNS_10connectionEPKcPT_T0_T1_ _ZN10cc1_plugin10unmarshallIyEENS_6statusEPNS_10connectionEPT_ 177
_Z3rpcIyLZN10cc1_plugin1c17build_vector_typeEEyiET_P13gcc_c_contextT1_T2_ _ZN10cc1_plugin1c17build_vector_typeE 14
_Z3rpcIyLZN10cc1_plugin1c17build_vector_typeEEyiET_P13gcc_c_contextT1_T2_ _ZN10cc1_plugin4callIyyiEENS_6statusEPNS_10connectionEPKcPT_T0_T1_ 27
_Z3rpcIyLZN10cc1_plugin1c16build_array_typeEEyiET_P13gcc_c_contextT1_T2_ _ZN10cc1_plugin1c16build_array_typeE 14
_Z3rpcIyLZN10cc1_plugin1c16build_array_typeEEyiET_P13gcc_c_contextT1_T2_ _ZN10cc1_plugin4callIyyiEENS_6statusEPNS_10connectionEPKcPT_T0_T1_ 27
_ZN10cc1_plugin4callIyyEENS_6statusEPNS_10connectionEPKcPT_T0_ _ZN10cc1_plugin10connection4sendEc 42
_ZN10cc1_plugin4callIyyEENS_6statusEPNS_10connectionEPKcPT_T0_ _ZN10cc1_plugin8marshallEPNS_10connectionEPKc 87
_ZN10cc1_plugin4callIyyEENS_6statusEPNS_10connectionEPKcPT_T0_ _ZN10cc1_plugin16marshall_intlikeEPNS_10connectionEy 104
_ZN10cc1_plugin4callIyyEENS_6statusEPNS_10connectionEPKcPT_T0_ _ZN10cc1_plugin16marshall_intlikeEPNS_10connectionEy 119
_ZN10cc1_plugin4callIyyEENS_6statusEPNS_10connectionEPKcPT_T0_ _ZN10cc1_plugin10connection15wait_for_resultEv 131
_ZN10cc1_plugin4callIyyEENS_6statusEPNS_10connectionEPKcPT_T0_ _ZN10cc1_plugin10unmarshallIyEENS_6statusEPNS_10connectionEPT_ 146
_Z3rpcIyLZN10cc1_plugin1c18build_complex_typeEEyET_P13gcc_c_contextT1_ _ZN10cc1_plugin1c18build_complex_typeE 14
_Z3rpcIyLZN10cc1_plugin1c18build_complex_typeEEyET_P13gcc_c_contextT1_ _ZN10cc1_plugin4callIyyEENS_6statusEPNS_10connectionEPKcPT_T0_ 24
_Z3rpcIyLZN10cc1_plugin1c15build_enum_typeEEyET_P13gcc_c_contextT1_ _ZN10cc1_plugin1c15build_enum_typeE 14
_Z3rpcIyLZN10cc1_plugin1c15build_enum_typeEEyET_P13gcc_c_contextT1_ _ZN10cc1_plugin4callIyyEENS_6statusEPNS_10connectionEPKcPT_T0_ 24
_Z3rpcIyLZN10cc1_plugin1c18build_pointer_typeEEyET_P13gcc_c_contextT1_ _ZN10cc1_plugin1c18build_pointer_typeE 14
_Z3rpcIyLZN10cc1_plugin1c18build_pointer_typeEEyET_P13gcc_c_contextT1_ _ZN10cc1_plugin4callIyyEENS_6statusEPNS_10connectionEPKcPT_T0_ 24
_ZN10cc1_plugin4callIyy14gcc_qualifiersEENS_6statusEPNS_10connectionEPKcPT_T0_T1_ _ZN10cc1_plugin10connection4sendEc 50
_ZN10cc1_plugin4callIyy14gcc_qualifiersEENS_6statusEPNS_10connectionEPKcPT_T0_T1_ _ZN10cc1_plugin8marshallEPNS_10connectionEPKc 103
_ZN10cc1_plugin4callIyy14gcc_qualifiersEENS_6statusEPNS_10connectionEPKcPT_T0_T1_ _ZN10cc1_plugin16marshall_intlikeEPNS_10connectionEy 120
_ZN10cc1_plugin4callIyy14gcc_qualifiersEENS_6statusEPNS_10connectionEPKcPT_T0_T1_ _ZN10cc1_plugin16marshall_intlikeEPNS_10connectionEy 135
_ZN10cc1_plugin4callIyy14gcc_qualifiersEENS_6statusEPNS_10connectionEPKcPT_T0_T1_ _ZN10cc1_plugin16marshall_intlikeEPNS_10connectionEy 150
_ZN10cc1_plugin4callIyy14gcc_qualifiersEENS_6statusEPNS_10connectionEPKcPT_T0_T1_ _ZN10cc1_plugin10connection15wait_for_resultEv 162
_ZN10cc1_plugin4callIyy14gcc_qualifiersEENS_6statusEPNS_10connectionEPKcPT_T0_T1_ _ZN10cc1_plugin10unmarshallIyEENS_6statusEPNS_10connectionEPT_ 177
_Z3rpcIyLZN10cc1_plugin1c20build_qualified_typeEEy14gcc_qualifiersET_P13gcc_c_contextT1_T2_ _ZN10cc1_plugin1c20build_qualified_typeE 14
_Z3rpcIyLZN10cc1_plugin1c20build_qualified_typeEEy14gcc_qualifiersET_P13gcc_c_contextT1_T2_ _ZN10cc1_plugin4callIyy14gcc_qualifiersEENS_6statusEPNS_10connectionEPKcPT_T0_T1_ 27
_ZN10cc1_plugin4callIyyPKcEENS_6statusEPNS_10connectionES2_PT_T0_T1_ _ZN10cc1_plugin10connection4sendEc 50
_ZN10cc1_plugin4callIyyPKcEENS_6statusEPNS_10connectionES2_PT_T0_T1_ _ZN10cc1_plugin8marshallEPNS_10connectionEPKc 103
_ZN10cc1_plugin4callIyyPKcEENS_6statusEPNS_10connectionES2_PT_T0_T1_ _ZN10cc1_plugin16marshall_intlikeEPNS_10connectionEy 120
_ZN10cc1_plugin4callIyyPKcEENS_6statusEPNS_10connectionES2_PT_T0_T1_ _ZN10cc1_plugin16marshall_intlikeEPNS_10connectionEy 135
_ZN10cc1_plugin4callIyyPKcEENS_6statusEPNS_10connectionES2_PT_T0_T1_ _ZN10cc1_plugin8marshallEPNS_10connectionEPKc 150
_ZN10cc1_plugin4callIyyPKcEENS_6statusEPNS_10connectionES2_PT_T0_T1_ _ZN10cc1_plugin10connection15wait_for_resultEv 162
_ZN10cc1_plugin4callIyyPKcEENS_6statusEPNS_10connectionES2_PT_T0_T1_ _ZN10cc1_plugin10unmarshallIyEENS_6statusEPNS_10connectionEPT_ 177
_Z3rpcIyLZN10cc1_plugin1c20build_vla_array_typeEEyPKcET_P13gcc_c_contextT1_T2_ _ZN10cc1_plugin1c20build_vla_array_typeE 14
_Z3rpcIyLZN10cc1_plugin1c20build_vla_array_typeEEyPKcET_P13gcc_c_contextT1_T2_ _ZN10cc1_plugin4callIyyPKcEENS_6statusEPNS_10connectionES2_PT_T0_T1_ 27
_ZN10cc1_plugin4callIymEENS_6statusEPNS_10connectionEPKcPT_T0_ _ZN10cc1_plugin10connection4sendEc 42
_ZN10cc1_plugin4callIymEENS_6statusEPNS_10connectionEPKcPT_T0_ _ZN10cc1_plugin8marshallEPNS_10connectionEPKc 87
_ZN10cc1_plugin4callIymEENS_6statusEPNS_10connectionEPKcPT_T0_ _ZN10cc1_plugin16marshall_intlikeEPNS_10connectionEy 104
_ZN10cc1_plugin4callIymEENS_6statusEPNS_10connectionEPKcPT_T0_ _ZN10cc1_plugin16marshall_intlikeEPNS_10connectionEy 119
_ZN10cc1_plugin4callIymEENS_6statusEPNS_10connectionEPKcPT_T0_ _ZN10cc1_plugin10connection15wait_for_resultEv 131
_ZN10cc1_plugin4callIymEENS_6statusEPNS_10connectionEPKcPT_T0_ _ZN10cc1_plugin10unmarshallIyEENS_6statusEPNS_10connectionEPT_ 146
_Z3rpcIyLZN10cc1_plugin1c13float_type_v0EEmET_P13gcc_c_contextT1_ _ZN10cc1_plugin1c13float_type_v0E 14
_Z3rpcIyLZN10cc1_plugin1c13float_type_v0EEmET_P13gcc_c_contextT1_ _ZN10cc1_plugin4callIymEENS_6statusEPNS_10connectionEPKcPT_T0_ 24
_ZN10cc1_plugin4callIyimEENS_6statusEPNS_10connectionEPKcPT_T0_T1_ _ZN10cc1_plugin10connection4sendEc 50
_ZN10cc1_plugin4callIyimEENS_6statusEPNS_10connectionEPKcPT_T0_T1_ _ZN10cc1_plugin8marshallEPNS_10connectionEPKc 103
_ZN10cc1_plugin4callIyimEENS_6statusEPNS_10connectionEPKcPT_T0_T1_ _ZN10cc1_plugin16marshall_intlikeEPNS_10connectionEy 120
_ZN10cc1_plugin4callIyimEENS_6statusEPNS_10connectionEPKcPT_T0_T1_ _ZN10cc1_plugin16marshall_intlikeEPNS_10connectionEy 135
_ZN10cc1_plugin4callIyimEENS_6statusEPNS_10connectionEPKcPT_T0_T1_ _ZN10cc1_plugin16marshall_intlikeEPNS_10connectionEy 150
_ZN10cc1_plugin4callIyimEENS_6statusEPNS_10connectionEPKcPT_T0_T1_ _ZN10cc1_plugin10connection15wait_for_resultEv 162
_ZN10cc1_plugin4callIyimEENS_6statusEPNS_10connectionEPKcPT_T0_T1_ _ZN10cc1_plugin10unmarshallIyEENS_6statusEPNS_10connectionEPT_ 177
_Z3rpcIyLZN10cc1_plugin1c11int_type_v0EEimET_P13gcc_c_contextT1_T2_ _ZN10cc1_plugin1c11int_type_v0E 13
_Z3rpcIyLZN10cc1_plugin1c11int_type_v0EEimET_P13gcc_c_contextT1_T2_ _ZN10cc1_plugin4callIyimEENS_6statusEPNS_10connectionEPKcPT_T0_T1_ 26
_ZN10cc1_plugin4callIyPKc17gcc_c_symbol_kindyS2_yS2_jEENS_6statusEPNS_10connectionES2_PT_T0_T1_T2_T3_T4_T5_T6_ _ZN10cc1_plugin10connection4sendEc 58
_ZN10cc1_plugin4callIyPKc17gcc_c_symbol_kindyS2_yS2_jEENS_6statusEPNS_10connectionES2_PT_T0_T1_T2_T3_T4_T5_T6_ _ZN10cc1_plugin8marshallEPNS_10connectionEPKc 119
_ZN10cc1_plugin4callIyPKc17gcc_c_symbol_kindyS2_yS2_jEENS_6statusEPNS_10connectionES2_PT_T0_T1_T2_T3_T4_T5_T6_ _ZN10cc1_plugin16marshall_intlikeEPNS_10connectionEy 136
_ZN10cc1_plugin4callIyPKc17gcc_c_symbol_kindyS2_yS2_jEENS_6statusEPNS_10connectionES2_PT_T0_T1_T2_T3_T4_T5_T6_ _ZN10cc1_plugin8marshallEPNS_10connectionEPKc 151
_ZN10cc1_plugin4callIyPKc17gcc_c_symbol_kindyS2_yS2_jEENS_6statusEPNS_10connectionES2_PT_T0_T1_T2_T3_T4_T5_T6_ _ZN10cc1_plugin16marshall_intlikeEPNS_10connectionEy 166
_ZN10cc1_plugin4callIyPKc17gcc_c_symbol_kindyS2_yS2_jEENS_6statusEPNS_10connectionES2_PT_T0_T1_T2_T3_T4_T5_T6_ _ZN10cc1_plugin16marshall_intlikeEPNS_10connectionEy 181
_ZN10cc1_plugin4callIyPKc17gcc_c_symbol_kindyS2_yS2_jEENS_6statusEPNS_10connectionES2_PT_T0_T1_T2_T3_T4_T5_T6_ _ZN10cc1_plugin8marshallEPNS_10connectionEPKc 198
_ZN10cc1_plugin4callIyPKc17gcc_c_symbol_kindyS2_yS2_jEENS_6statusEPNS_10connectionES2_PT_T0_T1_T2_T3_T4_T5_T6_ _ZN10cc1_plugin16marshall_intlikeEPNS_10connectionEy 219
_ZN10cc1_plugin4callIyPKc17gcc_c_symbol_kindyS2_yS2_jEENS_6statusEPNS_10connectionES2_PT_T0_T1_T2_T3_T4_T5_T6_ _ZN10cc1_plugin8marshallEPNS_10connectionEPKc 240
_ZN10cc1_plugin4callIyPKc17gcc_c_symbol_kindyS2_yS2_jEENS_6statusEPNS_10connectionES2_PT_T0_T1_T2_T3_T4_T5_T6_ _ZN10cc1_plugin16marshall_intlikeEPNS_10connectionEy 260
_ZN10cc1_plugin4callIyPKc17gcc_c_symbol_kindyS2_yS2_jEENS_6statusEPNS_10connectionES2_PT_T0_T1_T2_T3_T4_T5_T6_ _ZN10cc1_plugin10connection15wait_for_resultEv 276
_ZN10cc1_plugin4callIyPKc17gcc_c_symbol_kindyS2_yS2_jEENS_6statusEPNS_10connectionES2_PT_T0_T1_T2_T3_T4_T5_T6_ _ZN10cc1_plugin10unmarshallIyEENS_6statusEPNS_10connectionEPT_ 295
_Z3rpcIyLZN10cc1_plugin1c10build_declEEPKc17gcc_c_symbol_kindyS3_yS3_jET_P13gcc_c_contextT1_T2_T3_T4_T5_T6_T7_ _ZN10cc1_plugin1c10build_declE 29
_Z3rpcIyLZN10cc1_plugin1c10build_declEEPKc17gcc_c_symbol_kindyS3_yS3_jET_P13gcc_c_contextT1_T2_T3_T4_T5_T6_T7_ _ZN10cc1_plugin4callIyPKc17gcc_c_symbol_kindyS2_yS2_jEENS_6statusEPNS_10connectionES2_PT_T0_T1_T2_T3_T4_T5_T6_ 61
_ZN10cc1_plugin10unmarshallIiEENS_6statusEPNS_10connectionEPT_ _ZN10cc1_plugin18unmarshall_intlikeEPNS_10connectionEPy 14
_ZN10cc1_plugin4callIiyPKcmS2_jEENS_6statusEPNS_10connectionES2_PT_T0_T1_T2_T3_T4_ _ZN10cc1_plugin10connection4sendEc 58
_ZN10cc1_plugin4callIiyPKcmS2_jEENS_6statusEPNS_10connectionES2_PT_T0_T1_T2_T3_T4_ _ZN10cc1_plugin8marshallEPNS_10connectionEPKc 119
_ZN10cc1_plugin4callIiyPKcmS2_jEENS_6statusEPNS_10connectionES2_PT_T0_T1_T2_T3_T4_ _ZN10cc1_plugin16marshall_intlikeEPNS_10connectionEy 136
_ZN10cc1_plugin4callIiyPKcmS2_jEENS_6statusEPNS_10connectionES2_PT_T0_T1_T2_T3_T4_ _ZN10cc1_plugin16marshall_intlikeEPNS_10connectionEy 151
_ZN10cc1_plugin4callIiyPKcmS2_jEENS_6statusEPNS_10connectionES2_PT_T0_T1_T2_T3_T4_ _ZN10cc1_plugin8marshallEPNS_10connectionEPKc 166
_ZN10cc1_plugin4callIiyPKcmS2_jEENS_6statusEPNS_10connectionES2_PT_T0_T1_T2_T3_T4_ _ZN10cc1_plugin16marshall_intlikeEPNS_10connectionEy 181
_ZN10cc1_plugin4callIiyPKcmS2_jEENS_6statusEPNS_10connectionES2_PT_T0_T1_T2_T3_T4_ _ZN10cc1_plugin8marshallEPNS_10connectionEPKc 198
_ZN10cc1_plugin4callIiyPKcmS2_jEENS_6statusEPNS_10connectionES2_PT_T0_T1_T2_T3_T4_ _ZN10cc1_plugin16marshall_intlikeEPNS_10connectionEy 218
_ZN10cc1_plugin4callIiyPKcmS2_jEENS_6statusEPNS_10connectionES2_PT_T0_T1_T2_T3_T4_ _ZN10cc1_plugin10connection15wait_for_resultEv 234
_ZN10cc1_plugin4callIiyPKcmS2_jEENS_6statusEPNS_10connectionES2_PT_T0_T1_T2_T3_T4_ _ZN10cc1_plugin10unmarshallIiEENS_6statusEPNS_10connectionEPT_ 253
_Z3rpcIiLZN10cc1_plugin1c14build_constantEEyPKcmS3_jET_P13gcc_c_contextT1_T2_T3_T4_T5_ _ZN10cc1_plugin1c14build_constantE 25
_Z3rpcIiLZN10cc1_plugin1c14build_constantEEyPKcmS3_jET_P13gcc_c_contextT1_T2_T3_T4_T5_ _ZN10cc1_plugin4callIiyPKcmS2_jEENS_6statusEPNS_10connectionES2_PT_T0_T1_T2_T3_T4_ 42
_ZN10cc1_plugin4callIiyEENS_6statusEPNS_10connectionEPKcPT_T0_ _ZN10cc1_plugin10connection4sendEc 42
_ZN10cc1_plugin4callIiyEENS_6statusEPNS_10connectionEPKcPT_T0_ _ZN10cc1_plugin8marshallEPNS_10connectionEPKc 87
_ZN10cc1_plugin4callIiyEENS_6statusEPNS_10connectionEPKcPT_T0_ _ZN10cc1_plugin16marshall_intlikeEPNS_10connectionEy 104
_ZN10cc1_plugin4callIiyEENS_6statusEPNS_10connectionEPKcPT_T0_ _ZN10cc1_plugin16marshall_intlikeEPNS_10connectionEy 119
_ZN10cc1_plugin4callIiyEENS_6statusEPNS_10connectionEPKcPT_T0_ _ZN10cc1_plugin10connection15wait_for_resultEv 131
_ZN10cc1_plugin4callIiyEENS_6statusEPNS_10connectionEPKcPT_T0_ _ZN10cc1_plugin10unmarshallIiEENS_6statusEPNS_10connectionEPT_ 146
_Z3rpcIiLZN10cc1_plugin1c16finish_enum_typeEEyET_P13gcc_c_contextT1_ _ZN10cc1_plugin1c16finish_enum_typeE 14
_Z3rpcIiLZN10cc1_plugin1c16finish_enum_typeEEyET_P13gcc_c_contextT1_ _ZN10cc1_plugin4callIiyEENS_6statusEPNS_10connectionEPKcPT_T0_ 24
_ZN10cc1_plugin4callIiyPKcmEENS_6statusEPNS_10connectionES2_PT_T0_T1_T2_ _ZN10cc1_plugin10connection4sendEc 58
_ZN10cc1_plugin4callIiyPKcmEENS_6statusEPNS_10connectionES2_PT_T0_T1_T2_ _ZN10cc1_plugin8marshallEPNS_10connectionEPKc 119
_ZN10cc1_plugin4callIiyPKcmEENS_6statusEPNS_10connectionES2_PT_T0_T1_T2_ _ZN10cc1_plugin16marshall_intlikeEPNS_10connectionEy 136
_ZN10cc1_plugin4callIiyPKcmEENS_6statusEPNS_10connectionES2_PT_T0_T1_T2_ _ZN10cc1_plugin16marshall_intlikeEPNS_10connectionEy 151
_ZN10cc1_plugin4callIiyPKcmEENS_6statusEPNS_10connectionES2_PT_T0_T1_T2_ _ZN10cc1_plugin8marshallEPNS_10connectionEPKc 166
_ZN10cc1_plugin4callIiyPKcmEENS_6statusEPNS_10connectionES2_PT_T0_T1_T2_ _ZN10cc1_plugin16marshall_intlikeEPNS_10connectionEy 181
_ZN10cc1_plugin4callIiyPKcmEENS_6statusEPNS_10connectionES2_PT_T0_T1_T2_ _ZN10cc1_plugin10connection15wait_for_resultEv 193
_ZN10cc1_plugin4callIiyPKcmEENS_6statusEPNS_10connectionES2_PT_T0_T1_T2_ _ZN10cc1_plugin10unmarshallIiEENS_6statusEPNS_10connectionEPT_ 212
_Z3rpcIiLZN10cc1_plugin1c23build_add_enum_constantEEyPKcmET_P13gcc_c_contextT1_T2_T3_ _ZN10cc1_plugin1c23build_add_enum_constantE 17
_Z3rpcIiLZN10cc1_plugin1c23build_add_enum_constantEEyPKcmET_P13gcc_c_contextT1_T2_T3_ _ZN10cc1_plugin4callIiyPKcmEENS_6statusEPNS_10connectionES2_PT_T0_T1_T2_ 30
_ZN10cc1_plugin4callIiymEENS_6statusEPNS_10connectionEPKcPT_T0_T1_ _ZN10cc1_plugin10connection4sendEc 50
_ZN10cc1_plugin4callIiymEENS_6statusEPNS_10connectionEPKcPT_T0_T1_ _ZN10cc1_plugin8marshallEPNS_10connectionEPKc 103
_ZN10cc1_plugin4callIiymEENS_6statusEPNS_10connectionEPKcPT_T0_T1_ _ZN10cc1_plugin16marshall_intlikeEPNS_10connectionEy 120
_ZN10cc1_plugin4callIiymEENS_6statusEPNS_10connectionEPKcPT_T0_T1_ _ZN10cc1_plugin16marshall_intlikeEPNS_10connectionEy 135
_ZN10cc1_plugin4callIiymEENS_6statusEPNS_10connectionEPKcPT_T0_T1_ _ZN10cc1_plugin16marshall_intlikeEPNS_10connectionEy 150
_ZN10cc1_plugin4callIiymEENS_6statusEPNS_10connectionEPKcPT_T0_T1_ _ZN10cc1_plugin10connection15wait_for_resultEv 162
_ZN10cc1_plugin4callIiymEENS_6statusEPNS_10connectionEPKcPT_T0_T1_ _ZN10cc1_plugin10unmarshallIiEENS_6statusEPNS_10connectionEPT_ 177
_Z3rpcIiLZN10cc1_plugin1c22finish_record_or_unionEEymET_P13gcc_c_contextT1_T2_ _ZN10cc1_plugin1c22finish_record_or_unionE 14
_Z3rpcIiLZN10cc1_plugin1c22finish_record_or_unionEEymET_P13gcc_c_contextT1_T2_ _ZN10cc1_plugin4callIiymEENS_6statusEPNS_10connectionEPKcPT_T0_T1_ 27
_ZN10cc1_plugin4callIiyPKcymmEENS_6statusEPNS_10connectionES2_PT_T0_T1_T2_T3_T4_ _ZN10cc1_plugin10connection4sendEc 58
_ZN10cc1_plugin4callIiyPKcymmEENS_6statusEPNS_10connectionES2_PT_T0_T1_T2_T3_T4_ _ZN10cc1_plugin8marshallEPNS_10connectionEPKc 119
_ZN10cc1_plugin4callIiyPKcymmEENS_6statusEPNS_10connectionES2_PT_T0_T1_T2_T3_T4_ _ZN10cc1_plugin16marshall_intlikeEPNS_10connectionEy 136
_ZN10cc1_plugin4callIiyPKcymmEENS_6statusEPNS_10connectionES2_PT_T0_T1_T2_T3_T4_ _ZN10cc1_plugin16marshall_intlikeEPNS_10connectionEy 151
_ZN10cc1_plugin4callIiyPKcymmEENS_6statusEPNS_10connectionES2_PT_T0_T1_T2_T3_T4_ _ZN10cc1_plugin8marshallEPNS_10connectionEPKc 166
_ZN10cc1_plugin4callIiyPKcymmEENS_6statusEPNS_10connectionES2_PT_T0_T1_T2_T3_T4_ _ZN10cc1_plugin16marshall_intlikeEPNS_10connectionEy 181
_ZN10cc1_plugin4callIiyPKcymmEENS_6statusEPNS_10connectionES2_PT_T0_T1_T2_T3_T4_ _ZN10cc1_plugin16marshall_intlikeEPNS_10connectionEy 198
_ZN10cc1_plugin4callIiyPKcymmEENS_6statusEPNS_10connectionES2_PT_T0_T1_T2_T3_T4_ _ZN10cc1_plugin16marshall_intlikeEPNS_10connectionEy 219
_ZN10cc1_plugin4callIiyPKcymmEENS_6statusEPNS_10connectionES2_PT_T0_T1_T2_T3_T4_ _ZN10cc1_plugin10connection15wait_for_resultEv 235
_ZN10cc1_plugin4callIiyPKcymmEENS_6statusEPNS_10connectionES2_PT_T0_T1_T2_T3_T4_ _ZN10cc1_plugin10unmarshallIiEENS_6statusEPNS_10connectionEPT_ 254
_Z3rpcIiLZN10cc1_plugin1c15build_add_fieldEEyPKcymmET_P13gcc_c_contextT1_T2_T3_T4_T5_ _ZN10cc1_plugin1c15build_add_fieldE 25
_Z3rpcIiLZN10cc1_plugin1c15build_add_fieldEEyPKcymmET_P13gcc_c_contextT1_T2_T3_T4_T5_ _ZN10cc1_plugin4callIiyPKcymmEENS_6statusEPNS_10connectionES2_PT_T0_T1_T2_T3_T4_ 42
_ZN10cc1_plugin4callIiPKcyS2_jEENS_6statusEPNS_10connectionES2_PT_T0_T1_T2_T3_ _ZN10cc1_plugin10connection4sendEc 58
_ZN10cc1_plugin4callIiPKcyS2_jEENS_6statusEPNS_10connectionES2_PT_T0_T1_T2_T3_ _ZN10cc1_plugin8marshallEPNS_10connectionEPKc 119
_ZN10cc1_plugin4callIiPKcyS2_jEENS_6statusEPNS_10connectionES2_PT_T0_T1_T2_T3_ _ZN10cc1_plugin16marshall_intlikeEPNS_10connectionEy 136
_ZN10cc1_plugin4callIiPKcyS2_jEENS_6statusEPNS_10connectionES2_PT_T0_T1_T2_T3_ _ZN10cc1_plugin8marshallEPNS_10connectionEPKc 151
_ZN10cc1_plugin4callIiPKcyS2_jEENS_6statusEPNS_10connectionES2_PT_T0_T1_T2_T3_ _ZN10cc1_plugin16marshall_intlikeEPNS_10connectionEy 166
_ZN10cc1_plugin4callIiPKcyS2_jEENS_6statusEPNS_10connectionES2_PT_T0_T1_T2_T3_ _ZN10cc1_plugin8marshallEPNS_10connectionEPKc 181
_ZN10cc1_plugin4callIiPKcyS2_jEENS_6statusEPNS_10connectionES2_PT_T0_T1_T2_T3_ _ZN10cc1_plugin16marshall_intlikeEPNS_10connectionEy 197
_ZN10cc1_plugin4callIiPKcyS2_jEENS_6statusEPNS_10connectionES2_PT_T0_T1_T2_T3_ _ZN10cc1_plugin10connection15wait_for_resultEv 213
_ZN10cc1_plugin4callIiPKcyS2_jEENS_6statusEPNS_10connectionES2_PT_T0_T1_T2_T3_ _ZN10cc1_plugin10unmarshallIiEENS_6statusEPNS_10connectionEPT_ 232
_Z3rpcIiLZN10cc1_plugin1c7tagbindEEPKcyS3_jET_P13gcc_c_contextT1_T2_T3_T4_ _ZN10cc1_plugin1c7tagbindE 17
_Z3rpcIiLZN10cc1_plugin1c7tagbindEEPKcyS3_jET_P13gcc_c_contextT1_T2_T3_T4_ _ZN10cc1_plugin4callIiPKcyS2_jEENS_6statusEPNS_10connectionES2_PT_T0_T1_T2_T3_ 37
_ZN10cc1_plugin4callIiyiEENS_6statusEPNS_10connectionEPKcPT_T0_T1_ _ZN10cc1_plugin10connection4sendEc 50
_ZN10cc1_plugin4callIiyiEENS_6statusEPNS_10connectionEPKcPT_T0_T1_ _ZN10cc1_plugin8marshallEPNS_10connectionEPKc 103
_ZN10cc1_plugin4callIiyiEENS_6statusEPNS_10connectionEPKcPT_T0_T1_ _ZN10cc1_plugin16marshall_intlikeEPNS_10connectionEy 120
_ZN10cc1_plugin4callIiyiEENS_6statusEPNS_10connectionEPKcPT_T0_T1_ _ZN10cc1_plugin16marshall_intlikeEPNS_10connectionEy 135
_ZN10cc1_plugin4callIiyiEENS_6statusEPNS_10connectionEPKcPT_T0_T1_ _ZN10cc1_plugin16marshall_intlikeEPNS_10connectionEy 150
_ZN10cc1_plugin4callIiyiEENS_6statusEPNS_10connectionEPKcPT_T0_T1_ _ZN10cc1_plugin10connection15wait_for_resultEv 162
_ZN10cc1_plugin4callIiyiEENS_6statusEPNS_10connectionEPKcPT_T0_T1_ _ZN10cc1_plugin10unmarshallIiEENS_6statusEPNS_10connectionEPT_ 177
_Z3rpcIiLZN10cc1_plugin1c4bindEEyiET_P13gcc_c_contextT1_T2_ _ZN10cc1_plugin1c4bindE 14
_Z3rpcIiLZN10cc1_plugin1c4bindEEyiET_P13gcc_c_contextT1_T2_ _ZN10cc1_plugin4callIiyiEENS_6statusEPNS_10connectionEPKcPT_T0_T1_ 27
_ZN10cc1_plugin4callIyyPK14gcc_type_arrayiEENS_6statusEPNS_10connectionEPKcPT_T0_T1_T2_ _ZN10cc1_plugin10connection4sendEc 58
_ZN10cc1_plugin4callIyyPK14gcc_type_arrayiEENS_6statusEPNS_10connectionEPKcPT_T0_T1_T2_ _ZN10cc1_plugin8marshallEPNS_10connectionEPKc 119
_ZN10cc1_plugin4callIyyPK14gcc_type_arrayiEENS_6statusEPNS_10connectionEPKcPT_T0_T1_T2_ _ZN10cc1_plugin16marshall_intlikeEPNS_10connectionEy 136
_ZN10cc1_plugin4callIyyPK14gcc_type_arrayiEENS_6statusEPNS_10connectionEPKcPT_T0_T1_T2_ _ZN10cc1_plugin16marshall_intlikeEPNS_10connectionEy 151
_ZN10cc1_plugin4callIyyPK14gcc_type_arrayiEENS_6statusEPNS_10connectionEPKcPT_T0_T1_T2_ _ZN10cc1_plugin8marshallEPNS_10connectionEPK14gcc_type_array 166
_ZN10cc1_plugin4callIyyPK14gcc_type_arrayiEENS_6statusEPNS_10connectionEPKcPT_T0_T1_T2_ _ZN10cc1_plugin16marshall_intlikeEPNS_10connectionEy 181
_ZN10cc1_plugin4callIyyPK14gcc_type_arrayiEENS_6statusEPNS_10connectionEPKcPT_T0_T1_T2_ _ZN10cc1_plugin10connection15wait_for_resultEv 193
_ZN10cc1_plugin4callIyyPK14gcc_type_arrayiEENS_6statusEPNS_10connectionEPKcPT_T0_T1_T2_ _ZN10cc1_plugin10unmarshallIyEENS_6statusEPNS_10connectionEPT_ 212
_Z3rpcIyLZN10cc1_plugin1c19build_function_typeEEyPK14gcc_type_arrayiET_P13gcc_c_contextT1_T2_T3_ _ZN10cc1_plugin1c19build_function_typeE 17
_Z3rpcIyLZN10cc1_plugin1c19build_function_typeEEyPK14gcc_type_arrayiET_P13gcc_c_contextT1_T2_T3_ _ZN10cc1_plugin4callIyyPK14gcc_type_arrayiEENS_6statusEPNS_10connectionEPKcPT_T0_T1_T2_ 30
_ZN17libcc1_connectionD0Ev _ZTV17libcc1_connection 7
_ZN17libcc1_connectionD0Ev _ZN10cc1_plugin10connectionD2Ev 12
_ZN17libcc1_connectionD0Ev _ZdlPv 21
_ZN17libcc1_connectionD1Ev _ZTV17libcc1_connection 3
_ZN17libcc1_connectionD1Ev _ZN10cc1_plugin10connectionD2Ev 8
_ZNSs12_S_constructIPcEES0_T_S1_RKSaIcESt20forward_iterator_tag _ZNSs4_Rep20_S_empty_rep_storageE 31
_ZNSs12_S_constructIPcEES0_T_S1_RKSaIcESt20forward_iterator_tag _ZNSs4_Rep9_S_createEmmRKSaIcE 54
_ZNSs12_S_constructIPcEES0_T_S1_RKSaIcESt20forward_iterator_tag memcpy 81
_ZNSs12_S_constructIPcEES0_T_S1_RKSaIcESt20forward_iterator_tag _ZNSs4_Rep20_S_empty_rep_storageE 88
_ZNSs12_S_constructIPcEES0_T_S1_RKSaIcESt20forward_iterator_tag _ZSt19__throw_logic_errorPKc 155
_ZNSs12_S_constructIPcEES0_T_S1_RKSaIcESt20forward_iterator_tag _ZNSs4_Rep9_S_createEmmRKSaIcE 192
_ZNSt6vectorISsSaISsEED1Ev pthread_cancel 36
_ZNSt6vectorISsSaISsEED1Ev _ZNSs4_Rep20_S_empty_rep_storageE 58
_ZNSt6vectorISsSaISsEED1Ev _ZdlPv 83
_ZNSt6vectorISsSaISsEED1Ev _ZNSs4_Rep10_M_destroyERKSaIcE 123
_ZN6libcc123compiler_triplet_regexpD0Ev _ZTVN6libcc123compiler_triplet_regexpE 15
_ZN6libcc123compiler_triplet_regexpD0Ev _ZNSs4_Rep20_S_empty_rep_storageE 26
_ZN6libcc123compiler_triplet_regexpD0Ev _ZTVN6libcc18compilerE 35
_ZN6libcc123compiler_triplet_regexpD0Ev _ZdlPv 43
_ZN6libcc123compiler_triplet_regexpD0Ev pthread_cancel 54
_ZN6libcc123compiler_triplet_regexpD0Ev _ZNSs4_Rep10_M_destroyERKSaIcE 81
_ZN6libcc123compiler_triplet_regexpD1Ev _ZTVN6libcc123compiler_triplet_regexpE 15
_ZN6libcc123compiler_triplet_regexpD1Ev _ZNSs4_Rep20_S_empty_rep_storageE 26
_ZN6libcc123compiler_triplet_regexpD1Ev _ZTVN6libcc18compilerE 35
_ZN6libcc123compiler_triplet_regexpD1Ev pthread_cancel 46
_ZN6libcc123compiler_triplet_regexpD1Ev _ZNSs4_Rep10_M_destroyERKSaIcE 73
_ZN6libcc124compiler_driver_filenameD0Ev _ZTVN6libcc124compiler_driver_filenameE 15
_ZN6libcc124compiler_driver_filenameD0Ev _ZNSs4_Rep20_S_empty_rep_storageE 26
_ZN6libcc124compiler_driver_filenameD0Ev _ZTVN6libcc18compilerE 35
_ZN6libcc124compiler_driver_filenameD0Ev _ZdlPv 43
_ZN6libcc124compiler_driver_filenameD0Ev pthread_cancel 54
_ZN6libcc124compiler_driver_filenameD0Ev _ZNSs4_Rep10_M_destroyERKSaIcE 81
_ZN6libcc124compiler_driver_filenameD1Ev _ZTVN6libcc124compiler_driver_filenameE 15
_ZN6libcc124compiler_driver_filenameD1Ev _ZNSs4_Rep20_S_empty_rep_storageE 26
_ZN6libcc124compiler_driver_filenameD1Ev _ZTVN6libcc18compilerE 35
_ZN6libcc124compiler_driver_filenameD1Ev pthread_cancel 46
_ZN6libcc124compiler_driver_filenameD1Ev _ZNSs4_Rep10_M_destroyERKSaIcE 73
_ZNSt6vectorISsSaISsEE13_M_insert_auxEN9__gnu_cxx17__normal_iteratorIPSsS1_EERKSs _ZNSsC1ERKSs 51
_ZNSt6vectorISsSaISsEE13_M_insert_auxEN9__gnu_cxx17__normal_iteratorIPSsS1_EERKSs _ZNSsC1ERKSs 79
_ZNSt6vectorISsSaISsEE13_M_insert_auxEN9__gnu_cxx17__normal_iteratorIPSsS1_EERKSs _ZNSs6assignERKSs 124
_ZNSt6vectorISsSaISsEE13_M_insert_auxEN9__gnu_cxx17__normal_iteratorIPSsS1_EERKSs _ZNSs6assignERKSs 144
_ZNSt6vectorISsSaISsEE13_M_insert_auxEN9__gnu_cxx17__normal_iteratorIPSsS1_EERKSs _ZNSs4_Rep20_S_empty_rep_storageE 160
_ZNSt6vectorISsSaISsEE13_M_insert_auxEN9__gnu_cxx17__normal_iteratorIPSsS1_EERKSs _Znwm 259
_ZNSt6vectorISsSaISsEE13_M_insert_auxEN9__gnu_cxx17__normal_iteratorIPSsS1_EERKSs _ZNSsC1ERKSs 292
_ZNSt6vectorISsSaISsEE13_M_insert_auxEN9__gnu_cxx17__normal_iteratorIPSsS1_EERKSs _ZNSsC1ERKSs 332
_ZNSt6vectorISsSaISsEE13_M_insert_auxEN9__gnu_cxx17__normal_iteratorIPSsS1_EERKSs _ZNSsC1ERKSs 396
_ZNSt6vectorISsSaISsEE13_M_insert_auxEN9__gnu_cxx17__normal_iteratorIPSsS1_EERKSs pthread_cancel 426
_ZNSt6vectorISsSaISsEE13_M_insert_auxEN9__gnu_cxx17__normal_iteratorIPSsS1_EERKSs _ZNSs4_Rep20_S_empty_rep_storageE 459
_ZNSt6vectorISsSaISsEE13_M_insert_auxEN9__gnu_cxx17__normal_iteratorIPSsS1_EERKSs _ZdlPv 491
_ZNSt6vectorISsSaISsEE13_M_insert_auxEN9__gnu_cxx17__normal_iteratorIPSsS1_EERKSs pthread_cancel 626
_ZNSt6vectorISsSaISsEE13_M_insert_auxEN9__gnu_cxx17__normal_iteratorIPSsS1_EERKSs _ZNSs4_Rep10_M_destroyERKSaIcE 657
_ZNSt6vectorISsSaISsEE13_M_insert_auxEN9__gnu_cxx17__normal_iteratorIPSsS1_EERKSs _ZNSsD1Ev 673
_ZNSt6vectorISsSaISsEE13_M_insert_auxEN9__gnu_cxx17__normal_iteratorIPSsS1_EERKSs _Unwind_Resume 681
_ZNSt6vectorISsSaISsEE13_M_insert_auxEN9__gnu_cxx17__normal_iteratorIPSsS1_EERKSs _Unwind_Resume 689
_ZNSt6vectorISsSaISsEE13_M_insert_auxEN9__gnu_cxx17__normal_iteratorIPSsS1_EERKSs _ZNSs4_Rep10_M_destroyERKSaIcE 739
_ZNSt6vectorISsSaISsEE13_M_insert_auxEN9__gnu_cxx17__normal_iteratorIPSsS1_EERKSs __cxa_begin_catch 762
_ZNSt6vectorISsSaISsEE13_M_insert_auxEN9__gnu_cxx17__normal_iteratorIPSsS1_EERKSs _ZNSsD1Ev 780
_ZNSt6vectorISsSaISsEE13_M_insert_auxEN9__gnu_cxx17__normal_iteratorIPSsS1_EERKSs __cxa_end_catch 805
_ZNSt6vectorISsSaISsEE13_M_insert_auxEN9__gnu_cxx17__normal_iteratorIPSsS1_EERKSs __cxa_begin_catch 816
_ZNSt6vectorISsSaISsEE13_M_insert_auxEN9__gnu_cxx17__normal_iteratorIPSsS1_EERKSs _ZNSsD1Ev 839
_ZNSt6vectorISsSaISsEE13_M_insert_auxEN9__gnu_cxx17__normal_iteratorIPSsS1_EERKSs __cxa_rethrow 850
_ZNSt6vectorISsSaISsEE13_M_insert_auxEN9__gnu_cxx17__normal_iteratorIPSsS1_EERKSs __cxa_end_catch 858
_ZNSt6vectorISsSaISsEE13_M_insert_auxEN9__gnu_cxx17__normal_iteratorIPSsS1_EERKSs _Unwind_Resume 866
_ZNSt6vectorISsSaISsEE13_M_insert_auxEN9__gnu_cxx17__normal_iteratorIPSsS1_EERKSs _ZNSsD1Ev 876
_ZNSt6vectorISsSaISsEE13_M_insert_auxEN9__gnu_cxx17__normal_iteratorIPSsS1_EERKSs _ZdlPv 889
_ZNSt6vectorISsSaISsEE13_M_insert_auxEN9__gnu_cxx17__normal_iteratorIPSsS1_EERKSs __cxa_rethrow 894
_ZNSt6vectorISsSaISsEE13_M_insert_auxEN9__gnu_cxx17__normal_iteratorIPSsS1_EERKSs __cxa_begin_catch 905
_ZNSt6vectorISsSaISsEE13_M_insert_auxEN9__gnu_cxx17__normal_iteratorIPSsS1_EERKSs _ZNSsD1Ev 918
_ZNSt6vectorISsSaISsEE13_M_insert_auxEN9__gnu_cxx17__normal_iteratorIPSsS1_EERKSs __cxa_rethrow 945
_ZN10cc1_plugin8callbackIiXadL_ZN12_GLOBAL__N_119cp_call_leave_scopeEPNS_10connectionEEEEENS_6statusES3_ _ZN10cc1_plugin16unmarshall_checkEPNS_10connectionEy 7
_ZN10cc1_plugin8callbackIiXadL_ZN12_GLOBAL__N_119cp_call_leave_scopeEPNS_10connectionEEEEENS_6statusES3_ _ZN10cc1_plugin10connection4sendEc 47
_ZN10cc1_plugin8callbackIiXadL_ZN12_GLOBAL__N_119cp_call_leave_scopeEPNS_10connectionEEEEENS_6statusES3_ _ZN10cc1_plugin16marshall_intlikeEPNS_10connectionEy 65
_ZN10cc1_plugin8callbackIiXadL_ZN12_GLOBAL__N_119cp_call_enter_scopeEPNS_10connectionEEEEENS_6statusES3_ _ZN10cc1_plugin16unmarshall_checkEPNS_10connectionEy 7
_ZN10cc1_plugin8callbackIiXadL_ZN12_GLOBAL__N_119cp_call_enter_scopeEPNS_10connectionEEEEENS_6statusES3_ _ZN10cc1_plugin10connection4sendEc 47
_ZN10cc1_plugin8callbackIiXadL_ZN12_GLOBAL__N_119cp_call_enter_scopeEPNS_10connectionEEEEENS_6statusES3_ _ZN10cc1_plugin16marshall_intlikeEPNS_10connectionEy 65
_ZN10cc1_plugin8callbackIyPKcXadL_ZN12_GLOBAL__N_122cp_call_symbol_addressEPNS_10connectionES2_EEEENS_6statusES5_ _ZN10cc1_plugin16unmarshall_checkEPNS_10connectionEy 31
_ZN10cc1_plugin8callbackIyPKcXadL_ZN12_GLOBAL__N_122cp_call_symbol_addressEPNS_10connectionES2_EEEENS_6statusES5_ _ZdaPv 51
_ZN10cc1_plugin8callbackIyPKcXadL_ZN12_GLOBAL__N_122cp_call_symbol_addressEPNS_10connectionES2_EEEENS_6statusES5_ _ZN10cc1_plugin10unmarshallEPNS_10connectionEPPc 87
_ZN10cc1_plugin8callbackIyPKcXadL_ZN12_GLOBAL__N_122cp_call_symbol_addressEPNS_10connectionES2_EEEENS_6statusES5_ _ZN10cc1_plugin10connection4sendEc 125
_ZN10cc1_plugin8callbackIyPKcXadL_ZN12_GLOBAL__N_122cp_call_symbol_addressEPNS_10connectionES2_EEEENS_6statusES5_ _ZN10cc1_plugin16marshall_intlikeEPNS_10connectionEy 140
_ZN10cc1_plugin8callbackIyPKcXadL_ZN12_GLOBAL__N_122cp_call_symbol_addressEPNS_10connectionES2_EEEENS_6statusES5_ _ZdaPv 161
_ZN10cc1_plugin8callbackIyPKcXadL_ZN12_GLOBAL__N_122cp_call_symbol_addressEPNS_10connectionES2_EEEENS_6statusES5_ _Unwind_Resume 169
_ZN10cc1_plugin8callbackIi21gcc_cp_oracle_requestPKcXadL_ZN12_GLOBAL__N_122cp_call_binding_oracleEPNS_10connectionES1_S3_EEEENS_6statusES6_ _ZN10cc1_plugin16unmarshall_checkEPNS_10connectionEy 22
_ZN10cc1_plugin8callbackIi21gcc_cp_oracle_requestPKcXadL_ZN12_GLOBAL__N_122cp_call_binding_oracleEPNS_10connectionES1_S3_EEEENS_6statusES6_ _ZdaPv 42
_ZN10cc1_plugin8callbackIi21gcc_cp_oracle_requestPKcXadL_ZN12_GLOBAL__N_122cp_call_binding_oracleEPNS_10connectionES1_S3_EEEENS_6statusES6_ _ZN10cc1_plugin10unmarshallEPNS_10connectionEP21gcc_cp_oracle_request 73
_ZN10cc1_plugin8callbackIi21gcc_cp_oracle_requestPKcXadL_ZN12_GLOBAL__N_122cp_call_binding_oracleEPNS_10connectionES1_S3_EEEENS_6statusES6_ _ZN10cc1_plugin10unmarshallEPNS_10connectionEPPc 88
_ZN10cc1_plugin8callbackIi21gcc_cp_oracle_requestPKcXadL_ZN12_GLOBAL__N_122cp_call_binding_oracleEPNS_10connectionES1_S3_EEEENS_6statusES6_ _ZN10cc1_plugin10connection4sendEc 127
_ZN10cc1_plugin8callbackIi21gcc_cp_oracle_requestPKcXadL_ZN12_GLOBAL__N_122cp_call_binding_oracleEPNS_10connectionES1_S3_EEEENS_6statusES6_ _ZN10cc1_plugin16marshall_intlikeEPNS_10connectionEy 144
_ZN10cc1_plugin8callbackIi21gcc_cp_oracle_requestPKcXadL_ZN12_GLOBAL__N_122cp_call_binding_oracleEPNS_10connectionES1_S3_EEEENS_6statusES6_ _ZdaPv 165
_ZN10cc1_plugin8callbackIi21gcc_cp_oracle_requestPKcXadL_ZN12_GLOBAL__N_122cp_call_binding_oracleEPNS_10connectionES1_S3_EEEENS_6statusES6_ _Unwind_Resume 173
_ZL22libcp1_set_source_fileP16gcc_base_contextPKc strlen 24
_ZL22libcp1_set_source_fileP16gcc_base_contextPKc _ZNSs6assignEPKcm 53
_ZNK6libcp124compiler_driver_filename4findERSs stderr 37
_ZNK6libcp124compiler_driver_filename4findERSs fprintf 49
_ZNK6libcp124compiler_driver_filename4findERSs _ZNSs6assignERKSs 61
_ZNK6libcp18compiler4findERSs xstrdup 6
_ZN6libcp1C1EPK15gcc_base_vtablePK16gcc_cp_fe_vtable _ZNSs4_Rep20_S_empty_rep_storageE 104
_ZN6libcp1C1EPK15gcc_base_vtablePK16gcc_cp_fe_vtable _Znwm 118
_ZN6libcp1C1EPK15gcc_base_vtablePK16gcc_cp_fe_vtable _ZTVN6libcp18compilerE 125
_ZN6libcp1C1EPK15gcc_base_vtablePK16gcc_cp_fe_vtable _ZNSsD1Ev 171
_ZN6libcp1C1EPK15gcc_base_vtablePK16gcc_cp_fe_vtable _ZNSt6vectorISsSaISsEED1Ev 180
_ZN6libcp1C1EPK15gcc_base_vtablePK16gcc_cp_fe_vtable _Unwind_Resume 188
gcc_cp_fe_context _Znwm 35
gcc_cp_fe_context _ZN6libcp1C1EPK15gcc_base_vtablePK16gcc_cp_fe_vtable 56
gcc_cp_fe_context _ZdlPv 78
gcc_cp_fe_context _Unwind_Resume 91
_ZN6libcp1C2EPK15gcc_base_vtablePK16gcc_cp_fe_vtable _ZNSs4_Rep20_S_empty_rep_storageE 104
_ZN6libcp1C2EPK15gcc_base_vtablePK16gcc_cp_fe_vtable _Znwm 118
_ZN6libcp1C2EPK15gcc_base_vtablePK16gcc_cp_fe_vtable _ZTVN6libcp18compilerE 125
_ZN6libcp1C2EPK15gcc_base_vtablePK16gcc_cp_fe_vtable _ZNSsD1Ev 171
_ZN6libcp1C2EPK15gcc_base_vtablePK16gcc_cp_fe_vtable _ZNSt6vectorISsSaISsEED1Ev 180
_ZN6libcp1C2EPK15gcc_base_vtablePK16gcc_cp_fe_vtable _Unwind_Resume 188
_ZL26libcp1_set_driver_filenameP16gcc_base_contextPKc _ZNSsC1EPKcRKSaIcE 61
_ZL26libcp1_set_driver_filenameP16gcc_base_contextPKc _Znwm 71
_ZL26libcp1_set_driver_filenameP16gcc_base_contextPKc _ZTVN6libcp124compiler_driver_filenameE 86
_ZL26libcp1_set_driver_filenameP16gcc_base_contextPKc _ZNSsC1ERKSs 97
_ZL26libcp1_set_driver_filenameP16gcc_base_contextPKc _ZNSs4_Rep20_S_empty_rep_storageE 117
_ZL26libcp1_set_driver_filenameP16gcc_base_contextPKc pthread_cancel 146
_ZL26libcp1_set_driver_filenameP16gcc_base_contextPKc _ZNSs4_Rep10_M_destroyERKSaIcE 173
_ZL26libcp1_set_driver_filenameP16gcc_base_contextPKc _ZTVN6libcp18compilerE 182
_ZL26libcp1_set_driver_filenameP16gcc_base_contextPKc _ZdlPv 193
_ZL26libcp1_set_driver_filenameP16gcc_base_contextPKc _ZNSsD1Ev 201
_ZL26libcp1_set_driver_filenameP16gcc_base_contextPKc _Unwind_Resume 209
_ZL25libcp1_set_triplet_regexpP16gcc_base_contextPKc _ZNSsC1EPKcRKSaIcE 61
_ZL25libcp1_set_triplet_regexpP16gcc_base_contextPKc _Znwm 71
_ZL25libcp1_set_triplet_regexpP16gcc_base_contextPKc _ZTVN6libcp123compiler_triplet_regexpE 86
_ZL25libcp1_set_triplet_regexpP16gcc_base_contextPKc _ZNSsC1ERKSs 97
_ZL25libcp1_set_triplet_regexpP16gcc_base_contextPKc _ZNSs4_Rep20_S_empty_rep_storageE 117
_ZL25libcp1_set_triplet_regexpP16gcc_base_contextPKc pthread_cancel 146
_ZL25libcp1_set_triplet_regexpP16gcc_base_contextPKc _ZNSs4_Rep10_M_destroyERKSaIcE 173
_ZL25libcp1_set_triplet_regexpP16gcc_base_contextPKc _ZTVN6libcp18compilerE 182
_ZL25libcp1_set_triplet_regexpP16gcc_base_contextPKc _ZdlPv 193
_ZL25libcp1_set_triplet_regexpP16gcc_base_contextPKc _ZNSsD1Ev 201
_ZL25libcp1_set_triplet_regexpP16gcc_base_contextPKc _Unwind_Resume 209
_ZN6libcp1D1Ev _ZNSs4_Rep20_S_empty_rep_storageE 53
_ZN6libcp1D1Ev pthread_cancel 85
_ZN6libcp1D1Ev _ZdlPv 128
_ZN6libcp1D1Ev _ZNSs4_Rep10_M_destroyERKSaIcE 173
_ZN6libcp1D1Ev pthread_cancel 185
_ZN6libcp1D1Ev _ZNSs4_Rep10_M_destroyERKSaIcE 216
_ZN6libcp1D1Ev _ZNSsD1Ev 233
_ZN6libcp1D1Ev _ZNSt6vectorISsSaISsEED1Ev 242
_ZN6libcp1D1Ev _Unwind_Resume 250
_ZL14libcp1_destroyP16gcc_base_context _ZN6libcp1D1Ev 10
_ZL14libcp1_destroyP16gcc_base_context _ZdlPv 19
_ZN6libcp1D2Ev _ZNSs4_Rep20_S_empty_rep_storageE 53
_ZN6libcp1D2Ev pthread_cancel 85
_ZN6libcp1D2Ev _ZdlPv 128
_ZN6libcp1D2Ev _ZNSs4_Rep10_M_destroyERKSaIcE 173
_ZN6libcp1D2Ev pthread_cancel 185
_ZN6libcp1D2Ev _ZNSs4_Rep10_M_destroyERKSaIcE 216
_ZN6libcp1D2Ev _ZNSsD1Ev 233
_ZN6libcp1D2Ev _ZNSt6vectorISsSaISsEED1Ev 242
_ZN6libcp1D2Ev _Unwind_Resume 250
_ZNK6libcp123compiler_triplet_regexp4findERSs _ZNSt8ios_baseC2Ev 50
_ZNK6libcp123compiler_triplet_regexp4findERSs _ZTTSt18basic_stringstreamIcSt11char_traitsIcESaIcEE 57
_ZNK6libcp123compiler_triplet_regexp4findERSs _ZTTSt18basic_stringstreamIcSt11char_traitsIcESaIcEE 74
_ZNK6libcp123compiler_triplet_regexp4findERSs _ZTVSt9basic_iosIcSt11char_traitsIcEE 85
_ZNK6libcp123compiler_triplet_regexp4findERSs _ZNSt9basic_iosIcSt11char_traitsIcEE4initEPSt15basic_streambufIcS1_E 195
_ZNK6libcp123compiler_triplet_regexp4findERSs _ZTTSt18basic_stringstreamIcSt11char_traitsIcESaIcEE 202
_ZNK6libcp123compiler_triplet_regexp4findERSs _ZTTSt18basic_stringstreamIcSt11char_traitsIcESaIcEE 209
_ZNK6libcp123compiler_triplet_regexp4findERSs _ZNSt9basic_iosIcSt11char_traitsIcEE4initEPSt15basic_streambufIcS1_E 253
_ZNK6libcp123compiler_triplet_regexp4findERSs _ZTTSt18basic_stringstreamIcSt11char_traitsIcESaIcEE 260
_ZNK6libcp123compiler_triplet_regexp4findERSs _ZTTSt18basic_stringstreamIcSt11char_traitsIcESaIcEE 267
_ZNK6libcp123compiler_triplet_regexp4findERSs _ZTVSt18basic_stringstreamIcSt11char_traitsIcESaIcEE 360
_ZNK6libcp123compiler_triplet_regexp4findERSs _ZTVSt18basic_stringstreamIcSt11char_traitsIcESaIcEE 371
_ZNK6libcp123compiler_triplet_regexp4findERSs _ZTVSt18basic_stringstreamIcSt11char_traitsIcESaIcEE 382
_ZNK6libcp123compiler_triplet_regexp4findERSs _ZTVSt15basic_streambufIcSt11char_traitsIcEE 393
_ZNK6libcp123compiler_triplet_regexp4findERSs _ZNSt6localeC1Ev 398
_ZNK6libcp123compiler_triplet_regexp4findERSs _ZTVSt15basic_stringbufIcSt11char_traitsIcESaIcEE 417
_ZNK6libcp123compiler_triplet_regexp4findERSs _ZNSs4_Rep20_S_empty_rep_storageE 438
_ZNK6libcp123compiler_triplet_regexp4findERSs _ZNSt9basic_iosIcSt11char_traitsIcEE4initEPSt15basic_streambufIcS1_E 443
_ZNK6libcp123compiler_triplet_regexp4findERSs _ZSt16__ostream_insertIcSt11char_traitsIcEERSt13basic_ostreamIT_T0_ES6_PKS3_l 462
_ZNK6libcp123compiler_triplet_regexp4findERSs strlen 479
_ZNK6libcp123compiler_triplet_regexp4findERSs _ZSt16__ostream_insertIcSt11char_traitsIcEERSt13basic_ostreamIT_T0_ES6_PKS3_l 494
_ZNK6libcp123compiler_triplet_regexp4findERSs _ZSt16__ostream_insertIcSt11char_traitsIcEERSt13basic_ostreamIT_T0_ES6_PKS3_l 513
_ZNK6libcp123compiler_triplet_regexp4findERSs _ZSt16__ostream_insertIcSt11char_traitsIcEERSt13basic_ostreamIT_T0_ES6_PKS3_l 559
_ZNK6libcp123compiler_triplet_regexp4findERSs _ZSt16__ostream_insertIcSt11char_traitsIcEERSt13basic_ostreamIT_T0_ES6_PKS3_l 608
_ZNK6libcp123compiler_triplet_regexp4findERSs _ZSt16__ostream_insertIcSt11char_traitsIcEERSt13basic_ostreamIT_T0_ES6_PKS3_l 639
_ZNK6libcp123compiler_triplet_regexp4findERSs _ZNSs4_Rep20_S_empty_rep_storageE 654
_ZNK6libcp123compiler_triplet_regexp4findERSs _ZNSs12_S_constructIPcEES0_T_S1_RKSaIcESt20forward_iterator_tag 702
_ZNK6libcp123compiler_triplet_regexp4findERSs _ZNSs6assignERKSs 732
_ZNK6libcp123compiler_triplet_regexp4findERSs _ZNSs4_Rep20_S_empty_rep_storageE 747
_ZNK6libcp123compiler_triplet_regexp4findERSs _ZNSs4_Rep20_S_empty_rep_storageE 758
_ZNK6libcp123compiler_triplet_regexp4findERSs _ZTVSt18basic_stringstreamIcSt11char_traitsIcESaIcEE 782
_ZNK6libcp123compiler_triplet_regexp4findERSs _ZTVSt18basic_stringstreamIcSt11char_traitsIcESaIcEE 793
_ZNK6libcp123compiler_triplet_regexp4findERSs _ZTVSt18basic_stringstreamIcSt11char_traitsIcESaIcEE 804
_ZNK6libcp123compiler_triplet_regexp4findERSs _ZTVSt15basic_stringbufIcSt11char_traitsIcESaIcEE 815
_ZNK6libcp123compiler_triplet_regexp4findERSs _ZNSs4_Rep20_S_empty_rep_storageE 826
_ZNK6libcp123compiler_triplet_regexp4findERSs _ZTVSt15basic_streambufIcSt11char_traitsIcEE 847
_ZNK6libcp123compiler_triplet_regexp4findERSs _ZNSt6localeD1Ev 852
_ZNK6libcp123compiler_triplet_regexp4findERSs _ZTTSt18basic_stringstreamIcSt11char_traitsIcESaIcEE 859
_ZNK6libcp123compiler_triplet_regexp4findERSs _ZTTSt18basic_stringstreamIcSt11char_traitsIcESaIcEE 874
_ZNK6libcp123compiler_triplet_regexp4findERSs _ZTTSt18basic_stringstreamIcSt11char_traitsIcESaIcEE 885
_ZNK6libcp123compiler_triplet_regexp4findERSs _ZTTSt18basic_stringstreamIcSt11char_traitsIcESaIcEE 892
_ZNK6libcp123compiler_triplet_regexp4findERSs _ZTTSt18basic_stringstreamIcSt11char_traitsIcESaIcEE 919
_ZNK6libcp123compiler_triplet_regexp4findERSs _ZTVSt9basic_iosIcSt11char_traitsIcEE 952
_ZNK6libcp123compiler_triplet_regexp4findERSs _ZNSt8ios_baseD2Ev 957
_ZNK6libcp123compiler_triplet_regexp4findERSs stderr 985
_ZNK6libcp123compiler_triplet_regexp4findERSs fprintf 997
_ZNK6libcp123compiler_triplet_regexp4findERSs xregcomp 1021
_ZNK6libcp123compiler_triplet_regexp4findERSs xregerror 1049
_ZNK6libcp123compiler_triplet_regexp4findERSs xregerror 1086
_ZNK6libcp123compiler_triplet_regexp4findERSs concat 1113
_ZNK6libcp123compiler_triplet_regexp4findERSs _ZNSs12_S_constructIPcEES0_T_S1_RKSaIcESt20forward_iterator_tag 1176
_ZNK6libcp123compiler_triplet_regexp4findERSs _ZNSs6assignERKSs 1206
_ZNK6libcp123compiler_triplet_regexp4findERSs _ZNSs4_Rep20_S_empty_rep_storageE 1221
_ZNK6libcp123compiler_triplet_regexp4findERSs _ZNSs4_Rep20_S_empty_rep_storageE 1232
_ZNK6libcp123compiler_triplet_regexp4findERSs pthread_cancel 1243
_ZNK6libcp123compiler_triplet_regexp4findERSs _ZNSs4_Rep10_M_destroyERKSaIcE 1277
_ZNK6libcp123compiler_triplet_regexp4findERSs _Z13find_compilerRK17re_pattern_bufferPSs 1307
_ZNK6libcp123compiler_triplet_regexp4findERSs xregfree 1319
_ZNK6libcp123compiler_triplet_regexp4findERSs concat 1342
_ZNK6libcp123compiler_triplet_regexp4findERSs xregfree 1355
_ZNK6libcp123compiler_triplet_regexp4findERSs stderr 1392
_ZNK6libcp123compiler_triplet_regexp4findERSs fprintf 1407
_ZNK6libcp123compiler_triplet_regexp4findERSs _ZNSt9basic_iosIcSt11char_traitsIcEE5clearESt12_Ios_Iostate 1439
_ZNK6libcp123compiler_triplet_regexp4findERSs _ZNSs6assignERKSs 1467
_ZNK6libcp123compiler_triplet_regexp4findERSs _ZNSs4_Rep20_S_empty_rep_storageE 1478
_ZNK6libcp123compiler_triplet_regexp4findERSs pthread_cancel 1488
_ZNK6libcp123compiler_triplet_regexp4findERSs _ZNSs4_Rep10_M_destroyERKSaIcE 1518
_ZNK6libcp123compiler_triplet_regexp4findERSs pthread_cancel 1528
_ZNK6libcp123compiler_triplet_regexp4findERSs _ZNSs4_Rep10_M_destroyERKSaIcE 1558
_ZNK6libcp123compiler_triplet_regexp4findERSs _ZNSsD1Ev 1578
_ZNK6libcp123compiler_triplet_regexp4findERSs _Unwind_Resume 1586
_ZNK6libcp123compiler_triplet_regexp4findERSs pthread_cancel 1621
_ZNK6libcp123compiler_triplet_regexp4findERSs _ZNSs4_Rep10_M_destroyERKSaIcE 1658
_ZNK6libcp123compiler_triplet_regexp4findERSs _ZNSsD1Ev 1696
_ZNK6libcp123compiler_triplet_regexp4findERSs _ZNSt18basic_stringstreamIcSt11char_traitsIcESaIcEED1Ev 1704
_ZNK6libcp123compiler_triplet_regexp4findERSs _Unwind_Resume 1712
_ZNK6libcp123compiler_triplet_regexp4findERSs _ZNSsD1Ev 1723
_ZNK6libcp123compiler_triplet_regexp4findERSs _ZTTSt18basic_stringstreamIcSt11char_traitsIcESaIcEE 1750
_ZNK6libcp123compiler_triplet_regexp4findERSs _ZNSt9basic_iosIcSt11char_traitsIcEED2Ev 1781
_ZNK6libcp123compiler_triplet_regexp4findERSs _Unwind_Resume 1789
_ZNK6libcp123compiler_triplet_regexp4findERSs _ZTVSt15basic_stringbufIcSt11char_traitsIcESaIcEE 1854
_ZNK6libcp123compiler_triplet_regexp4findERSs _ZNSs4_Rep20_S_empty_rep_storageE 1865
_ZNK6libcp123compiler_triplet_regexp4findERSs _ZTVSt15basic_streambufIcSt11char_traitsIcEE 1882
_ZNK6libcp123compiler_triplet_regexp4findERSs _ZNSt6localeD1Ev 1890
_ZNK6libcp123compiler_triplet_regexp4findERSs _ZTTSt18basic_stringstreamIcSt11char_traitsIcESaIcEE 1897
_ZNK6libcp123compiler_triplet_regexp4findERSs _ZTTSt18basic_stringstreamIcSt11char_traitsIcESaIcEE 1904
_ZNK6libcp123compiler_triplet_regexp4findERSs _ZTTSt18basic_stringstreamIcSt11char_traitsIcESaIcEE 1919
_ZNK6libcp123compiler_triplet_regexp4findERSs _ZTTSt18basic_stringstreamIcSt11char_traitsIcESaIcEE 1926
_ZNK6libcp123compiler_triplet_regexp4findERSs pthread_cancel 1960
_ZNK6libcp123compiler_triplet_regexp4findERSs _ZNSs4_Rep10_M_destroyERKSaIcE 1986
_ZL14libcp1_compileP16gcc_base_contextPKc socketpair 44
_ZL14libcp1_compileP16gcc_base_contextPKc pipe 65
_ZL14libcp1_compileP16gcc_base_contextPKc _ZNSsC1EPKcRKSaIcE 102
_ZL14libcp1_compileP16gcc_base_contextPKc _ZNSsC1ERKSs 137
_ZL14libcp1_compileP16gcc_base_contextPKc _ZNSs4_Rep20_S_empty_rep_storageE 162
_ZL14libcp1_compileP16gcc_base_contextPKc snprintf 207
_ZL14libcp1_compileP16gcc_base_contextPKc _ZNSsC1EPKcRKSaIcE 243
_ZL14libcp1_compileP16gcc_base_contextPKc _ZNSsC1ERKSs 274
_ZL14libcp1_compileP16gcc_base_contextPKc _ZNSsC1ERKSs 339
_ZL14libcp1_compileP16gcc_base_contextPKc _ZNSsC1EPKcRKSaIcE 380
_ZL14libcp1_compileP16gcc_base_contextPKc _ZNSsC1ERKSs 411
_ZL14libcp1_compileP16gcc_base_contextPKc _ZNSsC1EPKcRKSaIcE 473
_ZL14libcp1_compileP16gcc_base_contextPKc _ZNSsC1ERKSs 504
_ZL14libcp1_compileP16gcc_base_contextPKc _ZNSsC1EPKcRKSaIcE 564
_ZL14libcp1_compileP16gcc_base_contextPKc _ZNSsC1ERKSs 595
_ZL14libcp1_compileP16gcc_base_contextPKc _ZNSsC1EPKcRKSaIcE 663
_ZL14libcp1_compileP16gcc_base_contextPKc _ZNSsC1ERKSs 694
_ZL14libcp1_compileP16gcc_base_contextPKc _Znwm 737
_ZL14libcp1_compileP16gcc_base_contextPKc _ZTVN10cc1_plugin10connectionE 766
_ZL14libcp1_compileP16gcc_base_contextPKc _ZN10cc1_plugin9callbacksC1Ev 780
_ZL14libcp1_compileP16gcc_base_contextPKc _ZTV17libcp1_connection 791
_ZL14libcp1_compileP16gcc_base_contextPKc _ZN10cc1_plugin9callbacks12add_callbackEPKcPFNS_6statusEPNS_10connectionEE 814
_ZL14libcp1_compileP16gcc_base_contextPKc _ZN10cc1_plugin9callbacks12add_callbackEPKcPFNS_6statusEPNS_10connectionEE 837
_ZL14libcp1_compileP16gcc_base_contextPKc _ZN10cc1_plugin9callbacks12add_callbackEPKcPFNS_6statusEPNS_10connectionEE 860
_ZL14libcp1_compileP16gcc_base_contextPKc _ZN10cc1_plugin9callbacks12add_callbackEPKcPFNS_6statusEPNS_10connectionEE 883
_ZL14libcp1_compileP16gcc_base_contextPKc _ZSt7nothrow 896
_ZL14libcp1_compileP16gcc_base_contextPKc _ZnamRKSt9nothrow_t 913
_ZL14libcp1_compileP16gcc_base_contextPKc fork 987
_ZL14libcp1_compileP16gcc_base_contextPKc close 1018
_ZL14libcp1_compileP16gcc_base_contextPKc close 1030
_ZL14libcp1_compileP16gcc_base_contextPKc _ZN10cc1_plugin10connection4sendEc 1044
_ZL14libcp1_compileP16gcc_base_contextPKc close 1066
_ZL14libcp1_compileP16gcc_base_contextPKc close 1078
_ZL14libcp1_compileP16gcc_base_contextPKc waitpid 1095
_ZL14libcp1_compileP16gcc_base_contextPKc close 1156
_ZL14libcp1_compileP16gcc_base_contextPKc close 1168
_ZL14libcp1_compileP16gcc_base_contextPKc __errno_location 1201
_ZL14libcp1_compileP16gcc_base_contextPKc _ZN10cc1_plugin16marshall_intlikeEPNS_10connectionEy 1255
_ZL14libcp1_compileP16gcc_base_contextPKc _ZN10cc1_plugin10connection7do_waitEb 1274
_ZL14libcp1_compileP16gcc_base_contextPKc close 1391
_ZL14libcp1_compileP16gcc_base_contextPKc close 1403
_ZL14libcp1_compileP16gcc_base_contextPKc close 1415
_ZL14libcp1_compileP16gcc_base_contextPKc close 1427
_ZL14libcp1_compileP16gcc_base_contextPKc _ZNSt6vectorISsSaISsEE13_M_insert_auxEN9__gnu_cxx17__normal_iteratorIPSsS1_EERKSs 1448
_ZL14libcp1_compileP16gcc_base_contextPKc _ZNSt6vectorISsSaISsEE13_M_insert_auxEN9__gnu_cxx17__normal_iteratorIPSsS1_EERKSs 1467
_ZL14libcp1_compileP16gcc_base_contextPKc _ZNSt6vectorISsSaISsEE13_M_insert_auxEN9__gnu_cxx17__normal_iteratorIPSsS1_EERKSs 1487
_ZL14libcp1_compileP16gcc_base_contextPKc _ZNSt6vectorISsSaISsEE13_M_insert_auxEN9__gnu_cxx17__normal_iteratorIPSsS1_EERKSs 1506
_ZL14libcp1_compileP16gcc_base_contextPKc _ZNSt6vectorISsSaISsEE13_M_insert_auxEN9__gnu_cxx17__normal_iteratorIPSsS1_EERKSs 1525
_ZL14libcp1_compileP16gcc_base_contextPKc _ZNSt6vectorISsSaISsEE13_M_insert_auxEN9__gnu_cxx17__normal_iteratorIPSsS1_EERKSs 1544
_ZL14libcp1_compileP16gcc_base_contextPKc _ZNSt6vectorISsSaISsEE13_M_insert_auxEN9__gnu_cxx17__normal_iteratorIPSsS1_EERKSs 1563
_ZL14libcp1_compileP16gcc_base_contextPKc _Unwind_Resume 1577
_ZL14libcp1_compileP16gcc_base_contextPKc _ZNSsD1Ev 1590
_ZL14libcp1_compileP16gcc_base_contextPKc _ZNSsD1Ev 1610
_ZL14libcp1_compileP16gcc_base_contextPKc pthread_cancel 1624
_ZL14libcp1_compileP16gcc_base_contextPKc _ZNSs4_Rep10_M_destroyERKSaIcE 1658
_ZL14libcp1_compileP16gcc_base_contextPKc pthread_cancel 1683
_ZL14libcp1_compileP16gcc_base_contextPKc _ZNSs4_Rep10_M_destroyERKSaIcE 1717
_ZL14libcp1_compileP16gcc_base_contextPKc dup2 1739
_ZL14libcp1_compileP16gcc_base_contextPKc dup2 1756
_ZL14libcp1_compileP16gcc_base_contextPKc close 1768
_ZL14libcp1_compileP16gcc_base_contextPKc close 1780
_ZL14libcp1_compileP16gcc_base_contextPKc close 1792
_ZL14libcp1_compileP16gcc_base_contextPKc execvp 1804
_ZL14libcp1_compileP16gcc_base_contextPKc _exit 1814
_ZL14libcp1_compileP16gcc_base_contextPKc pthread_cancel 1846
_ZL14libcp1_compileP16gcc_base_contextPKc _ZNSs4_Rep10_M_destroyERKSaIcE 1883
_ZL14libcp1_compileP16gcc_base_contextPKc _ZNSsD1Ev 1917
_ZL14libcp1_compileP16gcc_base_contextPKc pthread_cancel 1937
_ZL14libcp1_compileP16gcc_base_contextPKc _ZNSs4_Rep10_M_destroyERKSaIcE 1971
_ZL14libcp1_compileP16gcc_base_contextPKc abort 1981
_ZL14libcp1_compileP16gcc_base_contextPKc _ZdlPv 2010
_ZL14libcp1_compileP16gcc_base_contextPKc pthread_cancel 2030
_ZL14libcp1_compileP16gcc_base_contextPKc _ZNSs4_Rep10_M_destroyERKSaIcE 2064
_ZL14libcp1_compileP16gcc_base_contextPKc pthread_cancel 2074
_ZL14libcp1_compileP16gcc_base_contextPKc _ZNSs4_Rep10_M_destroyERKSaIcE 2108
_ZL20libcp1_set_argumentsP16gcc_base_contextiPPc _ZNSs4_Rep20_S_empty_rep_storageE 32
_ZL20libcp1_set_argumentsP16gcc_base_contextiPPc _ZNSs4_Rep20_S_empty_rep_storageE 58
_ZL20libcp1_set_argumentsP16gcc_base_contextiPPc _ZNSsC1ERKSs 150
_ZL20libcp1_set_argumentsP16gcc_base_contextiPPc _ZNSs4_Rep20_S_empty_rep_storageE 170
_ZL20libcp1_set_argumentsP16gcc_base_contextiPPc _ZNSsC1ERKSs 196
_ZL20libcp1_set_argumentsP16gcc_base_contextiPPc _ZNSs4_Rep20_S_empty_rep_storageE 218
_ZL20libcp1_set_argumentsP16gcc_base_contextiPPc _ZNSsC1EPKcRKSaIcE 259
_ZL20libcp1_set_argumentsP16gcc_base_contextiPPc _ZNSt6vectorISsSaISsEE13_M_insert_auxEN9__gnu_cxx17__normal_iteratorIPSsS1_EERKSs 300
_ZL20libcp1_set_argumentsP16gcc_base_contextiPPc _ZNSt6vectorISsSaISsEE13_M_insert_auxEN9__gnu_cxx17__normal_iteratorIPSsS1_EERKSs 327
_ZL20libcp1_set_argumentsP16gcc_base_contextiPPc pthread_cancel 337
_ZL20libcp1_set_argumentsP16gcc_base_contextiPPc _ZNSs4_Rep10_M_destroyERKSaIcE 369
_ZL20libcp1_set_argumentsP16gcc_base_contextiPPc pthread_cancel 384
_ZL20libcp1_set_argumentsP16gcc_base_contextiPPc _ZNSs4_Rep10_M_destroyERKSaIcE 415
_ZL20libcp1_set_argumentsP16gcc_base_contextiPPc _ZNSsD1Ev 433
_ZL20libcp1_set_argumentsP16gcc_base_contextiPPc _Unwind_Resume 441
_ZL20libcp1_set_argumentsP16gcc_base_contextiPPc _ZNSsD1Ev 474
_ZN6libcp18compilerD1Ev _ZTVN6libcp18compilerE 3
_ZN6libcp18compilerD0Ev _ZTVN6libcp18compilerE 3
_ZN6libcp18compilerD0Ev _ZdlPv 8
_ZN10cc1_plugin4callIiyPKcS2_jEENS_6statusEPNS_10connectionES2_PT_T0_T1_T2_T3_ _ZN10cc1_plugin10connection4sendEc 58
_ZN10cc1_plugin4callIiyPKcS2_jEENS_6statusEPNS_10connectionES2_PT_T0_T1_T2_T3_ _ZN10cc1_plugin8marshallEPNS_10connectionEPKc 119
_ZN10cc1_plugin4callIiyPKcS2_jEENS_6statusEPNS_10connectionES2_PT_T0_T1_T2_T3_ _ZN10cc1_plugin16marshall_intlikeEPNS_10connectionEy 136
_ZN10cc1_plugin4callIiyPKcS2_jEENS_6statusEPNS_10connectionES2_PT_T0_T1_T2_T3_ _ZN10cc1_plugin16marshall_intlikeEPNS_10connectionEy 151
_ZN10cc1_plugin4callIiyPKcS2_jEENS_6statusEPNS_10connectionES2_PT_T0_T1_T2_T3_ _ZN10cc1_plugin8marshallEPNS_10connectionEPKc 166
_ZN10cc1_plugin4callIiyPKcS2_jEENS_6statusEPNS_10connectionES2_PT_T0_T1_T2_T3_ _ZN10cc1_plugin8marshallEPNS_10connectionEPKc 181
_ZN10cc1_plugin4callIiyPKcS2_jEENS_6statusEPNS_10connectionES2_PT_T0_T1_T2_T3_ _ZN10cc1_plugin16marshall_intlikeEPNS_10connectionEy 197
_ZN10cc1_plugin4callIiyPKcS2_jEENS_6statusEPNS_10connectionES2_PT_T0_T1_T2_T3_ _ZN10cc1_plugin10connection15wait_for_resultEv 213
_ZN10cc1_plugin4callIiyPKcS2_jEENS_6statusEPNS_10connectionES2_PT_T0_T1_T2_T3_ _ZN10cc1_plugin10unmarshallIiEENS_6statusEPNS_10connectionEPT_ 232
_Z3rpcIiLZN10cc1_plugin2cp17add_static_assertEEyPKcS3_jET_P14gcc_cp_contextT1_T2_T3_T4_ _ZN10cc1_plugin2cp17add_static_assertE 17
_Z3rpcIiLZN10cc1_plugin2cp17add_static_assertEEyPKcS3_jET_P14gcc_cp_contextT1_T2_T3_T4_ _ZN10cc1_plugin4callIiyPKcS2_jEENS_6statusEPNS_10connectionES2_PT_T0_T1_T2_T3_ 37
_Z3rpcIiLZN10cc1_plugin2cp14build_constantEEyPKcmS3_jET_P14gcc_cp_contextT1_T2_T3_T4_T5_ _ZN10cc1_plugin2cp14build_constantE 25
_Z3rpcIiLZN10cc1_plugin2cp14build_constantEEyPKcmS3_jET_P14gcc_cp_contextT1_T2_T3_T4_T5_ _ZN10cc1_plugin4callIiyPKcmS2_jEENS_6statusEPNS_10connectionES2_PT_T0_T1_T2_T3_T4_ 42
_Z3rpcIiLZN10cc1_plugin2cp16finish_enum_typeEEyET_P14gcc_cp_contextT1_ _ZN10cc1_plugin2cp16finish_enum_typeE 14
_Z3rpcIiLZN10cc1_plugin2cp16finish_enum_typeEEyET_P14gcc_cp_contextT1_ _ZN10cc1_plugin4callIiyEENS_6statusEPNS_10connectionEPKcPT_T0_ 24
_Z3rpcIiLZN10cc1_plugin2cp19add_using_namespaceEEyET_P14gcc_cp_contextT1_ _ZN10cc1_plugin2cp19add_using_namespaceE 14
_Z3rpcIiLZN10cc1_plugin2cp19add_using_namespaceEEyET_P14gcc_cp_contextT1_ _ZN10cc1_plugin4callIiyEENS_6statusEPNS_10connectionEPKcPT_T0_ 24
_Z3rpcIiLZN10cc1_plugin2cp13push_functionEEyET_P14gcc_cp_contextT1_ _ZN10cc1_plugin2cp13push_functionE 14
_Z3rpcIiLZN10cc1_plugin2cp13push_functionEEyET_P14gcc_cp_contextT1_ _ZN10cc1_plugin4callIiyEENS_6statusEPNS_10connectionEPKcPT_T0_ 24
_Z3rpcIiLZN10cc1_plugin2cp10push_classEEyET_P14gcc_cp_contextT1_ _ZN10cc1_plugin2cp10push_classE 14
_Z3rpcIiLZN10cc1_plugin2cp10push_classEEyET_P14gcc_cp_contextT1_ _ZN10cc1_plugin4callIiyEENS_6statusEPNS_10connectionEPKcPT_T0_ 24
_ZN10cc1_plugin4callIimEENS_6statusEPNS_10connectionEPKcPT_T0_ _ZN10cc1_plugin10connection4sendEc 42
_ZN10cc1_plugin4callIimEENS_6statusEPNS_10connectionEPKcPT_T0_ _ZN10cc1_plugin8marshallEPNS_10connectionEPKc 87
_ZN10cc1_plugin4callIimEENS_6statusEPNS_10connectionEPKcPT_T0_ _ZN10cc1_plugin16marshall_intlikeEPNS_10connectionEy 104
_ZN10cc1_plugin4callIimEENS_6statusEPNS_10connectionEPKcPT_T0_ _ZN10cc1_plugin16marshall_intlikeEPNS_10connectionEy 119
_ZN10cc1_plugin4callIimEENS_6statusEPNS_10connectionEPKcPT_T0_ _ZN10cc1_plugin10connection15wait_for_resultEv 131
_ZN10cc1_plugin4callIimEENS_6statusEPNS_10connectionEPKcPT_T0_ _ZN10cc1_plugin10unmarshallIiEENS_6statusEPNS_10connectionEPT_ 146
_Z3rpcIiLZN10cc1_plugin2cp17finish_class_typeEEmET_P14gcc_cp_contextT1_ _ZN10cc1_plugin2cp17finish_class_typeE 14
_Z3rpcIiLZN10cc1_plugin2cp17finish_class_typeEEmET_P14gcc_cp_contextT1_ _ZN10cc1_plugin4callIimEENS_6statusEPNS_10connectionEPKcPT_T0_ 24
_Z3rpcIiLZN10cc1_plugin2cp19start_template_declEEET_P14gcc_cp_context _ZN10cc1_plugin2cp19start_template_declE 11
_Z3rpcIiLZN10cc1_plugin2cp19start_template_declEEET_P14gcc_cp_context _ZN10cc1_plugin4callIiEENS_6statusEPNS_10connectionEPKcPT_ 21
_Z3rpcIiLZN10cc1_plugin2cp21make_namespace_inlineEEET_P14gcc_cp_context _ZN10cc1_plugin2cp21make_namespace_inlineE 11
_Z3rpcIiLZN10cc1_plugin2cp21make_namespace_inlineEEET_P14gcc_cp_context _ZN10cc1_plugin4callIiEENS_6statusEPNS_10connectionEPKcPT_ 21
_Z3rpcIiLZN10cc1_plugin2cp17pop_binding_levelEEET_P14gcc_cp_context _ZN10cc1_plugin2cp17pop_binding_levelE 11
_Z3rpcIiLZN10cc1_plugin2cp17pop_binding_levelEEET_P14gcc_cp_context _ZN10cc1_plugin4callIiEENS_6statusEPNS_10connectionEPKcPT_ 21
_ZN10cc1_plugin4callIiyyEENS_6statusEPNS_10connectionEPKcPT_T0_T1_ _ZN10cc1_plugin10connection4sendEc 50
_ZN10cc1_plugin4callIiyyEENS_6statusEPNS_10connectionEPKcPT_T0_T1_ _ZN10cc1_plugin8marshallEPNS_10connectionEPKc 103
_ZN10cc1_plugin4callIiyyEENS_6statusEPNS_10connectionEPKcPT_T0_T1_ _ZN10cc1_plugin16marshall_intlikeEPNS_10connectionEy 120
_ZN10cc1_plugin4callIiyyEENS_6statusEPNS_10connectionEPKcPT_T0_T1_ _ZN10cc1_plugin16marshall_intlikeEPNS_10connectionEy 135
_ZN10cc1_plugin4callIiyyEENS_6statusEPNS_10connectionEPKcPT_T0_T1_ _ZN10cc1_plugin16marshall_intlikeEPNS_10connectionEy 150
_ZN10cc1_plugin4callIiyyEENS_6statusEPNS_10connectionEPKcPT_T0_T1_ _ZN10cc1_plugin10connection15wait_for_resultEv 162
_ZN10cc1_plugin4callIiyyEENS_6statusEPNS_10connectionEPKcPT_T0_T1_ _ZN10cc1_plugin10unmarshallIiEENS_6statusEPNS_10connectionEPT_ 177
_Z3rpcIiLZN10cc1_plugin2cp10add_friendEEyyET_P14gcc_cp_contextT1_T2_ _ZN10cc1_plugin2cp10add_friendE 14
_Z3rpcIiLZN10cc1_plugin2cp10add_friendEEyyET_P14gcc_cp_contextT1_T2_ _ZN10cc1_plugin4callIiyyEENS_6statusEPNS_10connectionEPKcPT_T0_T1_ 27
_Z3rpcIiLZN10cc1_plugin2cp15reactivate_declEEyyET_P14gcc_cp_contextT1_T2_ _ZN10cc1_plugin2cp15reactivate_declE 14
_Z3rpcIiLZN10cc1_plugin2cp15reactivate_declEEyyET_P14gcc_cp_contextT1_T2_ _ZN10cc1_plugin4callIiyyEENS_6statusEPNS_10connectionEPKcPT_T0_T1_ 27
_ZN10cc1_plugin4callIi18gcc_cp_symbol_kindyEENS_6statusEPNS_10connectionEPKcPT_T0_T1_ _ZN10cc1_plugin10connection4sendEc 50
_ZN10cc1_plugin4callIi18gcc_cp_symbol_kindyEENS_6statusEPNS_10connectionEPKcPT_T0_T1_ _ZN10cc1_plugin8marshallEPNS_10connectionEPKc 103
_ZN10cc1_plugin4callIi18gcc_cp_symbol_kindyEENS_6statusEPNS_10connectionEPKcPT_T0_T1_ _ZN10cc1_plugin16marshall_intlikeEPNS_10connectionEy 120
_ZN10cc1_plugin4callIi18gcc_cp_symbol_kindyEENS_6statusEPNS_10connectionEPKcPT_T0_T1_ _ZN10cc1_plugin16marshall_intlikeEPNS_10connectionEy 135
_ZN10cc1_plugin4callIi18gcc_cp_symbol_kindyEENS_6statusEPNS_10connectionEPKcPT_T0_T1_ _ZN10cc1_plugin16marshall_intlikeEPNS_10connectionEy 150
_ZN10cc1_plugin4callIi18gcc_cp_symbol_kindyEENS_6statusEPNS_10connectionEPKcPT_T0_T1_ _ZN10cc1_plugin10connection15wait_for_resultEv 162
_ZN10cc1_plugin4callIi18gcc_cp_symbol_kindyEENS_6statusEPNS_10connectionEPKcPT_T0_T1_ _ZN10cc1_plugin10unmarshallIiEENS_6statusEPNS_10connectionEPT_ 177
_Z3rpcIiLZN10cc1_plugin2cp14add_using_declEE18gcc_cp_symbol_kindyET_P14gcc_cp_contextT1_T2_ _ZN10cc1_plugin2cp14add_using_declE 13
_Z3rpcIiLZN10cc1_plugin2cp14add_using_declEE18gcc_cp_symbol_kindyET_P14gcc_cp_contextT1_T2_ _ZN10cc1_plugin4callIi18gcc_cp_symbol_kindyEENS_6statusEPNS_10connectionEPKcPT_T0_T1_ 26
_ZN10cc1_plugin4callIiPKcyEENS_6statusEPNS_10connectionES2_PT_T0_T1_ _ZN10cc1_plugin10connection4sendEc 50
_ZN10cc1_plugin4callIiPKcyEENS_6statusEPNS_10connectionES2_PT_T0_T1_ _ZN10cc1_plugin8marshallEPNS_10connectionEPKc 103
_ZN10cc1_plugin4callIiPKcyEENS_6statusEPNS_10connectionES2_PT_T0_T1_ _ZN10cc1_plugin16marshall_intlikeEPNS_10connectionEy 120
_ZN10cc1_plugin4callIiPKcyEENS_6statusEPNS_10connectionES2_PT_T0_T1_ _ZN10cc1_plugin8marshallEPNS_10connectionEPKc 135
_ZN10cc1_plugin4callIiPKcyEENS_6statusEPNS_10connectionES2_PT_T0_T1_ _ZN10cc1_plugin16marshall_intlikeEPNS_10connectionEy 150
_ZN10cc1_plugin4callIiPKcyEENS_6statusEPNS_10connectionES2_PT_T0_T1_ _ZN10cc1_plugin10connection15wait_for_resultEv 162
_ZN10cc1_plugin4callIiPKcyEENS_6statusEPNS_10connectionES2_PT_T0_T1_ _ZN10cc1_plugin10unmarshallIiEENS_6statusEPNS_10connectionEPT_ 177
_Z3rpcIiLZN10cc1_plugin2cp19add_namespace_aliasEEPKcyET_P14gcc_cp_contextT1_T2_ _ZN10cc1_plugin2cp19add_namespace_aliasE 14
_Z3rpcIiLZN10cc1_plugin2cp19add_namespace_aliasEEPKcyET_P14gcc_cp_contextT1_T2_ _ZN10cc1_plugin4callIiPKcyEENS_6statusEPNS_10connectionES2_PT_T0_T1_ 27
_ZN10cc1_plugin4callIiPKcEENS_6statusEPNS_10connectionES2_PT_T0_ _ZN10cc1_plugin10connection4sendEc 42
_ZN10cc1_plugin4callIiPKcEENS_6statusEPNS_10connectionES2_PT_T0_ _ZN10cc1_plugin8marshallEPNS_10connectionEPKc 87
_ZN10cc1_plugin4callIiPKcEENS_6statusEPNS_10connectionES2_PT_T0_ _ZN10cc1_plugin16marshall_intlikeEPNS_10connectionEy 104
_ZN10cc1_plugin4callIiPKcEENS_6statusEPNS_10connectionES2_PT_T0_ _ZN10cc1_plugin8marshallEPNS_10connectionEPKc 119
_ZN10cc1_plugin4callIiPKcEENS_6statusEPNS_10connectionES2_PT_T0_ _ZN10cc1_plugin10connection15wait_for_resultEv 131
_ZN10cc1_plugin4callIiPKcEENS_6statusEPNS_10connectionES2_PT_T0_ _ZN10cc1_plugin10unmarshallIiEENS_6statusEPNS_10connectionEPT_ 146
_Z3rpcIiLZN10cc1_plugin2cp14push_namespaceEEPKcET_P14gcc_cp_contextT1_ _ZN10cc1_plugin2cp14push_namespaceE 14
_Z3rpcIiLZN10cc1_plugin2cp14push_namespaceEEPKcET_P14gcc_cp_contextT1_ _ZN10cc1_plugin4callIiPKcEENS_6statusEPNS_10connectionES2_PT_T0_ 24
_Z3rpcIyLZN10cc1_plugin2cp5errorEEPKcET_P14gcc_cp_contextT1_ _ZN10cc1_plugin2cp5errorE 14
_Z3rpcIyLZN10cc1_plugin2cp5errorEEPKcET_P14gcc_cp_contextT1_ _ZN10cc1_plugin4callIyPKcEENS_6statusEPNS_10connectionES2_PT_T0_ 24
_Z3rpcIyLZN10cc1_plugin2cp17build_vector_typeEEyiET_P14gcc_cp_contextT1_T2_ _ZN10cc1_plugin2cp17build_vector_typeE 14
_Z3rpcIyLZN10cc1_plugin2cp17build_vector_typeEEyiET_P14gcc_cp_contextT1_T2_ _ZN10cc1_plugin4callIyyiEENS_6statusEPNS_10connectionEPKcPT_T0_T1_ 27
_Z3rpcIyLZN10cc1_plugin2cp16build_array_typeEEyiET_P14gcc_cp_contextT1_T2_ _ZN10cc1_plugin2cp16build_array_typeE 14
_Z3rpcIyLZN10cc1_plugin2cp16build_array_typeEEyiET_P14gcc_cp_contextT1_T2_ _ZN10cc1_plugin4callIyyiEENS_6statusEPNS_10connectionEPKcPT_T0_T1_ 27
_Z3rpcIyLZN10cc1_plugin2cp27get_function_parameter_declEEyiET_P14gcc_cp_contextT1_T2_ _ZN10cc1_plugin2cp27get_function_parameter_declE 14
_Z3rpcIyLZN10cc1_plugin2cp27get_function_parameter_declEEyiET_P14gcc_cp_contextT1_T2_ _ZN10cc1_plugin4callIyyiEENS_6statusEPNS_10connectionEPKcPT_T0_T1_ 27
_Z3rpcIyLZN10cc1_plugin2cp15build_decl_exprEEyiET_P14gcc_cp_contextT1_T2_ _ZN10cc1_plugin2cp15build_decl_exprE 14
_Z3rpcIyLZN10cc1_plugin2cp15build_decl_exprEEyiET_P14gcc_cp_contextT1_T2_ _ZN10cc1_plugin4callIyyiEENS_6statusEPNS_10connectionEPKcPT_T0_T1_ 27
_Z3rpcIyLZN10cc1_plugin2cp18build_complex_typeEEyET_P14gcc_cp_contextT1_ _ZN10cc1_plugin2cp18build_complex_typeE 14
_Z3rpcIyLZN10cc1_plugin2cp18build_complex_typeEEyET_P14gcc_cp_contextT1_ _ZN10cc1_plugin4callIyyEENS_6statusEPNS_10connectionEPKcPT_T0_ 24
_Z3rpcIyLZN10cc1_plugin2cp17build_lambda_exprEEyET_P14gcc_cp_contextT1_ _ZN10cc1_plugin2cp17build_lambda_exprE 14
_Z3rpcIyLZN10cc1_plugin2cp17build_lambda_exprEEyET_P14gcc_cp_contextT1_ _ZN10cc1_plugin4callIyyEENS_6statusEPNS_10connectionEPKcPT_T0_ 24
_Z3rpcIyLZN10cc1_plugin2cp13get_expr_typeEEyET_P14gcc_cp_contextT1_ _ZN10cc1_plugin2cp13get_expr_typeE 14
_Z3rpcIyLZN10cc1_plugin2cp13get_expr_typeEEyET_P14gcc_cp_contextT1_ _ZN10cc1_plugin4callIyyEENS_6statusEPNS_10connectionEPKcPT_T0_ 24
_Z3rpcIyLZN10cc1_plugin2cp18build_pointer_typeEEyET_P14gcc_cp_contextT1_ _ZN10cc1_plugin2cp18build_pointer_typeE 14
_Z3rpcIyLZN10cc1_plugin2cp18build_pointer_typeEEyET_P14gcc_cp_contextT1_ _ZN10cc1_plugin4callIyyEENS_6statusEPNS_10connectionEPKcPT_T0_ 24
_Z3rpcIyLZN10cc1_plugin2cp13get_type_declEEyET_P14gcc_cp_contextT1_ _ZN10cc1_plugin2cp13get_type_declE 14
_Z3rpcIyLZN10cc1_plugin2cp13get_type_declEEyET_P14gcc_cp_contextT1_ _ZN10cc1_plugin4callIyyEENS_6statusEPNS_10connectionEPKcPT_T0_ 24
_Z3rpcIyLZN10cc1_plugin2cp13get_decl_typeEEyET_P14gcc_cp_contextT1_ _ZN10cc1_plugin2cp13get_decl_typeE 14
_Z3rpcIyLZN10cc1_plugin2cp13get_decl_typeEEyET_P14gcc_cp_contextT1_ _ZN10cc1_plugin4callIyyEENS_6statusEPNS_10connectionEPKcPT_T0_ 24
_ZN10cc1_plugin4callIyy17gcc_cp_qualifiersEENS_6statusEPNS_10connectionEPKcPT_T0_T1_ _ZN10cc1_plugin10connection4sendEc 50
_ZN10cc1_plugin4callIyy17gcc_cp_qualifiersEENS_6statusEPNS_10connectionEPKcPT_T0_T1_ _ZN10cc1_plugin8marshallEPNS_10connectionEPKc 103
_ZN10cc1_plugin4callIyy17gcc_cp_qualifiersEENS_6statusEPNS_10connectionEPKcPT_T0_T1_ _ZN10cc1_plugin16marshall_intlikeEPNS_10connectionEy 120
_ZN10cc1_plugin4callIyy17gcc_cp_qualifiersEENS_6statusEPNS_10connectionEPKcPT_T0_T1_ _ZN10cc1_plugin16marshall_intlikeEPNS_10connectionEy 135
_ZN10cc1_plugin4callIyy17gcc_cp_qualifiersEENS_6statusEPNS_10connectionEPKcPT_T0_T1_ _ZN10cc1_plugin16marshall_intlikeEPNS_10connectionEy 150
_ZN10cc1_plugin4callIyy17gcc_cp_qualifiersEENS_6statusEPNS_10connectionEPKcPT_T0_T1_ _ZN10cc1_plugin10connection15wait_for_resultEv 162
_ZN10cc1_plugin4callIyy17gcc_cp_qualifiersEENS_6statusEPNS_10connectionEPKcPT_T0_T1_ _ZN10cc1_plugin10unmarshallIyEENS_6statusEPNS_10connectionEPT_ 177
_Z3rpcIyLZN10cc1_plugin2cp20build_qualified_typeEEy17gcc_cp_qualifiersET_P14gcc_cp_contextT1_T2_ _ZN10cc1_plugin2cp20build_qualified_typeE 14
_Z3rpcIyLZN10cc1_plugin2cp20build_qualified_typeEEy17gcc_cp_qualifiersET_P14gcc_cp_contextT1_T2_ _ZN10cc1_plugin4callIyy17gcc_cp_qualifiersEENS_6statusEPNS_10connectionEPKcPT_T0_T1_ 27
_Z3rpcIyLZN10cc1_plugin2cp20build_vla_array_typeEEyPKcET_P14gcc_cp_contextT1_T2_ _ZN10cc1_plugin2cp20build_vla_array_typeE 14
_Z3rpcIyLZN10cc1_plugin2cp20build_vla_array_typeEEyPKcET_P14gcc_cp_contextT1_T2_ _ZN10cc1_plugin4callIyyPKcEENS_6statusEPNS_10connectionES2_PT_T0_T1_ 27
_Z3rpcIyLZN10cc1_plugin2cp30build_dependent_class_templateEEyPKcET_P14gcc_cp_contextT1_T2_ _ZN10cc1_plugin2cp30build_dependent_class_templateE 14
_Z3rpcIyLZN10cc1_plugin2cp30build_dependent_class_templateEEyPKcET_P14gcc_cp_contextT1_T2_ _ZN10cc1_plugin4callIyyPKcEENS_6statusEPNS_10connectionES2_PT_T0_T1_ 27
_ZN10cc1_plugin4callIyyyEENS_6statusEPNS_10connectionEPKcPT_T0_T1_ _ZN10cc1_plugin10connection4sendEc 50
_ZN10cc1_plugin4callIyyyEENS_6statusEPNS_10connectionEPKcPT_T0_T1_ _ZN10cc1_plugin8marshallEPNS_10connectionEPKc 103
_ZN10cc1_plugin4callIyyyEENS_6statusEPNS_10connectionEPKcPT_T0_T1_ _ZN10cc1_plugin16marshall_intlikeEPNS_10connectionEy 120
_ZN10cc1_plugin4callIyyyEENS_6statusEPNS_10connectionEPKcPT_T0_T1_ _ZN10cc1_plugin16marshall_intlikeEPNS_10connectionEy 135
_ZN10cc1_plugin4callIyyyEENS_6statusEPNS_10connectionEPKcPT_T0_T1_ _ZN10cc1_plugin16marshall_intlikeEPNS_10connectionEy 150
_ZN10cc1_plugin4callIyyyEENS_6statusEPNS_10connectionEPKcPT_T0_T1_ _ZN10cc1_plugin10connection15wait_for_resultEv 162
_ZN10cc1_plugin4callIyyyEENS_6statusEPNS_10connectionEPKcPT_T0_T1_ _ZN10cc1_plugin10unmarshallIyEENS_6statusEPNS_10connectionEPT_ 177
_Z3rpcIyLZN10cc1_plugin2cp26build_dependent_array_typeEEyyET_P14gcc_cp_contextT1_T2_ _ZN10cc1_plugin2cp26build_dependent_array_typeE 14
_Z3rpcIyLZN10cc1_plugin2cp26build_dependent_array_typeEEyyET_P14gcc_cp_contextT1_T2_ _ZN10cc1_plugin4callIyyyEENS_6statusEPNS_10connectionEPKcPT_T0_T1_ 27
_Z3rpcIyLZN10cc1_plugin2cp28build_pointer_to_member_typeEEyyET_P14gcc_cp_contextT1_T2_ _ZN10cc1_plugin2cp28build_pointer_to_member_typeE 14
_Z3rpcIyLZN10cc1_plugin2cp28build_pointer_to_member_typeEEyyET_P14gcc_cp_contextT1_T2_ _ZN10cc1_plugin4callIyyyEENS_6statusEPNS_10connectionEPKcPT_T0_T1_ 27
_Z3rpcIyLZN10cc1_plugin2cp20get_nullptr_constantEEET_P14gcc_cp_context _ZN10cc1_plugin2cp20get_nullptr_constantE 11
_Z3rpcIyLZN10cc1_plugin2cp20get_nullptr_constantEEET_P14gcc_cp_context _ZN10cc1_plugin4callIyEENS_6statusEPNS_10connectionEPKcPT_ 21
_Z3rpcIyLZN10cc1_plugin2cp16get_nullptr_typeEEET_P14gcc_cp_context _ZN10cc1_plugin2cp16get_nullptr_typeE 11
_Z3rpcIyLZN10cc1_plugin2cp16get_nullptr_typeEEET_P14gcc_cp_context _ZN10cc1_plugin4callIyEENS_6statusEPNS_10connectionEPKcPT_ 21
_Z3rpcIyLZN10cc1_plugin2cp13get_bool_typeEEET_P14gcc_cp_context _ZN10cc1_plugin2cp13get_bool_typeE 11
_Z3rpcIyLZN10cc1_plugin2cp13get_bool_typeEEET_P14gcc_cp_context _ZN10cc1_plugin4callIyEENS_6statusEPNS_10connectionEPKcPT_ 21
_Z3rpcIyLZN10cc1_plugin2cp13get_void_typeEEET_P14gcc_cp_context _ZN10cc1_plugin2cp13get_void_typeE 11
_Z3rpcIyLZN10cc1_plugin2cp13get_void_typeEEET_P14gcc_cp_context _ZN10cc1_plugin4callIyEENS_6statusEPNS_10connectionEPKcPT_ 21
_Z3rpcIyLZN10cc1_plugin2cp13get_char_typeEEET_P14gcc_cp_context _ZN10cc1_plugin2cp13get_char_typeE 11
_Z3rpcIyLZN10cc1_plugin2cp13get_char_typeEEET_P14gcc_cp_context _ZN10cc1_plugin4callIyEENS_6statusEPNS_10connectionEPKcPT_ 21
_Z3rpcIyLZN10cc1_plugin2cp30get_current_binding_level_declEEET_P14gcc_cp_context _ZN10cc1_plugin2cp30get_current_binding_level_declE 11
_Z3rpcIyLZN10cc1_plugin2cp30get_current_binding_level_declEEET_P14gcc_cp_context _ZN10cc1_plugin4callIyEENS_6statusEPNS_10connectionEPKcPT_ 21
_Z3rpcIyLZN10cc1_plugin2cp14get_float_typeEEmPKcET_P14gcc_cp_contextT1_T2_ _ZN10cc1_plugin2cp14get_float_typeE 14
_Z3rpcIyLZN10cc1_plugin2cp14get_float_typeEEmPKcET_P14gcc_cp_contextT1_T2_ _ZN10cc1_plugin4callIymPKcEENS_6statusEPNS_10connectionES2_PT_T0_T1_ 27
_Z3rpcIyLZN10cc1_plugin2cp12get_int_typeEEimPKcET_P14gcc_cp_contextT1_T2_T3_ _ZN10cc1_plugin2cp12get_int_typeE 16
_Z3rpcIyLZN10cc1_plugin2cp12get_int_typeEEimPKcET_P14gcc_cp_contextT1_T2_T3_ _ZN10cc1_plugin4callIyimPKcEENS_6statusEPNS_10connectionES2_PT_T0_T1_T2_ 29
_ZN10cc1_plugin4callIyyy17gcc_cp_qualifiers21gcc_cp_ref_qualifiersEENS_6statusEPNS_10connectionEPKcPT_T0_T1_T2_T3_ _ZN10cc1_plugin10connection4sendEc 58
_ZN10cc1_plugin4callIyyy17gcc_cp_qualifiers21gcc_cp_ref_qualifiersEENS_6statusEPNS_10connectionEPKcPT_T0_T1_T2_T3_ _ZN10cc1_plugin8marshallEPNS_10connectionEPKc 119
_ZN10cc1_plugin4callIyyy17gcc_cp_qualifiers21gcc_cp_ref_qualifiersEENS_6statusEPNS_10connectionEPKcPT_T0_T1_T2_T3_ _ZN10cc1_plugin16marshall_intlikeEPNS_10connectionEy 136
_ZN10cc1_plugin4callIyyy17gcc_cp_qualifiers21gcc_cp_ref_qualifiersEENS_6statusEPNS_10connectionEPKcPT_T0_T1_T2_T3_ _ZN10cc1_plugin16marshall_intlikeEPNS_10connectionEy 151
_ZN10cc1_plugin4callIyyy17gcc_cp_qualifiers21gcc_cp_ref_qualifiersEENS_6statusEPNS_10connectionEPKcPT_T0_T1_T2_T3_ _ZN10cc1_plugin16marshall_intlikeEPNS_10connectionEy 166
_ZN10cc1_plugin4callIyyy17gcc_cp_qualifiers21gcc_cp_ref_qualifiersEENS_6statusEPNS_10connectionEPKcPT_T0_T1_T2_T3_ _ZN10cc1_plugin16marshall_intlikeEPNS_10connectionEy 181
_ZN10cc1_plugin4callIyyy17gcc_cp_qualifiers21gcc_cp_ref_qualifiersEENS_6statusEPNS_10connectionEPKcPT_T0_T1_T2_T3_ _ZN10cc1_plugin16marshall_intlikeEPNS_10connectionEy 197
_ZN10cc1_plugin4callIyyy17gcc_cp_qualifiers21gcc_cp_ref_qualifiersEENS_6statusEPNS_10connectionEPKcPT_T0_T1_T2_T3_ _ZN10cc1_plugin10connection15wait_for_resultEv 213
_ZN10cc1_plugin4callIyyy17gcc_cp_qualifiers21gcc_cp_ref_qualifiersEENS_6statusEPNS_10connectionEPKcPT_T0_T1_T2_T3_ _ZN10cc1_plugin10unmarshallIyEENS_6statusEPNS_10connectionEPT_ 232
_Z3rpcIyLZN10cc1_plugin2cp17build_method_typeEEyy17gcc_cp_qualifiers21gcc_cp_ref_qualifiersET_P14gcc_cp_contextT1_T2_T3_T4_ _ZN10cc1_plugin2cp17build_method_typeE 17
_Z3rpcIyLZN10cc1_plugin2cp17build_method_typeEEyy17gcc_cp_qualifiers21gcc_cp_ref_qualifiersET_P14gcc_cp_contextT1_T2_T3_T4_ _ZN10cc1_plugin4callIyyy17gcc_cp_qualifiers21gcc_cp_ref_qualifiersEENS_6statusEPNS_10connectionEPKcPT_T0_T1_T2_T3_ 37
_ZN10cc1_plugin4callIyyPKcmEENS_6statusEPNS_10connectionES2_PT_T0_T1_T2_ _ZN10cc1_plugin10connection4sendEc 58
_ZN10cc1_plugin4callIyyPKcmEENS_6statusEPNS_10connectionES2_PT_T0_T1_T2_ _ZN10cc1_plugin8marshallEPNS_10connectionEPKc 119
_ZN10cc1_plugin4callIyyPKcmEENS_6statusEPNS_10connectionES2_PT_T0_T1_T2_ _ZN10cc1_plugin16marshall_intlikeEPNS_10connectionEy 136
_ZN10cc1_plugin4callIyyPKcmEENS_6statusEPNS_10connectionES2_PT_T0_T1_T2_ _ZN10cc1_plugin16marshall_intlikeEPNS_10connectionEy 151
_ZN10cc1_plugin4callIyyPKcmEENS_6statusEPNS_10connectionES2_PT_T0_T1_T2_ _ZN10cc1_plugin8marshallEPNS_10connectionEPKc 166
_ZN10cc1_plugin4callIyyPKcmEENS_6statusEPNS_10connectionES2_PT_T0_T1_T2_ _ZN10cc1_plugin16marshall_intlikeEPNS_10connectionEy 181
_ZN10cc1_plugin4callIyyPKcmEENS_6statusEPNS_10connectionES2_PT_T0_T1_T2_ _ZN10cc1_plugin10connection15wait_for_resultEv 193
_ZN10cc1_plugin4callIyyPKcmEENS_6statusEPNS_10connectionES2_PT_T0_T1_T2_ _ZN10cc1_plugin10unmarshallIyEENS_6statusEPNS_10connectionEPT_ 212
_Z3rpcIyLZN10cc1_plugin2cp19build_enum_constantEEyPKcmET_P14gcc_cp_contextT1_T2_T3_ _ZN10cc1_plugin2cp19build_enum_constantE 17
_Z3rpcIyLZN10cc1_plugin2cp19build_enum_constantEEyPKcmET_P14gcc_cp_contextT1_T2_T3_ _ZN10cc1_plugin4callIyyPKcmEENS_6statusEPNS_10connectionES2_PT_T0_T1_T2_ 30
_ZN10cc1_plugin4callIyPKcy18gcc_cp_symbol_kindS2_jEENS_6statusEPNS_10connectionES2_PT_T0_T1_T2_T3_T4_ _ZN10cc1_plugin10connection4sendEc 58
_ZN10cc1_plugin4callIyPKcy18gcc_cp_symbol_kindS2_jEENS_6statusEPNS_10connectionES2_PT_T0_T1_T2_T3_T4_ _ZN10cc1_plugin8marshallEPNS_10connectionEPKc 119
_ZN10cc1_plugin4callIyPKcy18gcc_cp_symbol_kindS2_jEENS_6statusEPNS_10connectionES2_PT_T0_T1_T2_T3_T4_ _ZN10cc1_plugin16marshall_intlikeEPNS_10connectionEy 136
_ZN10cc1_plugin4callIyPKcy18gcc_cp_symbol_kindS2_jEENS_6statusEPNS_10connectionES2_PT_T0_T1_T2_T3_T4_ _ZN10cc1_plugin8marshallEPNS_10connectionEPKc 151
_ZN10cc1_plugin4callIyPKcy18gcc_cp_symbol_kindS2_jEENS_6statusEPNS_10connectionES2_PT_T0_T1_T2_T3_T4_ _ZN10cc1_plugin16marshall_intlikeEPNS_10connectionEy 166
_ZN10cc1_plugin4callIyPKcy18gcc_cp_symbol_kindS2_jEENS_6statusEPNS_10connectionES2_PT_T0_T1_T2_T3_T4_ _ZN10cc1_plugin16marshall_intlikeEPNS_10connectionEy 181
_ZN10cc1_plugin4callIyPKcy18gcc_cp_symbol_kindS2_jEENS_6statusEPNS_10connectionES2_PT_T0_T1_T2_T3_T4_ _ZN10cc1_plugin8marshallEPNS_10connectionEPKc 198
_ZN10cc1_plugin4callIyPKcy18gcc_cp_symbol_kindS2_jEENS_6statusEPNS_10connectionES2_PT_T0_T1_T2_T3_T4_ _ZN10cc1_plugin16marshall_intlikeEPNS_10connectionEy 218
_ZN10cc1_plugin4callIyPKcy18gcc_cp_symbol_kindS2_jEENS_6statusEPNS_10connectionES2_PT_T0_T1_T2_T3_T4_ _ZN10cc1_plugin10connection15wait_for_resultEv 234
_ZN10cc1_plugin4callIyPKcy18gcc_cp_symbol_kindS2_jEENS_6statusEPNS_10connectionES2_PT_T0_T1_T2_T3_T4_ _ZN10cc1_plugin10unmarshallIyEENS_6statusEPNS_10connectionEPT_ 253
_Z3rpcIyLZN10cc1_plugin2cp15start_enum_typeEEPKcy18gcc_cp_symbol_kindS3_jET_P14gcc_cp_contextT1_T2_T3_T4_T5_ _ZN10cc1_plugin2cp15start_enum_typeE 25
_Z3rpcIyLZN10cc1_plugin2cp15start_enum_typeEEPKcy18gcc_cp_symbol_kindS3_jET_P14gcc_cp_contextT1_T2_T3_T4_T5_ _ZN10cc1_plugin4callIyPKcy18gcc_cp_symbol_kindS2_jEENS_6statusEPNS_10connectionES2_PT_T0_T1_T2_T3_T4_ 42
_ZN10cc1_plugin4callIyPKcy18gcc_cp_symbol_kindmmEENS_6statusEPNS_10connectionES2_PT_T0_T1_T2_T3_T4_ _ZN10cc1_plugin10connection4sendEc 58
_ZN10cc1_plugin4callIyPKcy18gcc_cp_symbol_kindmmEENS_6statusEPNS_10connectionES2_PT_T0_T1_T2_T3_T4_ _ZN10cc1_plugin8marshallEPNS_10connectionEPKc 119
_ZN10cc1_plugin4callIyPKcy18gcc_cp_symbol_kindmmEENS_6statusEPNS_10connectionES2_PT_T0_T1_T2_T3_T4_ _ZN10cc1_plugin16marshall_intlikeEPNS_10connectionEy 136
_ZN10cc1_plugin4callIyPKcy18gcc_cp_symbol_kindmmEENS_6statusEPNS_10connectionES2_PT_T0_T1_T2_T3_T4_ _ZN10cc1_plugin8marshallEPNS_10connectionEPKc 151
_ZN10cc1_plugin4callIyPKcy18gcc_cp_symbol_kindmmEENS_6statusEPNS_10connectionES2_PT_T0_T1_T2_T3_T4_ _ZN10cc1_plugin16marshall_intlikeEPNS_10connectionEy 166
_ZN10cc1_plugin4callIyPKcy18gcc_cp_symbol_kindmmEENS_6statusEPNS_10connectionES2_PT_T0_T1_T2_T3_T4_ _ZN10cc1_plugin16marshall_intlikeEPNS_10connectionEy 181
_ZN10cc1_plugin4callIyPKcy18gcc_cp_symbol_kindmmEENS_6statusEPNS_10connectionES2_PT_T0_T1_T2_T3_T4_ _ZN10cc1_plugin16marshall_intlikeEPNS_10connectionEy 198
_ZN10cc1_plugin4callIyPKcy18gcc_cp_symbol_kindmmEENS_6statusEPNS_10connectionES2_PT_T0_T1_T2_T3_T4_ _ZN10cc1_plugin16marshall_intlikeEPNS_10connectionEy 219
_ZN10cc1_plugin4callIyPKcy18gcc_cp_symbol_kindmmEENS_6statusEPNS_10connectionES2_PT_T0_T1_T2_T3_T4_ _ZN10cc1_plugin10connection15wait_for_resultEv 235
_ZN10cc1_plugin4callIyPKcy18gcc_cp_symbol_kindmmEENS_6statusEPNS_10connectionES2_PT_T0_T1_T2_T3_T4_ _ZN10cc1_plugin10unmarshallIyEENS_6statusEPNS_10connectionEPT_ 254
_Z3rpcIyLZN10cc1_plugin2cp11build_fieldEEPKcy18gcc_cp_symbol_kindmmET_P14gcc_cp_contextT1_T2_T3_T4_T5_ _ZN10cc1_plugin2cp11build_fieldE 25
_Z3rpcIyLZN10cc1_plugin2cp11build_fieldEEPKcy18gcc_cp_symbol_kindmmET_P14gcc_cp_contextT1_T2_T3_T4_T5_ _ZN10cc1_plugin4callIyPKcy18gcc_cp_symbol_kindmmEENS_6statusEPNS_10connectionES2_PT_T0_T1_T2_T3_T4_ 42
_ZN10cc1_plugin4callIyiy18gcc_cp_symbol_kindPKcjEENS_6statusEPNS_10connectionES3_PT_T0_T1_T2_T3_T4_ _ZN10cc1_plugin10connection4sendEc 58
_ZN10cc1_plugin4callIyiy18gcc_cp_symbol_kindPKcjEENS_6statusEPNS_10connectionES3_PT_T0_T1_T2_T3_T4_ _ZN10cc1_plugin8marshallEPNS_10connectionEPKc 119
_ZN10cc1_plugin4callIyiy18gcc_cp_symbol_kindPKcjEENS_6statusEPNS_10connectionES3_PT_T0_T1_T2_T3_T4_ _ZN10cc1_plugin16marshall_intlikeEPNS_10connectionEy 136
_ZN10cc1_plugin4callIyiy18gcc_cp_symbol_kindPKcjEENS_6statusEPNS_10connectionES3_PT_T0_T1_T2_T3_T4_ _ZN10cc1_plugin16marshall_intlikeEPNS_10connectionEy 151
_ZN10cc1_plugin4callIyiy18gcc_cp_symbol_kindPKcjEENS_6statusEPNS_10connectionES3_PT_T0_T1_T2_T3_T4_ _ZN10cc1_plugin16marshall_intlikeEPNS_10connectionEy 166
_ZN10cc1_plugin4callIyiy18gcc_cp_symbol_kindPKcjEENS_6statusEPNS_10connectionES3_PT_T0_T1_T2_T3_T4_ _ZN10cc1_plugin16marshall_intlikeEPNS_10connectionEy 181
_ZN10cc1_plugin4callIyiy18gcc_cp_symbol_kindPKcjEENS_6statusEPNS_10connectionES3_PT_T0_T1_T2_T3_T4_ _ZN10cc1_plugin8marshallEPNS_10connectionEPKc 198
_ZN10cc1_plugin4callIyiy18gcc_cp_symbol_kindPKcjEENS_6statusEPNS_10connectionES3_PT_T0_T1_T2_T3_T4_ _ZN10cc1_plugin16marshall_intlikeEPNS_10connectionEy 218
_ZN10cc1_plugin4callIyiy18gcc_cp_symbol_kindPKcjEENS_6statusEPNS_10connectionES3_PT_T0_T1_T2_T3_T4_ _ZN10cc1_plugin10connection15wait_for_resultEv 234
_ZN10cc1_plugin4callIyiy18gcc_cp_symbol_kindPKcjEENS_6statusEPNS_10connectionES3_PT_T0_T1_T2_T3_T4_ _ZN10cc1_plugin10unmarshallIyEENS_6statusEPNS_10connectionEPT_ 253
_Z3rpcIyLZN10cc1_plugin2cp24start_closure_class_typeEEiy18gcc_cp_symbol_kindPKcjET_P14gcc_cp_contextT1_T2_T3_T4_T5_ _ZN10cc1_plugin2cp24start_closure_class_typeE 24
_Z3rpcIyLZN10cc1_plugin2cp24start_closure_class_typeEEiy18gcc_cp_symbol_kindPKcjET_P14gcc_cp_contextT1_T2_T3_T4_T5_ _ZN10cc1_plugin4callIyiy18gcc_cp_symbol_kindPKcjEENS_6statusEPNS_10connectionES3_PT_T0_T1_T2_T3_T4_ 41
_ZN10cc1_plugin4callIyPKcyyEENS_6statusEPNS_10connectionES2_PT_T0_T1_T2_ _ZN10cc1_plugin10connection4sendEc 58
_ZN10cc1_plugin4callIyPKcyyEENS_6statusEPNS_10connectionES2_PT_T0_T1_T2_ _ZN10cc1_plugin8marshallEPNS_10connectionEPKc 119
_ZN10cc1_plugin4callIyPKcyyEENS_6statusEPNS_10connectionES2_PT_T0_T1_T2_ _ZN10cc1_plugin16marshall_intlikeEPNS_10connectionEy 136
_ZN10cc1_plugin4callIyPKcyyEENS_6statusEPNS_10connectionES2_PT_T0_T1_T2_ _ZN10cc1_plugin8marshallEPNS_10connectionEPKc 151
_ZN10cc1_plugin4callIyPKcyyEENS_6statusEPNS_10connectionES2_PT_T0_T1_T2_ _ZN10cc1_plugin16marshall_intlikeEPNS_10connectionEy 166
_ZN10cc1_plugin4callIyPKcyyEENS_6statusEPNS_10connectionES2_PT_T0_T1_T2_ _ZN10cc1_plugin16marshall_intlikeEPNS_10connectionEy 181
_ZN10cc1_plugin4callIyPKcyyEENS_6statusEPNS_10connectionES2_PT_T0_T1_T2_ _ZN10cc1_plugin10connection15wait_for_resultEv 193
_ZN10cc1_plugin4callIyPKcyyEENS_6statusEPNS_10connectionES2_PT_T0_T1_T2_ _ZN10cc1_plugin10unmarshallIyEENS_6statusEPNS_10connectionEPT_ 212
_Z3rpcIyLZN10cc1_plugin2cp15build_cast_exprEEPKcyyET_P14gcc_cp_contextT1_T2_T3_ _ZN10cc1_plugin2cp15build_cast_exprE 17
_Z3rpcIyLZN10cc1_plugin2cp15build_cast_exprEEPKcyyET_P14gcc_cp_contextT1_T2_T3_ _ZN10cc1_plugin4callIyPKcyyEENS_6statusEPNS_10connectionES2_PT_T0_T1_T2_ 30
_Z3rpcIyLZN10cc1_plugin2cp17build_binary_exprEEPKcyyET_P14gcc_cp_contextT1_T2_T3_ _ZN10cc1_plugin2cp17build_binary_exprE 17
_Z3rpcIyLZN10cc1_plugin2cp17build_binary_exprEEPKcyyET_P14gcc_cp_contextT1_T2_T3_ _ZN10cc1_plugin4callIyPKcyyEENS_6statusEPNS_10connectionES2_PT_T0_T1_T2_ 30
_Z3rpcIyLZN10cc1_plugin2cp18define_cdtor_cloneEEPKcyyET_P14gcc_cp_contextT1_T2_T3_ _ZN10cc1_plugin2cp18define_cdtor_cloneE 17
_Z3rpcIyLZN10cc1_plugin2cp18define_cdtor_cloneEEPKcyyET_P14gcc_cp_contextT1_T2_T3_ _ZN10cc1_plugin4callIyPKcyyEENS_6statusEPNS_10connectionES2_PT_T0_T1_T2_ 30
_ZN10cc1_plugin4callIyPKcyEENS_6statusEPNS_10connectionES2_PT_T0_T1_ _ZN10cc1_plugin10connection4sendEc 50
_ZN10cc1_plugin4callIyPKcyEENS_6statusEPNS_10connectionES2_PT_T0_T1_ _ZN10cc1_plugin8marshallEPNS_10connectionEPKc 103
_ZN10cc1_plugin4callIyPKcyEENS_6statusEPNS_10connectionES2_PT_T0_T1_ _ZN10cc1_plugin16marshall_intlikeEPNS_10connectionEy 120
_ZN10cc1_plugin4callIyPKcyEENS_6statusEPNS_10connectionES2_PT_T0_T1_ _ZN10cc1_plugin8marshallEPNS_10connectionEPKc 135
_ZN10cc1_plugin4callIyPKcyEENS_6statusEPNS_10connectionES2_PT_T0_T1_ _ZN10cc1_plugin16marshall_intlikeEPNS_10connectionEy 150
_ZN10cc1_plugin4callIyPKcyEENS_6statusEPNS_10connectionES2_PT_T0_T1_ _ZN10cc1_plugin10connection15wait_for_resultEv 162
_ZN10cc1_plugin4callIyPKcyEENS_6statusEPNS_10connectionES2_PT_T0_T1_ _ZN10cc1_plugin10unmarshallIyEENS_6statusEPNS_10connectionEPT_ 177
_Z3rpcIyLZN10cc1_plugin2cp21build_unary_type_exprEEPKcyET_P14gcc_cp_contextT1_T2_ _ZN10cc1_plugin2cp21build_unary_type_exprE 14
_Z3rpcIyLZN10cc1_plugin2cp21build_unary_type_exprEEPKcyET_P14gcc_cp_contextT1_T2_ _ZN10cc1_plugin4callIyPKcyEENS_6statusEPNS_10connectionES2_PT_T0_T1_ 27
_Z3rpcIyLZN10cc1_plugin2cp16build_unary_exprEEPKcyET_P14gcc_cp_contextT1_T2_ _ZN10cc1_plugin2cp16build_unary_exprE 14
_Z3rpcIyLZN10cc1_plugin2cp16build_unary_exprEEPKcyET_P14gcc_cp_contextT1_T2_ _ZN10cc1_plugin4callIyPKcyEENS_6statusEPNS_10connectionES2_PT_T0_T1_ 27
_ZN10cc1_plugin4callIyPKcyyyEENS_6statusEPNS_10connectionES2_PT_T0_T1_T2_T3_ _ZN10cc1_plugin10connection4sendEc 58
_ZN10cc1_plugin4callIyPKcyyyEENS_6statusEPNS_10connectionES2_PT_T0_T1_T2_T3_ _ZN10cc1_plugin8marshallEPNS_10connectionEPKc 119
_ZN10cc1_plugin4callIyPKcyyyEENS_6statusEPNS_10connectionES2_PT_T0_T1_T2_T3_ _ZN10cc1_plugin16marshall_intlikeEPNS_10connectionEy 136
_ZN10cc1_plugin4callIyPKcyyyEENS_6statusEPNS_10connectionES2_PT_T0_T1_T2_T3_ _ZN10cc1_plugin8marshallEPNS_10connectionEPKc 151
_ZN10cc1_plugin4callIyPKcyyyEENS_6statusEPNS_10connectionES2_PT_T0_T1_T2_T3_ _ZN10cc1_plugin16marshall_intlikeEPNS_10connectionEy 166
_ZN10cc1_plugin4callIyPKcyyyEENS_6statusEPNS_10connectionES2_PT_T0_T1_T2_T3_ _ZN10cc1_plugin16marshall_intlikeEPNS_10connectionEy 181
_ZN10cc1_plugin4callIyPKcyyyEENS_6statusEPNS_10connectionES2_PT_T0_T1_T2_T3_ _ZN10cc1_plugin16marshall_intlikeEPNS_10connectionEy 198
_ZN10cc1_plugin4callIyPKcyyyEENS_6statusEPNS_10connectionES2_PT_T0_T1_T2_T3_ _ZN10cc1_plugin10connection15wait_for_resultEv 214
_ZN10cc1_plugin4callIyPKcyyyEENS_6statusEPNS_10connectionES2_PT_T0_T1_T2_T3_ _ZN10cc1_plugin10unmarshallIyEENS_6statusEPNS_10connectionEPT_ 233
_Z3rpcIyLZN10cc1_plugin2cp18build_ternary_exprEEPKcyyyET_P14gcc_cp_contextT1_T2_T3_T4_ _ZN10cc1_plugin2cp18build_ternary_exprE 17
_Z3rpcIyLZN10cc1_plugin2cp18build_ternary_exprEEPKcyyyET_P14gcc_cp_contextT1_T2_T3_T4_ _ZN10cc1_plugin4callIyPKcyyyEENS_6statusEPNS_10connectionES2_PT_T0_T1_T2_T3_ 37
_ZN10cc1_plugin4callIyymEENS_6statusEPNS_10connectionEPKcPT_T0_T1_ _ZN10cc1_plugin10connection4sendEc 50
_ZN10cc1_plugin4callIyymEENS_6statusEPNS_10connectionEPKcPT_T0_T1_ _ZN10cc1_plugin8marshallEPNS_10connectionEPKc 103
_ZN10cc1_plugin4callIyymEENS_6statusEPNS_10connectionEPKcPT_T0_T1_ _ZN10cc1_plugin16marshall_intlikeEPNS_10connectionEy 120
_ZN10cc1_plugin4callIyymEENS_6statusEPNS_10connectionEPKcPT_T0_T1_ _ZN10cc1_plugin16marshall_intlikeEPNS_10connectionEy 135
_ZN10cc1_plugin4callIyymEENS_6statusEPNS_10connectionEPKcPT_T0_T1_ _ZN10cc1_plugin16marshall_intlikeEPNS_10connectionEy 150
_ZN10cc1_plugin4callIyymEENS_6statusEPNS_10connectionEPKcPT_T0_T1_ _ZN10cc1_plugin10connection15wait_for_resultEv 162
_ZN10cc1_plugin4callIyymEENS_6statusEPNS_10connectionEPKcPT_T0_T1_ _ZN10cc1_plugin10unmarshallIyEENS_6statusEPNS_10connectionEPT_ 177
_Z3rpcIyLZN10cc1_plugin2cp18build_literal_exprEEymET_P14gcc_cp_contextT1_T2_ _ZN10cc1_plugin2cp18build_literal_exprE 14
_Z3rpcIyLZN10cc1_plugin2cp18build_literal_exprEEymET_P14gcc_cp_contextT1_T2_ _ZN10cc1_plugin4callIyymEENS_6statusEPNS_10connectionEPKcPT_T0_T1_ 27
_ZN10cc1_plugin4callIyyPKcyS2_jEENS_6statusEPNS_10connectionES2_PT_T0_T1_T2_T3_T4_ _ZN10cc1_plugin10connection4sendEc 58
_ZN10cc1_plugin4callIyyPKcyS2_jEENS_6statusEPNS_10connectionES2_PT_T0_T1_T2_T3_T4_ _ZN10cc1_plugin8marshallEPNS_10connectionEPKc 119
_ZN10cc1_plugin4callIyyPKcyS2_jEENS_6statusEPNS_10connectionES2_PT_T0_T1_T2_T3_T4_ _ZN10cc1_plugin16marshall_intlikeEPNS_10connectionEy 136
_ZN10cc1_plugin4callIyyPKcyS2_jEENS_6statusEPNS_10connectionES2_PT_T0_T1_T2_T3_T4_ _ZN10cc1_plugin16marshall_intlikeEPNS_10connectionEy 151
_ZN10cc1_plugin4callIyyPKcyS2_jEENS_6statusEPNS_10connectionES2_PT_T0_T1_T2_T3_T4_ _ZN10cc1_plugin8marshallEPNS_10connectionEPKc 166
_ZN10cc1_plugin4callIyyPKcyS2_jEENS_6statusEPNS_10connectionES2_PT_T0_T1_T2_T3_T4_ _ZN10cc1_plugin16marshall_intlikeEPNS_10connectionEy 181
_ZN10cc1_plugin4callIyyPKcyS2_jEENS_6statusEPNS_10connectionES2_PT_T0_T1_T2_T3_T4_ _ZN10cc1_plugin8marshallEPNS_10connectionEPKc 198
_ZN10cc1_plugin4callIyyPKcyS2_jEENS_6statusEPNS_10connectionES2_PT_T0_T1_T2_T3_T4_ _ZN10cc1_plugin16marshall_intlikeEPNS_10connectionEy 218
_ZN10cc1_plugin4callIyyPKcyS2_jEENS_6statusEPNS_10connectionES2_PT_T0_T1_T2_T3_T4_ _ZN10cc1_plugin10connection15wait_for_resultEv 234
_ZN10cc1_plugin4callIyyPKcyS2_jEENS_6statusEPNS_10connectionES2_PT_T0_T1_T2_T3_T4_ _ZN10cc1_plugin10unmarshallIyEENS_6statusEPNS_10connectionEPT_ 253
_Z3rpcIyLZN10cc1_plugin2cp30build_value_template_parameterEEyPKcyS3_jET_P14gcc_cp_contextT1_T2_T3_T4_T5_ _ZN10cc1_plugin2cp30build_value_template_parameterE 25
_Z3rpcIyLZN10cc1_plugin2cp30build_value_template_parameterEEyPKcyS3_jET_P14gcc_cp_contextT1_T2_T3_T4_T5_ _ZN10cc1_plugin4callIyyPKcyS2_jEENS_6statusEPNS_10connectionES2_PT_T0_T1_T2_T3_T4_ 42
_ZN10cc1_plugin4callIyPKciyS2_jEENS_6statusEPNS_10connectionES2_PT_T0_T1_T2_T3_T4_ _ZN10cc1_plugin10connection4sendEc 58
_ZN10cc1_plugin4callIyPKciyS2_jEENS_6statusEPNS_10connectionES2_PT_T0_T1_T2_T3_T4_ _ZN10cc1_plugin8marshallEPNS_10connectionEPKc 119
_ZN10cc1_plugin4callIyPKciyS2_jEENS_6statusEPNS_10connectionES2_PT_T0_T1_T2_T3_T4_ _ZN10cc1_plugin16marshall_intlikeEPNS_10connectionEy 136
_ZN10cc1_plugin4callIyPKciyS2_jEENS_6statusEPNS_10connectionES2_PT_T0_T1_T2_T3_T4_ _ZN10cc1_plugin8marshallEPNS_10connectionEPKc 151
_ZN10cc1_plugin4callIyPKciyS2_jEENS_6statusEPNS_10connectionES2_PT_T0_T1_T2_T3_T4_ _ZN10cc1_plugin16marshall_intlikeEPNS_10connectionEy 166
_ZN10cc1_plugin4callIyPKciyS2_jEENS_6statusEPNS_10connectionES2_PT_T0_T1_T2_T3_T4_ _ZN10cc1_plugin16marshall_intlikeEPNS_10connectionEy 181
_ZN10cc1_plugin4callIyPKciyS2_jEENS_6statusEPNS_10connectionES2_PT_T0_T1_T2_T3_T4_ _ZN10cc1_plugin8marshallEPNS_10connectionEPKc 198
_ZN10cc1_plugin4callIyPKciyS2_jEENS_6statusEPNS_10connectionES2_PT_T0_T1_T2_T3_T4_ _ZN10cc1_plugin16marshall_intlikeEPNS_10connectionEy 218
_ZN10cc1_plugin4callIyPKciyS2_jEENS_6statusEPNS_10connectionES2_PT_T0_T1_T2_T3_T4_ _ZN10cc1_plugin10connection15wait_for_resultEv 234
_ZN10cc1_plugin4callIyPKciyS2_jEENS_6statusEPNS_10connectionES2_PT_T0_T1_T2_T3_T4_ _ZN10cc1_plugin10unmarshallIyEENS_6statusEPNS_10connectionEPT_ 253
_Z3rpcIyLZN10cc1_plugin2cp33build_template_template_parameterEEPKciyS3_jET_P14gcc_cp_contextT1_T2_T3_T4_T5_ _ZN10cc1_plugin2cp33build_template_template_parameterE 24
_Z3rpcIyLZN10cc1_plugin2cp33build_template_template_parameterEEPKciyS3_jET_P14gcc_cp_contextT1_T2_T3_T4_T5_ _ZN10cc1_plugin4callIyPKciyS2_jEENS_6statusEPNS_10connectionES2_PT_T0_T1_T2_T3_T4_ 41
_Z3rpcIyLZN10cc1_plugin2cp29build_type_template_parameterEEPKciyS3_jET_P14gcc_cp_contextT1_T2_T3_T4_T5_ _ZN10cc1_plugin2cp29build_type_template_parameterE 24
_Z3rpcIyLZN10cc1_plugin2cp29build_type_template_parameterEEPKciyS3_jET_P14gcc_cp_contextT1_T2_T3_T4_T5_ _ZN10cc1_plugin4callIyPKciyS2_jEENS_6statusEPNS_10connectionES2_PT_T0_T1_T2_T3_T4_ 41
_ZN10cc1_plugin4callIyy21gcc_cp_ref_qualifiersEENS_6statusEPNS_10connectionEPKcPT_T0_T1_ _ZN10cc1_plugin10connection4sendEc 50
_ZN10cc1_plugin4callIyy21gcc_cp_ref_qualifiersEENS_6statusEPNS_10connectionEPKcPT_T0_T1_ _ZN10cc1_plugin8marshallEPNS_10connectionEPKc 103
_ZN10cc1_plugin4callIyy21gcc_cp_ref_qualifiersEENS_6statusEPNS_10connectionEPKcPT_T0_T1_ _ZN10cc1_plugin16marshall_intlikeEPNS_10connectionEy 120
_ZN10cc1_plugin4callIyy21gcc_cp_ref_qualifiersEENS_6statusEPNS_10connectionEPKcPT_T0_T1_ _ZN10cc1_plugin16marshall_intlikeEPNS_10connectionEy 135
_ZN10cc1_plugin4callIyy21gcc_cp_ref_qualifiersEENS_6statusEPNS_10connectionEPKcPT_T0_T1_ _ZN10cc1_plugin16marshall_intlikeEPNS_10connectionEy 150
_ZN10cc1_plugin4callIyy21gcc_cp_ref_qualifiersEENS_6statusEPNS_10connectionEPKcPT_T0_T1_ _ZN10cc1_plugin10connection15wait_for_resultEv 162
_ZN10cc1_plugin4callIyy21gcc_cp_ref_qualifiersEENS_6statusEPNS_10connectionEPKcPT_T0_T1_ _ZN10cc1_plugin10unmarshallIyEENS_6statusEPNS_10connectionEPT_ 177
_Z3rpcIyLZN10cc1_plugin2cp20build_reference_typeEEy21gcc_cp_ref_qualifiersET_P14gcc_cp_contextT1_T2_ _ZN10cc1_plugin2cp20build_reference_typeE 14
_Z3rpcIyLZN10cc1_plugin2cp20build_reference_typeEEy21gcc_cp_ref_qualifiersET_P14gcc_cp_contextT1_T2_ _ZN10cc1_plugin4callIyy21gcc_cp_ref_qualifiersEENS_6statusEPNS_10connectionEPKcPT_T0_T1_ 27
_ZN10cc1_plugin4callIyPKc18gcc_cp_symbol_kindyS2_yS2_jEENS_6statusEPNS_10connectionES2_PT_T0_T1_T2_T3_T4_T5_T6_ _ZN10cc1_plugin10connection4sendEc 58
_ZN10cc1_plugin4callIyPKc18gcc_cp_symbol_kindyS2_yS2_jEENS_6statusEPNS_10connectionES2_PT_T0_T1_T2_T3_T4_T5_T6_ _ZN10cc1_plugin8marshallEPNS_10connectionEPKc 119
_ZN10cc1_plugin4callIyPKc18gcc_cp_symbol_kindyS2_yS2_jEENS_6statusEPNS_10connectionES2_PT_T0_T1_T2_T3_T4_T5_T6_ _ZN10cc1_plugin16marshall_intlikeEPNS_10connectionEy 136
_ZN10cc1_plugin4callIyPKc18gcc_cp_symbol_kindyS2_yS2_jEENS_6statusEPNS_10connectionES2_PT_T0_T1_T2_T3_T4_T5_T6_ _ZN10cc1_plugin8marshallEPNS_10connectionEPKc 151
_ZN10cc1_plugin4callIyPKc18gcc_cp_symbol_kindyS2_yS2_jEENS_6statusEPNS_10connectionES2_PT_T0_T1_T2_T3_T4_T5_T6_ _ZN10cc1_plugin16marshall_intlikeEPNS_10connectionEy 166
_ZN10cc1_plugin4callIyPKc18gcc_cp_symbol_kindyS2_yS2_jEENS_6statusEPNS_10connectionES2_PT_T0_T1_T2_T3_T4_T5_T6_ _ZN10cc1_plugin16marshall_intlikeEPNS_10connectionEy 181
_ZN10cc1_plugin4callIyPKc18gcc_cp_symbol_kindyS2_yS2_jEENS_6statusEPNS_10connectionES2_PT_T0_T1_T2_T3_T4_T5_T6_ _ZN10cc1_plugin8marshallEPNS_10connectionEPKc 198
_ZN10cc1_plugin4callIyPKc18gcc_cp_symbol_kindyS2_yS2_jEENS_6statusEPNS_10connectionES2_PT_T0_T1_T2_T3_T4_T5_T6_ _ZN10cc1_plugin16marshall_intlikeEPNS_10connectionEy 219
_ZN10cc1_plugin4callIyPKc18gcc_cp_symbol_kindyS2_yS2_jEENS_6statusEPNS_10connectionES2_PT_T0_T1_T2_T3_T4_T5_T6_ _ZN10cc1_plugin8marshallEPNS_10connectionEPKc 240
_ZN10cc1_plugin4callIyPKc18gcc_cp_symbol_kindyS2_yS2_jEENS_6statusEPNS_10connectionES2_PT_T0_T1_T2_T3_T4_T5_T6_ _ZN10cc1_plugin16marshall_intlikeEPNS_10connectionEy 260
_ZN10cc1_plugin4callIyPKc18gcc_cp_symbol_kindyS2_yS2_jEENS_6statusEPNS_10connectionES2_PT_T0_T1_T2_T3_T4_T5_T6_ _ZN10cc1_plugin10connection15wait_for_resultEv 276
_ZN10cc1_plugin4callIyPKc18gcc_cp_symbol_kindyS2_yS2_jEENS_6statusEPNS_10connectionES2_PT_T0_T1_T2_T3_T4_T5_T6_ _ZN10cc1_plugin10unmarshallIyEENS_6statusEPNS_10connectionEPT_ 295
_Z3rpcIyLZN10cc1_plugin2cp10build_declEEPKc18gcc_cp_symbol_kindyS3_yS3_jET_P14gcc_cp_contextT1_T2_T3_T4_T5_T6_T7_ _ZN10cc1_plugin2cp10build_declE 29
_Z3rpcIyLZN10cc1_plugin2cp10build_declEEPKc18gcc_cp_symbol_kindyS3_yS3_jET_P14gcc_cp_contextT1_T2_T3_T4_T5_T6_T7_ _ZN10cc1_plugin4callIyPKc18gcc_cp_symbol_kindyS2_yS2_jEENS_6statusEPNS_10connectionES2_PT_T0_T1_T2_T3_T4_T5_T6_ 61
_ZN10cc1_plugin4callIyyPK14gcc_type_arrayEENS_6statusEPNS_10connectionEPKcPT_T0_T1_ _ZN10cc1_plugin10connection4sendEc 50
_ZN10cc1_plugin4callIyyPK14gcc_type_arrayEENS_6statusEPNS_10connectionEPKcPT_T0_T1_ _ZN10cc1_plugin8marshallEPNS_10connectionEPKc 103
_ZN10cc1_plugin4callIyyPK14gcc_type_arrayEENS_6statusEPNS_10connectionEPKcPT_T0_T1_ _ZN10cc1_plugin16marshall_intlikeEPNS_10connectionEy 120
_ZN10cc1_plugin4callIyyPK14gcc_type_arrayEENS_6statusEPNS_10connectionEPKcPT_T0_T1_ _ZN10cc1_plugin16marshall_intlikeEPNS_10connectionEy 135
_ZN10cc1_plugin4callIyyPK14gcc_type_arrayEENS_6statusEPNS_10connectionEPKcPT_T0_T1_ _ZN10cc1_plugin8marshallEPNS_10connectionEPK14gcc_type_array 150
_ZN10cc1_plugin4callIyyPK14gcc_type_arrayEENS_6statusEPNS_10connectionEPKcPT_T0_T1_ _ZN10cc1_plugin10connection15wait_for_resultEv 162
_ZN10cc1_plugin4callIyyPK14gcc_type_arrayEENS_6statusEPNS_10connectionEPKcPT_T0_T1_ _ZN10cc1_plugin10unmarshallIyEENS_6statusEPNS_10connectionEPT_ 177
_Z3rpcIyLZN10cc1_plugin2cp28build_exception_spec_variantEEyPK14gcc_type_arrayET_P14gcc_cp_contextT1_T2_ _ZN10cc1_plugin2cp28build_exception_spec_variantE 14
_Z3rpcIyLZN10cc1_plugin2cp28build_exception_spec_variantEEyPK14gcc_type_arrayET_P14gcc_cp_contextT1_T2_ _ZN10cc1_plugin4callIyyPK14gcc_type_arrayEENS_6statusEPNS_10connectionEPKcPT_T0_T1_ 27
_Z3rpcIyLZN10cc1_plugin2cp19build_function_typeEEyPK14gcc_type_arrayiET_P14gcc_cp_contextT1_T2_T3_ _ZN10cc1_plugin2cp19build_function_typeE 17
_Z3rpcIyLZN10cc1_plugin2cp19build_function_typeEEyPK14gcc_type_arrayiET_P14gcc_cp_contextT1_T2_T3_ _ZN10cc1_plugin4callIyyPK14gcc_type_arrayiEENS_6statusEPNS_10connectionEPKcPT_T0_T1_T2_ 30
_ZN17libcp1_connectionD0Ev _ZTV17libcp1_connection 7
_ZN17libcp1_connectionD0Ev _ZN10cc1_plugin10connectionD2Ev 12
_ZN17libcp1_connectionD0Ev _ZdlPv 21
_ZN17libcp1_connectionD1Ev _ZTV17libcp1_connection 3
_ZN17libcp1_connectionD1Ev _ZN10cc1_plugin10connectionD2Ev 8
_ZN10cc1_plugin4callIyyiPK20gcc_cp_function_argsEENS_6statusEPNS_10connectionEPKcPT_T0_T1_T2_ _ZN10cc1_plugin10connection4sendEc 58
_ZN10cc1_plugin4callIyyiPK20gcc_cp_function_argsEENS_6statusEPNS_10connectionEPKcPT_T0_T1_T2_ _ZN10cc1_plugin8marshallEPNS_10connectionEPKc 119
_ZN10cc1_plugin4callIyyiPK20gcc_cp_function_argsEENS_6statusEPNS_10connectionEPKcPT_T0_T1_T2_ _ZN10cc1_plugin16marshall_intlikeEPNS_10connectionEy 136
_ZN10cc1_plugin4callIyyiPK20gcc_cp_function_argsEENS_6statusEPNS_10connectionEPKcPT_T0_T1_T2_ _ZN10cc1_plugin16marshall_intlikeEPNS_10connectionEy 151
_ZN10cc1_plugin4callIyyiPK20gcc_cp_function_argsEENS_6statusEPNS_10connectionEPKcPT_T0_T1_T2_ _ZN10cc1_plugin16marshall_intlikeEPNS_10connectionEy 166
_ZN10cc1_plugin4callIyyiPK20gcc_cp_function_argsEENS_6statusEPNS_10connectionEPKcPT_T0_T1_T2_ _ZN10cc1_plugin8marshallEPNS_10connectionEPK20gcc_cp_function_args 181
_ZN10cc1_plugin4callIyyiPK20gcc_cp_function_argsEENS_6statusEPNS_10connectionEPKcPT_T0_T1_T2_ _ZN10cc1_plugin10connection15wait_for_resultEv 193
_ZN10cc1_plugin4callIyyiPK20gcc_cp_function_argsEENS_6statusEPNS_10connectionEPKcPT_T0_T1_T2_ _ZN10cc1_plugin10unmarshallIyEENS_6statusEPNS_10connectionEPT_ 212
_Z3rpcIyLZN10cc1_plugin2cp15build_call_exprEEyiPK20gcc_cp_function_argsET_P14gcc_cp_contextT1_T2_T3_ _ZN10cc1_plugin2cp15build_call_exprE 17
_Z3rpcIyLZN10cc1_plugin2cp15build_call_exprEEyiPK20gcc_cp_function_argsET_P14gcc_cp_contextT1_T2_T3_ _ZN10cc1_plugin4callIyyiPK20gcc_cp_function_argsEENS_6statusEPNS_10connectionEPKcPT_T0_T1_T2_ 30
_ZN10cc1_plugin4callIyPKcPK20gcc_cp_function_argsyS5_EENS_6statusEPNS_10connectionES2_PT_T0_T1_T2_T3_ _ZN10cc1_plugin10connection4sendEc 58
_ZN10cc1_plugin4callIyPKcPK20gcc_cp_function_argsyS5_EENS_6statusEPNS_10connectionES2_PT_T0_T1_T2_T3_ _ZN10cc1_plugin8marshallEPNS_10connectionEPKc 119
_ZN10cc1_plugin4callIyPKcPK20gcc_cp_function_argsyS5_EENS_6statusEPNS_10connectionES2_PT_T0_T1_T2_T3_ _ZN10cc1_plugin16marshall_intlikeEPNS_10connectionEy 136
_ZN10cc1_plugin4callIyPKcPK20gcc_cp_function_argsyS5_EENS_6statusEPNS_10connectionES2_PT_T0_T1_T2_T3_ _ZN10cc1_plugin8marshallEPNS_10connectionEPKc 151
_ZN10cc1_plugin4callIyPKcPK20gcc_cp_function_argsyS5_EENS_6statusEPNS_10connectionES2_PT_T0_T1_T2_T3_ _ZN10cc1_plugin8marshallEPNS_10connectionEPK20gcc_cp_function_args 166
_ZN10cc1_plugin4callIyPKcPK20gcc_cp_function_argsyS5_EENS_6statusEPNS_10connectionES2_PT_T0_T1_T2_T3_ _ZN10cc1_plugin16marshall_intlikeEPNS_10connectionEy 181
_ZN10cc1_plugin4callIyPKcPK20gcc_cp_function_argsyS5_EENS_6statusEPNS_10connectionES2_PT_T0_T1_T2_T3_ _ZN10cc1_plugin8marshallEPNS_10connectionEPK20gcc_cp_function_args 198
_ZN10cc1_plugin4callIyPKcPK20gcc_cp_function_argsyS5_EENS_6statusEPNS_10connectionES2_PT_T0_T1_T2_T3_ _ZN10cc1_plugin10connection15wait_for_resultEv 214
_ZN10cc1_plugin4callIyPKcPK20gcc_cp_function_argsyS5_EENS_6statusEPNS_10connectionES2_PT_T0_T1_T2_T3_ _ZN10cc1_plugin10unmarshallIyEENS_6statusEPNS_10connectionEPT_ 233
_Z3rpcIyLZN10cc1_plugin2cp14build_new_exprEEPKcPK20gcc_cp_function_argsyS6_ET_P14gcc_cp_contextT1_T2_T3_T4_ _ZN10cc1_plugin2cp14build_new_exprE 17
_Z3rpcIyLZN10cc1_plugin2cp14build_new_exprEEPKcPK20gcc_cp_function_argsyS6_ET_P14gcc_cp_contextT1_T2_T3_T4_ _ZN10cc1_plugin4callIyPKcPK20gcc_cp_function_argsyS5_EENS_6statusEPNS_10connectionES2_PT_T0_T1_T2_T3_ 37
_ZN10cc1_plugin4callIyPKcyPK20gcc_cp_function_argsEENS_6statusEPNS_10connectionES2_PT_T0_T1_T2_ _ZN10cc1_plugin10connection4sendEc 58
_ZN10cc1_plugin4callIyPKcyPK20gcc_cp_function_argsEENS_6statusEPNS_10connectionES2_PT_T0_T1_T2_ _ZN10cc1_plugin8marshallEPNS_10connectionEPKc 119
_ZN10cc1_plugin4callIyPKcyPK20gcc_cp_function_argsEENS_6statusEPNS_10connectionES2_PT_T0_T1_T2_ _ZN10cc1_plugin16marshall_intlikeEPNS_10connectionEy 136
_ZN10cc1_plugin4callIyPKcyPK20gcc_cp_function_argsEENS_6statusEPNS_10connectionES2_PT_T0_T1_T2_ _ZN10cc1_plugin8marshallEPNS_10connectionEPKc 151
_ZN10cc1_plugin4callIyPKcyPK20gcc_cp_function_argsEENS_6statusEPNS_10connectionES2_PT_T0_T1_T2_ _ZN10cc1_plugin16marshall_intlikeEPNS_10connectionEy 166
_ZN10cc1_plugin4callIyPKcyPK20gcc_cp_function_argsEENS_6statusEPNS_10connectionES2_PT_T0_T1_T2_ _ZN10cc1_plugin8marshallEPNS_10connectionEPK20gcc_cp_function_args 181
_ZN10cc1_plugin4callIyPKcyPK20gcc_cp_function_argsEENS_6statusEPNS_10connectionES2_PT_T0_T1_T2_ _ZN10cc1_plugin10connection15wait_for_resultEv 193
_ZN10cc1_plugin4callIyPKcyPK20gcc_cp_function_argsEENS_6statusEPNS_10connectionES2_PT_T0_T1_T2_ _ZN10cc1_plugin10unmarshallIyEENS_6statusEPNS_10connectionEPT_ 212
_Z3rpcIyLZN10cc1_plugin2cp26build_expression_list_exprEEPKcyPK20gcc_cp_function_argsET_P14gcc_cp_contextT1_T2_T3_ _ZN10cc1_plugin2cp26build_expression_list_exprE 17
_Z3rpcIyLZN10cc1_plugin2cp26build_expression_list_exprEEPKcyPK20gcc_cp_function_argsET_P14gcc_cp_contextT1_T2_T3_ _ZN10cc1_plugin4callIyPKcyPK20gcc_cp_function_argsEENS_6statusEPNS_10connectionES2_PT_T0_T1_T2_ 30
_ZN10cc1_plugin4callIyyPK20gcc_cp_template_argsPKcjEENS_6statusEPNS_10connectionES5_PT_T0_T1_T2_T3_ _ZN10cc1_plugin10connection4sendEc 58
_ZN10cc1_plugin4callIyyPK20gcc_cp_template_argsPKcjEENS_6statusEPNS_10connectionES5_PT_T0_T1_T2_T3_ _ZN10cc1_plugin8marshallEPNS_10connectionEPKc 119
_ZN10cc1_plugin4callIyyPK20gcc_cp_template_argsPKcjEENS_6statusEPNS_10connectionES5_PT_T0_T1_T2_T3_ _ZN10cc1_plugin16marshall_intlikeEPNS_10connectionEy 136
_ZN10cc1_plugin4callIyyPK20gcc_cp_template_argsPKcjEENS_6statusEPNS_10connectionES5_PT_T0_T1_T2_T3_ _ZN10cc1_plugin16marshall_intlikeEPNS_10connectionEy 151
_ZN10cc1_plugin4callIyyPK20gcc_cp_template_argsPKcjEENS_6statusEPNS_10connectionES5_PT_T0_T1_T2_T3_ _ZN10cc1_plugin8marshallEPNS_10connectionEPK20gcc_cp_template_args 166
_ZN10cc1_plugin4callIyyPK20gcc_cp_template_argsPKcjEENS_6statusEPNS_10connectionES5_PT_T0_T1_T2_T3_ _ZN10cc1_plugin8marshallEPNS_10connectionEPKc 181
_ZN10cc1_plugin4callIyyPK20gcc_cp_template_argsPKcjEENS_6statusEPNS_10connectionES5_PT_T0_T1_T2_T3_ _ZN10cc1_plugin16marshall_intlikeEPNS_10connectionEy 197
_ZN10cc1_plugin4callIyyPK20gcc_cp_template_argsPKcjEENS_6statusEPNS_10connectionES5_PT_T0_T1_T2_T3_ _ZN10cc1_plugin10connection15wait_for_resultEv 213
_ZN10cc1_plugin4callIyyPK20gcc_cp_template_argsPKcjEENS_6statusEPNS_10connectionES5_PT_T0_T1_T2_T3_ _ZN10cc1_plugin10unmarshallIyEENS_6statusEPNS_10connectionEPT_ 232
_Z3rpcIyLZN10cc1_plugin2cp35build_class_template_specializationEEyPK20gcc_cp_template_argsPKcjET_P14gcc_cp_contextT1_T2_T3_T4_ _ZN10cc1_plugin2cp35build_class_template_specializationE 17
_Z3rpcIyLZN10cc1_plugin2cp35build_class_template_specializationEEyPK20gcc_cp_template_argsPKcjET_P14gcc_cp_contextT1_T2_T3_T4_ _ZN10cc1_plugin4callIyyPK20gcc_cp_template_argsPKcjEENS_6statusEPNS_10connectionES5_PT_T0_T1_T2_T3_ 37
_ZN10cc1_plugin4callIyyPK20gcc_cp_template_argsyPKcjEENS_6statusEPNS_10connectionES5_PT_T0_T1_T2_T3_T4_ _ZN10cc1_plugin10connection4sendEc 58
_ZN10cc1_plugin4callIyyPK20gcc_cp_template_argsyPKcjEENS_6statusEPNS_10connectionES5_PT_T0_T1_T2_T3_T4_ _ZN10cc1_plugin8marshallEPNS_10connectionEPKc 119
_ZN10cc1_plugin4callIyyPK20gcc_cp_template_argsyPKcjEENS_6statusEPNS_10connectionES5_PT_T0_T1_T2_T3_T4_ _ZN10cc1_plugin16marshall_intlikeEPNS_10connectionEy 136
_ZN10cc1_plugin4callIyyPK20gcc_cp_template_argsyPKcjEENS_6statusEPNS_10connectionES5_PT_T0_T1_T2_T3_T4_ _ZN10cc1_plugin16marshall_intlikeEPNS_10connectionEy 151
_ZN10cc1_plugin4callIyyPK20gcc_cp_template_argsyPKcjEENS_6statusEPNS_10connectionES5_PT_T0_T1_T2_T3_T4_ _ZN10cc1_plugin8marshallEPNS_10connectionEPK20gcc_cp_template_args 166
_ZN10cc1_plugin4callIyyPK20gcc_cp_template_argsyPKcjEENS_6statusEPNS_10connectionES5_PT_T0_T1_T2_T3_T4_ _ZN10cc1_plugin16marshall_intlikeEPNS_10connectionEy 181
_ZN10cc1_plugin4callIyyPK20gcc_cp_template_argsyPKcjEENS_6statusEPNS_10connectionES5_PT_T0_T1_T2_T3_T4_ _ZN10cc1_plugin8marshallEPNS_10connectionEPKc 198
_ZN10cc1_plugin4callIyyPK20gcc_cp_template_argsyPKcjEENS_6statusEPNS_10connectionES5_PT_T0_T1_T2_T3_T4_ _ZN10cc1_plugin16marshall_intlikeEPNS_10connectionEy 218
_ZN10cc1_plugin4callIyyPK20gcc_cp_template_argsyPKcjEENS_6statusEPNS_10connectionES5_PT_T0_T1_T2_T3_T4_ _ZN10cc1_plugin10connection15wait_for_resultEv 234
_ZN10cc1_plugin4callIyyPK20gcc_cp_template_argsyPKcjEENS_6statusEPNS_10connectionES5_PT_T0_T1_T2_T3_T4_ _ZN10cc1_plugin10unmarshallIyEENS_6statusEPNS_10connectionEPT_ 253
_Z3rpcIyLZN10cc1_plugin2cp38build_function_template_specializationEEyPK20gcc_cp_template_argsyPKcjET_P14gcc_cp_contextT1_T2_T3_T4_T5_ _ZN10cc1_plugin2cp38build_function_template_specializationE 25
_Z3rpcIyLZN10cc1_plugin2cp38build_function_template_specializationEEyPK20gcc_cp_template_argsyPKcjET_P14gcc_cp_contextT1_T2_T3_T4_T5_ _ZN10cc1_plugin4callIyyPK20gcc_cp_template_argsyPKcjEENS_6statusEPNS_10connectionES5_PT_T0_T1_T2_T3_T4_ 42
_ZN10cc1_plugin4callIyy18gcc_cp_symbol_kindPKcyPK20gcc_cp_template_argsEENS_6statusEPNS_10connectionES3_PT_T0_T1_T2_T3_T4_ _ZN10cc1_plugin10connection4sendEc 58
_ZN10cc1_plugin4callIyy18gcc_cp_symbol_kindPKcyPK20gcc_cp_template_argsEENS_6statusEPNS_10connectionES3_PT_T0_T1_T2_T3_T4_ _ZN10cc1_plugin8marshallEPNS_10connectionEPKc 119
_ZN10cc1_plugin4callIyy18gcc_cp_symbol_kindPKcyPK20gcc_cp_template_argsEENS_6statusEPNS_10connectionES3_PT_T0_T1_T2_T3_T4_ _ZN10cc1_plugin16marshall_intlikeEPNS_10connectionEy 136
_ZN10cc1_plugin4callIyy18gcc_cp_symbol_kindPKcyPK20gcc_cp_template_argsEENS_6statusEPNS_10connectionES3_PT_T0_T1_T2_T3_T4_ _ZN10cc1_plugin16marshall_intlikeEPNS_10connectionEy 151
_ZN10cc1_plugin4callIyy18gcc_cp_symbol_kindPKcyPK20gcc_cp_template_argsEENS_6statusEPNS_10connectionES3_PT_T0_T1_T2_T3_T4_ _ZN10cc1_plugin16marshall_intlikeEPNS_10connectionEy 166
_ZN10cc1_plugin4callIyy18gcc_cp_symbol_kindPKcyPK20gcc_cp_template_argsEENS_6statusEPNS_10connectionES3_PT_T0_T1_T2_T3_T4_ _ZN10cc1_plugin8marshallEPNS_10connectionEPKc 181
_ZN10cc1_plugin4callIyy18gcc_cp_symbol_kindPKcyPK20gcc_cp_template_argsEENS_6statusEPNS_10connectionES3_PT_T0_T1_T2_T3_T4_ _ZN10cc1_plugin16marshall_intlikeEPNS_10connectionEy 198
_ZN10cc1_plugin4callIyy18gcc_cp_symbol_kindPKcyPK20gcc_cp_template_argsEENS_6statusEPNS_10connectionES3_PT_T0_T1_T2_T3_T4_ _ZN10cc1_plugin8marshallEPNS_10connectionEPK20gcc_cp_template_args 219
_ZN10cc1_plugin4callIyy18gcc_cp_symbol_kindPKcyPK20gcc_cp_template_argsEENS_6statusEPNS_10connectionES3_PT_T0_T1_T2_T3_T4_ _ZN10cc1_plugin10connection15wait_for_resultEv 235
_ZN10cc1_plugin4callIyy18gcc_cp_symbol_kindPKcyPK20gcc_cp_template_argsEENS_6statusEPNS_10connectionES3_PT_T0_T1_T2_T3_T4_ _ZN10cc1_plugin10unmarshallIyEENS_6statusEPNS_10connectionEPT_ 254
_Z3rpcIyLZN10cc1_plugin2cp20build_dependent_exprEEy18gcc_cp_symbol_kindPKcyPK20gcc_cp_template_argsET_P14gcc_cp_contextT1_T2_T3_T4_T5_ _ZN10cc1_plugin2cp20build_dependent_exprE 24
_Z3rpcIyLZN10cc1_plugin2cp20build_dependent_exprEEy18gcc_cp_symbol_kindPKcyPK20gcc_cp_template_argsET_P14gcc_cp_contextT1_T2_T3_T4_T5_ _ZN10cc1_plugin4callIyy18gcc_cp_symbol_kindPKcyPK20gcc_cp_template_argsEENS_6statusEPNS_10connectionES3_PT_T0_T1_T2_T3_T4_ 41
_ZN10cc1_plugin4callIyyPK20gcc_cp_template_argsEENS_6statusEPNS_10connectionEPKcPT_T0_T1_ _ZN10cc1_plugin10connection4sendEc 50
_ZN10cc1_plugin4callIyyPK20gcc_cp_template_argsEENS_6statusEPNS_10connectionEPKcPT_T0_T1_ _ZN10cc1_plugin8marshallEPNS_10connectionEPKc 103
_ZN10cc1_plugin4callIyyPK20gcc_cp_template_argsEENS_6statusEPNS_10connectionEPKcPT_T0_T1_ _ZN10cc1_plugin16marshall_intlikeEPNS_10connectionEy 120
_ZN10cc1_plugin4callIyyPK20gcc_cp_template_argsEENS_6statusEPNS_10connectionEPKcPT_T0_T1_ _ZN10cc1_plugin16marshall_intlikeEPNS_10connectionEy 135
_ZN10cc1_plugin4callIyyPK20gcc_cp_template_argsEENS_6statusEPNS_10connectionEPKcPT_T0_T1_ _ZN10cc1_plugin8marshallEPNS_10connectionEPK20gcc_cp_template_args 150
_ZN10cc1_plugin4callIyyPK20gcc_cp_template_argsEENS_6statusEPNS_10connectionEPKcPT_T0_T1_ _ZN10cc1_plugin10connection15wait_for_resultEv 162
_ZN10cc1_plugin4callIyyPK20gcc_cp_template_argsEENS_6statusEPNS_10connectionEPKcPT_T0_T1_ _ZN10cc1_plugin10unmarshallIyEENS_6statusEPNS_10connectionEPT_ 177
_Z3rpcIyLZN10cc1_plugin2cp32build_dependent_type_template_idEEyPK20gcc_cp_template_argsET_P14gcc_cp_contextT1_T2_ _ZN10cc1_plugin2cp32build_dependent_type_template_idE 14
_Z3rpcIyLZN10cc1_plugin2cp32build_dependent_type_template_idEEyPK20gcc_cp_template_argsET_P14gcc_cp_contextT1_T2_ _ZN10cc1_plugin4callIyyPK20gcc_cp_template_argsEENS_6statusEPNS_10connectionEPKcPT_T0_T1_ 27
_ZN10cc1_plugin4callIyyPKcPK20gcc_cp_template_argsEENS_6statusEPNS_10connectionES2_PT_T0_T1_T2_ _ZN10cc1_plugin10connection4sendEc 58
_ZN10cc1_plugin4callIyyPKcPK20gcc_cp_template_argsEENS_6statusEPNS_10connectionES2_PT_T0_T1_T2_ _ZN10cc1_plugin8marshallEPNS_10connectionEPKc 119
_ZN10cc1_plugin4callIyyPKcPK20gcc_cp_template_argsEENS_6statusEPNS_10connectionES2_PT_T0_T1_T2_ _ZN10cc1_plugin16marshall_intlikeEPNS_10connectionEy 136
_ZN10cc1_plugin4callIyyPKcPK20gcc_cp_template_argsEENS_6statusEPNS_10connectionES2_PT_T0_T1_T2_ _ZN10cc1_plugin16marshall_intlikeEPNS_10connectionEy 151
_ZN10cc1_plugin4callIyyPKcPK20gcc_cp_template_argsEENS_6statusEPNS_10connectionES2_PT_T0_T1_T2_ _ZN10cc1_plugin8marshallEPNS_10connectionEPKc 166
_ZN10cc1_plugin4callIyyPKcPK20gcc_cp_template_argsEENS_6statusEPNS_10connectionES2_PT_T0_T1_T2_ _ZN10cc1_plugin8marshallEPNS_10connectionEPK20gcc_cp_template_args 181
_ZN10cc1_plugin4callIyyPKcPK20gcc_cp_template_argsEENS_6statusEPNS_10connectionES2_PT_T0_T1_T2_ _ZN10cc1_plugin10connection15wait_for_resultEv 193
_ZN10cc1_plugin4callIyyPKcPK20gcc_cp_template_argsEENS_6statusEPNS_10connectionES2_PT_T0_T1_T2_ _ZN10cc1_plugin10unmarshallIyEENS_6statusEPNS_10connectionEPT_ 212
_Z3rpcIyLZN10cc1_plugin2cp24build_dependent_typenameEEyPKcPK20gcc_cp_template_argsET_P14gcc_cp_contextT1_T2_T3_ _ZN10cc1_plugin2cp24build_dependent_typenameE 17
_Z3rpcIyLZN10cc1_plugin2cp24build_dependent_typenameEEyPKcPK20gcc_cp_template_argsET_P14gcc_cp_contextT1_T2_T3_ _ZN10cc1_plugin4callIyyPKcPK20gcc_cp_template_argsEENS_6statusEPNS_10connectionES2_PT_T0_T1_T2_ 30
_ZN10cc1_plugin4callIyyPK15gcc_vbase_arrayPKcjEENS_6statusEPNS_10connectionES5_PT_T0_T1_T2_T3_ _ZN10cc1_plugin10connection4sendEc 58
_ZN10cc1_plugin4callIyyPK15gcc_vbase_arrayPKcjEENS_6statusEPNS_10connectionES5_PT_T0_T1_T2_T3_ _ZN10cc1_plugin8marshallEPNS_10connectionEPKc 119
_ZN10cc1_plugin4callIyyPK15gcc_vbase_arrayPKcjEENS_6statusEPNS_10connectionES5_PT_T0_T1_T2_T3_ _ZN10cc1_plugin16marshall_intlikeEPNS_10connectionEy 136
_ZN10cc1_plugin4callIyyPK15gcc_vbase_arrayPKcjEENS_6statusEPNS_10connectionES5_PT_T0_T1_T2_T3_ _ZN10cc1_plugin16marshall_intlikeEPNS_10connectionEy 151
_ZN10cc1_plugin4callIyyPK15gcc_vbase_arrayPKcjEENS_6statusEPNS_10connectionES5_PT_T0_T1_T2_T3_ _ZN10cc1_plugin8marshallEPNS_10connectionEPK15gcc_vbase_array 166
_ZN10cc1_plugin4callIyyPK15gcc_vbase_arrayPKcjEENS_6statusEPNS_10connectionES5_PT_T0_T1_T2_T3_ _ZN10cc1_plugin8marshallEPNS_10connectionEPKc 181
_ZN10cc1_plugin4callIyyPK15gcc_vbase_arrayPKcjEENS_6statusEPNS_10connectionES5_PT_T0_T1_T2_T3_ _ZN10cc1_plugin16marshall_intlikeEPNS_10connectionEy 197
_ZN10cc1_plugin4callIyyPK15gcc_vbase_arrayPKcjEENS_6statusEPNS_10connectionES5_PT_T0_T1_T2_T3_ _ZN10cc1_plugin10connection15wait_for_resultEv 213
_ZN10cc1_plugin4callIyyPK15gcc_vbase_arrayPKcjEENS_6statusEPNS_10connectionES5_PT_T0_T1_T2_T3_ _ZN10cc1_plugin10unmarshallIyEENS_6statusEPNS_10connectionEPT_ 232
_Z3rpcIyLZN10cc1_plugin2cp16start_class_typeEEyPK15gcc_vbase_arrayPKcjET_P14gcc_cp_contextT1_T2_T3_T4_ _ZN10cc1_plugin2cp16start_class_typeE 17
_Z3rpcIyLZN10cc1_plugin2cp16start_class_typeEEyPK15gcc_vbase_arrayPKcjET_P14gcc_cp_contextT1_T2_T3_T4_ _ZN10cc1_plugin4callIyyPK15gcc_vbase_arrayPKcjEENS_6statusEPNS_10connectionES5_PT_T0_T1_T2_T3_ 37
_ZN6libcp123compiler_triplet_regexpD0Ev _ZTVN6libcp123compiler_triplet_regexpE 15
_ZN6libcp123compiler_triplet_regexpD0Ev _ZNSs4_Rep20_S_empty_rep_storageE 26
_ZN6libcp123compiler_triplet_regexpD0Ev _ZTVN6libcp18compilerE 35
_ZN6libcp123compiler_triplet_regexpD0Ev _ZdlPv 43
_ZN6libcp123compiler_triplet_regexpD0Ev pthread_cancel 54
_ZN6libcp123compiler_triplet_regexpD0Ev _ZNSs4_Rep10_M_destroyERKSaIcE 81
_ZN6libcp123compiler_triplet_regexpD1Ev _ZTVN6libcp123compiler_triplet_regexpE 15
_ZN6libcp123compiler_triplet_regexpD1Ev _ZNSs4_Rep20_S_empty_rep_storageE 26
_ZN6libcp123compiler_triplet_regexpD1Ev _ZTVN6libcp18compilerE 35
_ZN6libcp123compiler_triplet_regexpD1Ev pthread_cancel 46
_ZN6libcp123compiler_triplet_regexpD1Ev _ZNSs4_Rep10_M_destroyERKSaIcE 73
_ZN6libcp124compiler_driver_filenameD0Ev _ZTVN6libcp124compiler_driver_filenameE 15
_ZN6libcp124compiler_driver_filenameD0Ev _ZNSs4_Rep20_S_empty_rep_storageE 26
_ZN6libcp124compiler_driver_filenameD0Ev _ZTVN6libcp18compilerE 35
_ZN6libcp124compiler_driver_filenameD0Ev _ZdlPv 43
_ZN6libcp124compiler_driver_filenameD0Ev pthread_cancel 54
_ZN6libcp124compiler_driver_filenameD0Ev _ZNSs4_Rep10_M_destroyERKSaIcE 81
_ZN6libcp124compiler_driver_filenameD1Ev _ZTVN6libcp124compiler_driver_filenameE 15
_ZN6libcp124compiler_driver_filenameD1Ev _ZNSs4_Rep20_S_empty_rep_storageE 26
_ZN6libcp124compiler_driver_filenameD1Ev _ZTVN6libcp18compilerE 35
_ZN6libcp124compiler_driver_filenameD1Ev pthread_cancel 46
_ZN6libcp124compiler_driver_filenameD1Ev _ZNSs4_Rep10_M_destroyERKSaIcE 73
_nc_retrace_form_hook _nc_tracing 2
_nc_retrace_form_hook _tracef 24
_nc_retrace_form _nc_tracing 2
_nc_retrace_form _tracef 24
_nc_retrace_field_type _nc_tracing 2
_nc_retrace_field_type _tracef 24
_nc_retrace_field _nc_tracing 2
_nc_retrace_field _tracef 24
_nc_retrace_field_ptr _nc_tracing 2
_nc_retrace_field_ptr _tracef 24
field_arg _nc_tracing 2
field_arg _nc_Default_Field 20
field_arg _tracef 51
field_arg _nc_retrace_void_ptr 30
set_fieldtype_arg _nc_tracing 29
set_fieldtype_arg __errno_location 51
set_fieldtype_arg __errno_location 118
set_fieldtype_arg _tracef 156
set_fieldtype_arg _nc_retrace_int 91
field_back _nc_tracing 2
field_back _nc_Default_Field 20
field_back _tracef 51
field_back _nc_retrace_attr_t 33
field_fore _nc_tracing 2
field_fore _nc_Default_Field 20
field_fore _tracef 51
field_fore _nc_retrace_attr_t 33
set_field_back _nc_tracing 23
set_field_back __errno_location 52
set_field_back _nc_Synchronize_Attributes 108
set_field_back _traceattr 123
set_field_back _tracef 141
set_field_back _nc_Default_Field 155
set_field_back _nc_retrace_int 81
set_field_fore _nc_tracing 23
set_field_fore __errno_location 52
set_field_fore _nc_Synchronize_Attributes 108
set_field_fore _traceattr 123
set_field_fore _tracef 141
set_field_fore _nc_Default_Field 155
set_field_fore _nc_retrace_int 81
field_index _nc_tracing 2
field_index _tracef 51
field_index _nc_retrace_int 31
field_index _nc_retrace_int 71
current_field _nc_tracing 2
current_field _nc_Default_Form 20
current_field _tracef 51
current_field _nc_retrace_field 30
unfocus_current_field _nc_tracing 2
unfocus_current_field _nc_Unset_Current_Field 33
unfocus_current_field __errno_location 38
unfocus_current_field _tracef 75
unfocus_current_field __errno_location 89
unfocus_current_field __errno_location 113
unfocus_current_field _nc_retrace_int 52
unfocus_current_field _nc_retrace_int 106
unfocus_current_field _nc_retrace_int 130
set_current_field _nc_tracing 29
set_current_field __errno_location 67
set_current_field __errno_location 147
set_current_field _tracef 174
set_current_field __errno_location 193
set_current_field _nc_Internal_Validation 253
set_current_field _nc_Set_Form_Page 343
set_current_field _nc_Refresh_Current_Field 410
set_current_field _nc_Set_Current_Field 426
set_current_field _nc_retrace_int 107
_nc_Free_Argument free 139
_nc_Free_Type _nc_Free_Argument 22
free_field _nc_tracing 2
free_field __errno_location 33
free_field _nc_Free_Type 100
free_field free 108
free_field __errno_location 113
free_field _tracef 147
free_field free 169
free_field __errno_location 193
free_field _nc_retrace_int 50
free_field _nc_retrace_int 127
free_field _nc_retrace_int 210
_nc_Copy_Argument malloc 134
_nc_Copy_Type _nc_Copy_Argument 41
_nc_Copy_Type _nc_Free_Argument 96
_nc_Make_Argument malloc 55
new_field _nc_tracing 41
new_field __errno_location 89
new_field malloc 177
new_field _nc_tracing 199
new_field _nc_Copy_Type 419
new_field free_field 436
new_field _tracef 480
new_field malloc 523
new_field _tracef 672
new_field _nc_retrace_field 136
dup_field _nc_tracing 36
dup_field __errno_location 66
dup_field malloc 129
dup_field _nc_tracing 143
dup_field _nc_Default_Field 157
dup_field _nc_Copy_Type 401
dup_field free_field 419
dup_field _tracef 447
dup_field malloc 497
dup_field _tracef 571
dup_field _nc_retrace_field 104
set_fieldtype_choice _nc_tracing 24
set_fieldtype_choice __errno_location 65
set_fieldtype_choice __errno_location 105
set_fieldtype_choice _tracef 145
set_fieldtype_choice _nc_retrace_int 96
link_fieldtype _nc_tracing 29
link_fieldtype __errno_location 45
link_fieldtype _tracef 110
link_fieldtype malloc 130
link_fieldtype _nc_tracing 151
link_fieldtype _nc_Default_FieldType 165
link_fieldtype _tracef 379
link_fieldtype __errno_location 393
link_fieldtype _nc_retrace_field_type 86
dynamic_field_info _nc_tracing 29
dynamic_field_info __errno_location 86
dynamic_field_info _tracef 148
dynamic_field_info __errno_location 161
dynamic_field_info _nc_retrace_int 123
field_info _nc_tracing 42
field_info __errno_location 153
field_info _tracef 245
field_info __errno_location 265
field_info _nc_retrace_int 200
field_just _nc_tracing 2
field_just _nc_Default_Field 20
field_just _tracef 51
field_just _nc_retrace_int 30
set_field_just _nc_tracing 24
set_field_just _nc_Default_Field 51
set_field_just _nc_Synchronize_Attributes 74
set_field_just __errno_location 82
set_field_just _tracef 133
set_field_just _nc_retrace_int 111
link_field _nc_tracing 36
link_field __errno_location 66
link_field malloc 129
link_field _nc_tracing 143
link_field _nc_Default_Field 157
link_field _nc_Copy_Type 417
link_field free_field 442
link_field _tracef 471
link_field _tracef 491
link_field _nc_retrace_field 104
set_max_field _nc_tracing 13
set_max_field __errno_location 103
set_max_field __errno_location 137
set_max_field _tracef 181
set_max_field _nc_retrace_int 122
set_max_field _nc_retrace_int 159
move_field _nc_tracing 24
move_field __errno_location 65
move_field __errno_location 113
move_field _tracef 151
move_field __errno_location 170
move_field _nc_retrace_int 99
free_fieldtype _nc_tracing 2
free_fieldtype free 72
free_fieldtype __errno_location 77
free_fieldtype __errno_location 97
free_fieldtype _tracef 139
free_fieldtype __errno_location 153
free_fieldtype _nc_retrace_int 91
free_fieldtype _nc_retrace_int 114
free_fieldtype _nc_retrace_int 170
new_fieldtype _nc_tracing 29
new_fieldtype __errno_location 57
new_fieldtype _tracef 126
new_fieldtype malloc 150
new_fieldtype _nc_tracing 171
new_fieldtype _tracef 355
new_fieldtype __errno_location 369
new_fieldtype _nc_retrace_field_type 98
field_opts_off _nc_tracing 16
field_opts_off _nc_Default_Field 35
field_opts_off _nc_Synchronize_Options 56
field_opts_off __errno_location 63
field_opts_off _tracef 109
field_opts_off _nc_retrace_int 86
field_opts_on _nc_tracing 16
field_opts_on _nc_Default_Field 35
field_opts_on _nc_Synchronize_Options 54
field_opts_on __errno_location 61
field_opts_on _tracef 109
field_opts_on _nc_retrace_int 84
field_opts _nc_tracing 2
field_opts _nc_Default_Field 20
field_opts _tracef 59
field_opts _nc_retrace_int 35
set_field_opts _nc_tracing 16
set_field_opts _nc_Default_Field 35
set_field_opts _nc_Synchronize_Options 51
set_field_opts __errno_location 58
set_field_opts _tracef 101
set_field_opts _nc_retrace_int 81
field_pad _nc_tracing 2
field_pad _nc_Default_Field 20
field_pad _tracef 51
field_pad _nc_retrace_int 29
set_field_pad _nc_tracing 24
set_field_pad _nc_Default_Field 40
set_field_pad __ctype_b_loc 51
set_field_pad _nc_Synchronize_Attributes 84
set_field_pad __errno_location 92
set_field_pad _tracef 141
set_field_pad _nc_retrace_int 121
new_page _nc_tracing 2
new_page _nc_Default_Field 20
new_page _tracef 59
new_page _nc_retrace_bool 35
set_new_page _nc_tracing 16
set_new_page _nc_Default_Field 35
set_new_page __errno_location 47
set_new_page __errno_location 98
set_new_page _tracef 151
set_new_page _nc_retrace_int 77
set_new_page _nc_retrace_int 125
field_status _nc_tracing 2
field_status _nc_Default_Field 20
field_status _tracef 51
field_status _nc_retrace_bool 32
set_field_status _nc_tracing 16
set_field_status _nc_Default_Field 35
set_field_status __errno_location 49
set_field_status _tracef 111
set_field_status _nc_retrace_int 76
field_type _nc_tracing 2
field_type _nc_Default_Field 20
field_type _tracef 51
field_type _nc_retrace_field_type 30
set_field_type _nc_tracing 98
set_field_type _nc_Default_Field 124
set_field_type _nc_Free_Type 170
set_field_type _nc_Make_Argument 190
set_field_type __errno_location 223
set_field_type _nc_retrace_int 232
set_field_type _tracef 270
set_field_type _nc_Free_Argument 296
field_userptr _nc_tracing 2
field_userptr _nc_Default_Field 20
field_userptr _tracef 51
field_userptr _nc_retrace_void_ptr 30
set_field_userptr _nc_tracing 16
set_field_userptr _nc_Default_Field 36
set_field_userptr __errno_location 45
set_field_userptr _tracef 94
set_field_userptr _nc_retrace_int 72
pos_form_cursor _nc_tracing 16
pos_form_cursor _nc_Position_Form_Cursor 48
pos_form_cursor __errno_location 55
pos_form_cursor _tracef 99
pos_form_cursor _nc_retrace_int 78
data_behind _nc_tracing 2
data_behind _tracef 91
data_behind _nc_retrace_bool 58
data_behind _nc_retrace_bool 68
data_behind _nc_retrace_bool 116
data_ahead _nc_tracing 19
data_ahead wmove 138
data_ahead winch 196
data_ahead wmove 227
data_ahead wmove 301
data_ahead _tracef 331
data_ahead wmove 398
data_ahead winch 452
data_ahead wmove 487
data_ahead _nc_retrace_bool 273
field_count _nc_tracing 2
field_count _nc_Default_Form 20
field_count _tracef 51
field_count _nc_retrace_int 30
form_fields _nc_tracing 2
form_fields _nc_Default_Form 20
form_fields _tracef 51
form_fields _nc_retrace_field_ptr 30
Disconnect_Fields free 90
free_form _nc_tracing 2
free_form free 41
free_form free 49
free_form __errno_location 54
free_form __errno_location 81
free_form _tracef 123
free_form __errno_location 137
free_form _nc_retrace_int 68
free_form _nc_retrace_int 98
free_form _nc_retrace_int 154
Connect_Fields _nc_tracing 22
Connect_Fields malloc 166
Connect_Fields _nc_tracing 190
Connect_Fields __errno_location 311
Connect_Fields _tracef 359
Connect_Fields __errno_location 412
Connect_Fields __errno_location 427
Connect_Fields _tracef 726
Connect_Fields __errno_location 744
Connect_Fields _nc_retrace_int 341
new_form_sp _nc_tracing 29
new_form_sp malloc 81
new_form_sp _nc_tracing 102
new_form_sp _nc_Default_Form 116
new_form_sp _tracef 382
new_form_sp free_form 420
new_form_sp __errno_location 425
new_form_sp _tracef 451
new_form_sp form_driver 481
new_form_sp _nc_retrace_form 354
new_form SP 6
new_form new_form_sp 11
set_form_fields _nc_tracing 24
set_form_fields __errno_location 103
set_form_fields __errno_location 161
set_form_fields _tracef 198
set_form_fields form_driver 223
set_form_fields __errno_location 233
set_form_fields _nc_retrace_int 130
field_buffer _nc_tracing 16
field_buffer _tracef 109
field_buffer _nc_retrace_ptr 89
HSC_Horizontal_Half_Line_Backward _nc_tracing 2
HSC_Horizontal_Half_Line_Backward _tracef 24
HSC_Horizontal_Half_Line_Backward _nc_retrace_int 63
HSC_Horizontal_Half_Line_Forward _nc_tracing 2
HSC_Horizontal_Half_Line_Forward _tracef 24
HSC_Horizontal_Half_Line_Forward _nc_retrace_int 61
HSC_Horizontal_Line_Backward _nc_tracing 2
HSC_Horizontal_Line_Backward _tracef 24
HSC_Horizontal_Line_Backward _nc_retrace_int 50
HSC_Horizontal_Line_Forward _nc_tracing 2
HSC_Horizontal_Line_Forward _tracef 24
HSC_Horizontal_Line_Forward _nc_retrace_int 48
HSC_Scroll_Char_Backward _nc_tracing 2
HSC_Scroll_Char_Backward _tracef 24
HSC_Scroll_Char_Backward _nc_retrace_int 45
HSC_Scroll_Char_Forward _nc_tracing 2
HSC_Scroll_Char_Forward _tracef 24
HSC_Scroll_Char_Forward _nc_retrace_int 45
VSC_Scroll_Half_Page_Backward _nc_tracing 2
VSC_Scroll_Half_Page_Backward _tracef 24
VSC_Scroll_Half_Page_Backward _nc_retrace_int 63
VSC_Scroll_Half_Page_Forward _nc_tracing 2
VSC_Scroll_Half_Page_Forward _tracef 24
VSC_Scroll_Half_Page_Forward _nc_retrace_int 61
VSC_Scroll_Page_Backward _nc_tracing 2
VSC_Scroll_Page_Backward _tracef 24
VSC_Scroll_Page_Backward _nc_retrace_int 50
VSC_Scroll_Page_Forward _nc_tracing 2
VSC_Scroll_Page_Forward _tracef 24
VSC_Scroll_Page_Forward _nc_retrace_int 48
VSC_Scroll_Line_Backward _nc_tracing 2
VSC_Scroll_Line_Backward _tracef 24
VSC_Scroll_Line_Backward _nc_retrace_int 45
VSC_Scroll_Line_Forward _nc_tracing 2
VSC_Scroll_Line_Forward _tracef 24
VSC_Scroll_Line_Forward _nc_retrace_int 45
EM_Insert_Mode _nc_tracing 2
EM_Insert_Mode _tracef 24
EM_Insert_Mode _nc_retrace_int 36
EM_Overlay_Mode _nc_tracing 2
EM_Overlay_Mode _tracef 24
EM_Overlay_Mode _nc_retrace_int 36
IFN_Up_Character _nc_tracing 2
IFN_Up_Character _tracef 51
IFN_Up_Character _nc_retrace_int 30
IFN_Up_Character _nc_retrace_int 78
IFN_Left_Character _nc_tracing 16
IFN_Left_Character _tracef 75
IFN_Left_Character _nc_retrace_int 58
IFN_Left_Character _nc_retrace_int 115
IFN_Previous_Line _nc_tracing 2
IFN_Previous_Line _tracef 59
IFN_Previous_Line _nc_retrace_int 37
IFN_Previous_Line _nc_retrace_int 86
IFN_Previous_Character _nc_tracing 16
IFN_Previous_Character _tracef 107
IFN_Previous_Character _nc_retrace_int 58
IFN_Previous_Character _nc_retrace_int 146
FE_Clear_Field _nc_tracing 2
FE_Clear_Field _tracef 24
FE_Clear_Field werase 47
FE_Clear_Field _nc_retrace_int 55
Buffer_To_Window wmove 180
Buffer_To_Window waddnstr 196
Buffer_To_Window wmove 268
Undo_Justification wmove 115
Undo_Justification waddnstr 129
Undo_Justification wmove 151
Perform_Justification wmove 108
Perform_Justification waddnstr 125
Display_Or_Erase_Field derwin 102
Display_Or_Erase_Field werase 133
Display_Or_Erase_Field wsyncup 187
Display_Or_Erase_Field delwin 195
Display_Or_Erase_Field wbkgdset 218
Display_Or_Erase_Field SP 256
_nc_Synchronize_Options _nc_tracing 29
_nc_Synchronize_Options _tracef 205
_nc_Synchronize_Options _nc_retrace_int 188
Check_Char __ctype_b_loc 225
FE_Clear_To_End_Of_Field _nc_tracing 2
FE_Clear_To_End_Of_Field _tracef 24
FE_Clear_To_End_Of_Field wmove 39
FE_Clear_To_End_Of_Field wclrtobot 48
FE_Clear_To_End_Of_Field _nc_retrace_int 56
FE_Clear_To_End_Of_Line _nc_tracing 2
FE_Clear_To_End_Of_Line _tracef 24
FE_Clear_To_End_Of_Line wmove 39
FE_Clear_To_End_Of_Line wclrtoeol 48
FE_Clear_To_End_Of_Line _nc_retrace_int 56
FE_Delete_Line _nc_tracing 2
FE_Delete_Line _tracef 24
FE_Delete_Line winsdelln 45
FE_Delete_Line _nc_retrace_int 53
FE_Delete_Character _nc_tracing 2
FE_Delete_Character _tracef 24
FE_Delete_Character wmove 39
FE_Delete_Character wdelch 48
FE_Delete_Character _nc_retrace_int 56
_nc_Position_Form_Cursor wmove 105
_nc_Position_Form_Cursor wmove 157
_nc_Position_Form_Cursor wcursyncup 165
_nc_Position_Form_Cursor wcursyncup 181
_nc_Position_Form_Cursor SP 204
_nc_Refresh_Current_Field _nc_tracing 39
_nc_Refresh_Current_Field wtouchln 120
_nc_Refresh_Current_Field _nc_Position_Form_Cursor 128
_nc_Refresh_Current_Field _tracef 307
_nc_Refresh_Current_Field copywin 394
_nc_Refresh_Current_Field wsyncup 402
_nc_Refresh_Current_Field wsyncup 436
_nc_Refresh_Current_Field __errno_location 449
_nc_Refresh_Current_Field SP 488
_nc_Refresh_Current_Field copywin 584
_nc_Refresh_Current_Field is_linetouched 699
_nc_Refresh_Current_Field is_linetouched 820
_nc_Refresh_Current_Field __errno_location 881
_nc_Refresh_Current_Field _nc_retrace_int 169
Synchronize_Field werase 147
Synchronize_Field _nc_Refresh_Current_Field 207
_nc_get_fieldbuffer wmove 94
_nc_get_fieldbuffer winnstr 116
Synchronize_Buffer _nc_get_fieldbuffer 34
Synchronize_Buffer wmove 50
_nc_Synchronize_Attributes _nc_tracing 24
_nc_Synchronize_Attributes _nc_tracing 90
_nc_Synchronize_Attributes _nc_tracing 140
_nc_Synchronize_Attributes _tracef 243
_nc_Synchronize_Attributes _tracef 280
_nc_Synchronize_Attributes _tracef 328
_nc_Synchronize_Attributes _nc_tracing 356
_nc_Synchronize_Attributes _nc_tracing 392
_nc_Synchronize_Attributes wbkgdset 427
_nc_Synchronize_Attributes werase 447
_nc_Synchronize_Attributes wmove 462
_nc_Synchronize_Attributes copywin 597
_nc_Synchronize_Attributes wsyncup 607
_nc_Synchronize_Attributes _nc_Refresh_Current_Field 633
_nc_Synchronize_Attributes SP 704
_nc_Synchronize_Attributes _nc_retrace_int 173
_nc_Unset_Current_Field _nc_Refresh_Current_Field 22
_nc_Unset_Current_Field delwin 69
_nc_Unset_Current_Field _nc_get_fieldbuffer 157
_nc_Unset_Current_Field werase 166
_nc_Unset_Current_Field wsyncup 200
_nc_Unset_Current_Field copywin 296
_nc_Unset_Current_Field SP 321
_nc_Unset_Current_Field SP 349
_nc_Set_Current_Field _nc_tracing 24
_nc_Set_Current_Field _tracef 102
_nc_Set_Current_Field _nc_Unset_Current_Field 190
_nc_Set_Current_Field derwin 272
_nc_Set_Current_Field delwin 316
_nc_Set_Current_Field wbkgdset 339
_nc_Set_Current_Field wtouchln 438
_nc_Set_Current_Field newpad 484
_nc_Set_Current_Field werase 497
_nc_Set_Current_Field SP 570
_nc_Set_Current_Field werase 617
_nc_Set_Current_Field wsyncup 638
_nc_Set_Current_Field _nc_retrace_int 77
FN_Down_Field _nc_tracing 2
FN_Down_Field _nc_Set_Current_Field 168
FN_Down_Field _tracef 191
FN_Down_Field _nc_retrace_int 176
FN_Up_Field _nc_tracing 2
FN_Up_Field _nc_Set_Current_Field 168
FN_Up_Field _tracef 191
FN_Up_Field _nc_retrace_int 176
FN_Right_Field _nc_tracing 2
FN_Right_Field _nc_Set_Current_Field 65
FN_Right_Field _tracef 88
FN_Right_Field _nc_retrace_int 73
FN_Left_Field _nc_tracing 2
FN_Left_Field _nc_Set_Current_Field 65
FN_Left_Field _tracef 88
FN_Left_Field _nc_retrace_int 73
FN_Sorted_Last_Field _nc_tracing 2
FN_Sorted_Last_Field _nc_Set_Current_Field 72
FN_Sorted_Last_Field _tracef 99
FN_Sorted_Last_Field _nc_retrace_int 80
FN_Sorted_First_Field _nc_tracing 2
FN_Sorted_First_Field _nc_Set_Current_Field 72
FN_Sorted_First_Field _tracef 99
FN_Sorted_First_Field _nc_retrace_int 80
FN_Sorted_Previous_Field _nc_tracing 2
FN_Sorted_Previous_Field _nc_Set_Current_Field 48
FN_Sorted_Previous_Field _tracef 75
FN_Sorted_Previous_Field _nc_retrace_int 56
FN_Sorted_Next_Field _nc_tracing 2
FN_Sorted_Next_Field _nc_Set_Current_Field 48
FN_Sorted_Next_Field _tracef 75
FN_Sorted_Next_Field _nc_retrace_int 56
FN_Last_Field _nc_tracing 2
FN_Last_Field _nc_Set_Current_Field 133
FN_Last_Field _tracef 163
FN_Last_Field _nc_retrace_int 141
FN_First_Field _nc_tracing 2
FN_First_Field _nc_Set_Current_Field 133
FN_First_Field _tracef 163
FN_First_Field _nc_retrace_int 141
FN_Previous_Field _nc_tracing 2
FN_Previous_Field _nc_Set_Current_Field 101
FN_Previous_Field _tracef 131
FN_Previous_Field _nc_retrace_int 109
FN_Next_Field _nc_tracing 2
FN_Next_Field _nc_Set_Current_Field 101
FN_Next_Field _tracef 131
FN_Next_Field _nc_retrace_int 109
_nc_Set_Form_Page werase 56
_nc_Set_Form_Page SP 224
_nc_Set_Form_Page _nc_Set_Current_Field 196
PN_Last_Page _nc_tracing 2
PN_Last_Page _tracef 24
PN_Last_Page _nc_Set_Form_Page 41
PN_Last_Page _nc_retrace_int 49
PN_First_Page _nc_tracing 2
PN_First_Page _tracef 24
PN_First_Page _nc_Set_Form_Page 36
PN_First_Page _nc_retrace_int 44
PN_Previous_Page _nc_tracing 2
PN_Previous_Page _nc_Set_Form_Page 35
PN_Previous_Page _tracef 75
PN_Previous_Page _nc_retrace_int 43
PN_Next_Page _nc_tracing 2
PN_Next_Page _tracef 24
PN_Next_Page _nc_Set_Form_Page 56
PN_Next_Page _nc_retrace_int 64
CR_Previous_Choice _nc_tracing 11
CR_Previous_Choice _nc_get_fieldbuffer 50
CR_Previous_Choice wmove 65
CR_Previous_Choice _tracef 123
CR_Previous_Choice _nc_retrace_int 102
CR_Next_Choice _nc_tracing 11
CR_Next_Choice _nc_get_fieldbuffer 50
CR_Next_Choice wmove 65
CR_Next_Choice _tracef 123
CR_Next_Choice _nc_retrace_int 102
FE_Delete_Word _nc_tracing 41
FE_Delete_Word _nc_get_fieldbuffer 86
FE_Delete_Word wmove 101
FE_Delete_Word wmove 222
FE_Delete_Word wclrtoeol 231
FE_Delete_Word waddnstr 417
FE_Delete_Word _tracef 459
FE_Delete_Word _nc_retrace_int 434
IFN_Beginning_Of_Field _nc_tracing 11
IFN_Beginning_Of_Field _nc_get_fieldbuffer 53
IFN_Beginning_Of_Field wmove 68
IFN_Beginning_Of_Field _tracef 203
IFN_Beginning_Of_Field _nc_retrace_int 182
IFN_End_Of_Line _nc_tracing 11
IFN_End_Of_Line _nc_get_fieldbuffer 53
IFN_End_Of_Line wmove 68
IFN_End_Of_Line _tracef 235
IFN_End_Of_Line _nc_retrace_int 210
IFN_Next_Word _nc_tracing 37
IFN_Next_Word _nc_get_fieldbuffer 72
IFN_Next_Word wmove 87
IFN_Next_Word _tracef 299
IFN_Next_Word _nc_retrace_int 279
IFN_Beginning_Of_Line _nc_tracing 11
IFN_Beginning_Of_Line _nc_get_fieldbuffer 53
IFN_Beginning_Of_Line wmove 68
IFN_Beginning_Of_Line _tracef 219
IFN_Beginning_Of_Line _nc_retrace_int 197
IFN_Previous_Word _nc_tracing 37
IFN_Previous_Word _nc_get_fieldbuffer 72
IFN_Previous_Word wmove 87
IFN_Previous_Word _tracef 347
IFN_Previous_Word _nc_retrace_int 329
IFN_End_Of_Field _nc_tracing 11
IFN_End_Of_Field _nc_get_fieldbuffer 53
IFN_End_Of_Field wmove 68
IFN_End_Of_Field _tracef 219
IFN_End_Of_Field _nc_retrace_int 202
_nc_Internal_Validation _nc_get_fieldbuffer 40
_nc_Internal_Validation wmove 55
Inter_Field_Navigation _nc_Internal_Validation 35
Page_Navigation _nc_Internal_Validation 35
FV_Validation _nc_tracing 2
FV_Validation _nc_Internal_Validation 17
FV_Validation _tracef 59
FV_Validation _nc_retrace_int 32
FV_Validation _nc_retrace_int 44
FE_Delete_Previous _nc_tracing 39
FE_Delete_Previous wmove 86
FE_Delete_Previous wdelch 95
FE_Delete_Previous wmove 337
FE_Delete_Previous winsdelln 351
FE_Delete_Previous wmove 446
FE_Delete_Previous wdelch 455
FE_Delete_Previous _tracef 491
FE_Delete_Previous _nc_get_fieldbuffer 525
FE_Delete_Previous wmove 540
FE_Delete_Previous wmove 570
FE_Delete_Previous waddnstr 586
FE_Delete_Previous _nc_retrace_int 136
Field_Grown malloc 190
Field_Grown _nc_tracing 208
Field_Grown free 528
Field_Grown newpad 653
Field_Grown delwin 679
Field_Grown wbkgdset 697
Field_Grown werase 717
Field_Grown wtouchln 759
Field_Grown wmove 774
Field_Grown _tracef 794
Field_Grown _nc_get_fieldbuffer 860
Field_Grown wmove 875
Field_Grown free 944
set_field_buffer _nc_tracing 4
set_field_buffer __errno_location 188
set_field_buffer __errno_location 217
set_field_buffer _nc_visbuf 252
set_field_buffer _tracef 273
set_field_buffer strlen 292
set_field_buffer __errno_location 537
set_field_buffer _nc_retrace_int 205
set_field_buffer _nc_retrace_int 241
Insert_String wmove 332
Insert_String winsnstr 347
Insert_String wmove 361
Insert_String winsnstr 380
Insert_String wmove 396
Insert_String wclrtoeol 405
Insert_String wmove 418
Insert_String winsnstr 433
Insert_String wmove 447
Insert_String winsnstr 466
IFN_Down_Character _nc_tracing 16
IFN_Down_Character _tracef 155
IFN_Down_Character _nc_retrace_int 61
IFN_Down_Character _nc_retrace_int 130
IFN_Right_Character _nc_tracing 16
IFN_Right_Character _tracef 139
IFN_Right_Character _nc_retrace_int 81
IFN_Right_Character _nc_retrace_int 119
IFN_Next_Line _nc_tracing 16
IFN_Next_Line _tracef 155
IFN_Next_Line _nc_retrace_int 68
IFN_Next_Line _nc_retrace_int 138
IFN_Next_Character _nc_tracing 16
IFN_Next_Character _tracef 107
IFN_Next_Character _nc_retrace_int 61
IFN_Next_Character _nc_retrace_int 189
FE_Insert_Line _nc_tracing 4
FE_Insert_Line winsdelln 219
FE_Insert_Line _tracef 267
FE_Insert_Line _nc_get_fieldbuffer 302
FE_Insert_Line wmove 317
FE_Insert_Line _nc_retrace_int 230
FE_Insert_Line _nc_retrace_int 250
FE_New_Line _nc_tracing 28
FE_New_Line wmove 64
FE_New_Line wclrtoeol 73
FE_New_Line wmove 458
FE_New_Line wclrtoeol 467
FE_New_Line wmove 494
FE_New_Line winsdelln 508
FE_New_Line waddnstr 525
FE_New_Line _tracef 555
FE_New_Line wmove 629
FE_New_Line wclrtoeol 638
FE_New_Line _nc_retrace_int 99
FE_New_Line _nc_retrace_int 234
FE_New_Line _nc_retrace_int 302
FE_New_Line _nc_retrace_int 540
FE_New_Line _nc_retrace_int 598
Wrapping_Not_Necessary_Or_Wrapping_Ok wmove 84
Wrapping_Not_Necessary_Or_Wrapping_Ok winch 93
Wrapping_Not_Necessary_Or_Wrapping_Ok wmove 112
Wrapping_Not_Necessary_Or_Wrapping_Ok _nc_get_fieldbuffer 219
Wrapping_Not_Necessary_Or_Wrapping_Ok wmove 310
Wrapping_Not_Necessary_Or_Wrapping_Ok wdelch 319
Wrapping_Not_Necessary_Or_Wrapping_Ok _nc_get_fieldbuffer 334
Wrapping_Not_Necessary_Or_Wrapping_Ok wmove 395
Wrapping_Not_Necessary_Or_Wrapping_Ok wclrtoeol 404
FE_Insert_Character _nc_tracing 24
FE_Insert_Character wmove 114
FE_Insert_Character winch 123
FE_Insert_Character wmove 142
FE_Insert_Character winsch 216
FE_Insert_Character _tracef 251
FE_Insert_Character _nc_retrace_int 91
form_driver _nc_tracing 41
form_driver getmouse 154
form_driver __errno_location 171
form_driver __ctype_b_loc 228
form_driver _nc_tracing 282
form_driver waddch 365
form_driver __errno_location 414
form_driver _nc_retrace_int 428
form_driver _tracef 461
form_driver _nc_tracing 482
form_driver __errno_location 575
form_driver _nc_Refresh_Current_Field 586
form_driver _nc_retrace_int 598
form_driver __errno_location 641
form_driver __errno_location 657
form_driver __errno_location 673
form_driver _nc_retrace_int 689
form_driver __errno_location 705
form_driver _nc_retrace_int 721
form_driver _nc_First_Active_Field 740
form_driver __errno_location 749
form_driver _nc_retrace_int 762
form_driver __errno_location 777
form_driver _nc_retrace_int 793
form_driver __errno_location 809
form_driver _nc_retrace_int 825
form_driver __errno_location 849
form_driver form_request_name 867
form_driver _tracef 882
form_driver wenclose 903
form_driver stdscr 932
form_driver wmouse_trafo 957
form_driver __errno_location 1032
form_driver SP 1047
form_driver werase 1068
form_driver _tracechtype 1083
form_driver _tracef 1101
form_driver wmove 1128
form_driver winch 1137
form_driver wmove 1156
form_driver winsch 1233
form_driver __errno_location 1305
form_driver _nc_retrace_int 1324
form_driver wenclose 1425
form_driver wmouse_trafo 1465
form_driver __errno_location 1514
form_driver _nc_tracing 1577
form_driver _nc_retrace_int 1662
form_driver _nc_Set_Current_Field 1685
form_driver _nc_Position_Form_Cursor 1704
form_driver _tracef 1786
form_driver __errno_location 1799
form_driver _nc_retrace_int 1816
form_driver _nc_retrace_int 1849
form_term _nc_tracing 2
form_term _nc_Default_Form 20
form_term _tracef 51
form_term _nc_retrace_form_hook 30
form_init _nc_tracing 2
form_init _nc_Default_Form 20
form_init _tracef 51
form_init _nc_retrace_form_hook 30
field_term _nc_tracing 2
field_term _nc_Default_Form 20
field_term _tracef 51
field_term _nc_retrace_form_hook 30
field_init _nc_tracing 2
field_init _nc_Default_Form 20
field_init _tracef 51
field_init _nc_retrace_form_hook 30
set_form_term _nc_tracing 16
set_form_term _nc_Default_Form 36
set_form_term __errno_location 45
set_form_term _tracef 94
set_form_term _nc_retrace_int 72
set_form_init _nc_tracing 16
set_form_init _nc_Default_Form 36
set_form_init __errno_location 45
set_form_init _tracef 94
set_form_init _nc_retrace_int 72
set_field_term _nc_tracing 16
set_field_term _nc_Default_Form 36
set_field_term __errno_location 45
set_field_term _tracef 94
set_field_term _nc_retrace_int 72
set_field_init _nc_tracing 16
set_field_init _nc_Default_Form 36
set_field_init __errno_location 45
set_field_init _tracef 94
set_field_init _nc_retrace_int 72
form_opts_off _nc_tracing 16
form_opts_off _nc_Default_Form 38
form_opts_off __errno_location 48
form_opts_off _tracef 93
form_opts_off _nc_retrace_int 75
form_opts_on _nc_tracing 16
form_opts_on _nc_Default_Form 38
form_opts_on __errno_location 46
form_opts_on _tracef 93
form_opts_on _nc_retrace_int 73
form_opts _nc_tracing 2
form_opts _nc_Default_Form 20
form_opts _tracef 51
form_opts _nc_retrace_int 32
set_form_opts _nc_tracing 16
set_form_opts _nc_Default_Form 38
set_form_opts __errno_location 46
set_form_opts _tracef 93
set_form_opts _nc_retrace_int 73
form_page _nc_tracing 2
form_page _nc_Default_Form 20
form_page _tracef 51
form_page _nc_retrace_int 30
set_form_page _nc_tracing 24
set_form_page _nc_Internal_Validation 116
set_form_page _nc_Set_Form_Page 174
set_form_page _nc_Refresh_Current_Field 227
set_form_page __errno_location 241
set_form_page __errno_location 257
set_form_page _tracef 317
set_form_page _nc_First_Active_Field 347
set_form_page __errno_location 356
set_form_page _nc_retrace_int 291
unpost_form _nc_tracing 2
unpost_form werase 106
unpost_form delwin 115
unpost_form __errno_location 132
unpost_form _tracef 171
unpost_form __errno_location 185
unpost_form __errno_location 209
unpost_form SP 256
unpost_form __errno_location 273
unpost_form _nc_retrace_int 146
unpost_form _nc_retrace_int 202
unpost_form _nc_retrace_int 226
unpost_form _nc_retrace_int 290
post_form _nc_tracing 11
post_form __errno_location 114
post_form _nc_Set_Form_Page 162
post_form _nc_Refresh_Current_Field 235
post_form __errno_location 240
post_form _tracef 283
post_form __errno_location 297
post_form SP 344
post_form __errno_location 385
post_form __errno_location 409
post_form __errno_location 441
post_form _nc_retrace_int 136
post_form _nc_retrace_int 259
post_form _nc_retrace_int 319
post_form _nc_retrace_int 400
post_form _nc_retrace_int 431
post_form _nc_retrace_int 463
form_request_by_name _nc_tracing 13
form_request_by_name strlen 37
form_request_by_name memcpy 74
form_request_by_name __ctype_toupper_loc 93
form_request_by_name strcmp 165
form_request_by_name _nc_retrace_int 182
form_request_by_name __errno_location 201
form_request_by_name _nc_retrace_int 217
form_request_by_name _nc_visbuf 241
form_request_by_name _tracef 256
form_request_name _nc_tracing 2
form_request_name __errno_location 49
form_request_name _tracef 82
form_request_name _nc_retrace_cptr 40
form_request_name _nc_retrace_cptr 63
scale_form _nc_tracing 24
scale_form __errno_location 75
scale_form _tracef 129
scale_form __errno_location 145
scale_form __errno_location 169
scale_form _nc_retrace_int 106
form_sub _nc_tracing 2
form_sub _nc_Default_Form 20
form_sub _tracef 59
form_sub SP 84
form_sub _nc_retrace_win 35
set_form_sub _nc_tracing 16
set_form_sub __errno_location 49
set_form_sub _tracef 94
set_form_sub _nc_Default_Form 109
set_form_sub _nc_screen_of 130
set_form_sub __errno_location 145
set_form_sub SP 187
set_form_sub _nc_retrace_int 76
set_form_sub _nc_retrace_int 175
form_userptr _nc_tracing 2
form_userptr _nc_Default_Form 20
form_userptr _tracef 51
form_userptr _nc_retrace_void_ptr 30
set_form_userptr _nc_tracing 16
set_form_userptr _nc_Default_Form 36
set_form_userptr __errno_location 45
set_form_userptr _tracef 94
set_form_userptr _nc_retrace_int 72
form_win _nc_tracing 2
form_win _nc_Default_Form 20
form_win _tracef 59
form_win SP 75
form_win _nc_retrace_win 35
set_form_win _nc_tracing 16
set_form_win __errno_location 49
set_form_win _tracef 94
set_form_win _nc_Default_Form 109
set_form_win _nc_screen_of 130
set_form_win __errno_location 145
set_form_win SP 187
set_form_win _nc_retrace_int 76
set_form_win _nc_retrace_int 175
_nc_TYPE_ALNUM TYPE_ALNUM 3
Generic_This_Type malloc 36
Generic_This_Type _nc_tracing 53
Generic_This_Type localeconv 82
Generic_This_Type _tracef 123
Copy_This_Type malloc 36
Copy_This_Type _nc_tracing 53
Copy_This_Type _tracef 131
Check_This_Character __ctype_b_loc 21
Check_This_Field field_buffer 47
Check_This_Field __ctype_b_loc 114
Check_This_Field __ctype_b_loc 259
Check_This_Field strtod 302
Check_This_Field sprintf 366
Check_This_Field set_field_buffer 379
Free_This_Type free 6
_nc_TYPE_ALPHA TYPE_ALPHA 3
_nc_TYPE_ENUM TYPE_ENUM 3
Generic_Enum_Type malloc 31
Generic_Enum_Type _nc_tracing 52
Generic_Enum_Type malloc 160
Generic_Enum_Type __strdup 205
Generic_Enum_Type _tracef 259
Copy_Enum_Type malloc 31
Copy_Enum_Type _nc_tracing 48
Copy_Enum_Type malloc 95
Copy_Enum_Type __strdup 129
Copy_Enum_Type _tracef 195
Compare __ctype_toupper_loc 94
Previous_Enum field_buffer 68
Previous_Enum set_field_buffer 140
Next_Enum field_buffer 57
Next_Enum set_field_buffer 125
Check_Enum_Field field_buffer 43
Check_Enum_Field set_field_buffer 281
Free_Enum_Type free 65
Free_Enum_Type free 82
Free_Enum_Type free 96
_nc_form_cursor __errno_location 10
GenericArgument malloc 166
_nc_set_generic_fieldtype _nc_Free_Type 49
_nc_set_generic_fieldtype _nc_Free_Argument 167
_nc_generic_fieldtype _nc_tracing 42
_nc_generic_fieldtype __errno_location 75
_nc_generic_fieldtype _tracef 151
_nc_generic_fieldtype malloc 166
_nc_generic_fieldtype _nc_Default_FieldType 181
_nc_generic_fieldtype _nc_retrace_field_type 119
_nc_TYPE_INTEGER TYPE_INTEGER 3
_nc_TYPE_IPV4 TYPE_IPV4 3
Check_IPV4_Character __ctype_b_loc 4
Check_IPV4_Field field_buffer 9
Check_IPV4_Field __ctype_b_loc 17
Check_IPV4_Field sscanf 88
_nc_TYPE_NUMERIC TYPE_NUMERIC 3
_nc_TYPE_REGEXP TYPE_REGEXP 3
Generic_RegularExpression_Type calloc 40
Generic_RegularExpression_Type _nc_tracing 57
Generic_RegularExpression_Type malloc 74
Generic_RegularExpression_Type regcomp 98
Generic_RegularExpression_Type _nc_tracing 108
Generic_RegularExpression_Type malloc 121
Generic_RegularExpression_Type free 177
Generic_RegularExpression_Type free 187
Generic_RegularExpression_Type _tracef 211
Generic_RegularExpression_Type _tracef 233
Check_RegularExpression_Field field_buffer 18
Check_RegularExpression_Field regexec 36
Free_RegularExpression_Type free 35
Free_RegularExpression_Type regfree 43
Free_RegularExpression_Type free 51
Free_RegularExpression_Type free 60
menu_grey _nc_tracing 2
menu_grey _nc_Default_Menu 17
menu_grey _tracef 51
menu_grey _nc_retrace_attr_t 30
menu_back _nc_tracing 2
menu_back _nc_Default_Menu 17
menu_back _tracef 51
menu_back _nc_retrace_attr_t 30
menu_fore _nc_tracing 2
menu_fore _nc_Default_Menu 17
menu_fore _tracef 51
menu_fore _nc_retrace_attr_t 30
set_menu_grey _nc_tracing 13
set_menu_grey __errno_location 62
set_menu_grey __errno_location 89
set_menu_grey _traceattr 123
set_menu_grey _tracef 141
set_menu_grey _nc_Draw_Menu 156
set_menu_grey _nc_Show_Menu 164
set_menu_grey _nc_Default_Menu 177
set_menu_grey _nc_retrace_int 81
set_menu_grey _nc_retrace_int 111
set_menu_back _nc_tracing 13
set_menu_back __errno_location 62
set_menu_back __errno_location 89
set_menu_back _traceattr 123
set_menu_back _tracef 141
set_menu_back _nc_Draw_Menu 156
set_menu_back _nc_Show_Menu 164
set_menu_back _nc_Default_Menu 177
set_menu_back _nc_retrace_int 81
set_menu_back _nc_retrace_int 111
set_menu_fore _nc_tracing 13
set_menu_fore __errno_location 62
set_menu_fore __errno_location 89
set_menu_fore _traceattr 123
set_menu_fore _tracef 141
set_menu_fore _nc_Draw_Menu 156
set_menu_fore _nc_Show_Menu 164
set_menu_fore _nc_Default_Menu 177
set_menu_fore _nc_retrace_int 81
set_menu_fore _nc_retrace_int 111
pos_menu_cursor _nc_menu_cursor_pos 56
pos_menu_cursor _nc_tracing 62
pos_menu_cursor wmove 126
pos_menu_cursor wcursyncup 139
pos_menu_cursor wsyncup 147
pos_menu_cursor wtouchln 176
pos_menu_cursor __errno_location 181
pos_menu_cursor _nc_retrace_int 192
pos_menu_cursor _tracef 275
pos_menu_cursor SP 291
_nc_Match_Next_Character_In_Item_Name _nc_tracing 24
_nc_Match_Next_Character_In_Item_Name __ctype_toupper_loc 265
_nc_Match_Next_Character_In_Item_Name __errno_location 409
_nc_Match_Next_Character_In_Item_Name __errno_location 597
_nc_Match_Next_Character_In_Item_Name _tracef 640
_nc_Match_Next_Character_In_Item_Name _nc_retrace_int 439
menu_driver _nc_tracing 42
menu_driver _nc_New_TopRow_and_CurrentItem 219
menu_driver __ctype_b_loc 249
menu_driver __errno_location 313
menu_driver _nc_retrace_int 324
menu_driver _tracef 381
menu_driver getmouse 449
menu_driver __errno_location 497
menu_driver _nc_retrace_int 513
menu_driver __errno_location 529
menu_driver _nc_retrace_int 545
menu_driver _nc_Match_Next_Character_In_Item_Name 692
menu_driver ungetmouse 722
menu_driver pos_menu_cursor 822
menu_driver _nc_Match_Next_Character_In_Item_Name 1316
menu_driver __errno_location 1337
menu_driver _nc_retrace_int 1353
menu_driver wenclose 1380
menu_driver stdscr 1422
menu_driver wmouse_trafo 1447
menu_driver __errno_location 1518
menu_driver _nc_retrace_int 1527
menu_driver SP 1539
menu_driver _nc_Match_Next_Character_In_Item_Name 1579
menu_driver wmove 1703
menu_driver _nc_Post_Item 1715
menu_driver _nc_Show_Menu 1723
menu_driver SP 1753
menu_driver wenclose 1801
menu_driver wmouse_trafo 1841
menu_driver _nc_menu_cursor_pos 1927
menu_driver _nc_New_TopRow_and_CurrentItem 2004
menu_format _nc_Default_Menu 6
menu_format _nc_Default_Menu 29
set_menu_format _nc_tracing 24
set_menu_format _nc_Calculate_Item_Length_and_Width 230
set_menu_format __errno_location 235
set_menu_format _tracef 303
set_menu_format __errno_location 321
set_menu_format __errno_location 345
set_menu_format _nc_Default_Menu 377
set_menu_format _nc_Default_Menu 392
set_menu_format __errno_location 409
set_menu_format _nc_retrace_int 266
_nc_Show_Menu mvderwin 50
_nc_Show_Menu copywin 130
_nc_Show_Menu SP 164
_nc_Show_Menu pos_menu_cursor 143
_nc_New_TopRow_and_CurrentItem wmove 283
_nc_New_TopRow_and_CurrentItem _nc_Post_Item 294
_nc_New_TopRow_and_CurrentItem wmove 336
_nc_New_TopRow_and_CurrentItem _nc_Post_Item 348
_nc_New_TopRow_and_CurrentItem _nc_Show_Menu 435
_nc_New_TopRow_and_CurrentItem pos_menu_cursor 550
_nc_Calculate_Item_Length_and_Width _nc_tracing 86
_nc_Calculate_Item_Length_and_Width _tracef 126
_nc_Disconnect_Items free 60
_nc_Connect_Items _nc_tracing 219
_nc_Connect_Items malloc 242
_nc_Connect_Items set_menu_format 276
_nc_Connect_Items free 348
_nc_Connect_Items _tracef 403
item_term _nc_tracing 2
item_term _nc_Default_Menu 17
item_term _tracef 59
item_term _nc_retrace_menu_hook 34
item_init _nc_tracing 2
item_init _nc_Default_Menu 17
item_init _tracef 59
item_init _nc_retrace_menu_hook 34
menu_term _nc_tracing 2
menu_term _nc_Default_Menu 17
menu_term _tracef 59
menu_term _nc_retrace_menu_hook 34
menu_init _nc_tracing 2
menu_init _nc_Default_Menu 17
menu_init _tracef 59
menu_init _nc_retrace_menu_hook 34
set_item_term _nc_tracing 16
set_item_term _nc_Default_Menu 33
set_item_term __errno_location 49
set_item_term _tracef 94
set_item_term _nc_retrace_int 76
set_item_init _nc_tracing 16
set_item_init _nc_Default_Menu 33
set_item_init __errno_location 49
set_item_init _tracef 94
set_item_init _nc_retrace_int 76
set_menu_term _nc_tracing 16
set_menu_term _nc_Default_Menu 33
set_menu_term __errno_location 49
set_menu_term _tracef 94
set_menu_term _nc_retrace_int 76
set_menu_init _nc_tracing 16
set_menu_init _nc_Default_Menu 33
set_menu_init __errno_location 49
set_menu_init _tracef 94
set_menu_init _nc_retrace_int 76
item_index _nc_tracing 2
item_index _tracef 51
item_index _nc_retrace_int 31
item_index _nc_retrace_int 71
current_item _nc_tracing 2
current_item _tracef 51
current_item _nc_retrace_item 31
current_item _nc_retrace_item 68
set_current_item _nc_tracing 24
set_current_item __errno_location 54
set_current_item _tracef 110
set_current_item _nc_New_TopRow_and_CurrentItem 236
set_current_item __errno_location 241
set_current_item __errno_location 297
set_current_item _nc_Link_Items 324
set_current_item _nc_retrace_int 88
item_description _nc_tracing 2
item_description _tracef 43
item_description _nc_retrace_cptr 26
item_name _nc_tracing 2
item_name _tracef 43
item_name _nc_retrace_cptr 25
menu_mark _nc_tracing 2
menu_mark _nc_Default_Menu 17
menu_mark _tracef 59
menu_mark _nc_retrace_ptr 34
free_item _nc_tracing 2
free_item __errno_location 33
free_item _tracef 75
free_item free 92
free_item __errno_location 97
free_item __errno_location 121
free_item _nc_retrace_int 50
free_item _nc_retrace_int 111
free_item _nc_retrace_int 138
Is_Printable_String __ctype_b_loc 17
set_menu_mark _nc_tracing 29
set_menu_mark _nc_Calculate_Item_Length_and_Width 138
set_menu_mark __errno_location 143
set_menu_mark __errno_location 199
set_menu_mark _nc_Draw_Menu 228
set_menu_mark _nc_Show_Menu 236
set_menu_mark strlen 268
set_menu_mark _nc_visbuf 284
set_menu_mark _tracef 302
set_menu_mark __strdup 324
set_menu_mark _nc_Default_Menu 343
set_menu_mark free 384
set_menu_mark strlen 418
set_menu_mark __errno_location 427
set_menu_mark _nc_Default_Menu 449
set_menu_mark _nc_retrace_int 180
new_item _nc_tracing 29
new_item _tracef 69
new_item __errno_location 89
new_item calloc 167
new_item _nc_Default_Item 189
new_item _nc_Default_Item 203
new_item _nc_Default_Item 215
new_item _nc_Default_Item 227
new_item _nc_Default_Item 239
new_item _nc_Default_Item 251
new_item _nc_Default_Item 263
new_item _nc_Default_Item 275
new_item _nc_Default_Item 287
new_item _nc_Default_Item 299
new_item _nc_Default_Item 311
new_item _nc_Default_Item 323
new_item strlen 333
new_item strlen 400
new_item __errno_location 425
new_item _nc_retrace_item 130
item_opts _nc_tracing 2
item_opts _nc_Default_Item 17
item_opts _tracef 51
item_opts _nc_retrace_item_opts 33
set_item_opts _nc_tracing 24
