__atomic_load,libat_load libat_load_1 72
__atomic_load,libat_load libat_load_2 100
__atomic_load,libat_load libat_load_4 124
__atomic_load,libat_load libat_load_8 148
__atomic_load,libat_load libat_load_4 180
__atomic_load,libat_load memcpy 200
__atomic_load,libat_load libat_load_8 228
__atomic_load,libat_load libat_lock_n 248
__atomic_load,libat_load memcpy 264
__atomic_load,libat_load libat_unlock_n 284
__atomic_store,libat_store libat_store_1 80
__atomic_store,libat_store libat_store_2 108
__atomic_store,libat_store libat_store_4 132
__atomic_store,libat_store libat_store_8 160
__atomic_store,libat_store memcpy 228
__atomic_store,libat_store memcpy 332
__atomic_store,libat_store libat_lock_n 388
__atomic_store,libat_store memcpy 404
__atomic_store,libat_store libat_unlock_n 416
__atomic_compare_exchange,libat_compare_exchange libat_compare_exchange_1 96
__atomic_compare_exchange,libat_compare_exchange libat_compare_exchange_2 140
__atomic_compare_exchange,libat_compare_exchange libat_compare_exchange_4 172
__atomic_compare_exchange,libat_compare_exchange libat_compare_exchange_8 208
__atomic_compare_exchange,libat_compare_exchange memcmp 268
__atomic_compare_exchange,libat_compare_exchange memcpy 304
__atomic_compare_exchange,libat_compare_exchange memcmp 396
__atomic_compare_exchange,libat_compare_exchange memcpy 432
__atomic_compare_exchange,libat_compare_exchange memcpy 508
__atomic_compare_exchange,libat_compare_exchange libat_lock_n 524
__atomic_compare_exchange,libat_compare_exchange memcmp 540
__atomic_compare_exchange,libat_compare_exchange memcpy 576
__atomic_compare_exchange,libat_compare_exchange libat_unlock_n 588
libat_exchange_large_inplace memcpy 72
libat_exchange_large_inplace memcpy 88
libat_exchange_large_inplace memcpy 104
libat_exchange_large_inplace memcpy 140
libat_exchange_large_inplace memcpy 156
libat_exchange_large_inplace memcpy 172
__atomic_exchange,libat_exchange libat_exchange_1 84
__atomic_exchange,libat_exchange libat_exchange_2 116
__atomic_exchange,libat_exchange libat_exchange_4 144
__atomic_exchange,libat_exchange libat_exchange_8 176
__atomic_exchange,libat_exchange memcpy 248
__atomic_exchange,libat_exchange memcpy 352
__atomic_exchange,libat_exchange memcpy 412
__atomic_exchange,libat_exchange libat_lock_n 428
__atomic_exchange,libat_exchange memcpy 452
__atomic_exchange,libat_exchange memcpy 468
__atomic_exchange,libat_exchange libat_unlock_n 480
libat_lock_1 pthread_mutex_lock 12
libat_unlock_1 pthread_mutex_unlock 12
libat_lock_n pthread_mutex_lock 40
libat_unlock_n pthread_mutex_unlock 40
_ZN3GTM11aa_tree_keyIjE8insert_1EPNS_11aa_node_keyIjEES4_,_ZN3GTM11aa_tree_keyIjE8insert_1EPNS_11aa_node_keyIjEES4_.localalias.1 _ZN3GTM12aa_node_base4skewEv 64
_ZN3GTM11aa_tree_keyIjE8insert_1EPNS_11aa_node_keyIjEES4_,_ZN3GTM11aa_tree_keyIjE8insert_1EPNS_11aa_node_keyIjEES4_.localalias.1 _ZN3GTM12aa_node_base5splitEv 72
_ZN3GTM11aa_tree_keyIjE6insertEPNS_11aa_node_keyIjEE _ZN3GTM11aa_tree_keyIjE8insert_1EPNS_11aa_node_keyIjEES4_ 32
_ZN3GTM11aa_tree_keyIjE7erase_1EPNS_11aa_node_keyIjEEjPS4_,_ZN3GTM11aa_tree_keyIjE7erase_1EPNS_11aa_node_keyIjEEjPS4_.localalias.0 _ZN3GTM12aa_node_base14decrease_levelEv 112
_ZN3GTM11aa_tree_keyIjE7erase_1EPNS_11aa_node_keyIjEEjPS4_,_ZN3GTM11aa_tree_keyIjE7erase_1EPNS_11aa_node_keyIjEEjPS4_.localalias.0 _ZN3GTM12aa_node_base4skewEv 116
_ZN3GTM11aa_tree_keyIjE7erase_1EPNS_11aa_node_keyIjEEjPS4_,_ZN3GTM11aa_tree_keyIjE7erase_1EPNS_11aa_node_keyIjEEjPS4_.localalias.0 _ZN3GTM12aa_node_base4skewEv 128
_ZN3GTM11aa_tree_keyIjE7erase_1EPNS_11aa_node_keyIjEEjPS4_,_ZN3GTM11aa_tree_keyIjE7erase_1EPNS_11aa_node_keyIjEEjPS4_.localalias.0 _ZN3GTM12aa_node_base4skewEv 144
_ZN3GTM11aa_tree_keyIjE7erase_1EPNS_11aa_node_keyIjEEjPS4_,_ZN3GTM11aa_tree_keyIjE7erase_1EPNS_11aa_node_keyIjEEjPS4_.localalias.0 _ZN3GTM12aa_node_base5splitEv 156
_ZN3GTM11aa_tree_keyIjE7erase_1EPNS_11aa_node_keyIjEEjPS4_,_ZN3GTM11aa_tree_keyIjE7erase_1EPNS_11aa_node_keyIjEEjPS4_.localalias.0 _ZN3GTM12aa_node_base5splitEv 168
_ZN3GTM11aa_tree_keyIjE5eraseEj _ZN3GTM11aa_tree_keyIjE7erase_1EPNS_11aa_node_keyIjEEjPS4_ 32
_ZN3GTM7aa_treeIjNS_16gtm_alloc_actionEE7clear_1EPNS_7aa_nodeIjS1_EE.part.2 free 56
_ZN3GTM7aa_treeIjNS_16gtm_alloc_actionEE7clear_1EPNS_7aa_nodeIjS1_EE.part.2 _ZN3GTM12aa_node_base5s_nilE 60
_ZN3GTM10gtm_thread17record_allocationEPvPFvS1_E _ZN3GTM7aa_treeIjNS_16gtm_alloc_actionEE6insertEj 12
_ZN3GTM10gtm_thread17forget_allocationEPvPFvS1_E _ZN3GTM7aa_treeIjNS_16gtm_alloc_actionEE6insertEj 12
_ZN3GTM10gtm_thread17forget_allocationEPvjPFvS1_jE _ZN3GTM7aa_treeIjNS_16gtm_alloc_actionEE6insertEj 16
_ZN3GTML20commit_allocations_2EjPNS_16gtm_alloc_actionEPv _ZN3GTM7aa_treeIjNS_16gtm_alloc_actionEE6insertEj 68
_ZN3GTM10gtm_thread18commit_allocationsEbPNS_7aa_treeIjNS_16gtm_alloc_actionEEE _ZN3GTM7aa_treeIjNS_16gtm_alloc_actionEE10traverse_1EPNS_7aa_nodeIjS1_EEPFvjPS1_PvES7_ 104
_ZN3GTM10gtm_thread18commit_allocationsEbPNS_7aa_treeIjNS_16gtm_alloc_actionEEE _ZN3GTML20commit_allocations_2EjPNS_16gtm_alloc_actionEPv 112
_ZN3GTM10gtm_thread18commit_allocationsEbPNS_7aa_treeIjNS_16gtm_alloc_actionEEE _ZN3GTM12aa_node_base5s_nilE 116
_ZN3GTM10gtm_thread18commit_allocationsEbPNS_7aa_treeIjNS_16gtm_alloc_actionEEE _ZN3GTML20commit_allocations_1EjPNS_16gtm_alloc_actionEPv 120
_ZN3GTM7aa_treeIjNS_16gtm_alloc_actionEE6insertEj _ZN3GTM7xmallocEjb 20
_ZN3GTM7aa_treeIjNS_16gtm_alloc_actionEE6insertEj _ZN3GTM11aa_tree_keyIjE6insertEPNS_11aa_node_keyIjEE 60
_ZN3GTM7aa_treeIjNS_16gtm_alloc_actionEE10traverse_1EPNS_7aa_nodeIjS1_EEPFvjPS1_PvES7_ _ZN3GTM12aa_node_base5s_nilE 68
_ITM_malloc malloc 4
_ITM_malloc _ZN3GTM10gtm_thread17record_allocationEPvPFvS1_E 40
_ITM_malloc _ZN3GTM12_gtm_thr_tlsE 52
_ITM_malloc free 56
_ITM_calloc calloc 4
_ITM_calloc _ZN3GTM10gtm_thread17record_allocationEPvPFvS1_E 40
_ITM_calloc _ZN3GTM12_gtm_thr_tlsE 52
_ITM_calloc free 56
_ITM_free _ZN3GTM10gtm_thread17forget_allocationEPvPFvS1_E 28
_ITM_free _ZN3GTM12_gtm_thr_tlsE 32
_ITM_free free 36
_ITM_dropReferences _ZN3GTM9GTM_fatalEPKcz 8
del_opnt _ZdlPvRKSt9nothrow_t 4
del_opvnt _ZdaPvRKSt9nothrow_t 4
delsz_opnt _ZdlPvjRKSt9nothrow_t 4
_ZGTtnwj _Znwj 4
_ZGTtnwj _ZN3GTM10gtm_thread17record_allocationEPvPFvS1_E 40
_ZGTtnwj _ZN3GTM12_gtm_thr_tlsE 52
_ZGTtnwj _ZdlPv 56
_ZGTtnwjRKSt9nothrow_t _ZnwjRKSt9nothrow_t 4
_ZGTtnwjRKSt9nothrow_t _ZN3GTM10gtm_thread17record_allocationEPvPFvS1_E 40
_ZGTtnwjRKSt9nothrow_t _ZN3GTM12_gtm_thr_tlsE 52
_ZGTtnwjRKSt9nothrow_t del_opnt 56
_ZGTtnaj _Znaj 4
_ZGTtnaj _ZN3GTM10gtm_thread17record_allocationEPvPFvS1_E 40
_ZGTtnaj _ZN3GTM12_gtm_thr_tlsE 52
_ZGTtnaj _ZdaPv 56
_ZGTtnajRKSt9nothrow_t _ZnajRKSt9nothrow_t 4
_ZGTtnajRKSt9nothrow_t _ZN3GTM10gtm_thread17record_allocationEPvPFvS1_E 40
_ZGTtnajRKSt9nothrow_t _ZN3GTM12_gtm_thr_tlsE 52
_ZGTtnajRKSt9nothrow_t del_opvnt 56
_ZGTtdlPv _ZN3GTM10gtm_thread17forget_allocationEPvPFvS1_E 28
_ZGTtdlPv _ZN3GTM12_gtm_thr_tlsE 32
_ZGTtdlPv _ZdlPv 36
_ZGTtdlPvRKSt9nothrow_t _ZN3GTM10gtm_thread17forget_allocationEPvPFvS1_E 28
_ZGTtdlPvRKSt9nothrow_t _ZN3GTM12_gtm_thr_tlsE 32
_ZGTtdlPvRKSt9nothrow_t del_opnt 36
_ZGTtdaPv _ZN3GTM10gtm_thread17forget_allocationEPvPFvS1_E 28
_ZGTtdaPv _ZN3GTM12_gtm_thr_tlsE 32
_ZGTtdaPv _ZdaPv 36
_ZGTtdaPvRKSt9nothrow_t _ZN3GTM10gtm_thread17forget_allocationEPvPFvS1_E 28
_ZGTtdaPvRKSt9nothrow_t _ZN3GTM12_gtm_thr_tlsE 32
_ZGTtdaPvRKSt9nothrow_t del_opvnt 36
_ZGTtdlPvj _ZN3GTM10gtm_thread17forget_allocationEPvjPFvS1_jE 32
_ZGTtdlPvj _ZN3GTM12_gtm_thr_tlsE 36
_ZGTtdlPvj _ZdlPvj 40
_ZGTtdlPvjRKSt9nothrow_t _ZN3GTM10gtm_thread17forget_allocationEPvjPFvS1_jE 32
_ZGTtdlPvjRKSt9nothrow_t _ZN3GTM12_gtm_thr_tlsE 36
_ZGTtdlPvjRKSt9nothrow_t delsz_opnt 40
_ZN3GTM12abi_dispatch21memmove_overlap_checkEPvPKvjNS0_11ls_modifierES4_.part.0 _ZN3GTM9GTM_fatalEPKcz 40
_ITM_RU1 _ZN3GTM12_gtm_thr_tlsE 40
_ITM_RaRU1 _ZN3GTM12_gtm_thr_tlsE 40
_ITM_RaWU1 _ZN3GTM12_gtm_thr_tlsE 40
_ITM_RfWU1 _ZN3GTM12_gtm_thr_tlsE 40
_ITM_WU1 _ZN3GTM12_gtm_thr_tlsE 56
_ITM_WaRU1 _ZN3GTM12_gtm_thr_tlsE 56
_ITM_WaWU1 _ZN3GTM12_gtm_thr_tlsE 56
_ITM_RU2 _ZN3GTM12_gtm_thr_tlsE 40
_ITM_RaRU2 _ZN3GTM12_gtm_thr_tlsE 40
_ITM_RaWU2 _ZN3GTM12_gtm_thr_tlsE 40
_ITM_RfWU2 _ZN3GTM12_gtm_thr_tlsE 40
_ITM_WU2 _ZN3GTM12_gtm_thr_tlsE 56
_ITM_WaRU2 _ZN3GTM12_gtm_thr_tlsE 56
_ITM_WaWU2 _ZN3GTM12_gtm_thr_tlsE 56
_ITM_RU4 _ZN3GTM12_gtm_thr_tlsE 40
_ITM_RaRU4 _ZN3GTM12_gtm_thr_tlsE 40
_ITM_RaWU4 _ZN3GTM12_gtm_thr_tlsE 40
_ITM_RfWU4 _ZN3GTM12_gtm_thr_tlsE 40
_ITM_WU4 _ZN3GTM12_gtm_thr_tlsE 56
_ITM_WaRU4 _ZN3GTM12_gtm_thr_tlsE 56
_ITM_WaWU4 _ZN3GTM12_gtm_thr_tlsE 56
_ITM_RU8 _ZN3GTM12_gtm_thr_tlsE 40
_ITM_RaRU8 _ZN3GTM12_gtm_thr_tlsE 40
_ITM_RaWU8 _ZN3GTM12_gtm_thr_tlsE 40
_ITM_RfWU8 _ZN3GTM12_gtm_thr_tlsE 40
_ITM_WU8 _ZN3GTM12_gtm_thr_tlsE 52
_ITM_WaRU8 _ZN3GTM12_gtm_thr_tlsE 52
_ITM_WaWU8 _ZN3GTM12_gtm_thr_tlsE 52
_ITM_RF _ZN3GTM12_gtm_thr_tlsE 40
_ITM_RaRF _ZN3GTM12_gtm_thr_tlsE 40
_ITM_RaWF _ZN3GTM12_gtm_thr_tlsE 40
_ITM_RfWF _ZN3GTM12_gtm_thr_tlsE 40
_ITM_WF _ZN3GTM12_gtm_thr_tlsE 40
_ITM_WaRF _ZN3GTM12_gtm_thr_tlsE 40
_ITM_WaWF _ZN3GTM12_gtm_thr_tlsE 40
_ITM_RD _ZN3GTM12_gtm_thr_tlsE 40
_ITM_RaRD _ZN3GTM12_gtm_thr_tlsE 40
_ITM_RaWD _ZN3GTM12_gtm_thr_tlsE 40
_ITM_RfWD _ZN3GTM12_gtm_thr_tlsE 40
_ITM_WD _ZN3GTM12_gtm_thr_tlsE 40
_ITM_WaRD _ZN3GTM12_gtm_thr_tlsE 40
_ITM_WaWD _ZN3GTM12_gtm_thr_tlsE 40
_ITM_RE _ZN3GTM12_gtm_thr_tlsE 40
_ITM_RaRE _ZN3GTM12_gtm_thr_tlsE 40
_ITM_RaWE _ZN3GTM12_gtm_thr_tlsE 40
_ITM_RfWE _ZN3GTM12_gtm_thr_tlsE 40
_ITM_WE _ZN3GTM12_gtm_thr_tlsE 40
_ITM_WaRE _ZN3GTM12_gtm_thr_tlsE 40
_ITM_WaWE _ZN3GTM12_gtm_thr_tlsE 40
_ITM_RCF _ZN3GTM12_gtm_thr_tlsE 40
_ITM_RaRCF _ZN3GTM12_gtm_thr_tlsE 40
_ITM_RaWCF _ZN3GTM12_gtm_thr_tlsE 40
_ITM_RfWCF _ZN3GTM12_gtm_thr_tlsE 40
_ITM_WCF _ZN3GTM12_gtm_thr_tlsE 40
_ITM_WaRCF _ZN3GTM12_gtm_thr_tlsE 40
_ITM_WaWCF _ZN3GTM12_gtm_thr_tlsE 40
_ITM_RCD _ZN3GTM12_gtm_thr_tlsE 40
_ITM_RaRCD _ZN3GTM12_gtm_thr_tlsE 40
_ITM_RaWCD _ZN3GTM12_gtm_thr_tlsE 40
_ITM_RfWCD _ZN3GTM12_gtm_thr_tlsE 40
_ITM_WCD _ZN3GTM12_gtm_thr_tlsE 40
_ITM_WaRCD _ZN3GTM12_gtm_thr_tlsE 40
_ITM_WaWCD _ZN3GTM12_gtm_thr_tlsE 40
_ITM_RCE _ZN3GTM12_gtm_thr_tlsE 40
_ITM_RaRCE _ZN3GTM12_gtm_thr_tlsE 40
_ITM_RaWCE _ZN3GTM12_gtm_thr_tlsE 40
_ITM_RfWCE _ZN3GTM12_gtm_thr_tlsE 40
_ITM_WCE _ZN3GTM12_gtm_thr_tlsE 40
_ITM_WaRCE _ZN3GTM12_gtm_thr_tlsE 40
_ITM_WaWCE _ZN3GTM12_gtm_thr_tlsE 40
_ITM_memcpyRnWt _ZN3GTM12_gtm_thr_tlsE 76
_ITM_memmoveRnWt _ZN3GTM12_gtm_thr_tlsE 92
_ITM_memcpyRnWtaR _ZN3GTM12_gtm_thr_tlsE 76
_ITM_memmoveRnWtaR _ZN3GTM12_gtm_thr_tlsE 92
_ITM_memcpyRnWtaW _ZN3GTM12_gtm_thr_tlsE 76
_ITM_memmoveRnWtaW _ZN3GTM12_gtm_thr_tlsE 92
_ITM_memcpyRtWn _ZN3GTM12_gtm_thr_tlsE 80
_ITM_memmoveRtWn _ZN3GTM12_gtm_thr_tlsE 92
_ITM_memcpyRtWt _ZN3GTM12_gtm_thr_tlsE 80
_ITM_memmoveRtWt _ZN3GTM12_gtm_thr_tlsE 76
_ITM_memcpyRtWtaR _ZN3GTM12_gtm_thr_tlsE 80
_ITM_memmoveRtWtaR _ZN3GTM12_gtm_thr_tlsE 76
_ITM_memcpyRtWtaW _ZN3GTM12_gtm_thr_tlsE 80
_ITM_memmoveRtWtaW _ZN3GTM12_gtm_thr_tlsE 76
_ITM_memcpyRtaRWn _ZN3GTM12_gtm_thr_tlsE 80
_ITM_memmoveRtaRWn _ZN3GTM12_gtm_thr_tlsE 92
_ITM_memcpyRtaRWt _ZN3GTM12_gtm_thr_tlsE 80
_ITM_memmoveRtaRWt _ZN3GTM12_gtm_thr_tlsE 80
_ITM_memcpyRtaRWtaR _ZN3GTM12_gtm_thr_tlsE 80
_ITM_memmoveRtaRWtaR _ZN3GTM12_gtm_thr_tlsE 80
_ITM_memcpyRtaRWtaW _ZN3GTM12_gtm_thr_tlsE 80
_ITM_memmoveRtaRWtaW _ZN3GTM12_gtm_thr_tlsE 80
_ITM_memcpyRtaWWn _ZN3GTM12_gtm_thr_tlsE 80
_ITM_memmoveRtaWWn _ZN3GTM12_gtm_thr_tlsE 92
_ITM_memcpyRtaWWt _ZN3GTM12_gtm_thr_tlsE 80
_ITM_memmoveRtaWWt _ZN3GTM12_gtm_thr_tlsE 80
_ITM_memcpyRtaWWtaR _ZN3GTM12_gtm_thr_tlsE 80
_ITM_memmoveRtaWWtaR _ZN3GTM12_gtm_thr_tlsE 80
_ITM_memcpyRtaWWtaW _ZN3GTM12_gtm_thr_tlsE 80
_ITM_memmoveRtaWWtaW _ZN3GTM12_gtm_thr_tlsE 80
_ITM_memsetW _ZN3GTM12_gtm_thr_tlsE 68
_ITM_memsetWaR _ZN3GTM12_gtm_thr_tlsE 68
_ITM_memsetWaW _ZN3GTM12_gtm_thr_tlsE 68
_ZL16thread_exit_initv pthread_key_create 12
_ZL16thread_exit_initv _ZN3GTM9GTM_fatalEPKcz 28
_ZL16thread_exit_initv _ZL19thread_exit_handlerPv 32
_ZN3GTM7aa_treeIjNS_16gtm_alloc_actionEE7clear_1EPNS_7aa_nodeIjS1_EE.part.11 free 56
_ZN3GTM7aa_treeIjNS_16gtm_alloc_actionEE7clear_1EPNS_7aa_nodeIjS1_EE.part.11 _ZN3GTM12aa_node_base5s_nilE 60
_ZN3GTM10gtm_threadnwEj __assert 28
_ZN3GTM10gtm_threadnwEj _ZN3GTM7xmallocEjb 40
_ZN3GTM10gtm_threadnwEj memset 52
_ZN3GTM10gtm_threaddlEPv free 0
_ZN3GTM10gtm_threadD1Ev,_ZN3GTM10gtm_threadD2Ev _ZN3GTM9GTM_fatalEPKcz 20
_ZN3GTM10gtm_threadD1Ev,_ZN3GTM10gtm_threadD2Ev _ZN3GTM10gtm_rwlock10write_lockEv 36
_ZN3GTM10gtm_threadD1Ev,_ZN3GTM10gtm_threadD2Ev _ZN3GTM10gtm_thread25number_of_threads_changedEjj 88
_ZN3GTM10gtm_threadD1Ev,_ZN3GTM10gtm_threadD2Ev _ZN3GTM10gtm_rwlock12write_unlockEv 96
_ZN3GTM10gtm_threadD1Ev,_ZN3GTM10gtm_threadD2Ev free 116
_ZN3GTM10gtm_threadD1Ev,_ZN3GTM10gtm_threadD2Ev free 136
_ZN3GTM10gtm_threadD1Ev,_ZN3GTM10gtm_threadD2Ev free 192
_ZN3GTM10gtm_threadD1Ev,_ZN3GTM10gtm_threadD2Ev free 212
_ZN3GTM10gtm_threadD1Ev,_ZN3GTM10gtm_threadD2Ev free 232
_ZN3GTM10gtm_threadD1Ev,_ZN3GTM10gtm_threadD2Ev _ZN3GTM12aa_node_base5s_nilE 268
_ZL19thread_exit_handlerPv _ZN3GTM10gtm_threadD1Ev 32
_ZL19thread_exit_handlerPv free 40
_ZL19thread_exit_handlerPv _ZN3GTM12_gtm_thr_tlsE 64
_ZL19thread_exit_handlerPv _ZN3GTM12_gtm_thr_tlsE 68
_ZN3GTM10gtm_threadC1Ev,_ZN3GTM10gtm_threadC2Ev _ZN3GTM7xmallocEjb 32
_ZN3GTM10gtm_threadC1Ev,_ZN3GTM10gtm_threadC2Ev _ZN3GTM7xmallocEjb 56
_ZN3GTM10gtm_threadC1Ev,_ZN3GTM10gtm_threadC2Ev _ZN3GTM7xmallocEjb 80
_ZN3GTM10gtm_threadC1Ev,_ZN3GTM10gtm_threadC2Ev _ZN3GTM7xmallocEjb 108
_ZN3GTM10gtm_threadC1Ev,_ZN3GTM10gtm_threadC2Ev _ZN3GTM7xmallocEjb 136
_ZN3GTM10gtm_threadC1Ev,_ZN3GTM10gtm_threadC2Ev _ZN3GTM10gtm_rwlock10write_lockEv 156
_ZN3GTM10gtm_threadC1Ev,_ZN3GTM10gtm_threadC2Ev _ZN3GTM10gtm_thread25number_of_threads_changedEjj 188
_ZN3GTM10gtm_threadC1Ev,_ZN3GTM10gtm_threadC2Ev _ZN3GTM10gtm_rwlock12write_unlockEv 196
_ZN3GTM10gtm_threadC1Ev,_ZN3GTM10gtm_threadC2Ev _ZN3GTM10gtm_thread19init_cpp_exceptionsEv 204
_ZN3GTM10gtm_threadC1Ev,_ZN3GTM10gtm_threadC2Ev pthread_once 216
_ZN3GTM10gtm_threadC1Ev,_ZN3GTM10gtm_threadC2Ev pthread_setspecific 240
_ZN3GTM10gtm_threadC1Ev,_ZN3GTM10gtm_threadC2Ev _ZN3GTM9GTM_fatalEPKcz 256
_ZN3GTM10gtm_threadC1Ev,_ZN3GTM10gtm_threadC2Ev _ZL16thread_exit_initv 272
_ZN3GTM18gtm_transaction_cp4saveEPNS_10gtm_threadE memcpy 12
_ZN3GTM18gtm_transaction_cp4saveEPNS_10gtm_threadE _ZN3GTM12_gtm_thr_tlsE 112
_ZN3GTM18gtm_transaction_cp6commitEPNS_10gtm_threadE memcpy 24
_ZN3GTM10gtm_thread8rollbackEPNS_18gtm_transaction_cpEb _ZN3GTM11gtm_undolog8rollbackEPNS_10gtm_threadEj 32
_ZN3GTM10gtm_thread8rollbackEPNS_18gtm_transaction_cpEb _ZN3GTM10gtm_thread21rollback_user_actionsEj 88
_ZN3GTM10gtm_thread8rollbackEPNS_18gtm_transaction_cpEb _ZN3GTM10gtm_thread18commit_allocationsEbPNS_7aa_treeIjNS_16gtm_alloc_actionEEE 112
_ZN3GTM10gtm_thread8rollbackEPNS_18gtm_transaction_cpEb _ZN3GTM10gtm_thread21revert_cpp_exceptionsEPNS_18gtm_transaction_cpE 124
_ZN3GTM10gtm_thread8rollbackEPNS_18gtm_transaction_cpEb __assert 160
_ZN3GTM10gtm_thread8rollbackEPNS_18gtm_transaction_cpEb memcpy 176
_ZN3GTM10gtm_thread8rollbackEPNS_18gtm_transaction_cpEb _Unwind_DeleteException 264
_ZN3GTM10gtm_thread8rollbackEPNS_18gtm_transaction_cpEb memcpy 308
_ZN3GTM10gtm_thread8rollbackEPNS_18gtm_transaction_cpEb _ZN3GTM12_gtm_thr_tlsE 348
_ZN3GTM10gtm_thread8rollbackEPNS_18gtm_transaction_cpEb _ZN3GTM12_gtm_thr_tlsE 364
_ZN3GTM10gtm_thread8rollbackEPNS_18gtm_transaction_cpEb _ZN3GTM12_gtm_thr_tlsE 368
_ZN3GTM10gtm_thread7restartENS_18gtm_restart_reasonEb _ZN3GTM10gtm_thread8rollbackEPNS_18gtm_transaction_cpEb 24
_ZN3GTM10gtm_thread7restartENS_18gtm_restart_reasonEb _ZN3GTM10gtm_rwlock20write_upgrade_finishEPNS_10gtm_threadE 44
_ZN3GTM10gtm_thread7restartENS_18gtm_restart_reasonEb _ZN3GTM10gtm_thread21decide_retry_strategyENS_18gtm_restart_reasonE 56
_ZN3GTM10gtm_thread7restartENS_18gtm_restart_reasonEb _ZN3GTM10gtm_thread21decide_retry_strategyENS_18gtm_restart_reasonE 112
_ZN3GTM10gtm_thread7restartENS_18gtm_restart_reasonEb GTM_longjmp 168
_ZN3GTM10gtm_thread7restartENS_18gtm_restart_reasonEb _ZN3GTM12_gtm_thr_tlsE 176
_ZN3GTM10gtm_thread7restartENS_18gtm_restart_reasonEb _ZN3GTM12_gtm_thr_tlsE 180
_ITM_abortTransaction __assert 36
_ITM_abortTransaction abort 100
_ITM_abortTransaction _ZN3GTM10gtm_thread7restartENS_18gtm_restart_reasonEb 160
_ITM_abortTransaction _ZN3GTM10gtm_thread8rollbackEPNS_18gtm_transaction_cpEb 176
_ITM_abortTransaction _ZN3GTM10gtm_rwlock11read_unlockEPNS_10gtm_threadE 200
_ITM_abortTransaction _ZN3GTM6vectorINS_18gtm_transaction_cpELb1EE3popEv 212
_ITM_abortTransaction memcpy 236
_ITM_abortTransaction _ZN3GTM10gtm_thread8rollbackEPNS_18gtm_transaction_cpEb 252
_ITM_abortTransaction GTM_longjmp 268
_ITM_abortTransaction _ZN3GTM10gtm_rwlock12write_unlockEv 276
_ITM_abortTransaction _ZN3GTM12_gtm_thr_tlsE 312
_ITM_abortTransaction _ZN3GTM12_gtm_thr_tlsE 320
_ZN3GTM10gtm_thread9trycommitEv _ZN3GTM6vectorINS_18gtm_transaction_cpELb1EE3popEv 72
_ZN3GTM10gtm_thread9trycommitEv _ZN3GTM10gtm_thread18commit_allocationsEbPNS_7aa_treeIjNS_16gtm_alloc_actionEEE 92
_ZN3GTM10gtm_thread9trycommitEv _ZN3GTM18gtm_transaction_cp6commitEPNS_10gtm_threadE 104
_ZN3GTM10gtm_thread9trycommitEv _ZN3GTM10gtm_rwlock12write_unlockEv 180
_ZN3GTM10gtm_thread9trycommitEv _ZN3GTM10gtm_rwlock11read_unlockEPNS_10gtm_threadE 352
_ZN3GTM10gtm_thread9trycommitEv _ZN3GTM10gtm_rwlock11read_unlockEPNS_10gtm_threadE 384
_ZN3GTM10gtm_thread9trycommitEv _ZN3GTM10gtm_thread19commit_user_actionsEv 392
_ZN3GTM10gtm_thread9trycommitEv _ZN3GTM10gtm_thread18commit_allocationsEbPNS_7aa_treeIjNS_16gtm_alloc_actionEEE 408
_ZN3GTM10gtm_thread9trycommitEv _ZN3GTM12_gtm_thr_tlsE 424
_ITM_commitTransaction _ZN3GTM10gtm_thread9trycommitEv 24
_ITM_commitTransaction _ZN3GTM10gtm_thread7restartENS_18gtm_restart_reasonEb 44
_ITM_commitTransaction _ZN3GTM12_gtm_thr_tlsE 48
_ITM_commitTransactionEH _ZN3GTM10gtm_thread9trycommitEv 28
_ITM_commitTransactionEH _ZN3GTM10gtm_thread7restartENS_18gtm_restart_reasonEb 52
_ITM_commitTransactionEH _ZN3GTM12_gtm_thr_tlsE 56
GTM_begin_transaction _ZN3GTM9GTM_fatalEPKcz 16
GTM_begin_transaction _ZN3GTM10gtm_threadnwEj 56
GTM_begin_transaction _ZN3GTM10gtm_threadC1Ev 64
GTM_begin_transaction _ZN3GTM10gtm_thread14serialirr_modeEv 132
GTM_begin_transaction __assert 216
GTM_begin_transaction _ZN3GTM6vectorINS_18gtm_transaction_cpELb1EE15resize_noinlineEv 240
GTM_begin_transaction _ZN3GTM18gtm_transaction_cp4saveEPNS_10gtm_threadE 272
GTM_begin_transaction memcpy 384
GTM_begin_transaction _ZN3GTM10gtm_thread21decide_retry_strategyENS_18gtm_restart_reasonE 480
GTM_begin_transaction _ZN3GTM10gtm_thread21decide_begin_dispatchEj 512
GTM_begin_transaction _ZN3GTM12_gtm_thr_tlsE 652
GTM_begin_transaction _ZN3GTM12_gtm_thr_tlsE 656
GTM_begin_transaction _ZN3GTM12_gtm_thr_tlsE 660
GTM_begin_transaction _ZN3GTM12_gtm_thr_tlsE 676
GTM_begin_transaction _ZN3GTM12_gtm_thr_tlsE 680
GTM_begin_transaction _ZN3GTM12_gtm_thr_tlsE 684
GTM_begin_transaction _ZN3GTM12_gtm_thr_tlsE 688
_ZN3GTM6vectorINS_18gtm_transaction_cpELb1EE15resize_noinlineEv _ZN3GTM8xreallocEPvjb 76
_ZN12_GLOBAL__N_118ExcludeTransactionC1Ev,_ZN12_GLOBAL__N_118ExcludeTransactionC2Ev _ZN3GTM10gtm_rwlock10write_lockEv 44
_ZN12_GLOBAL__N_118ExcludeTransactionC1Ev,_ZN12_GLOBAL__N_118ExcludeTransactionC2Ev _ZN3GTM12_gtm_thr_tlsE 80
_ZN12_GLOBAL__N_118ExcludeTransactionC1Ev,_ZN12_GLOBAL__N_118ExcludeTransactionC2Ev gtm_serial_lock 84
_ITM_getTMCloneOrIrrevocable _ZN3GTM10gtm_thread14serialirr_modeEv 36
_ITM_getTMCloneOrIrrevocable _ZN3GTM12_gtm_thr_tlsE 48
_ITM_getTMCloneSafe abort 16
_ITM_registerTMCloneTable _ZN3GTM7xmallocEjb 20
_ITM_registerTMCloneTable qsort 48
_ITM_registerTMCloneTable _ZN3GTM10gtm_rwlock12write_unlockEv 92
_ITM_registerTMCloneTable _ZL19clone_entry_comparePKvS0_ 104
_ITM_registerTMCloneTable gtm_serial_lock 112
_ITM_deregisterTMCloneTable _ZN3GTM10gtm_rwlock12write_unlockEv 68
_ITM_deregisterTMCloneTable free 76
_ITM_deregisterTMCloneTable gtm_serial_lock 92
_ZL18free_any_exceptionPv __cxa_tm_cleanup 12
_ITM_cxa_allocate_exception __cxa_allocate_exception 4
_ITM_cxa_allocate_exception _ZN3GTM10gtm_thread17record_allocationEPvPFvS1_E 36
_ITM_cxa_allocate_exception _ZN3GTM12_gtm_thr_tlsE 48
_ITM_cxa_allocate_exception _ZL18free_any_exceptionPv 52
_ITM_cxa_free_exception _ZN3GTM10gtm_thread17forget_allocationEPvPFvS1_E 24
_ITM_cxa_free_exception _ZN3GTM12_gtm_thr_tlsE 28
_ITM_cxa_free_exception _ZL18free_any_exceptionPv 32
_ITM_cxa_throw __cxa_throw 0
_ITM_cxa_begin_catch _ZN3GTM11aa_tree_keyIjE5eraseEj 32
_ITM_cxa_begin_catch free 36
_ITM_cxa_begin_catch __cxa_begin_catch 60
_ITM_cxa_begin_catch _ZN3GTM12_gtm_thr_tlsE 64
_ITM_cxa_end_catch __cxa_end_catch 28
_ITM_cxa_end_catch _ZN3GTM12_gtm_thr_tlsE 32
_ZN3GTM10gtm_thread19init_cpp_exceptionsEv __cxa_get_globals 20
_ZN3GTM10gtm_thread19init_cpp_exceptionsEv __cxa_get_globals 32
_ZN3GTM10gtm_thread19init_cpp_exceptionsEv __cxa_get_globals 60
_ZN3GTM10gtm_thread21revert_cpp_exceptionsEPNS_18gtm_transaction_cpE __assert 48
_ZN3GTM10gtm_thread21revert_cpp_exceptionsEPNS_18gtm_transaction_cpE __cxa_tm_cleanup 68
_ZN3GTM10gtm_thread21revert_cpp_exceptionsEPNS_18gtm_transaction_cpE __cxa_tm_cleanup 120
_ZN3GTM11gtm_undolog8rollbackEPNS_10gtm_threadEj _ZN3GTM17mask_stack_bottomEPNS_10gtm_threadE 24
_ZN3GTM11gtm_undolog8rollbackEPNS_10gtm_threadEj memcpy 104
GTM_LB _ZN3GTM6vectorIjLb1EE15resize_noinlineEj 68
GTM_LB memcpy 108
GTM_LB _ZN3GTM12_gtm_thr_tlsE 124
_ITM_LB GTM_LB 0
_ITM_LU1 GTM_LB 4
_ITM_LU2 GTM_LB 4
_ITM_LU4 GTM_LB 4
_ITM_LU8 GTM_LB 4
_ITM_LF GTM_LB 4
_ITM_LD GTM_LB 4
_ITM_LE GTM_LB 4
_ITM_LCF GTM_LB 4
_ITM_LCD GTM_LB 4
_ITM_LCE GTM_LB 4
_ZN3GTM6vectorIjLb1EE15resize_noinlineEj _ZN3GTM8xreallocEPvjb 76
_ITM_inTransaction _ZN3GTM12_gtm_thr_tlsE 64
_ITM_getTransactionId _ZN3GTM12_gtm_thr_tlsE 56
_ITM_error abort 4
_ZN3GTM10gtm_thread21decide_begin_dispatchEj _ZN3GTM18dispatch_serialirrEv 20
_ZN3GTM10gtm_thread21decide_begin_dispatchEj _ZN3GTM10gtm_rwlock10write_lockEv 32
_ZN3GTM10gtm_thread21decide_begin_dispatchEj _ZN3GTM10gtm_rwlock9read_lockEPNS_10gtm_threadE 148
_ZN3GTM10gtm_thread21decide_begin_dispatchEj _ZN3GTM10gtm_rwlock11read_unlockEPNS_10gtm_threadE 172
_ZN3GTM10gtm_thread21decide_begin_dispatchEj gtm_serial_lock 188
_ZN3GTM10gtm_thread21decide_retry_strategyENS_18gtm_restart_reasonE _ZN3GTM10gtm_rwlock11read_unlockEPNS_10gtm_threadE 84
_ZN3GTM10gtm_thread21decide_retry_strategyENS_18gtm_restart_reasonE _ZN3GTM10gtm_rwlock10write_lockEv 92
_ZN3GTM10gtm_thread21decide_retry_strategyENS_18gtm_restart_reasonE _ZN3GTM10gtm_rwlock12write_unlockEv 136
_ZN3GTM10gtm_thread21decide_retry_strategyENS_18gtm_restart_reasonE _ZN3GTM10gtm_thread21decide_begin_dispatchEj 148
_ZN3GTM10gtm_thread21decide_retry_strategyENS_18gtm_restart_reasonE _ZN3GTM10gtm_rwlock11read_unlockEPNS_10gtm_threadE 260
_ZN3GTM10gtm_thread21decide_retry_strategyENS_18gtm_restart_reasonE _ZN3GTM10gtm_rwlock10write_lockEv 268
_ZN3GTM10gtm_thread21decide_retry_strategyENS_18gtm_restart_reasonE _ZN3GTM18dispatch_serialirrEv 300
_ZN3GTM10gtm_thread21decide_retry_strategyENS_18gtm_restart_reasonE _ZN3GTM15dispatch_serialEv 324
_ZN3GTM10gtm_thread21decide_retry_strategyENS_18gtm_restart_reasonE _ZN3GTM12_gtm_thr_tlsE 340
_ZN3GTM10gtm_thread21decide_retry_strategyENS_18gtm_restart_reasonE gtm_serial_lock 344
_ZN3GTM10gtm_thread21decide_retry_strategyENS_18gtm_restart_reasonE _ZN3GTM12_gtm_thr_tlsE 352
_ZN3GTM10gtm_thread21decide_retry_strategyENS_18gtm_restart_reasonE _ZN3GTM12_gtm_thr_tlsE 356
_ZN3GTM10gtm_thread21decide_retry_strategyENS_18gtm_restart_reasonE _ZN3GTM12_gtm_thr_tlsE 360
_ZN3GTM10gtm_thread25number_of_threads_changedEjj getenv 60
_ZN3GTM10gtm_thread25number_of_threads_changedEjj isspace 84
_ZN3GTM10gtm_thread25number_of_threads_changedEjj strncmp 108
_ZN3GTM10gtm_thread25number_of_threads_changedEjj _ZN3GTM26dispatch_serialirr_onwriteEv 120
_ZN3GTM10gtm_thread25number_of_threads_changedEjj isspace 144
_ZN3GTM10gtm_thread25number_of_threads_changedEjj strncmp 180
_ZN3GTM10gtm_thread25number_of_threads_changedEjj _ZN3GTM18dispatch_serialirrEv 192
_ZN3GTM10gtm_thread25number_of_threads_changedEjj strncmp 220
_ZN3GTM10gtm_thread25number_of_threads_changedEjj _ZN3GTM15dispatch_serialEv 232
_ZN3GTM10gtm_thread25number_of_threads_changedEjj strncmp 260
_ZN3GTM10gtm_thread25number_of_threads_changedEjj _ZN3GTM14dispatch_gl_wtEv 272
_ZN3GTM10gtm_thread25number_of_threads_changedEjj strncmp 300
_ZN3GTM10gtm_thread25number_of_threads_changedEjj _ZN3GTM14dispatch_ml_wtEv 312
_ZN3GTM10gtm_thread25number_of_threads_changedEjj strncmp 332
_ZN3GTM10gtm_thread25number_of_threads_changedEjj _ZN3GTM9GTM_errorEPKcz 352
_ZN3GTM10gtm_thread25number_of_threads_changedEjj _ZN3GTM12dispatch_htmEv 416
_ZN3GTM10gtm_thread25number_of_threads_changedEjj _ZN3GTM18dispatch_serialirrEv 440
_ZN3GTM10gtm_thread25number_of_threads_changedEjj _ZN3GTM14dispatch_ml_wtEv 496
_ZN3GTM10gtm_thread25number_of_threads_changedEjj _ZN3GTM10gtm_thread20set_default_dispatchEPNS_12abi_dispatchE 540
_ZN3GTM10gtm_rwlock9read_lockEPNS_10gtm_threadE _ZN3GTM10futex_wakeEPSt6atomicIiEi 76
_ZN3GTM10gtm_rwlock9read_lockEPNS_10gtm_threadE _ZN3GTM10futex_waitEPSt6atomicIiEi 124
_ZN3GTM10gtm_rwlock9read_lockEPNS_10gtm_threadE _ZN3GTM10futex_wakeEPSt6atomicIiEi 144
_ZN3GTM10gtm_rwlock11read_unlockEPNS_10gtm_threadE _ZN3GTM10futex_wakeEPSt6atomicIiEi 48
_ZN3GTM10gtm_rwlock12write_unlockEv _ZN3GTM10futex_wakeEPSt6atomicIiEi 76
_ZN3GTM10gtm_rwlock12write_unlockEv _ZN3GTM10futex_wakeEPSt6atomicIiEi 84
_ZN3GTM10gtm_rwlock18write_lock_genericEPNS_10gtm_threadE _ZN3GTM10futex_waitEPSt6atomicIiEi 108
_ZN3GTM10gtm_rwlock18write_lock_genericEPNS_10gtm_threadE _ZN3GTM10gtm_rwlock12write_unlockEv 256
_ZN3GTM10gtm_rwlock18write_lock_genericEPNS_10gtm_threadE _ZN3GTM10futex_waitEPSt6atomicIiEi 324
_ZN3GTM10gtm_rwlock18write_lock_genericEPNS_10gtm_threadE _ZN3GTM10gtm_thread15list_of_threadsE 348
_ZN3GTM10gtm_rwlock18write_lock_genericEPNS_10gtm_threadE _ZN3GTM12_gtm_thr_tlsE 352
_ZN3GTM10gtm_rwlock10write_lockEv _ZN3GTM10gtm_rwlock18write_lock_genericEPNS_10gtm_threadE 4
_ZN3GTM10gtm_rwlock13write_upgradeEPNS_10gtm_threadE _ZN3GTM10gtm_rwlock18write_lock_genericEPNS_10gtm_threadE 0
_ITM_addUserCommitAction _ZN3GTM9GTM_fatalEPKcz 48
_ITM_addUserCommitAction _ZN3GTM6vectorINS_10gtm_thread11user_actionELb1EE4pushEv 56
_ITM_addUserCommitAction _ZN3GTM12_gtm_thr_tlsE 88
_ITM_addUserUndoAction _ZN3GTM6vectorINS_10gtm_thread11user_actionELb1EE4pushEv 32
_ITM_addUserUndoAction _ZN3GTM12_gtm_thr_tlsE 56
_ZN3GTM6vectorINS_10gtm_thread11user_actionELb1EE15resize_noinlineEv _ZN3GTM8xreallocEPvjb 76
_ZN3GTM6vectorINS_10gtm_thread11user_actionELb1EE4pushEv _ZN3GTM6vectorINS_10gtm_thread11user_actionELb1EE15resize_noinlineEv 24
_ZN3GTML10gtm_verrorEPKcSt9__va_list fputs 24
_ZN3GTML10gtm_verrorEPKcSt9__va_list vfprintf 40
_ZN3GTML10gtm_verrorEPKcSt9__va_list __fputc_unlocked 104
_ZN3GTML10gtm_verrorEPKcSt9__va_list fputc 116
_ZN3GTML10gtm_verrorEPKcSt9__va_list stderr 120
_ZN3GTM9GTM_fatalEPKcz exit 28
_ZN3GTM7xmallocEjb posix_memalign 28
_ZN3GTM7xmallocEjb _ZN3GTM9GTM_fatalEPKcz 52
_ZN3GTM7xmallocEjb malloc 56
_ZN3GTM7xcallocEjb calloc 16
_ZN3GTM7xcallocEjb _ZN3GTM9GTM_fatalEPKcz 36
_ZN3GTM8xreallocEPvjb realloc 8
_ZN3GTM8xreallocEPvjb _ZN3GTM9GTM_fatalEPKcz 28
_ITM_beginTransaction GTM_hwcap 12
_ITM_beginTransaction GTM_hwcap 16
_ITM_beginTransaction GTM_begin_transaction 72
GTM_longjmp GTM_hwcap 0
GTM_longjmp GTM_hwcap 4
_ZN12_GLOBAL__N_126serialirr_onwrite_dispatch8rollbackEPN3GTM18gtm_transaction_cpE abort 32
_ZN12_GLOBAL__N_126serialirr_onwrite_dispatch8rollbackEPN3GTM18gtm_transaction_cpE _ZN3GTM12_gtm_thr_tlsE 36
_ZN12_GLOBAL__N_118serialirr_dispatch6memsetEPvijN3GTM12abi_dispatch11ls_modifierE memset 16
_ZN12_GLOBAL__N_16htm_mg4finiEv gtm_serial_lock 16
_ZN12_GLOBAL__N_118serialirr_dispatch11memtransferEPvPKvjbN3GTM12abi_dispatch11ls_modifierES6_ memcpy 28
_ZN12_GLOBAL__N_118serialirr_dispatch11memtransferEPvPKvjbN3GTM12abi_dispatch11ls_modifierES6_ memmove 32
_ZN3GTM10gtm_thread14serialirr_modeEv __assert 96
_ZN3GTM10gtm_thread14serialirr_modeEv _ZN3GTM10gtm_rwlock13write_upgradeEPNS_10gtm_threadE 108
_ZN3GTM10gtm_thread14serialirr_modeEv _ZN3GTM10gtm_rwlock20write_upgrade_finishEPNS_10gtm_threadE 176
_ZN3GTM10gtm_thread14serialirr_modeEv _ZN3GTM10gtm_thread7restartENS_18gtm_restart_reasonEb 228
_ZN3GTM10gtm_thread14serialirr_modeEv _ZN3GTM12_gtm_thr_tlsE 232
_ZN3GTM10gtm_thread14serialirr_modeEv gtm_serial_lock 248
_ZN3GTM10gtm_thread14serialirr_modeEv _ZN3GTM12_gtm_thr_tlsE 252
_ZN12_GLOBAL__N_126serialirr_onwrite_dispatch9pre_writeEv _ZN3GTM10gtm_thread14serialirr_modeEv 28
_ZN12_GLOBAL__N_126serialirr_onwrite_dispatch9pre_writeEv _ZN3GTM12_gtm_thr_tlsE 32
_ZN12_GLOBAL__N_126serialirr_onwrite_dispatch6memsetEPvijN3GTM12abi_dispatch11ls_modifierE memset 40
_ZN12_GLOBAL__N_126serialirr_onwrite_dispatch11memtransferEPvPKvjbN3GTM12abi_dispatch11ls_modifierES6_ memcpy 52
_ZN12_GLOBAL__N_126serialirr_onwrite_dispatch11memtransferEPvPKvjbN3GTM12abi_dispatch11ls_modifierES6_ memmove 60
_ITM_changeTransactionMode __assert 28
_ITM_changeTransactionMode _ZN3GTM10gtm_thread14serialirr_modeEv 48
_ITM_changeTransactionMode _ZN3GTM12_gtm_thr_tlsE 64
_ZN12_GLOBAL__N_115serial_dispatch3logEPKvj _ZN3GTM6vectorIjLb1EE15resize_noinlineEj 68
_ZN12_GLOBAL__N_115serial_dispatch3logEPKvj memcpy 108
_ZN12_GLOBAL__N_115serial_dispatch3logEPKvj _ZN3GTM12_gtm_thr_tlsE 124
_ZN12_GLOBAL__N_115serial_dispatch6memsetEPvijN3GTM12abi_dispatch11ls_modifierE memset 60
_ZN12_GLOBAL__N_115serial_dispatch11memtransferEPvPKvjbN3GTM12abi_dispatch11ls_modifierES6_ memcpy 76
_ZN12_GLOBAL__N_115serial_dispatch11memtransferEPvPKvjbN3GTM12abi_dispatch11ls_modifierES6_ memmove 84
_ZN12_GLOBAL__N_118serialirr_dispatch8rollbackEPN3GTM18gtm_transaction_cpE abort 4
__cxa_pure_virtual write 20
__cxa_pure_virtual _ZSt9terminatev 24
__cxa_pure_virtual .LC0 28
_ZN12_GLOBAL__N_114gl_wt_dispatch20snapshot_most_recentEv _ZN3GTM12_gtm_thr_tlsE 48
_ZN12_GLOBAL__N_114gl_wt_dispatch9trycommitERj _ZN3GTM12_gtm_thr_tlsE 60
_ZN12_GLOBAL__N_114gl_wt_dispatch16begin_or_restartEv _ZN3GTM12_gtm_thr_tlsE 120
_ZN12_GLOBAL__N_114gl_wt_dispatch16begin_or_restartEv _ZN3GTM18gtm_spin_count_varE 128
_ZN12_GLOBAL__N_114gl_wt_dispatch8validateEPN3GTM10gtm_threadE _ZN3GTM10gtm_thread7restartENS_18gtm_restart_reasonEb 32
_ZN12_GLOBAL__N_114gl_wt_dispatch8rollbackEPN3GTM18gtm_transaction_cpE _ZN3GTM12_gtm_thr_tlsE 68
_ZN12_GLOBAL__N_114gl_wt_dispatch9pre_writeEPKvjPN3GTM10gtm_threadE _ZN3GTM10gtm_thread7restartENS_18gtm_restart_reasonEb 80
_ZN12_GLOBAL__N_114gl_wt_dispatch9pre_writeEPKvjPN3GTM10gtm_threadE _ZN3GTM6vectorIjLb1EE15resize_noinlineEj 184
_ZN12_GLOBAL__N_114gl_wt_dispatch9pre_writeEPKvjPN3GTM10gtm_threadE memcpy 224
_ZN12_GLOBAL__N_114gl_wt_dispatch6memsetEPvijN3GTM12abi_dispatch11ls_modifierE memset 76
_ZN12_GLOBAL__N_114gl_wt_dispatch6memsetEPvijN3GTM12abi_dispatch11ls_modifierE _ZN3GTM12_gtm_thr_tlsE 80
_ZN12_GLOBAL__N_114gl_wt_dispatch11memtransferEPvPKvjbN3GTM12abi_dispatch11ls_modifierES6_ memcpy 128
_ZN12_GLOBAL__N_114gl_wt_dispatch11memtransferEPvPKvjbN3GTM12abi_dispatch11ls_modifierES6_ memmove 176
_ZN12_GLOBAL__N_114gl_wt_dispatch11memtransferEPvPKvjbN3GTM12abi_dispatch11ls_modifierES6_ _ZN3GTM12_gtm_thr_tlsE 184
_ZN12_GLOBAL__N_114gl_wt_dispatch7ITM_WCEEPCeS1_,_ZN12_GLOBAL__N_114gl_wt_dispatch9ITM_WaRCEEPCeS1_ _ZN3GTM12_gtm_thr_tlsE 64
_ZN12_GLOBAL__N_114gl_wt_dispatch4loadICeEET_PKS3_N3GTM12abi_dispatch11ls_modifierE _ZN3GTM12_gtm_thr_tlsE 112
_ZN12_GLOBAL__N_114gl_wt_dispatch4loadICeEET_PKS3_N3GTM12abi_dispatch11ls_modifierE _ZN3GTM12_gtm_thr_tlsE 116
_ZN12_GLOBAL__N_114gl_wt_dispatch7ITM_WCDEPCdS1_,_ZN12_GLOBAL__N_114gl_wt_dispatch9ITM_WaRCDEPCdS1_ _ZN3GTM12_gtm_thr_tlsE 64
_ZN12_GLOBAL__N_114gl_wt_dispatch4loadICdEET_PKS3_N3GTM12abi_dispatch11ls_modifierE _ZN3GTM12_gtm_thr_tlsE 112
_ZN12_GLOBAL__N_114gl_wt_dispatch4loadICdEET_PKS3_N3GTM12abi_dispatch11ls_modifierE _ZN3GTM12_gtm_thr_tlsE 116
_ZN12_GLOBAL__N_114gl_wt_dispatch4loadICfEET_PKS3_N3GTM12abi_dispatch11ls_modifierE _ZN3GTM12_gtm_thr_tlsE 112
_ZN12_GLOBAL__N_114gl_wt_dispatch4loadICfEET_PKS3_N3GTM12abi_dispatch11ls_modifierE _ZN3GTM12_gtm_thr_tlsE 116
_ZN12_GLOBAL__N_114gl_wt_dispatch6ITM_WEEPee _ZN3GTM12_gtm_thr_tlsE 56
_ZN12_GLOBAL__N_114gl_wt_dispatch4loadIeEET_PKS2_N3GTM12abi_dispatch11ls_modifierE _ZN3GTM12_gtm_thr_tlsE 100
_ZN12_GLOBAL__N_114gl_wt_dispatch4loadIeEET_PKS2_N3GTM12abi_dispatch11ls_modifierE _ZN3GTM12_gtm_thr_tlsE 104
_ZN12_GLOBAL__N_114gl_wt_dispatch4loadIdEET_PKS2_N3GTM12abi_dispatch11ls_modifierE _ZN3GTM12_gtm_thr_tlsE 100
_ZN12_GLOBAL__N_114gl_wt_dispatch4loadIdEET_PKS2_N3GTM12abi_dispatch11ls_modifierE _ZN3GTM12_gtm_thr_tlsE 104
_ZN12_GLOBAL__N_114gl_wt_dispatch4loadIfEET_PKS2_N3GTM12abi_dispatch11ls_modifierE _ZN3GTM12_gtm_thr_tlsE 96
_ZN12_GLOBAL__N_114gl_wt_dispatch4loadIfEET_PKS2_N3GTM12abi_dispatch11ls_modifierE _ZN3GTM12_gtm_thr_tlsE 100
_ZN12_GLOBAL__N_114gl_wt_dispatch4loadIyEET_PKS2_N3GTM12abi_dispatch11ls_modifierE _ZN3GTM12_gtm_thr_tlsE 96
_ZN12_GLOBAL__N_114gl_wt_dispatch4loadIyEET_PKS2_N3GTM12abi_dispatch11ls_modifierE _ZN3GTM12_gtm_thr_tlsE 100
_ZN12_GLOBAL__N_114gl_wt_dispatch7ITM_WU4EPjj _ZN3GTM12_gtm_thr_tlsE 48
_ZN12_GLOBAL__N_114gl_wt_dispatch4loadIjEET_PKS2_N3GTM12abi_dispatch11ls_modifierE _ZN3GTM12_gtm_thr_tlsE 88
_ZN12_GLOBAL__N_114gl_wt_dispatch4loadIjEET_PKS2_N3GTM12abi_dispatch11ls_modifierE _ZN3GTM12_gtm_thr_tlsE 92
_ZN12_GLOBAL__N_114gl_wt_dispatch4loadItEET_PKS2_N3GTM12abi_dispatch11ls_modifierE _ZN3GTM12_gtm_thr_tlsE 92
_ZN12_GLOBAL__N_114gl_wt_dispatch4loadItEET_PKS2_N3GTM12abi_dispatch11ls_modifierE _ZN3GTM12_gtm_thr_tlsE 96
_ZN12_GLOBAL__N_114gl_wt_dispatch4loadIhEET_PKS2_N3GTM12abi_dispatch11ls_modifierE _ZN3GTM12_gtm_thr_tlsE 92
_ZN12_GLOBAL__N_114gl_wt_dispatch4loadIhEET_PKS2_N3GTM12abi_dispatch11ls_modifierE _ZN3GTM12_gtm_thr_tlsE 96
_ZN12_GLOBAL__N_114gl_wt_dispatch8ITM_WaREEPee _ZN3GTM12_gtm_thr_tlsE 56
_ZN12_GLOBAL__N_114gl_wt_dispatch7ITM_WCFEPCfS1_ _ZN3GTM12_gtm_thr_tlsE 64
_ZN12_GLOBAL__N_114gl_wt_dispatch9ITM_WaRCFEPCfS1_ _ZN3GTM12_gtm_thr_tlsE 64
_ZN12_GLOBAL__N_114gl_wt_dispatch7ITM_WU8EPyy _ZN3GTM12_gtm_thr_tlsE 52
_ZN12_GLOBAL__N_114gl_wt_dispatch9ITM_WaRU8EPyy _ZN3GTM12_gtm_thr_tlsE 52
_ZN12_GLOBAL__N_114gl_wt_dispatch6ITM_WDEPdd _ZN3GTM12_gtm_thr_tlsE 56
_ZN12_GLOBAL__N_114gl_wt_dispatch8ITM_WaRDEPdd _ZN3GTM12_gtm_thr_tlsE 56
_ZN12_GLOBAL__N_114gl_wt_dispatch6ITM_WFEPff _ZN3GTM12_gtm_thr_tlsE 56
_ZN12_GLOBAL__N_114gl_wt_dispatch9ITM_WaRU4EPjj _ZN3GTM12_gtm_thr_tlsE 48
_ZN12_GLOBAL__N_114gl_wt_dispatch8ITM_WaRFEPff _ZN3GTM12_gtm_thr_tlsE 56
_ZN12_GLOBAL__N_114gl_wt_dispatch7ITM_WU2EPtt _ZN3GTM12_gtm_thr_tlsE 48
_ZN12_GLOBAL__N_114gl_wt_dispatch9ITM_WaRU2EPtt _ZN3GTM12_gtm_thr_tlsE 48
_ZN12_GLOBAL__N_114gl_wt_dispatch7ITM_WU1EPhh _ZN3GTM12_gtm_thr_tlsE 48
_ZN12_GLOBAL__N_114gl_wt_dispatch9ITM_WaRU1EPhh _ZN3GTM12_gtm_thr_tlsE 48
_ZN12_GLOBAL__N_15ml_mg6reinitEv memset 16
_ZN12_GLOBAL__N_15ml_mg4finiEv free 4
_ZN12_GLOBAL__N_15ml_mg4initEv _ZN3GTM7xcallocEjb 16
_ZN12_GLOBAL__N_114ml_wt_dispatch20snapshot_most_recentEv _ZN3GTM12_gtm_thr_tlsE 80
_ZN12_GLOBAL__N_114ml_wt_dispatch16begin_or_restartEv _ZN3GTM12_gtm_thr_tlsE 68
_ZN12_GLOBAL__N_114ml_wt_dispatch9trycommitERj _ZN3GTM12_gtm_thr_tlsE 176
_ZN12_GLOBAL__N_114ml_wt_dispatch6extendEPN3GTM10gtm_threadE _ZN3GTM10gtm_thread7restartENS_18gtm_restart_reasonEb 40
_ZN12_GLOBAL__N_114ml_wt_dispatch8rollbackEPN3GTM18gtm_transaction_cpE _ZN3GTM12_gtm_thr_tlsE 168
_ZN12_GLOBAL__N_114ml_wt_dispatch9post_loadEPN3GTM10gtm_threadEPNS1_15gtm_rwlog_entryE _ZN3GTM10gtm_thread7restartENS_18gtm_restart_reasonEb 48
_ZN12_GLOBAL__N_114ml_wt_dispatch9pre_writeEPN3GTM10gtm_threadEPKvj _ZN3GTM10gtm_thread7restartENS_18gtm_restart_reasonEb 148
_ZN12_GLOBAL__N_114ml_wt_dispatch9pre_writeEPN3GTM10gtm_threadEPKvj _ZN3GTM6vectorINS_15gtm_rwlog_entryELb1EE4pushEv 232
_ZN12_GLOBAL__N_114ml_wt_dispatch9pre_writeEPN3GTM10gtm_threadEPKvj _ZN3GTM6vectorIjLb1EE15resize_noinlineEj 320
_ZN12_GLOBAL__N_114ml_wt_dispatch9pre_writeEPN3GTM10gtm_threadEPKvj memcpy 360
_ZN12_GLOBAL__N_114ml_wt_dispatch9pre_writeEPKvj _ZN3GTM12_gtm_thr_tlsE 28
_ZN12_GLOBAL__N_114ml_wt_dispatch6memsetEPvijN3GTM12abi_dispatch11ls_modifierE memset 60
_ZN12_GLOBAL__N_114ml_wt_dispatch8pre_loadEPN3GTM10gtm_threadEPKvj _ZN3GTM6vectorINS_15gtm_rwlog_entryELb1EE4pushEv 124
_ZN12_GLOBAL__N_114ml_wt_dispatch8pre_loadEPN3GTM10gtm_threadEPKvj _ZN3GTM10gtm_thread7restartENS_18gtm_restart_reasonEb 232
_ZN12_GLOBAL__N_114ml_wt_dispatch11memtransferEPvPKvjbN3GTM12abi_dispatch11ls_modifierES6_ memcpy 172
_ZN12_GLOBAL__N_114ml_wt_dispatch11memtransferEPvPKvjbN3GTM12abi_dispatch11ls_modifierES6_ memmove 288
_ZN12_GLOBAL__N_114ml_wt_dispatch11memtransferEPvPKvjbN3GTM12abi_dispatch11ls_modifierES6_ _ZN3GTM12_gtm_thr_tlsE 304
_ZN12_GLOBAL__N_114ml_wt_dispatch11memtransferEPvPKvjbN3GTM12abi_dispatch11ls_modifierES6_ _ZN3GTM12_gtm_thr_tlsE 308
_ZN12_GLOBAL__N_114ml_wt_dispatch11memtransferEPvPKvjbN3GTM12abi_dispatch11ls_modifierES6_ _ZN3GTM12_gtm_thr_tlsE 312
_ZN12_GLOBAL__N_114ml_wt_dispatch4loadICeEET_PKS3_N3GTM12abi_dispatch11ls_modifierE _ZN3GTM12_gtm_thr_tlsE 120
_ZN12_GLOBAL__N_114ml_wt_dispatch4loadICdEET_PKS3_N3GTM12abi_dispatch11ls_modifierE _ZN3GTM12_gtm_thr_tlsE 120
_ZN12_GLOBAL__N_114ml_wt_dispatch4loadICfEET_PKS3_N3GTM12abi_dispatch11ls_modifierE _ZN3GTM12_gtm_thr_tlsE 120
_ZN12_GLOBAL__N_114ml_wt_dispatch4loadIeEET_PKS2_N3GTM12abi_dispatch11ls_modifierE _ZN3GTM12_gtm_thr_tlsE 108
_ZN12_GLOBAL__N_114ml_wt_dispatch4loadIdEET_PKS2_N3GTM12abi_dispatch11ls_modifierE _ZN3GTM12_gtm_thr_tlsE 108
_ZN12_GLOBAL__N_114ml_wt_dispatch4loadIfEET_PKS2_N3GTM12abi_dispatch11ls_modifierE _ZN3GTM12_gtm_thr_tlsE 104
_ZN12_GLOBAL__N_114ml_wt_dispatch4loadIyEET_PKS2_N3GTM12abi_dispatch11ls_modifierE _ZN3GTM12_gtm_thr_tlsE 104
_ZN12_GLOBAL__N_114ml_wt_dispatch4loadIjEET_PKS2_N3GTM12abi_dispatch11ls_modifierE _ZN3GTM12_gtm_thr_tlsE 96
_ZN12_GLOBAL__N_114ml_wt_dispatch4loadItEET_PKS2_N3GTM12abi_dispatch11ls_modifierE _ZN3GTM12_gtm_thr_tlsE 100
_ZN12_GLOBAL__N_114ml_wt_dispatch4loadIhEET_PKS2_N3GTM12abi_dispatch11ls_modifierE _ZN3GTM12_gtm_thr_tlsE 100
_ZN3GTM6vectorINS_15gtm_rwlog_entryELb1EE15resize_noinlineEv _ZN3GTM8xreallocEPvjb 72
_ZN3GTM6vectorINS_15gtm_rwlog_entryELb1EE4pushEv _ZN3GTM6vectorINS_15gtm_rwlog_entryELb1EE15resize_noinlineEv 24
_ZL14init_gtm_hwcapv open64 20
_ZL14init_gtm_hwcapv read 40
_ZL14init_gtm_hwcapv close 52
_ZL10sys_futex0PSt6atomicIiEii syscall 28
_ZL10sys_futex0PSt6atomicIiEii __errno_location 40
_ZN3GTM10futex_waitEPSt6atomicIiEi strerror 100
_ZN3GTM10futex_waitEPSt6atomicIiEi _ZN3GTM9GTM_fatalEPKcz 112
_ZN3GTM10futex_wakeEPSt6atomicIiEi strerror 76
_ZN3GTM10futex_wakeEPSt6atomicIiEi _ZN3GTM9GTM_fatalEPKcz 88
_ZNSt23_Sp_counted_ptr_inplaceINSt12experimental10filesystem2v17__cxx114_DirESaIS4_ELN9__gnu_cxx12_Lock_policyE2EE10_M_destroyEv _ZdlPv 0
_ZNSt23_Sp_counted_ptr_inplaceINSt12experimental10filesystem2v17__cxx114_DirESaIS4_ELN9__gnu_cxx12_Lock_policyE2EE14_M_get_deleterERKSt9type_info _ZNKSt9type_infoeqERKS_ 64
_ZNSt23_Sp_counted_ptr_inplaceINSt12experimental10filesystem2v17__cxx114_DirESaIS4_ELN9__gnu_cxx12_Lock_policyE2EE14_M_get_deleterERKSt9type_info _ZZNSt19_Sp_make_shared_tag5_S_tiEvE5__tag 84
_ZNSt23_Sp_counted_ptr_inplaceINSt12experimental10filesystem2v17__cxx114_DirESaIS4_ELN9__gnu_cxx12_Lock_policyE2EE14_M_get_deleterERKSt9type_info _ZTISt19_Sp_make_shared_tag 88
_ZNSt23_Sp_counted_ptr_inplaceINSt12experimental10filesystem2v17__cxx1128recursive_directory_iterator10_Dir_stackESaIS5_ELN9__gnu_cxx12_Lock_policyE2EE14_M_get_deleterERKSt9type_info _ZNKSt9type_infoeqERKS_ 64
_ZNSt23_Sp_counted_ptr_inplaceINSt12experimental10filesystem2v17__cxx1128recursive_directory_iterator10_Dir_stackESaIS5_ELN9__gnu_cxx12_Lock_policyE2EE14_M_get_deleterERKSt9type_info _ZZNSt19_Sp_make_shared_tag5_S_tiEvE5__tag 84
_ZNSt23_Sp_counted_ptr_inplaceINSt12experimental10filesystem2v17__cxx1128recursive_directory_iterator10_Dir_stackESaIS5_ELN9__gnu_cxx12_Lock_policyE2EE14_M_get_deleterERKSt9type_info _ZTISt19_Sp_make_shared_tag 88
_ZNSt23_Sp_counted_ptr_inplaceINSt12experimental10filesystem2v17__cxx114_DirESaIS4_ELN9__gnu_cxx12_Lock_policyE2EED0Ev _ZdlPvj 12
_ZNSt23_Sp_counted_ptr_inplaceINSt12experimental10filesystem2v17__cxx1128recursive_directory_iterator10_Dir_stackESaIS5_ELN9__gnu_cxx12_Lock_policyE2EED0Ev _ZdlPvj 12
_ZNSt7__cxx1112basic_stringIcSt11char_traitsIcESaIcEE9_M_createERjj.isra.56 _ZSt20__throw_length_errorPKc 24
_ZNSt7__cxx1112basic_stringIcSt11char_traitsIcESaIcEE9_M_createERjj.isra.56 _Znwj 72
_ZNSt7__cxx1112basic_stringIcSt11char_traitsIcESaIcEE9_M_createERjj.isra.56 .LC0 76
_ZNSt12_Vector_baseINSt12experimental10filesystem2v17__cxx114path5_CmptESaIS5_EE13_M_deallocateEPS5_j.isra.59 _ZdlPv 8
_ZNSt23_Sp_counted_ptr_inplaceINSt12experimental10filesystem2v17__cxx1128recursive_directory_iterator10_Dir_stackESaIS5_ELN9__gnu_cxx12_Lock_policyE2EE10_M_destroyEv _ZdlPv 0
_ZNSt11char_traitsIcE6lengthEPKc strlen 0
_ZNSt10filesystem9_Dir_baseC1EPKcbRSt10error_code,_ZNSt10filesystem9_Dir_baseC2EPKcbRSt10error_code opendir 20
_ZNSt10filesystem9_Dir_baseC1EPKcbRSt10error_code,_ZNSt10filesystem9_Dir_baseC2EPKcbRSt10error_code _ZNSt3_V215system_categoryEv 36
_ZNSt10filesystem9_Dir_baseC1EPKcbRSt10error_code,_ZNSt10filesystem9_Dir_baseC2EPKcbRSt10error_code __errno_location 60
_ZNSt10filesystem9_Dir_baseC1EPKcbRSt10error_code,_ZNSt10filesystem9_Dir_baseC2EPKcbRSt10error_code _ZNSt3_V216generic_categoryEv 88
_ZNSt10filesystem9_Dir_baseD1Ev,_ZNSt10filesystem9_Dir_baseD2Ev closedir 20
_ZNSt12experimental10filesystem2v17__cxx114pathC1EOS3_,_ZNSt12experimental10filesystem2v17__cxx114pathC2EOS3_ _ZNSt7__cxx1112basic_stringIcSt11char_traitsIcESaIcEEC1EOS4_ 12
_ZNSt12experimental10filesystem2v17__cxx114pathC1EOS3_,_ZNSt12experimental10filesystem2v17__cxx114pathC2EOS3_ _ZNSt12experimental10filesystem2v17__cxx114path14_M_split_cmptsEv 56
_ZNSt12experimental10filesystem2v17__cxx114pathC1EOS3_,_ZNSt12experimental10filesystem2v17__cxx114pathC2EOS3_ _ZNSt12experimental10filesystem2v17__cxx114path14_M_split_cmptsEv 76
_ZNSt7__cxx1112basic_stringIcSt11char_traitsIcESaIcEE10_M_disposeEv _ZdlPv 16
_ZNSt7__cxx1112basic_stringIcSt11char_traitsIcESaIcEE7_S_copyEPcPKcj memcpy 36
_ZNSt7__cxx1112basic_stringIcSt11char_traitsIcESaIcEEC1IS3_EEPKcRKS3_,_ZNSt7__cxx1112basic_stringIcSt11char_traitsIcESaIcEEC2IS3_EEPKcRKS3_ _ZNSt11char_traitsIcE6lengthEPKc 32
_ZNSt7__cxx1112basic_stringIcSt11char_traitsIcESaIcEEC1IS3_EEPKcRKS3_,_ZNSt7__cxx1112basic_stringIcSt11char_traitsIcESaIcEEC2IS3_EEPKcRKS3_ _ZNSt7__cxx1112basic_stringIcSt11char_traitsIcESaIcEE12_M_constructIPKcEEvT_S8_St20forward_iterator_tag 52
_ZNSt16_Sp_counted_baseILN9__gnu_cxx12_Lock_policyE2EE10_M_releaseEv __pthread_key_create 180
_ZNSt14__shared_countILN9__gnu_cxx12_Lock_policyE2EED1Ev,_ZNSt14__shared_countILN9__gnu_cxx12_Lock_policyE2EED2Ev __pthread_key_create 200
_ZNSt12experimental10filesystem2v17__cxx1128recursive_directory_iteratorD1Ev,_ZNSt12experimental10filesystem2v17__cxx1128recursive_directory_iteratorD2Ev _ZNSt14__shared_countILN9__gnu_cxx12_Lock_policyE2EED1Ev 12
_ZNSt12__shared_ptrINSt12experimental10filesystem2v17__cxx114_DirELN9__gnu_cxx12_Lock_policyE2EE5resetEv _ZNSt14__shared_countILN9__gnu_cxx12_Lock_policyE2EED1Ev 36
_ZNSt12__shared_ptrINSt12experimental10filesystem2v17__cxx1128recursive_directory_iterator10_Dir_stackELN9__gnu_cxx12_Lock_policyE2EE5resetEv _ZNSt14__shared_countILN9__gnu_cxx12_Lock_policyE2EED1Ev 36
_ZNSt12experimental10filesystem2v17__cxx1128recursive_directory_iteratoraSEOS3_ _ZNSt14__shared_countILN9__gnu_cxx12_Lock_policyE2EED1Ev 56
_ZNSt12experimental10filesystem2v17__cxx1128recursive_directory_iteratoraSERKS3_ _ZNSt16_Sp_counted_baseILN9__gnu_cxx12_Lock_policyE2EE10_M_releaseEv 124
_ZNSt12experimental10filesystem2v17__cxx1128recursive_directory_iteratoraSERKS3_ __pthread_key_create 160
_ZNKSt12experimental10filesystem2v17__cxx1128recursive_directory_iteratordeEv _ZNSt5dequeINSt12experimental10filesystem2v17__cxx114_DirESaIS4_EE4backEv 8
_ZNSt7__cxx1112basic_stringIcSt11char_traitsIcESaIcEE9_M_mutateEjjPKcj _ZNSt7__cxx1112basic_stringIcSt11char_traitsIcESaIcEE9_M_createERjj.isra.64 68
_ZNSt7__cxx1112basic_stringIcSt11char_traitsIcESaIcEE9_M_mutateEjjPKcj _ZNSt7__cxx1112basic_stringIcSt11char_traitsIcESaIcEE7_S_copyEPcPKcj 92
_ZNSt7__cxx1112basic_stringIcSt11char_traitsIcESaIcEE9_M_mutateEjjPKcj _ZNSt7__cxx1112basic_stringIcSt11char_traitsIcESaIcEE7_S_copyEPcPKcj 120
_ZNSt7__cxx1112basic_stringIcSt11char_traitsIcESaIcEE9_M_mutateEjjPKcj _ZNSt7__cxx1112basic_stringIcSt11char_traitsIcESaIcEE7_S_copyEPcPKcj 152
_ZNSt7__cxx1112basic_stringIcSt11char_traitsIcESaIcEE9_M_mutateEjjPKcj _ZNSt7__cxx1112basic_stringIcSt11char_traitsIcESaIcEE10_M_disposeEv 160
_ZNSt7__cxx1112basic_stringIcSt11char_traitsIcESaIcEE9_M_appendEPKcj _ZNSt7__cxx1112basic_stringIcSt11char_traitsIcESaIcEE7_S_copyEPcPKcj 56
_ZNSt7__cxx1112basic_stringIcSt11char_traitsIcESaIcEE9_M_appendEPKcj _ZNSt7__cxx1112basic_stringIcSt11char_traitsIcESaIcEE9_M_mutateEjjPKcj 108
_ZNSt12_Destroy_auxILb0EE9__destroyIPNSt12experimental10filesystem2v17__cxx114path5_CmptEEEvT_S9_ _ZNSt12experimental10filesystem2v17__cxx114pathD2Ev 28
_ZNSt6vectorINSt12experimental10filesystem2v17__cxx114path5_CmptESaIS5_EED1Ev,_ZNSt6vectorINSt12experimental10filesystem2v17__cxx114path5_CmptESaIS5_EED2Ev _ZNSt12_Destroy_auxILb0EE9__destroyIPNSt12experimental10filesystem2v17__cxx114path5_CmptEEEvT_S9_ 12
_ZNSt6vectorINSt12experimental10filesystem2v17__cxx114path5_CmptESaIS5_EED1Ev,_ZNSt6vectorINSt12experimental10filesystem2v17__cxx114path5_CmptESaIS5_EED2Ev _ZNSt12_Vector_baseINSt12experimental10filesystem2v17__cxx114path5_CmptESaIS5_EE13_M_deallocateEPS5_j.isra.61 20
_ZNSt12experimental10filesystem2v17__cxx114pathD1Ev,_ZNSt12experimental10filesystem2v17__cxx114pathD2Ev _ZNSt6vectorINSt12experimental10filesystem2v17__cxx114path5_CmptESaIS5_EED1Ev 12
_ZNSt12experimental10filesystem2v17__cxx114pathD1Ev,_ZNSt12experimental10filesystem2v17__cxx114pathD2Ev _ZNSt7__cxx1112basic_stringIcSt11char_traitsIcESaIcEE10_M_disposeEv 20
_ZNSt12experimental10filesystem2v17__cxx114_DirD1Ev,_ZNSt12experimental10filesystem2v17__cxx114_DirD2Ev _ZNSt12experimental10filesystem2v17__cxx114pathD1Ev 12
_ZNSt12experimental10filesystem2v17__cxx114_DirD1Ev,_ZNSt12experimental10filesystem2v17__cxx114_DirD2Ev _ZNSt12experimental10filesystem2v17__cxx114pathD1Ev 20
_ZNSt12experimental10filesystem2v17__cxx114_DirD1Ev,_ZNSt12experimental10filesystem2v17__cxx114_DirD2Ev _ZNSt10filesystem9_Dir_baseD2Ev 28
_ZNSt5dequeINSt12experimental10filesystem2v17__cxx114_DirESaIS4_EE8pop_backEv _ZdlPv 28
_ZNSt5dequeINSt12experimental10filesystem2v17__cxx114_DirESaIS4_EE8pop_backEv _ZNSt12experimental10filesystem2v17__cxx114_DirD1Ev 72
_ZNSt23_Sp_counted_ptr_inplaceINSt12experimental10filesystem2v17__cxx114_DirESaIS4_ELN9__gnu_cxx12_Lock_policyE2EE10_M_disposeEv _ZNSt12experimental10filesystem2v17__cxx114_DirD1Ev 4
_ZNSt12experimental10filesystem2v17__cxx114pathaSEOS3_ _ZNSt7__cxx1112basic_stringIcSt11char_traitsIcESaIcEE7_S_copyEPcPKcj 44
_ZNSt12experimental10filesystem2v17__cxx114pathaSEOS3_ _ZNSt6vectorINSt12experimental10filesystem2v17__cxx114path5_CmptESaIS5_EED1Ev 168
_ZNSt12experimental10filesystem2v17__cxx114pathaSEOS3_ _ZNSt12experimental10filesystem2v17__cxx114path14_M_split_cmptsEv 196
_ZNSt7__cxx1112basic_stringIcSt11char_traitsIcESaIcEE12_M_constructIPcEEvT_S7_St20forward_iterator_tag _ZSt19__throw_logic_errorPKc 40
_ZNSt7__cxx1112basic_stringIcSt11char_traitsIcESaIcEE12_M_constructIPcEEvT_S7_St20forward_iterator_tag _ZNSt7__cxx1112basic_stringIcSt11char_traitsIcESaIcEE9_M_createERjj.isra.90 68
_ZNSt7__cxx1112basic_stringIcSt11char_traitsIcESaIcEE12_M_constructIPcEEvT_S7_St20forward_iterator_tag _ZNSt7__cxx1112basic_stringIcSt11char_traitsIcESaIcEE7_S_copyEPcPKcj 96
_ZNSt7__cxx1112basic_stringIcSt11char_traitsIcESaIcEE12_M_constructIPcEEvT_S7_St20forward_iterator_tag .LC7 128
_ZNSt20__uninitialized_copyILb0EE13__uninit_copyIN9__gnu_cxx17__normal_iteratorIPKNSt12experimental10filesystem2v17__cxx114path5_CmptESt6vectorIS9_SaIS9_EEEEPS9_EET0_T_SI_SH_ _ZNSt12experimental10filesystem2v17__cxx114pathC2ERKS3_ 36
_ZNSt20__uninitialized_copyILb0EE13__uninit_copyIN9__gnu_cxx17__normal_iteratorIPKNSt12experimental10filesystem2v17__cxx114path5_CmptESt6vectorIS9_SaIS9_EEEEPS9_EET0_T_SI_SH_ __cxa_begin_catch 60
_ZNSt20__uninitialized_copyILb0EE13__uninit_copyIN9__gnu_cxx17__normal_iteratorIPKNSt12experimental10filesystem2v17__cxx114path5_CmptESt6vectorIS9_SaIS9_EEEEPS9_EET0_T_SI_SH_ _ZNSt12_Destroy_auxILb0EE9__destroyIPNSt12experimental10filesystem2v17__cxx114path5_CmptEEEvT_S9_ 72
_ZNSt20__uninitialized_copyILb0EE13__uninit_copyIN9__gnu_cxx17__normal_iteratorIPKNSt12experimental10filesystem2v17__cxx114path5_CmptESt6vectorIS9_SaIS9_EEEEPS9_EET0_T_SI_SH_ __cxa_rethrow 76
_ZNSt20__uninitialized_copyILb0EE13__uninit_copyIN9__gnu_cxx17__normal_iteratorIPKNSt12experimental10filesystem2v17__cxx114path5_CmptESt6vectorIS9_SaIS9_EEEEPS9_EET0_T_SI_SH_ __cxa_end_catch 80
_ZNSt20__uninitialized_copyILb0EE13__uninit_copyIN9__gnu_cxx17__normal_iteratorIPKNSt12experimental10filesystem2v17__cxx114path5_CmptESt6vectorIS9_SaIS9_EEEEPS9_EET0_T_SI_SH_ __cxa_end_cleanup 84
_ZNSt12experimental10filesystem2v17__cxx114pathC1ERKS3_,_ZNSt12experimental10filesystem2v17__cxx114pathC2ERKS3_ _ZNSt7__cxx1112basic_stringIcSt11char_traitsIcESaIcEEC1ERKS4_ 12
_ZNSt12experimental10filesystem2v17__cxx114pathC1ERKS3_,_ZNSt12experimental10filesystem2v17__cxx114pathC2ERKS3_ _ZNSt12_Vector_baseINSt12experimental10filesystem2v17__cxx114path5_CmptESaIS5_EE11_M_allocateEj.isra.85 56
_ZNSt12experimental10filesystem2v17__cxx114pathC1ERKS3_,_ZNSt12experimental10filesystem2v17__cxx114pathC2ERKS3_ _ZNSt20__uninitialized_copyILb0EE13__uninit_copyIN9__gnu_cxx17__normal_iteratorIPKNSt12experimental10filesystem2v17__cxx114path5_CmptESt6vectorIS9_SaIS9_EEEEPS9_EET0_T_SI_SH_ 84
_ZNSt12experimental10filesystem2v17__cxx114pathC1ERKS3_,_ZNSt12experimental10filesystem2v17__cxx114pathC2ERKS3_ _ZNSt12_Vector_baseINSt12experimental10filesystem2v17__cxx114path5_CmptESaIS5_EE13_M_deallocateEPS5_j.isra.61 96
_ZNSt12experimental10filesystem2v17__cxx114pathC1ERKS3_,_ZNSt12experimental10filesystem2v17__cxx114pathC2ERKS3_ _ZNSt7__cxx1112basic_stringIcSt11char_traitsIcESaIcEE10_M_disposeEv 104
_ZNSt12experimental10filesystem2v17__cxx114pathC1ERKS3_,_ZNSt12experimental10filesystem2v17__cxx114pathC2ERKS3_ __cxa_end_cleanup 108
_ZNSt12experimental10filesystem2v17__cxx114_Dir7advanceEbRSt10error_code _ZNSt3_V215system_categoryEv 24
_ZNSt12experimental10filesystem2v17__cxx114_Dir7advanceEbRSt10error_code __errno_location 36
_ZNSt12experimental10filesystem2v17__cxx114_Dir7advanceEbRSt10error_code readdir64 84
_ZNSt12experimental10filesystem2v17__cxx114_Dir7advanceEbRSt10error_code strcmp 116
_ZNSt12experimental10filesystem2v17__cxx114_Dir7advanceEbRSt10error_code strcmp 136
_ZNSt12experimental10filesystem2v17__cxx114_Dir7advanceEbRSt10error_code _ZNSt7__cxx1112basic_stringIcSt11char_traitsIcESaIcEEC1IS3_EEPKcRKS3_ 172
_ZNSt12experimental10filesystem2v17__cxx114_Dir7advanceEbRSt10error_code _ZNSt12experimental10filesystem2v17__cxx114path14_M_split_cmptsEv 196
_ZNSt12experimental10filesystem2v17__cxx114_Dir7advanceEbRSt10error_code _ZNSt3_V216generic_categoryEv 232
_ZNSt12experimental10filesystem2v17__cxx114_Dir7advanceEbRSt10error_code memset 272
_ZNSt12experimental10filesystem2v17__cxx114_Dir7advanceEbRSt10error_code _ZNSt12experimental10filesystem2v17__cxx114pathC1Ev 280
_ZNSt12experimental10filesystem2v17__cxx114_Dir7advanceEbRSt10error_code _ZNSt12experimental10filesystem2v17__cxx114pathaSEOS3_ 292
_ZNSt12experimental10filesystem2v17__cxx114_Dir7advanceEbRSt10error_code _ZNSt12experimental10filesystem2v17__cxx114pathD1Ev 300
_ZNSt12experimental10filesystem2v17__cxx114_Dir7advanceEbRSt10error_code _ZNSt12experimental10filesystem2v17__cxx114pathC1ERKS3_ 328
_ZNSt12experimental10filesystem2v17__cxx114_Dir7advanceEbRSt10error_code _ZNSt7__cxx1112basic_stringIcSt11char_traitsIcESaIcEE9_M_appendEPKcj 356
_ZNSt12experimental10filesystem2v17__cxx114_Dir7advanceEbRSt10error_code _ZNSt6vectorINSt12experimental10filesystem2v17__cxx114path5_CmptESaIS5_EED1Ev 368
_ZNSt12experimental10filesystem2v17__cxx114_Dir7advanceEbRSt10error_code _ZNSt7__cxx1112basic_stringIcSt11char_traitsIcESaIcEE10_M_disposeEv 376
_ZNSt12experimental10filesystem2v17__cxx114_Dir7advanceEbRSt10error_code _ZSt9terminatev 380
_ZNSt12experimental10filesystem2v17__cxx114_Dir7advanceEbRSt10error_code _ZNSt7__cxx1112basic_stringIcSt11char_traitsIcESaIcEE9_M_mutateEjjPKcj 516
_ZNSt12experimental10filesystem2v17__cxx114_Dir7advanceEbRSt10error_code _ZNSt12experimental10filesystem2v17__cxx114path14_M_split_cmptsEv 528
_ZNSt12experimental10filesystem2v17__cxx114_Dir7advanceEbRSt10error_code _ZNSt12experimental10filesystem2v17__cxx114pathC1ERKS3_ 540
_ZNSt12experimental10filesystem2v17__cxx114_Dir7advanceEbRSt10error_code _ZNSt12experimental10filesystem2v17__cxx114pathaSEOS3_ 552
_ZNSt12experimental10filesystem2v17__cxx114_Dir7advanceEbRSt10error_code _ZNSt12experimental10filesystem2v17__cxx114pathD1Ev 560
_ZNSt12experimental10filesystem2v17__cxx114_Dir7advanceEbRSt10error_code _ZNSt12experimental10filesystem2v17__cxx114pathD1Ev 568
_ZNSt12experimental10filesystem2v17__cxx114_Dir7advanceEbRSt10error_code _ZNSt12experimental10filesystem2v17__cxx114pathD1Ev 576
_ZNSt12experimental10filesystem2v17__cxx114_Dir7advanceEbRSt10error_code _ZNSt12experimental10filesystem2v17__cxx114pathD1Ev 624
_ZNSt12experimental10filesystem2v17__cxx114_Dir7advanceEbRSt10error_code .LC2 632
_ZNSt12experimental10filesystem2v17__cxx114_Dir7advanceEbRSt10error_code .LC3 636
_ZNSt12experimental10filesystem2v17__cxx1118directory_iterator9incrementERSt10error_code _ZNSt3_V216generic_categoryEv 24
_ZNSt12experimental10filesystem2v17__cxx1118directory_iterator9incrementERSt10error_code _ZNSt12experimental10filesystem2v17__cxx114_Dir7advanceEbRSt10error_code 56
_ZNSt12experimental10filesystem2v17__cxx1118directory_iterator9incrementERSt10error_code _ZNSt12__shared_ptrINSt12experimental10filesystem2v17__cxx114_DirELN9__gnu_cxx12_Lock_policyE2EE5resetEv 72
_ZNSt12experimental10filesystem2v17__cxx1128recursive_directory_iterator3popERSt10error_code _ZNSt3_V216generic_categoryEv 32
_ZNSt12experimental10filesystem2v17__cxx1128recursive_directory_iterator3popERSt10error_code _ZNSt5dequeINSt12experimental10filesystem2v17__cxx114_DirESaIS4_EE4backEv 52
_ZNSt12experimental10filesystem2v17__cxx1128recursive_directory_iterator3popERSt10error_code _ZNSt12experimental10filesystem2v17__cxx114_Dir7advanceEbRSt10error_code 64
_ZNSt12experimental10filesystem2v17__cxx1128recursive_directory_iterator3popERSt10error_code _ZNSt5dequeINSt12experimental10filesystem2v17__cxx114_DirESaIS4_EE8pop_backEv 80
_ZNSt12experimental10filesystem2v17__cxx1128recursive_directory_iterator3popERSt10error_code _ZNSt12__shared_ptrINSt12experimental10filesystem2v17__cxx1128recursive_directory_iterator10_Dir_stackELN9__gnu_cxx12_Lock_policyE2EE5resetEv 108
_ZNSt12experimental10filesystem2v17__cxx1128recursive_directory_iterator3popERSt10error_code _ZNSt3_V215system_categoryEv 112
_ZNSt6vectorINSt12experimental10filesystem2v17__cxx114path5_CmptESaIS5_EEaSERKS7_ _ZNSt12_Vector_baseINSt12experimental10filesystem2v17__cxx114path5_CmptESaIS5_EE11_M_allocateEj.isra.85 72
_ZNSt6vectorINSt12experimental10filesystem2v17__cxx114path5_CmptESaIS5_EEaSERKS7_ _ZNSt20__uninitialized_copyILb0EE13__uninit_copyIN9__gnu_cxx17__normal_iteratorIPKNSt12experimental10filesystem2v17__cxx114path5_CmptESt6vectorIS9_SaIS9_EEEEPS9_EET0_T_SI_SH_ 92
_ZNSt6vectorINSt12experimental10filesystem2v17__cxx114path5_CmptESaIS5_EEaSERKS7_ _ZNSt12_Destroy_auxILb0EE9__destroyIPNSt12experimental10filesystem2v17__cxx114path5_CmptEEEvT_S9_ 100
_ZNSt6vectorINSt12experimental10filesystem2v17__cxx114path5_CmptESaIS5_EEaSERKS7_ _ZNSt12_Vector_baseINSt12experimental10filesystem2v17__cxx114path5_CmptESaIS5_EE13_M_deallocateEPS5_j.isra.61 108
_ZNSt6vectorINSt12experimental10filesystem2v17__cxx114path5_CmptESaIS5_EEaSERKS7_ __cxa_begin_catch 144
_ZNSt6vectorINSt12experimental10filesystem2v17__cxx114path5_CmptESaIS5_EEaSERKS7_ _ZNSt12_Vector_baseINSt12experimental10filesystem2v17__cxx114path5_CmptESaIS5_EE13_M_deallocateEPS5_j.isra.61 152
_ZNSt6vectorINSt12experimental10filesystem2v17__cxx114path5_CmptESaIS5_EEaSERKS7_ __cxa_rethrow 156
_ZNSt6vectorINSt12experimental10filesystem2v17__cxx114path5_CmptESaIS5_EEaSERKS7_ __cxa_end_catch 160
_ZNSt6vectorINSt12experimental10filesystem2v17__cxx114path5_CmptESaIS5_EEaSERKS7_ __cxa_end_cleanup 164
_ZNSt6vectorINSt12experimental10filesystem2v17__cxx114path5_CmptESaIS5_EEaSERKS7_ _ZNSt12experimental10filesystem2v17__cxx114pathaSERKS3_ 216
_ZNSt6vectorINSt12experimental10filesystem2v17__cxx114path5_CmptESaIS5_EEaSERKS7_ _ZNSt12experimental10filesystem2v17__cxx114pathD2Ev 276
_ZNSt6vectorINSt12experimental10filesystem2v17__cxx114path5_CmptESaIS5_EEaSERKS7_ _ZNSt12experimental10filesystem2v17__cxx114pathaSERKS3_ 300
_ZNSt6vectorINSt12experimental10filesystem2v17__cxx114path5_CmptESaIS5_EEaSERKS7_ _ZNSt12experimental10filesystem2v17__cxx114pathC2ERKS3_ 368
_ZNSt6vectorINSt12experimental10filesystem2v17__cxx114path5_CmptESaIS5_EEaSERKS7_ __cxa_begin_catch 392
_ZNSt6vectorINSt12experimental10filesystem2v17__cxx114path5_CmptESaIS5_EEaSERKS7_ _ZNSt12_Destroy_auxILb0EE9__destroyIPNSt12experimental10filesystem2v17__cxx114path5_CmptEEEvT_S9_ 404
_ZNSt6vectorINSt12experimental10filesystem2v17__cxx114path5_CmptESaIS5_EEaSERKS7_ __cxa_rethrow 408
_ZNSt6vectorINSt12experimental10filesystem2v17__cxx114path5_CmptESaIS5_EEaSERKS7_ __cxa_end_catch 412
_ZNSt12experimental10filesystem2v17__cxx114pathaSERKS3_ _ZNSt7__cxx1112basic_stringIcSt11char_traitsIcESaIcEE9_M_createERjj.isra.58 60
_ZNSt12experimental10filesystem2v17__cxx114pathaSERKS3_ _ZNSt7__cxx1112basic_stringIcSt11char_traitsIcESaIcEE10_M_disposeEv 72
_ZNSt12experimental10filesystem2v17__cxx114pathaSERKS3_ _ZNSt7__cxx1112basic_stringIcSt11char_traitsIcESaIcEE7_S_copyEPcPKcj 108
_ZNSt12experimental10filesystem2v17__cxx114pathaSERKS3_ _ZNSt6vectorINSt12experimental10filesystem2v17__cxx114path5_CmptESaIS5_EEaSERKS7_ 136
_ZNSt12experimental10filesystem2v17__cxx114_DirC1ERKNS2_4pathEbRSt10error_code,_ZNSt12experimental10filesystem2v17__cxx114_DirC2ERKNS2_4pathEbRSt10error_code _ZNSt10filesystem9_Dir_baseC2EPKcbRSt10error_code 28
_ZNSt12experimental10filesystem2v17__cxx114_DirC1ERKNS2_4pathEbRSt10error_code,_ZNSt12experimental10filesystem2v17__cxx114_DirC2ERKNS2_4pathEbRSt10error_code _ZNSt12experimental10filesystem2v17__cxx114pathC1Ev 36
_ZNSt12experimental10filesystem2v17__cxx114_DirC1ERKNS2_4pathEbRSt10error_code,_ZNSt12experimental10filesystem2v17__cxx114_DirC2ERKNS2_4pathEbRSt10error_code _ZNSt12experimental10filesystem2v17__cxx114pathC1Ev 44
_ZNSt12experimental10filesystem2v17__cxx114_DirC1ERKNS2_4pathEbRSt10error_code,_ZNSt12experimental10filesystem2v17__cxx114_DirC2ERKNS2_4pathEbRSt10error_code _ZNSt12experimental10filesystem2v17__cxx114pathaSERKS3_ 76
_ZNSt12experimental10filesystem2v17__cxx114_DirC1ERKNS2_4pathEbRSt10error_code,_ZNSt12experimental10filesystem2v17__cxx114_DirC2ERKNS2_4pathEbRSt10error_code _ZNSt12experimental10filesystem2v17__cxx114pathD1Ev 88
_ZNSt12experimental10filesystem2v17__cxx114_DirC1ERKNS2_4pathEbRSt10error_code,_ZNSt12experimental10filesystem2v17__cxx114_DirC2ERKNS2_4pathEbRSt10error_code _ZNSt12experimental10filesystem2v17__cxx114pathD1Ev 96
_ZNSt12experimental10filesystem2v17__cxx114_DirC1ERKNS2_4pathEbRSt10error_code,_ZNSt12experimental10filesystem2v17__cxx114_DirC2ERKNS2_4pathEbRSt10error_code _ZNSt10filesystem9_Dir_baseD2Ev 104
_ZNSt12experimental10filesystem2v17__cxx114_DirC1ERKNS2_4pathEbRSt10error_code,_ZNSt12experimental10filesystem2v17__cxx114_DirC2ERKNS2_4pathEbRSt10error_code __cxa_end_cleanup 108
_ZNSt7__cxx1112basic_stringIcSt11char_traitsIcESaIcEE7_S_moveEPcPKcj memmove 36
_ZNSt7__cxx1112basic_stringIcSt11char_traitsIcESaIcEE10_M_replaceEjjPKcj _ZSt20__throw_length_errorPKc 44
_ZNSt7__cxx1112basic_stringIcSt11char_traitsIcESaIcEE10_M_replaceEjjPKcj _ZNSt7__cxx1112basic_stringIcSt11char_traitsIcESaIcEE7_S_moveEPcPKcj 156
_ZNSt7__cxx1112basic_stringIcSt11char_traitsIcESaIcEE10_M_replaceEjjPKcj _ZNSt7__cxx1112basic_stringIcSt11char_traitsIcESaIcEE7_S_moveEPcPKcj 184
_ZNSt7__cxx1112basic_stringIcSt11char_traitsIcESaIcEE10_M_replaceEjjPKcj _ZNSt7__cxx1112basic_stringIcSt11char_traitsIcESaIcEE7_S_moveEPcPKcj 224
_ZNSt7__cxx1112basic_stringIcSt11char_traitsIcESaIcEE10_M_replaceEjjPKcj _ZNSt7__cxx1112basic_stringIcSt11char_traitsIcESaIcEE7_S_moveEPcPKcj 256
_ZNSt7__cxx1112basic_stringIcSt11char_traitsIcESaIcEE10_M_replaceEjjPKcj _ZNSt7__cxx1112basic_stringIcSt11char_traitsIcESaIcEE7_S_copyEPcPKcj 324
_ZNSt7__cxx1112basic_stringIcSt11char_traitsIcESaIcEE10_M_replaceEjjPKcj _ZNSt7__cxx1112basic_stringIcSt11char_traitsIcESaIcEE7_S_moveEPcPKcj 348
_ZNSt7__cxx1112basic_stringIcSt11char_traitsIcESaIcEE10_M_replaceEjjPKcj _ZNSt7__cxx1112basic_stringIcSt11char_traitsIcESaIcEE9_M_mutateEjjPKcj 384
_ZNSt7__cxx1112basic_stringIcSt11char_traitsIcESaIcEE10_M_replaceEjjPKcj .LC5 392
_ZNSt12system_errorC1ESt10error_codeRKNSt7__cxx1112basic_stringIcSt11char_traitsIcESaIcEEE,_ZNSt12system_errorC2ESt10error_codeRKNSt7__cxx1112basic_stringIcSt11char_traitsIcESaIcEEE _ZNSt7__cxx1112basic_stringIcSt11char_traitsIcESaIcEEC1ERKS4_ 32
_ZNSt12system_errorC1ESt10error_codeRKNSt7__cxx1112basic_stringIcSt11char_traitsIcESaIcEEE,_ZNSt12system_errorC2ESt10error_codeRKNSt7__cxx1112basic_stringIcSt11char_traitsIcESaIcEEE _ZNSt7__cxx1112basic_stringIcSt11char_traitsIcESaIcEE6appendEPKc 56
_ZNSt12system_errorC1ESt10error_codeRKNSt7__cxx1112basic_stringIcSt11char_traitsIcESaIcEEE,_ZNSt12system_errorC2ESt10error_codeRKNSt7__cxx1112basic_stringIcSt11char_traitsIcESaIcEEE _ZNSt7__cxx1112basic_stringIcSt11char_traitsIcESaIcEE10_M_disposeEv 68
_ZNSt12system_errorC1ESt10error_codeRKNSt7__cxx1112basic_stringIcSt11char_traitsIcESaIcEEE,_ZNSt12system_errorC2ESt10error_codeRKNSt7__cxx1112basic_stringIcSt11char_traitsIcESaIcEEE __cxa_end_cleanup 72
_ZNSt12system_errorC1ESt10error_codeRKNSt7__cxx1112basic_stringIcSt11char_traitsIcESaIcEEE,_ZNSt12system_errorC2ESt10error_codeRKNSt7__cxx1112basic_stringIcSt11char_traitsIcESaIcEEE _ZNKSt7__cxx1112basic_stringIcSt11char_traitsIcESaIcEE8_M_checkEjPKc 188
_ZNSt12system_errorC1ESt10error_codeRKNSt7__cxx1112basic_stringIcSt11char_traitsIcESaIcEEE,_ZNSt12system_errorC2ESt10error_codeRKNSt7__cxx1112basic_stringIcSt11char_traitsIcESaIcEEE _ZNSt7__cxx1112basic_stringIcSt11char_traitsIcESaIcEE10_M_replaceEjjPKcj 212
_ZNSt12system_errorC1ESt10error_codeRKNSt7__cxx1112basic_stringIcSt11char_traitsIcESaIcEEE,_ZNSt12system_errorC2ESt10error_codeRKNSt7__cxx1112basic_stringIcSt11char_traitsIcESaIcEEE _ZNSt7__cxx1112basic_stringIcSt11char_traitsIcESaIcEE9_M_appendEPKcj 224
_ZNSt12system_errorC1ESt10error_codeRKNSt7__cxx1112basic_stringIcSt11char_traitsIcESaIcEEE,_ZNSt12system_errorC2ESt10error_codeRKNSt7__cxx1112basic_stringIcSt11char_traitsIcESaIcEEE _ZNSt7__cxx1112basic_stringIcSt11char_traitsIcESaIcEEC1EOS4_ 240
_ZNSt12system_errorC1ESt10error_codeRKNSt7__cxx1112basic_stringIcSt11char_traitsIcESaIcEEE,_ZNSt12system_errorC2ESt10error_codeRKNSt7__cxx1112basic_stringIcSt11char_traitsIcESaIcEEE _ZNSt13runtime_errorC2ERKNSt7__cxx1112basic_stringIcSt11char_traitsIcESaIcEEE 252
_ZNSt12system_errorC1ESt10error_codeRKNSt7__cxx1112basic_stringIcSt11char_traitsIcESaIcEEE,_ZNSt12system_errorC2ESt10error_codeRKNSt7__cxx1112basic_stringIcSt11char_traitsIcESaIcEEE _ZNSt7__cxx1112basic_stringIcSt11char_traitsIcESaIcEE10_M_disposeEv 264
_ZNSt12system_errorC1ESt10error_codeRKNSt7__cxx1112basic_stringIcSt11char_traitsIcESaIcEEE,_ZNSt12system_errorC2ESt10error_codeRKNSt7__cxx1112basic_stringIcSt11char_traitsIcESaIcEEE _ZNSt7__cxx1112basic_stringIcSt11char_traitsIcESaIcEE10_M_disposeEv 272
_ZNSt12system_errorC1ESt10error_codeRKNSt7__cxx1112basic_stringIcSt11char_traitsIcESaIcEEE,_ZNSt12system_errorC2ESt10error_codeRKNSt7__cxx1112basic_stringIcSt11char_traitsIcESaIcEEE _ZNSt7__cxx1112basic_stringIcSt11char_traitsIcESaIcEE10_M_disposeEv 292
_ZNSt12system_errorC1ESt10error_codeRKNSt7__cxx1112basic_stringIcSt11char_traitsIcESaIcEEE,_ZNSt12system_errorC2ESt10error_codeRKNSt7__cxx1112basic_stringIcSt11char_traitsIcESaIcEEE _ZNSt7__cxx1112basic_stringIcSt11char_traitsIcESaIcEE10_M_disposeEv 300
_ZNSt12system_errorC1ESt10error_codeRKNSt7__cxx1112basic_stringIcSt11char_traitsIcESaIcEEE,_ZNSt12system_errorC2ESt10error_codeRKNSt7__cxx1112basic_stringIcSt11char_traitsIcESaIcEEE _ZNSt7__cxx1112basic_stringIcSt11char_traitsIcESaIcEE10_M_disposeEv 308
_ZNSt12system_errorC1ESt10error_codeRKNSt7__cxx1112basic_stringIcSt11char_traitsIcESaIcEEE,_ZNSt12system_errorC2ESt10error_codeRKNSt7__cxx1112basic_stringIcSt11char_traitsIcESaIcEEE .LC6 352
_ZNSt12system_errorC1ESt10error_codeRKNSt7__cxx1112basic_stringIcSt11char_traitsIcESaIcEEE,_ZNSt12system_errorC2ESt10error_codeRKNSt7__cxx1112basic_stringIcSt11char_traitsIcESaIcEEE .LC7 360
_ZNSt12system_errorC1ESt10error_codeRKNSt7__cxx1112basic_stringIcSt11char_traitsIcESaIcEEE,_ZNSt12system_errorC2ESt10error_codeRKNSt7__cxx1112basic_stringIcSt11char_traitsIcESaIcEEE _ZTVSt12system_error 364
_ZNSt12experimental10filesystem2v17__cxx1116filesystem_errorC1ERKNSt7__cxx1112basic_stringIcSt11char_traitsIcESaIcEEESt10error_code,_ZNSt12experimental10filesystem2v17__cxx1116filesystem_errorC2ERKNSt7__cxx1112basic_stringIcSt11char_traitsIcESaIcEEESt10error_code _ZNSt12system_errorC2ESt10error_codeRKNSt7__cxx1112basic_stringIcSt11char_traitsIcESaIcEEE 32
_ZNSt12experimental10filesystem2v17__cxx1116filesystem_errorC1ERKNSt7__cxx1112basic_stringIcSt11char_traitsIcESaIcEEESt10error_code,_ZNSt12experimental10filesystem2v17__cxx1116filesystem_errorC2ERKNSt7__cxx1112basic_stringIcSt11char_traitsIcESaIcEEESt10error_code _ZNSt12experimental10filesystem2v17__cxx114pathC1Ev 64
_ZNSt12experimental10filesystem2v17__cxx1116filesystem_errorC1ERKNSt7__cxx1112basic_stringIcSt11char_traitsIcESaIcEEESt10error_code,_ZNSt12experimental10filesystem2v17__cxx1116filesystem_errorC2ERKNSt7__cxx1112basic_stringIcSt11char_traitsIcESaIcEEESt10error_code _ZNSt12experimental10filesystem2v17__cxx114pathC1Ev 72
_ZNSt12experimental10filesystem2v17__cxx1116filesystem_errorC1ERKNSt7__cxx1112basic_stringIcSt11char_traitsIcESaIcEEESt10error_code,_ZNSt12experimental10filesystem2v17__cxx1116filesystem_errorC2ERKNSt7__cxx1112basic_stringIcSt11char_traitsIcESaIcEEESt10error_code _ZNSt12experimental10filesystem2v17__cxx1116filesystem_error11_M_gen_whatEv 84
_ZNSt12experimental10filesystem2v17__cxx1116filesystem_errorC1ERKNSt7__cxx1112basic_stringIcSt11char_traitsIcESaIcEEESt10error_code,_ZNSt12experimental10filesystem2v17__cxx1116filesystem_errorC2ERKNSt7__cxx1112basic_stringIcSt11char_traitsIcESaIcEEESt10error_code _ZNSt12experimental10filesystem2v17__cxx114pathD1Ev 96
_ZNSt12experimental10filesystem2v17__cxx1116filesystem_errorC1ERKNSt7__cxx1112basic_stringIcSt11char_traitsIcESaIcEEESt10error_code,_ZNSt12experimental10filesystem2v17__cxx1116filesystem_errorC2ERKNSt7__cxx1112basic_stringIcSt11char_traitsIcESaIcEEESt10error_code _ZNSt12experimental10filesystem2v17__cxx114pathD1Ev 104
_ZNSt12experimental10filesystem2v17__cxx1116filesystem_errorC1ERKNSt7__cxx1112basic_stringIcSt11char_traitsIcESaIcEEESt10error_code,_ZNSt12experimental10filesystem2v17__cxx1116filesystem_errorC2ERKNSt7__cxx1112basic_stringIcSt11char_traitsIcESaIcEEESt10error_code _ZNSt12system_errorD2Ev 112
_ZNSt12experimental10filesystem2v17__cxx1116filesystem_errorC1ERKNSt7__cxx1112basic_stringIcSt11char_traitsIcESaIcEEESt10error_code,_ZNSt12experimental10filesystem2v17__cxx1116filesystem_errorC2ERKNSt7__cxx1112basic_stringIcSt11char_traitsIcESaIcEEESt10error_code __cxa_end_cleanup 116
_ZNSt12experimental10filesystem2v17__cxx1116filesystem_errorC1ERKNSt7__cxx1112basic_stringIcSt11char_traitsIcESaIcEEESt10error_code,_ZNSt12experimental10filesystem2v17__cxx1116filesystem_errorC2ERKNSt7__cxx1112basic_stringIcSt11char_traitsIcESaIcEEESt10error_code _ZTVNSt12experimental10filesystem2v17__cxx1116filesystem_errorE 136
_ZNKSt12experimental10filesystem2v17__cxx1118directory_iteratordeEv __cxa_allocate_exception 36
_ZNKSt12experimental10filesystem2v17__cxx1118directory_iteratordeEv _ZNSt7__cxx1112basic_stringIcSt11char_traitsIcESaIcEEC1IS3_EEPKcRKS3_ 60
_ZNKSt12experimental10filesystem2v17__cxx1118directory_iteratordeEv _ZNSt3_V216generic_categoryEv 64
_ZNKSt12experimental10filesystem2v17__cxx1118directory_iteratordeEv _ZNSt12experimental10filesystem2v17__cxx1116filesystem_errorC1ERKNSt7__cxx1112basic_stringIcSt11char_traitsIcESaIcEEESt10error_code 96
_ZNKSt12experimental10filesystem2v17__cxx1118directory_iteratordeEv _ZNSt7__cxx1112basic_stringIcSt11char_traitsIcESaIcEE10_M_disposeEv 104
_ZNKSt12experimental10filesystem2v17__cxx1118directory_iteratordeEv __cxa_throw 144
_ZNKSt12experimental10filesystem2v17__cxx1118directory_iteratordeEv _ZNSt7__cxx1112basic_stringIcSt11char_traitsIcESaIcEE10_M_disposeEv 152
_ZNKSt12experimental10filesystem2v17__cxx1118directory_iteratordeEv __cxa_free_exception 160
_ZNKSt12experimental10filesystem2v17__cxx1118directory_iteratordeEv __cxa_end_cleanup 164
_ZNKSt12experimental10filesystem2v17__cxx1118directory_iteratordeEv .LC7 188
_ZNKSt12experimental10filesystem2v17__cxx1118directory_iteratordeEv _ZNSt12experimental10filesystem2v17__cxx1116filesystem_errorD1Ev 192
_ZNKSt12experimental10filesystem2v17__cxx1118directory_iteratordeEv _ZTINSt12experimental10filesystem2v17__cxx1116filesystem_errorE 196
_ZNSt12experimental10filesystem2v17__cxx114_Dir7advanceEb _ZNSt3_V215system_categoryEv 28
_ZNSt12experimental10filesystem2v17__cxx114_Dir7advanceEb _ZNSt12experimental10filesystem2v17__cxx114_Dir7advanceEbRSt10error_code 48
_ZNSt12experimental10filesystem2v17__cxx114_Dir7advanceEb __cxa_allocate_exception 80
_ZNSt12experimental10filesystem2v17__cxx114_Dir7advanceEb _ZNSt7__cxx1112basic_stringIcSt11char_traitsIcESaIcEEC1IS3_EEPKcRKS3_ 104
_ZNSt12experimental10filesystem2v17__cxx114_Dir7advanceEb _ZNSt12experimental10filesystem2v17__cxx1116filesystem_errorC1ERKNSt7__cxx1112basic_stringIcSt11char_traitsIcESaIcEEESt10error_code 120
_ZNSt12experimental10filesystem2v17__cxx114_Dir7advanceEb _ZNSt7__cxx1112basic_stringIcSt11char_traitsIcESaIcEE10_M_disposeEv 128
_ZNSt12experimental10filesystem2v17__cxx114_Dir7advanceEb __cxa_throw 168
_ZNSt12experimental10filesystem2v17__cxx114_Dir7advanceEb _ZNSt7__cxx1112basic_stringIcSt11char_traitsIcESaIcEE10_M_disposeEv 176
_ZNSt12experimental10filesystem2v17__cxx114_Dir7advanceEb __cxa_free_exception 184
_ZNSt12experimental10filesystem2v17__cxx114_Dir7advanceEb __cxa_end_cleanup 188
_ZNSt12experimental10filesystem2v17__cxx114_Dir7advanceEb .LC8 208
_ZNSt12experimental10filesystem2v17__cxx114_Dir7advanceEb _ZNSt12experimental10filesystem2v17__cxx1116filesystem_errorD1Ev 212
_ZNSt12experimental10filesystem2v17__cxx114_Dir7advanceEb _ZTINSt12experimental10filesystem2v17__cxx1116filesystem_errorE 216
_ZNSt12experimental10filesystem2v17__cxx1118directory_iteratorppEv __cxa_allocate_exception 40
_ZNSt12experimental10filesystem2v17__cxx1118directory_iteratorppEv _ZNSt7__cxx1112basic_stringIcSt11char_traitsIcESaIcEEC1IS3_EEPKcRKS3_ 64
_ZNSt12experimental10filesystem2v17__cxx1118directory_iteratorppEv _ZNSt3_V216generic_categoryEv 68
_ZNSt12experimental10filesystem2v17__cxx1118directory_iteratorppEv _ZNSt12experimental10filesystem2v17__cxx1116filesystem_errorC1ERKNSt7__cxx1112basic_stringIcSt11char_traitsIcESaIcEEESt10error_code 100
_ZNSt12experimental10filesystem2v17__cxx1118directory_iteratorppEv _ZNSt7__cxx1112basic_stringIcSt11char_traitsIcESaIcEE10_M_disposeEv 108
_ZNSt12experimental10filesystem2v17__cxx1118directory_iteratorppEv __cxa_throw 148
_ZNSt12experimental10filesystem2v17__cxx1118directory_iteratorppEv _ZNSt12experimental10filesystem2v17__cxx114_Dir7advanceEb 156
_ZNSt12experimental10filesystem2v17__cxx1118directory_iteratorppEv _ZNSt12__shared_ptrINSt12experimental10filesystem2v17__cxx114_DirELN9__gnu_cxx12_Lock_policyE2EE5resetEv 172
_ZNSt12experimental10filesystem2v17__cxx1118directory_iteratorppEv _ZNSt7__cxx1112basic_stringIcSt11char_traitsIcESaIcEE10_M_disposeEv 192
_ZNSt12experimental10filesystem2v17__cxx1118directory_iteratorppEv __cxa_free_exception 200
_ZNSt12experimental10filesystem2v17__cxx1118directory_iteratorppEv __cxa_end_cleanup 204
_ZNSt12experimental10filesystem2v17__cxx1118directory_iteratorppEv .LC9 216
_ZNSt12experimental10filesystem2v17__cxx1118directory_iteratorppEv _ZNSt12experimental10filesystem2v17__cxx1116filesystem_errorD1Ev 220
_ZNSt12experimental10filesystem2v17__cxx1118directory_iteratorppEv _ZTINSt12experimental10filesystem2v17__cxx1116filesystem_errorE 224
_ZNSt12experimental10filesystem2v17__cxx1128recursive_directory_iterator3popEv _ZNSt3_V215system_categoryEv 24
_ZNSt12experimental10filesystem2v17__cxx1128recursive_directory_iterator3popEv _ZNSt12experimental10filesystem2v17__cxx1128recursive_directory_iterator3popERSt10error_code 44
_ZNSt12experimental10filesystem2v17__cxx1128recursive_directory_iterator3popEv __cxa_allocate_exception 68
_ZNSt12experimental10filesystem2v17__cxx1128recursive_directory_iterator3popEv _ZNSt7__cxx1112basic_stringIcSt11char_traitsIcESaIcEEC1IS3_EEPKcRKS3_ 108
_ZNSt12experimental10filesystem2v17__cxx1128recursive_directory_iterator3popEv _ZNSt12experimental10filesystem2v17__cxx1116filesystem_errorC1ERKNSt7__cxx1112basic_stringIcSt11char_traitsIcESaIcEEESt10error_code 140
_ZNSt12experimental10filesystem2v17__cxx1128recursive_directory_iterator3popEv _ZNSt7__cxx1112basic_stringIcSt11char_traitsIcESaIcEE10_M_disposeEv 148
_ZNSt12experimental10filesystem2v17__cxx1128recursive_directory_iterator3popEv __cxa_throw 188
_ZNSt12experimental10filesystem2v17__cxx1128recursive_directory_iterator3popEv _ZNSt7__cxx1112basic_stringIcSt11char_traitsIcESaIcEE10_M_disposeEv 196
_ZNSt12experimental10filesystem2v17__cxx1128recursive_directory_iterator3popEv __cxa_free_exception 204
_ZNSt12experimental10filesystem2v17__cxx1128recursive_directory_iterator3popEv __cxa_end_cleanup 208
_ZNSt12experimental10filesystem2v17__cxx1128recursive_directory_iterator3popEv .LC11 228
_ZNSt12experimental10filesystem2v17__cxx1128recursive_directory_iterator3popEv .LC10 232
_ZNSt12experimental10filesystem2v17__cxx1128recursive_directory_iterator3popEv _ZNSt12experimental10filesystem2v17__cxx1116filesystem_errorD1Ev 236
_ZNSt12experimental10filesystem2v17__cxx1128recursive_directory_iterator3popEv _ZTINSt12experimental10filesystem2v17__cxx1116filesystem_errorE 240
_ZNSt12experimental10filesystem2v17__cxx1116filesystem_errorC1ERKNSt7__cxx1112basic_stringIcSt11char_traitsIcESaIcEEERKNS2_4pathESt10error_code,_ZNSt12experimental10filesystem2v17__cxx1116filesystem_errorC2ERKNSt7__cxx1112basic_stringIcSt11char_traitsIcESaIcEEERKNS2_4pathESt10error_code _ZNSt12system_errorC2ESt10error_codeRKNSt7__cxx1112basic_stringIcSt11char_traitsIcESaIcEEE 40
_ZNSt12experimental10filesystem2v17__cxx1116filesystem_errorC1ERKNSt7__cxx1112basic_stringIcSt11char_traitsIcESaIcEEERKNS2_4pathESt10error_code,_ZNSt12experimental10filesystem2v17__cxx1116filesystem_errorC2ERKNSt7__cxx1112basic_stringIcSt11char_traitsIcESaIcEEERKNS2_4pathESt10error_code _ZNSt12experimental10filesystem2v17__cxx114pathC1ERKS3_ 72
_ZNSt12experimental10filesystem2v17__cxx1116filesystem_errorC1ERKNSt7__cxx1112basic_stringIcSt11char_traitsIcESaIcEEERKNS2_4pathESt10error_code,_ZNSt12experimental10filesystem2v17__cxx1116filesystem_errorC2ERKNSt7__cxx1112basic_stringIcSt11char_traitsIcESaIcEEERKNS2_4pathESt10error_code _ZNSt12experimental10filesystem2v17__cxx114pathC1Ev 84
_ZNSt12experimental10filesystem2v17__cxx1116filesystem_errorC1ERKNSt7__cxx1112basic_stringIcSt11char_traitsIcESaIcEEERKNS2_4pathESt10error_code,_ZNSt12experimental10filesystem2v17__cxx1116filesystem_errorC2ERKNSt7__cxx1112basic_stringIcSt11char_traitsIcESaIcEEERKNS2_4pathESt10error_code _ZNSt12experimental10filesystem2v17__cxx1116filesystem_error11_M_gen_whatEv 96
_ZNSt12experimental10filesystem2v17__cxx1116filesystem_errorC1ERKNSt7__cxx1112basic_stringIcSt11char_traitsIcESaIcEEERKNS2_4pathESt10error_code,_ZNSt12experimental10filesystem2v17__cxx1116filesystem_errorC2ERKNSt7__cxx1112basic_stringIcSt11char_traitsIcESaIcEEERKNS2_4pathESt10error_code _ZNSt12experimental10filesystem2v17__cxx114pathD1Ev 108
_ZNSt12experimental10filesystem2v17__cxx1116filesystem_errorC1ERKNSt7__cxx1112basic_stringIcSt11char_traitsIcESaIcEEERKNS2_4pathESt10error_code,_ZNSt12experimental10filesystem2v17__cxx1116filesystem_errorC2ERKNSt7__cxx1112basic_stringIcSt11char_traitsIcESaIcEEERKNS2_4pathESt10error_code _ZNSt12experimental10filesystem2v17__cxx114pathD1Ev 116
_ZNSt12experimental10filesystem2v17__cxx1116filesystem_errorC1ERKNSt7__cxx1112basic_stringIcSt11char_traitsIcESaIcEEERKNS2_4pathESt10error_code,_ZNSt12experimental10filesystem2v17__cxx1116filesystem_errorC2ERKNSt7__cxx1112basic_stringIcSt11char_traitsIcESaIcEEERKNS2_4pathESt10error_code _ZNSt12system_errorD2Ev 124
_ZNSt12experimental10filesystem2v17__cxx1116filesystem_errorC1ERKNSt7__cxx1112basic_stringIcSt11char_traitsIcESaIcEEERKNS2_4pathESt10error_code,_ZNSt12experimental10filesystem2v17__cxx1116filesystem_errorC2ERKNSt7__cxx1112basic_stringIcSt11char_traitsIcESaIcEEERKNS2_4pathESt10error_code __cxa_end_cleanup 128
_ZNSt12experimental10filesystem2v17__cxx1116filesystem_errorC1ERKNSt7__cxx1112basic_stringIcSt11char_traitsIcESaIcEEERKNS2_4pathESt10error_code,_ZNSt12experimental10filesystem2v17__cxx1116filesystem_errorC2ERKNSt7__cxx1112basic_stringIcSt11char_traitsIcESaIcEEERKNS2_4pathESt10error_code _ZTVNSt12experimental10filesystem2v17__cxx1116filesystem_errorE 156
_ZNSt12experimental10filesystem2v17__cxx114_DirC1EOS3_,_ZNSt12experimental10filesystem2v17__cxx114_DirC2EOS3_ _ZNSt12experimental10filesystem2v17__cxx114pathC1EOS3_ 28
_ZNSt12experimental10filesystem2v17__cxx114_DirC1EOS3_,_ZNSt12experimental10filesystem2v17__cxx114_DirC2EOS3_ _ZNSt12experimental10filesystem2v17__cxx114pathC1EOS3_ 40
_ZNSt12experimental10filesystem2v17__cxx1118directory_iteratorC1ERKNS2_4pathENS1_17directory_optionsEPSt10error_code,_ZNSt12experimental10filesystem2v17__cxx1118directory_iteratorC2ERKNS2_4pathENS1_17directory_optionsEPSt10error_code _ZNSt3_V215system_categoryEv 56
_ZNSt12experimental10filesystem2v17__cxx1118directory_iteratorC1ERKNS2_4pathENS1_17directory_optionsEPSt10error_code,_ZNSt12experimental10filesystem2v17__cxx1118directory_iteratorC2ERKNS2_4pathENS1_17directory_optionsEPSt10error_code _ZNSt12experimental10filesystem2v17__cxx114_DirC1ERKNS2_4pathEbRSt10error_code 80
_ZNSt12experimental10filesystem2v17__cxx1118directory_iteratorC1ERKNS2_4pathENS1_17directory_optionsEPSt10error_code,_ZNSt12experimental10filesystem2v17__cxx1118directory_iteratorC2ERKNS2_4pathENS1_17directory_optionsEPSt10error_code _Znwj 104
_ZNSt12experimental10filesystem2v17__cxx1118directory_iteratorC1ERKNS2_4pathENS1_17directory_optionsEPSt10error_code,_ZNSt12experimental10filesystem2v17__cxx1118directory_iteratorC2ERKNS2_4pathENS1_17directory_optionsEPSt10error_code _ZNSt12experimental10filesystem2v17__cxx114_DirC1EOS3_ 152
_ZNSt12experimental10filesystem2v17__cxx1118directory_iteratorC1ERKNS2_4pathENS1_17directory_optionsEPSt10error_code,_ZNSt12experimental10filesystem2v17__cxx1118directory_iteratorC2ERKNS2_4pathENS1_17directory_optionsEPSt10error_code _ZNSt12experimental10filesystem2v17__cxx114_Dir7advanceEbRSt10error_code 180
_ZNSt12experimental10filesystem2v17__cxx1118directory_iteratorC1ERKNS2_4pathENS1_17directory_optionsEPSt10error_code,_ZNSt12experimental10filesystem2v17__cxx1118directory_iteratorC2ERKNS2_4pathENS1_17directory_optionsEPSt10error_code _ZNSt14__shared_countILN9__gnu_cxx12_Lock_policyE2EED1Ev 228
_ZNSt12experimental10filesystem2v17__cxx1118directory_iteratorC1ERKNS2_4pathENS1_17directory_optionsEPSt10error_code,_ZNSt12experimental10filesystem2v17__cxx1118directory_iteratorC2ERKNS2_4pathENS1_17directory_optionsEPSt10error_code _ZNSt12experimental10filesystem2v17__cxx114_DirD1Ev 252
_ZNSt12experimental10filesystem2v17__cxx1118directory_iteratorC1ERKNS2_4pathENS1_17directory_optionsEPSt10error_code,_ZNSt12experimental10filesystem2v17__cxx1118directory_iteratorC2ERKNS2_4pathENS1_17directory_optionsEPSt10error_code __cxa_allocate_exception 288
_ZNSt12experimental10filesystem2v17__cxx1118directory_iteratorC1ERKNS2_4pathENS1_17directory_optionsEPSt10error_code,_ZNSt12experimental10filesystem2v17__cxx1118directory_iteratorC2ERKNS2_4pathENS1_17directory_optionsEPSt10error_code _ZNSt7__cxx1112basic_stringIcSt11char_traitsIcESaIcEEC1IS3_EEPKcRKS3_ 312
_ZNSt12experimental10filesystem2v17__cxx1118directory_iteratorC1ERKNS2_4pathENS1_17directory_optionsEPSt10error_code,_ZNSt12experimental10filesystem2v17__cxx1118directory_iteratorC2ERKNS2_4pathENS1_17directory_optionsEPSt10error_code _ZNSt12experimental10filesystem2v17__cxx1116filesystem_errorC1ERKNSt7__cxx1112basic_stringIcSt11char_traitsIcESaIcEEERKNS2_4pathESt10error_code 340
_ZNSt12experimental10filesystem2v17__cxx1118directory_iteratorC1ERKNS2_4pathENS1_17directory_optionsEPSt10error_code,_ZNSt12experimental10filesystem2v17__cxx1118directory_iteratorC2ERKNS2_4pathENS1_17directory_optionsEPSt10error_code _ZNSt7__cxx1112basic_stringIcSt11char_traitsIcESaIcEE10_M_disposeEv 348
_ZNSt12experimental10filesystem2v17__cxx1118directory_iteratorC1ERKNS2_4pathENS1_17directory_optionsEPSt10error_code,_ZNSt12experimental10filesystem2v17__cxx1118directory_iteratorC2ERKNS2_4pathENS1_17directory_optionsEPSt10error_code __cxa_throw 388
_ZNSt12experimental10filesystem2v17__cxx1118directory_iteratorC1ERKNS2_4pathENS1_17directory_optionsEPSt10error_code,_ZNSt12experimental10filesystem2v17__cxx1118directory_iteratorC2ERKNS2_4pathENS1_17directory_optionsEPSt10error_code _ZNSt7__cxx1112basic_stringIcSt11char_traitsIcESaIcEE10_M_disposeEv 400
_ZNSt12experimental10filesystem2v17__cxx1118directory_iteratorC1ERKNS2_4pathENS1_17directory_optionsEPSt10error_code,_ZNSt12experimental10filesystem2v17__cxx1118directory_iteratorC2ERKNS2_4pathENS1_17directory_optionsEPSt10error_code __cxa_free_exception 408
_ZNSt12experimental10filesystem2v17__cxx1118directory_iteratorC1ERKNS2_4pathENS1_17directory_optionsEPSt10error_code,_ZNSt12experimental10filesystem2v17__cxx1118directory_iteratorC2ERKNS2_4pathENS1_17directory_optionsEPSt10error_code _ZNSt12experimental10filesystem2v17__cxx114_DirD1Ev 416
_ZNSt12experimental10filesystem2v17__cxx1118directory_iteratorC1ERKNS2_4pathENS1_17directory_optionsEPSt10error_code,_ZNSt12experimental10filesystem2v17__cxx1118directory_iteratorC2ERKNS2_4pathENS1_17directory_optionsEPSt10error_code _ZNSt14__shared_countILN9__gnu_cxx12_Lock_policyE2EED1Ev 424
_ZNSt12experimental10filesystem2v17__cxx1118directory_iteratorC1ERKNS2_4pathENS1_17directory_optionsEPSt10error_code,_ZNSt12experimental10filesystem2v17__cxx1118directory_iteratorC2ERKNS2_4pathENS1_17directory_optionsEPSt10error_code __cxa_end_cleanup 428
_ZNSt12experimental10filesystem2v17__cxx1118directory_iteratorC1ERKNS2_4pathENS1_17directory_optionsEPSt10error_code,_ZNSt12experimental10filesystem2v17__cxx1118directory_iteratorC2ERKNS2_4pathENS1_17directory_optionsEPSt10error_code _ZTVSt23_Sp_counted_ptr_inplaceINSt12experimental10filesystem2v17__cxx114_DirESaIS4_ELN9__gnu_cxx12_Lock_policyE2EE 444
_ZNSt12experimental10filesystem2v17__cxx1118directory_iteratorC1ERKNS2_4pathENS1_17directory_optionsEPSt10error_code,_ZNSt12experimental10filesystem2v17__cxx1118directory_iteratorC2ERKNS2_4pathENS1_17directory_optionsEPSt10error_code .LC12 448
_ZNSt12experimental10filesystem2v17__cxx1118directory_iteratorC1ERKNS2_4pathENS1_17directory_optionsEPSt10error_code,_ZNSt12experimental10filesystem2v17__cxx1118directory_iteratorC2ERKNS2_4pathENS1_17directory_optionsEPSt10error_code _ZNSt12experimental10filesystem2v17__cxx1116filesystem_errorD1Ev 452
_ZNSt12experimental10filesystem2v17__cxx1118directory_iteratorC1ERKNS2_4pathENS1_17directory_optionsEPSt10error_code,_ZNSt12experimental10filesystem2v17__cxx1118directory_iteratorC2ERKNS2_4pathENS1_17directory_optionsEPSt10error_code _ZTINSt12experimental10filesystem2v17__cxx1116filesystem_errorE 456
_ZNSt5dequeINSt12experimental10filesystem2v17__cxx114_DirESaIS4_EE12emplace_backIJS4_EEERS4_DpOT_ _ZNSt12experimental10filesystem2v17__cxx114_DirC1EOS3_ 28
_ZNSt5dequeINSt12experimental10filesystem2v17__cxx114_DirESaIS4_EE12emplace_backIJS4_EEERS4_DpOT_ _ZNSt5dequeINSt12experimental10filesystem2v17__cxx114_DirESaIS4_EE4backEv 52
_ZNSt5dequeINSt12experimental10filesystem2v17__cxx114_DirESaIS4_EE12emplace_backIJS4_EEERS4_DpOT_ _Znwj 208
_ZNSt5dequeINSt12experimental10filesystem2v17__cxx114_DirESaIS4_EE12emplace_backIJS4_EEERS4_DpOT_ _ZNSt12experimental10filesystem2v17__cxx114_DirC1EOS3_ 224
_ZNSt5dequeINSt12experimental10filesystem2v17__cxx114_DirESaIS4_EE12emplace_backIJS4_EEERS4_DpOT_ memmove 280
_ZNSt5dequeINSt12experimental10filesystem2v17__cxx114_DirESaIS4_EE12emplace_backIJS4_EEERS4_DpOT_ _ZSt17__throw_bad_allocv 316
_ZNSt5dequeINSt12experimental10filesystem2v17__cxx114_DirESaIS4_EE12emplace_backIJS4_EEERS4_DpOT_ _Znwj 332
_ZNSt5dequeINSt12experimental10filesystem2v17__cxx114_DirESaIS4_EE12emplace_backIJS4_EEERS4_DpOT_ memmove 372
_ZNSt5dequeINSt12experimental10filesystem2v17__cxx114_DirESaIS4_EE12emplace_backIJS4_EEERS4_DpOT_ _ZdlPv 380
_ZNSt12experimental10filesystem2v17__cxx1128recursive_directory_iterator9incrementERSt10error_code _ZNSt3_V216generic_categoryEv 28
_ZNSt12experimental10filesystem2v17__cxx1128recursive_directory_iterator9incrementERSt10error_code _ZNSt5dequeINSt12experimental10filesystem2v17__cxx114_DirESaIS4_EE4backEv 56
_ZNSt12experimental10filesystem2v17__cxx1128recursive_directory_iterator9incrementERSt10error_code _ZNSt12experimental10filesystem2v114symlink_statusERKNS1_7__cxx114pathERSt10error_code 116
_ZNSt12experimental10filesystem2v17__cxx1128recursive_directory_iterator9incrementERSt10error_code _ZNSt12experimental10filesystem2v17__cxx114_DirC1ERKNS2_4pathEbRSt10error_code 164
_ZNSt12experimental10filesystem2v17__cxx1128recursive_directory_iterator9incrementERSt10error_code _ZNSt12__shared_ptrINSt12experimental10filesystem2v17__cxx1128recursive_directory_iterator10_Dir_stackELN9__gnu_cxx12_Lock_policyE2EE5resetEv 184
_ZNSt12experimental10filesystem2v17__cxx1128recursive_directory_iterator9incrementERSt10error_code _ZNSt12experimental10filesystem2v17__cxx114_DirD1Ev 192
_ZNSt12experimental10filesystem2v17__cxx1128recursive_directory_iterator9incrementERSt10error_code _ZNSt12experimental10filesystem2v16statusERKNS1_7__cxx114pathERSt10error_code 232
_ZNSt12experimental10filesystem2v17__cxx1128recursive_directory_iterator9incrementERSt10error_code _ZNSt5dequeINSt12experimental10filesystem2v17__cxx114_DirESaIS4_EE4backEv 252
_ZNSt12experimental10filesystem2v17__cxx1128recursive_directory_iterator9incrementERSt10error_code _ZNSt12experimental10filesystem2v17__cxx114_Dir7advanceEbRSt10error_code 264
_ZNSt12experimental10filesystem2v17__cxx1128recursive_directory_iterator9incrementERSt10error_code _ZNSt5dequeINSt12experimental10filesystem2v17__cxx114_DirESaIS4_EE8pop_backEv 292
_ZNSt12experimental10filesystem2v17__cxx1128recursive_directory_iterator9incrementERSt10error_code _ZNSt12__shared_ptrINSt12experimental10filesystem2v17__cxx1128recursive_directory_iterator10_Dir_stackELN9__gnu_cxx12_Lock_policyE2EE5resetEv 320
_ZNSt12experimental10filesystem2v17__cxx1128recursive_directory_iterator9incrementERSt10error_code _ZNSt5dequeINSt12experimental10filesystem2v17__cxx114_DirESaIS4_EE12emplace_backIJS4_EEERS4_DpOT_ 348
_ZNSt12experimental10filesystem2v17__cxx1128recursive_directory_iterator9incrementERSt10error_code _ZNSt12experimental10filesystem2v17__cxx114_DirD1Ev 356
_ZNSt12experimental10filesystem2v17__cxx1128recursive_directory_iteratorppEv _ZNSt3_V215system_categoryEv 24
_ZNSt12experimental10filesystem2v17__cxx1128recursive_directory_iteratorppEv _ZNSt12experimental10filesystem2v17__cxx1128recursive_directory_iterator9incrementERSt10error_code 44
_ZNSt12experimental10filesystem2v17__cxx1128recursive_directory_iteratorppEv __cxa_allocate_exception 72
_ZNSt12experimental10filesystem2v17__cxx1128recursive_directory_iteratorppEv _ZNSt7__cxx1112basic_stringIcSt11char_traitsIcESaIcEEC1IS3_EEPKcRKS3_ 96
_ZNSt12experimental10filesystem2v17__cxx1128recursive_directory_iteratorppEv _ZNSt12experimental10filesystem2v17__cxx1116filesystem_errorC1ERKNSt7__cxx1112basic_stringIcSt11char_traitsIcESaIcEEESt10error_code 112
_ZNSt12experimental10filesystem2v17__cxx1128recursive_directory_iteratorppEv _ZNSt7__cxx1112basic_stringIcSt11char_traitsIcESaIcEE10_M_disposeEv 120
_ZNSt12experimental10filesystem2v17__cxx1128recursive_directory_iteratorppEv __cxa_throw 160
_ZNSt12experimental10filesystem2v17__cxx1128recursive_directory_iteratorppEv _ZNSt7__cxx1112basic_stringIcSt11char_traitsIcESaIcEE10_M_disposeEv 168
_ZNSt12experimental10filesystem2v17__cxx1128recursive_directory_iteratorppEv __cxa_free_exception 176
_ZNSt12experimental10filesystem2v17__cxx1128recursive_directory_iteratorppEv __cxa_end_cleanup 180
_ZNSt12experimental10filesystem2v17__cxx1128recursive_directory_iteratorppEv .LC13 204
_ZNSt12experimental10filesystem2v17__cxx1128recursive_directory_iteratorppEv _ZNSt12experimental10filesystem2v17__cxx1116filesystem_errorD1Ev 208
_ZNSt12experimental10filesystem2v17__cxx1128recursive_directory_iteratorppEv _ZTINSt12experimental10filesystem2v17__cxx1116filesystem_errorE 212
_ZNSt12experimental10filesystem2v17__cxx1128recursive_directory_iteratorC1ERKNS2_4pathENS1_17directory_optionsEPSt10error_code,_ZNSt12experimental10filesystem2v17__cxx1128recursive_directory_iteratorC2ERKNS2_4pathENS1_17directory_optionsEPSt10error_code _ZNSt3_V215system_categoryEv 60
_ZNSt12experimental10filesystem2v17__cxx1128recursive_directory_iteratorC1ERKNS2_4pathENS1_17directory_optionsEPSt10error_code,_ZNSt12experimental10filesystem2v17__cxx1128recursive_directory_iteratorC2ERKNS2_4pathENS1_17directory_optionsEPSt10error_code opendir 76
_ZNSt12experimental10filesystem2v17__cxx1128recursive_directory_iteratorC1ERKNS2_4pathENS1_17directory_optionsEPSt10error_code,_ZNSt12experimental10filesystem2v17__cxx1128recursive_directory_iteratorC2ERKNS2_4pathENS1_17directory_optionsEPSt10error_code _Znwj 104
_ZNSt12experimental10filesystem2v17__cxx1128recursive_directory_iteratorC1ERKNS2_4pathENS1_17directory_optionsEPSt10error_code,_ZNSt12experimental10filesystem2v17__cxx1128recursive_directory_iteratorC2ERKNS2_4pathENS1_17directory_optionsEPSt10error_code _Znwj 196
_ZNSt12experimental10filesystem2v17__cxx1128recursive_directory_iteratorC1ERKNS2_4pathENS1_17directory_optionsEPSt10error_code,_ZNSt12experimental10filesystem2v17__cxx1128recursive_directory_iteratorC2ERKNS2_4pathENS1_17directory_optionsEPSt10error_code _Znwj 228
_ZNSt12experimental10filesystem2v17__cxx1128recursive_directory_iteratorC1ERKNS2_4pathENS1_17directory_optionsEPSt10error_code,_ZNSt12experimental10filesystem2v17__cxx1128recursive_directory_iteratorC2ERKNS2_4pathENS1_17directory_optionsEPSt10error_code _ZNSt12experimental10filesystem2v17__cxx114pathC1ERKS3_ 304
_ZNSt12experimental10filesystem2v17__cxx1128recursive_directory_iteratorC1ERKNS2_4pathENS1_17directory_optionsEPSt10error_code,_ZNSt12experimental10filesystem2v17__cxx1128recursive_directory_iteratorC2ERKNS2_4pathENS1_17directory_optionsEPSt10error_code __cxa_begin_catch 312
_ZNSt12experimental10filesystem2v17__cxx1128recursive_directory_iteratorC1ERKNS2_4pathENS1_17directory_optionsEPSt10error_code,_ZNSt12experimental10filesystem2v17__cxx1128recursive_directory_iteratorC2ERKNS2_4pathENS1_17directory_optionsEPSt10error_code __cxa_rethrow 316
_ZNSt12experimental10filesystem2v17__cxx1128recursive_directory_iteratorC1ERKNS2_4pathENS1_17directory_optionsEPSt10error_code,_ZNSt12experimental10filesystem2v17__cxx1128recursive_directory_iteratorC2ERKNS2_4pathENS1_17directory_optionsEPSt10error_code __cxa_end_catch 324
_ZNSt12experimental10filesystem2v17__cxx1128recursive_directory_iteratorC1ERKNS2_4pathENS1_17directory_optionsEPSt10error_code,_ZNSt12experimental10filesystem2v17__cxx1128recursive_directory_iteratorC2ERKNS2_4pathENS1_17directory_optionsEPSt10error_code __cxa_begin_catch 332
_ZNSt12experimental10filesystem2v17__cxx1128recursive_directory_iteratorC1ERKNS2_4pathENS1_17directory_optionsEPSt10error_code,_ZNSt12experimental10filesystem2v17__cxx1128recursive_directory_iteratorC2ERKNS2_4pathENS1_17directory_optionsEPSt10error_code _ZdlPv 340
_ZNSt12experimental10filesystem2v17__cxx1128recursive_directory_iteratorC1ERKNS2_4pathENS1_17directory_optionsEPSt10error_code,_ZNSt12experimental10filesystem2v17__cxx1128recursive_directory_iteratorC2ERKNS2_4pathENS1_17directory_optionsEPSt10error_code __cxa_rethrow 356
_ZNSt12experimental10filesystem2v17__cxx1128recursive_directory_iteratorC1ERKNS2_4pathENS1_17directory_optionsEPSt10error_code,_ZNSt12experimental10filesystem2v17__cxx1128recursive_directory_iteratorC2ERKNS2_4pathENS1_17directory_optionsEPSt10error_code __cxa_end_catch 360
_ZNSt12experimental10filesystem2v17__cxx1128recursive_directory_iteratorC1ERKNS2_4pathENS1_17directory_optionsEPSt10error_code,_ZNSt12experimental10filesystem2v17__cxx1128recursive_directory_iteratorC2ERKNS2_4pathENS1_17directory_optionsEPSt10error_code _ZdlPv 368
_ZNSt12experimental10filesystem2v17__cxx1128recursive_directory_iteratorC1ERKNS2_4pathENS1_17directory_optionsEPSt10error_code,_ZNSt12experimental10filesystem2v17__cxx1128recursive_directory_iteratorC2ERKNS2_4pathENS1_17directory_optionsEPSt10error_code _ZNSt14__shared_countILN9__gnu_cxx12_Lock_policyE2EED1Ev 376
_ZNSt12experimental10filesystem2v17__cxx1128recursive_directory_iteratorC1ERKNS2_4pathENS1_17directory_optionsEPSt10error_code,_ZNSt12experimental10filesystem2v17__cxx1128recursive_directory_iteratorC2ERKNS2_4pathENS1_17directory_optionsEPSt10error_code __cxa_end_cleanup 380
_ZNSt12experimental10filesystem2v17__cxx1128recursive_directory_iteratorC1ERKNS2_4pathENS1_17directory_optionsEPSt10error_code,_ZNSt12experimental10filesystem2v17__cxx1128recursive_directory_iteratorC2ERKNS2_4pathENS1_17directory_optionsEPSt10error_code _ZNSt12experimental10filesystem2v17__cxx114pathC1Ev 392
_ZNSt12experimental10filesystem2v17__cxx1128recursive_directory_iteratorC1ERKNS2_4pathENS1_17directory_optionsEPSt10error_code,_ZNSt12experimental10filesystem2v17__cxx1128recursive_directory_iteratorC2ERKNS2_4pathENS1_17directory_optionsEPSt10error_code _ZNSt5dequeINSt12experimental10filesystem2v17__cxx114_DirESaIS4_EE12emplace_backIJS4_EEERS4_DpOT_ 412
_ZNSt12experimental10filesystem2v17__cxx1128recursive_directory_iteratorC1ERKNS2_4pathENS1_17directory_optionsEPSt10error_code,_ZNSt12experimental10filesystem2v17__cxx1128recursive_directory_iteratorC2ERKNS2_4pathENS1_17directory_optionsEPSt10error_code _ZNSt10filesystem9_Dir_baseD2Ev 424
_ZNSt12experimental10filesystem2v17__cxx1128recursive_directory_iteratorC1ERKNS2_4pathENS1_17directory_optionsEPSt10error_code,_ZNSt12experimental10filesystem2v17__cxx1128recursive_directory_iteratorC2ERKNS2_4pathENS1_17directory_optionsEPSt10error_code _ZNSt14__shared_countILN9__gnu_cxx12_Lock_policyE2EED1Ev 432
_ZNSt12experimental10filesystem2v17__cxx1128recursive_directory_iteratorC1ERKNS2_4pathENS1_17directory_optionsEPSt10error_code,_ZNSt12experimental10filesystem2v17__cxx1128recursive_directory_iteratorC2ERKNS2_4pathENS1_17directory_optionsEPSt10error_code _ZNSt12experimental10filesystem2v17__cxx114_DirD1Ev 444
_ZNSt12experimental10filesystem2v17__cxx1128recursive_directory_iteratorC1ERKNS2_4pathENS1_17directory_optionsEPSt10error_code,_ZNSt12experimental10filesystem2v17__cxx1128recursive_directory_iteratorC2ERKNS2_4pathENS1_17directory_optionsEPSt10error_code _ZNSt5dequeINSt12experimental10filesystem2v17__cxx114_DirESaIS4_EE4backEv 452
_ZNSt12experimental10filesystem2v17__cxx1128recursive_directory_iteratorC1ERKNS2_4pathENS1_17directory_optionsEPSt10error_code,_ZNSt12experimental10filesystem2v17__cxx1128recursive_directory_iteratorC2ERKNS2_4pathENS1_17directory_optionsEPSt10error_code _ZNSt12experimental10filesystem2v17__cxx114_Dir7advanceEb 464
_ZNSt12experimental10filesystem2v17__cxx1128recursive_directory_iteratorC1ERKNS2_4pathENS1_17directory_optionsEPSt10error_code,_ZNSt12experimental10filesystem2v17__cxx1128recursive_directory_iteratorC2ERKNS2_4pathENS1_17directory_optionsEPSt10error_code _ZNSt14__shared_countILN9__gnu_cxx12_Lock_policyE2EED1Ev 512
_ZNSt12experimental10filesystem2v17__cxx1128recursive_directory_iteratorC1ERKNS2_4pathENS1_17directory_optionsEPSt10error_code,_ZNSt12experimental10filesystem2v17__cxx1128recursive_directory_iteratorC2ERKNS2_4pathENS1_17directory_optionsEPSt10error_code __errno_location 528
_ZNSt12experimental10filesystem2v17__cxx1128recursive_directory_iteratorC1ERKNS2_4pathENS1_17directory_optionsEPSt10error_code,_ZNSt12experimental10filesystem2v17__cxx1128recursive_directory_iteratorC2ERKNS2_4pathENS1_17directory_optionsEPSt10error_code __cxa_allocate_exception 568
_ZNSt12experimental10filesystem2v17__cxx1128recursive_directory_iteratorC1ERKNS2_4pathENS1_17directory_optionsEPSt10error_code,_ZNSt12experimental10filesystem2v17__cxx1128recursive_directory_iteratorC2ERKNS2_4pathENS1_17directory_optionsEPSt10error_code _ZNSt7__cxx1112basic_stringIcSt11char_traitsIcESaIcEEC1IS3_EEPKcRKS3_ 592
_ZNSt12experimental10filesystem2v17__cxx1128recursive_directory_iteratorC1ERKNS2_4pathENS1_17directory_optionsEPSt10error_code,_ZNSt12experimental10filesystem2v17__cxx1128recursive_directory_iteratorC2ERKNS2_4pathENS1_17directory_optionsEPSt10error_code _ZNSt3_V216generic_categoryEv 596
_ZNSt12experimental10filesystem2v17__cxx1128recursive_directory_iteratorC1ERKNS2_4pathENS1_17directory_optionsEPSt10error_code,_ZNSt12experimental10filesystem2v17__cxx1128recursive_directory_iteratorC2ERKNS2_4pathENS1_17directory_optionsEPSt10error_code _ZNSt12experimental10filesystem2v17__cxx1116filesystem_errorC1ERKNSt7__cxx1112basic_stringIcSt11char_traitsIcESaIcEEERKNS2_4pathESt10error_code 628
_ZNSt12experimental10filesystem2v17__cxx1128recursive_directory_iteratorC1ERKNS2_4pathENS1_17directory_optionsEPSt10error_code,_ZNSt12experimental10filesystem2v17__cxx1128recursive_directory_iteratorC2ERKNS2_4pathENS1_17directory_optionsEPSt10error_code _ZNSt7__cxx1112basic_stringIcSt11char_traitsIcESaIcEE10_M_disposeEv 636
_ZNSt12experimental10filesystem2v17__cxx1128recursive_directory_iteratorC1ERKNS2_4pathENS1_17directory_optionsEPSt10error_code,_ZNSt12experimental10filesystem2v17__cxx1128recursive_directory_iteratorC2ERKNS2_4pathENS1_17directory_optionsEPSt10error_code __cxa_throw 676
_ZNSt12experimental10filesystem2v17__cxx1128recursive_directory_iteratorC1ERKNS2_4pathENS1_17directory_optionsEPSt10error_code,_ZNSt12experimental10filesystem2v17__cxx1128recursive_directory_iteratorC2ERKNS2_4pathENS1_17directory_optionsEPSt10error_code _ZNSt3_V216generic_categoryEv 684
_ZNSt12experimental10filesystem2v17__cxx1128recursive_directory_iteratorC1ERKNS2_4pathENS1_17directory_optionsEPSt10error_code,_ZNSt12experimental10filesystem2v17__cxx1128recursive_directory_iteratorC2ERKNS2_4pathENS1_17directory_optionsEPSt10error_code _ZNSt12experimental10filesystem2v17__cxx114_DirD1Ev 704
_ZNSt12experimental10filesystem2v17__cxx1128recursive_directory_iteratorC1ERKNS2_4pathENS1_17directory_optionsEPSt10error_code,_ZNSt12experimental10filesystem2v17__cxx1128recursive_directory_iteratorC2ERKNS2_4pathENS1_17directory_optionsEPSt10error_code _ZNSt7__cxx1112basic_stringIcSt11char_traitsIcESaIcEE10_M_disposeEv 720
_ZNSt12experimental10filesystem2v17__cxx1128recursive_directory_iteratorC1ERKNS2_4pathENS1_17directory_optionsEPSt10error_code,_ZNSt12experimental10filesystem2v17__cxx1128recursive_directory_iteratorC2ERKNS2_4pathENS1_17directory_optionsEPSt10error_code __cxa_free_exception 728
_ZNSt12experimental10filesystem2v17__cxx1128recursive_directory_iteratorC1ERKNS2_4pathENS1_17directory_optionsEPSt10error_code,_ZNSt12experimental10filesystem2v17__cxx1128recursive_directory_iteratorC2ERKNS2_4pathENS1_17directory_optionsEPSt10error_code _ZTVSt23_Sp_counted_ptr_inplaceINSt12experimental10filesystem2v17__cxx1128recursive_directory_iterator10_Dir_stackESaIS5_ELN9__gnu_cxx12_Lock_policyE2EE 744
_ZNSt12experimental10filesystem2v17__cxx1128recursive_directory_iteratorC1ERKNS2_4pathENS1_17directory_optionsEPSt10error_code,_ZNSt12experimental10filesystem2v17__cxx1128recursive_directory_iteratorC2ERKNS2_4pathENS1_17directory_optionsEPSt10error_code .LC14 748
_ZNSt12experimental10filesystem2v17__cxx1128recursive_directory_iteratorC1ERKNS2_4pathENS1_17directory_optionsEPSt10error_code,_ZNSt12experimental10filesystem2v17__cxx1128recursive_directory_iteratorC2ERKNS2_4pathENS1_17directory_optionsEPSt10error_code _ZNSt12experimental10filesystem2v17__cxx1116filesystem_errorD1Ev 752
_ZNSt12experimental10filesystem2v17__cxx1128recursive_directory_iteratorC1ERKNS2_4pathENS1_17directory_optionsEPSt10error_code,_ZNSt12experimental10filesystem2v17__cxx1128recursive_directory_iteratorC2ERKNS2_4pathENS1_17directory_optionsEPSt10error_code _ZTINSt12experimental10filesystem2v17__cxx1116filesystem_errorE 756
_ZNSt12_Destroy_auxILb0EE9__destroyIPNSt12experimental10filesystem2v17__cxx114_DirEEEvT_S8_ _ZNSt12experimental10filesystem2v17__cxx114_DirD1Ev 28
_ZNSt11_Deque_baseINSt12experimental10filesystem2v17__cxx114_DirESaIS4_EED1Ev,_ZNSt11_Deque_baseINSt12experimental10filesystem2v17__cxx114_DirESaIS4_EED2Ev _ZdlPv 44
_ZNSt11_Deque_baseINSt12experimental10filesystem2v17__cxx114_DirESaIS4_EED1Ev,_ZNSt11_Deque_baseINSt12experimental10filesystem2v17__cxx114_DirESaIS4_EED2Ev _ZdlPv 56
_ZNSt23_Sp_counted_ptr_inplaceINSt12experimental10filesystem2v17__cxx1128recursive_directory_iterator10_Dir_stackESaIS5_ELN9__gnu_cxx12_Lock_policyE2EE10_M_disposeEv _ZNSt12_Destroy_auxILb0EE9__destroyIPNSt12experimental10filesystem2v17__cxx114_DirEEEvT_S8_ 52
_ZNSt23_Sp_counted_ptr_inplaceINSt12experimental10filesystem2v17__cxx1128recursive_directory_iterator10_Dir_stackESaIS5_ELN9__gnu_cxx12_Lock_policyE2EE10_M_disposeEv _ZNSt12_Destroy_auxILb0EE9__destroyIPNSt12experimental10filesystem2v17__cxx114_DirEEEvT_S8_ 84
_ZNSt23_Sp_counted_ptr_inplaceINSt12experimental10filesystem2v17__cxx1128recursive_directory_iterator10_Dir_stackESaIS5_ELN9__gnu_cxx12_Lock_policyE2EE10_M_disposeEv _ZNSt12_Destroy_auxILb0EE9__destroyIPNSt12experimental10filesystem2v17__cxx114_DirEEEvT_S8_ 96
_ZNSt23_Sp_counted_ptr_inplaceINSt12experimental10filesystem2v17__cxx1128recursive_directory_iterator10_Dir_stackESaIS5_ELN9__gnu_cxx12_Lock_policyE2EE10_M_disposeEv _ZNSt11_Deque_baseINSt12experimental10filesystem2v17__cxx114_DirESaIS4_EED2Ev 108
_ZNSt10unique_ptrIA_cN12_GLOBAL__N_117free_as_in_mallocEED1Ev,_ZNSt10unique_ptrIA_cN12_GLOBAL__N_117free_as_in_mallocEED2Ev free 20
_ZNSt12experimental10filesystem2v111resize_fileERKNS1_7__cxx114pathEyRSt10error_code.part.40,_ZNSt12experimental10filesystem2v112current_pathERKNS1_7__cxx114pathERSt10error_code.part.36,_ZNSt12experimental10filesystem2v114create_symlinkERKNS1_7__cxx114pathES5_RSt10error_code.part.35,_ZNSt12experimental10filesystem2v116create_hard_linkERKNS1_7__cxx114pathES5_RSt10error_code.part.34,_ZNSt12experimental10filesystem2v15spaceERKNS1_7__cxx114pathERSt10error_code.part.41,_ZNSt12experimental10filesystem2v16renameERKNS1_7__cxx114pathES5_RSt10error_code.part.39 __errno_location 8
_ZNSt12experimental10filesystem2v111resize_fileERKNS1_7__cxx114pathEyRSt10error_code.part.40,_ZNSt12experimental10filesystem2v112current_pathERKNS1_7__cxx114pathERSt10error_code.part.36,_ZNSt12experimental10filesystem2v114create_symlinkERKNS1_7__cxx114pathES5_RSt10error_code.part.35,_ZNSt12experimental10filesystem2v116create_hard_linkERKNS1_7__cxx114pathES5_RSt10error_code.part.34,_ZNSt12experimental10filesystem2v15spaceERKNS1_7__cxx114pathERSt10error_code.part.41,_ZNSt12experimental10filesystem2v16renameERKNS1_7__cxx114pathES5_RSt10error_code.part.39 _ZNSt3_V216generic_categoryEv 16
_ZNSt7__cxx1112basic_stringIcSt11char_traitsIcESaIcEE9_M_createERjj.isra.84 _ZSt20__throw_length_errorPKc 24
_ZNSt7__cxx1112basic_stringIcSt11char_traitsIcESaIcEE9_M_createERjj.isra.84 _Znwj 72
_ZNSt7__cxx1112basic_stringIcSt11char_traitsIcESaIcEE9_M_createERjj.isra.84 .LC6 76
_ZNSt12_Vector_baseINSt12experimental10filesystem2v17__cxx114path5_CmptESaIS5_EE13_M_deallocateEPS5_j.isra.87 _ZdlPv 8
_ZNSt11_Deque_baseINSt12experimental10filesystem2v17__cxx114pathESaIS4_EE16_M_destroy_nodesEPPS4_S8_.isra.107 _ZdlPv 24
_ZNSt11char_traitsIcE4copyEPcPKcj memcpy 8
_ZNSt10error_codeC1Ev,_ZNSt10error_codeC2Ev _ZNSt3_V215system_categoryEv 16
_ZNSt10error_code5clearEv _ZNSt3_V215system_categoryEv 8
_ZNSt12experimental10filesystem2v17__cxx114path4swapERS3_ _ZNSt11char_traitsIcE4copyEPcPKcj 92
_ZNSt12experimental10filesystem2v17__cxx114path4swapERS3_ _ZNSt11char_traitsIcE4copyEPcPKcj 108
_ZNSt12experimental10filesystem2v17__cxx114path4swapERS3_ _ZNSt11char_traitsIcE4copyEPcPKcj 124
_ZNSt12experimental10filesystem2v17__cxx114path4swapERS3_ _ZNSt11char_traitsIcE4copyEPcPKcj 168
_ZNSt12experimental10filesystem2v17__cxx114path4swapERS3_ _ZNSt11char_traitsIcE4copyEPcPKcj 272
_ZNSt12experimental10filesystem2v17__cxx114path4swapERS3_ _ZNSt11char_traitsIcE4copyEPcPKcj 316
_ZNSt12experimental10filesystem2v17__cxx114path4swapERS3_ _ZNSt11char_traitsIcE4copyEPcPKcj 364
_ZSt9__advanceINSt12experimental10filesystem2v17__cxx114path8iteratorEiEvRT_T0_St26bidirectional_iterator_tag.isra.88 _ZNSt12experimental10filesystem2v17__cxx114path8iteratorppEv 32
_ZNSt12experimental10filesystem16make_file_statusERK4stat _ZNSt12experimental10filesystem14make_file_typeERK4stat 16
_ZNSt12__shared_ptrINSt12experimental10filesystem2v17__cxx114_DirELN9__gnu_cxx12_Lock_policyE2EEC1ERKS7_,_ZNSt12__shared_ptrINSt12experimental10filesystem2v17__cxx114_DirELN9__gnu_cxx12_Lock_policyE2EEC2ERKS7_ __pthread_key_create 104
_ZNSt12experimental10filesystem2v19copy_fileERKNS1_7__cxx114pathES5_NS1_12copy_optionsERSt10error_code _ZNSt12experimental10filesystem17copy_file_optionsENS0_2v112copy_optionsE 20
_ZNSt12experimental10filesystem2v19copy_fileERKNS1_7__cxx114pathES5_NS1_12copy_optionsERSt10error_code _ZNSt10filesystem12do_copy_fileEPKcS1_NS_26copy_options_existing_fileEP4statS4_RSt10error_code 68
_ZNSt12experimental10filesystem2v116create_hard_linkERKNS1_7__cxx114pathES5_RSt10error_code link 16
_ZNSt12experimental10filesystem2v116create_hard_linkERKNS1_7__cxx114pathES5_RSt10error_code _ZNSt12experimental10filesystem2v116create_hard_linkERKNS1_7__cxx114pathES5_RSt10error_code.part.34 36
_ZNSt12experimental10filesystem2v116create_hard_linkERKNS1_7__cxx114pathES5_RSt10error_code _ZNSt10error_code5clearEv 44
_ZNSt12experimental10filesystem2v114create_symlinkERKNS1_7__cxx114pathES5_RSt10error_code symlink 16
_ZNSt12experimental10filesystem2v114create_symlinkERKNS1_7__cxx114pathES5_RSt10error_code _ZNSt12experimental10filesystem2v114create_symlinkERKNS1_7__cxx114pathES5_RSt10error_code.part.35 36
_ZNSt12experimental10filesystem2v114create_symlinkERKNS1_7__cxx114pathES5_RSt10error_code _ZNSt10error_code5clearEv 44
_ZNSt12experimental10filesystem2v124create_directory_symlinkERKNS1_7__cxx114pathES5_RSt10error_code _ZNSt12experimental10filesystem2v114create_symlinkERKNS1_7__cxx114pathES5_RSt10error_code 0
_ZNSt12experimental10filesystem2v112current_pathERKNS1_7__cxx114pathERSt10error_code chdir 12
_ZNSt12experimental10filesystem2v112current_pathERKNS1_7__cxx114pathERSt10error_code _ZNSt12experimental10filesystem2v112current_pathERKNS1_7__cxx114pathERSt10error_code.part.36 32
_ZNSt12experimental10filesystem2v112current_pathERKNS1_7__cxx114pathERSt10error_code _ZNSt10error_code5clearEv 40
_ZNSt12experimental10filesystem2v110equivalentERKNS1_7__cxx114pathES5_RSt10error_code stat64 28
_ZNSt12experimental10filesystem2v110equivalentERKNS1_7__cxx114pathES5_RSt10error_code _ZNSt12experimental10filesystem16make_file_statusERK4stat 48
_ZNSt12experimental10filesystem2v110equivalentERKNS1_7__cxx114pathES5_RSt10error_code stat64 68
_ZNSt12experimental10filesystem2v110equivalentERKNS1_7__cxx114pathES5_RSt10error_code _ZNSt12experimental10filesystem16make_file_statusERK4stat 88
_ZNSt12experimental10filesystem2v110equivalentERKNS1_7__cxx114pathES5_RSt10error_code _ZNSt12experimental10filesystem2v18is_otherENS1_11file_statusE.isra.21 132
_ZNSt12experimental10filesystem2v110equivalentERKNS1_7__cxx114pathES5_RSt10error_code _ZNSt12experimental10filesystem2v18is_otherENS1_11file_statusE.isra.21 148
_ZNSt12experimental10filesystem2v110equivalentERKNS1_7__cxx114pathES5_RSt10error_code _ZNSt10error_code5clearEv 164
_ZNSt12experimental10filesystem2v110equivalentERKNS1_7__cxx114pathES5_RSt10error_code __errno_location 184
_ZNSt12experimental10filesystem2v110equivalentERKNS1_7__cxx114pathES5_RSt10error_code __errno_location 228
_ZNSt12experimental10filesystem2v110equivalentERKNS1_7__cxx114pathES5_RSt10error_code _ZNSt3_V216generic_categoryEv 272
_ZNSt12experimental10filesystem2v110equivalentERKNS1_7__cxx114pathES5_RSt10error_code _ZNSt12experimental10filesystem2v18is_otherENS1_11file_statusE.isra.21 296
_ZNSt12experimental10filesystem2v110equivalentERKNS1_7__cxx114pathES5_RSt10error_code _ZNSt10error_code5clearEv 384
_ZNSt12experimental10filesystem2v110equivalentERKNS1_7__cxx114pathES5_RSt10error_code _ZNSt3_V216generic_categoryEv 392
_ZNSt12experimental10filesystem2v110equivalentERKNS1_7__cxx114pathES5_RSt10error_code _ZNSt3_V216generic_categoryEv 404
_ZNSt12experimental10filesystem2v19file_sizeERKNS1_7__cxx114pathERSt10error_code stat64 24
_ZNSt12experimental10filesystem2v19file_sizeERKNS1_7__cxx114pathERSt10error_code __errno_location 36
_ZNSt12experimental10filesystem2v19file_sizeERKNS1_7__cxx114pathERSt10error_code _ZNSt3_V216generic_categoryEv 44
_ZNSt12experimental10filesystem2v19file_sizeERKNS1_7__cxx114pathERSt10error_code _ZNSt3_V216generic_categoryEv 72
_ZNSt12experimental10filesystem2v19file_sizeERKNS1_7__cxx114pathERSt10error_code _ZNSt10error_code5clearEv 112
_ZNSt12experimental10filesystem2v19file_sizeERKNS1_7__cxx114pathERSt10error_code _ZNSt12experimental10filesystem14make_file_typeERK4stat 120
_ZNSt12experimental10filesystem2v115hard_link_countERKNS1_7__cxx114pathERSt10error_code stat64 20
_ZNSt12experimental10filesystem2v115hard_link_countERKNS1_7__cxx114pathERSt10error_code __errno_location 32
_ZNSt12experimental10filesystem2v115hard_link_countERKNS1_7__cxx114pathERSt10error_code _ZNSt3_V216generic_categoryEv 40
_ZNSt12experimental10filesystem2v115hard_link_countERKNS1_7__cxx114pathERSt10error_code _ZNSt10error_code5clearEv 72
_ZNSt12experimental10filesystem2v115last_write_timeERKNS1_7__cxx114pathERSt10error_code stat64 28
_ZNSt12experimental10filesystem2v115last_write_timeERKNS1_7__cxx114pathERSt10error_code __errno_location 40
_ZNSt12experimental10filesystem2v115last_write_timeERKNS1_7__cxx114pathERSt10error_code _ZNSt3_V216generic_categoryEv 48
_ZNSt12experimental10filesystem2v115last_write_timeERKNS1_7__cxx114pathERSt10error_code _ZNSt10error_code5clearEv 88
_ZNSt12experimental10filesystem2v115last_write_timeERKNS1_7__cxx114pathERSt10error_code _ZNSt10error_code5clearEv 104
_ZNSt12experimental10filesystem2v115last_write_timeERKNS1_7__cxx114pathENSt6chrono10time_pointINS6_3_V212system_clockENS6_8durationIxSt5ratioILx1ELx1000000000EEEEEERSt10error_code __aeabi_ldivmod 32
_ZNSt12experimental10filesystem2v115last_write_timeERKNS1_7__cxx114pathENSt6chrono10time_pointINS6_3_V212system_clockENS6_8durationIxSt5ratioILx1ELx1000000000EEEEEERSt10error_code __aeabi_ldivmod 56
_ZNSt12experimental10filesystem2v115last_write_timeERKNS1_7__cxx114pathENSt6chrono10time_pointINS6_3_V212system_clockENS6_8durationIxSt5ratioILx1ELx1000000000EEEEEERSt10error_code utimensat 120
_ZNSt12experimental10filesystem2v115last_write_timeERKNS1_7__cxx114pathENSt6chrono10time_pointINS6_3_V212system_clockENS6_8durationIxSt5ratioILx1ELx1000000000EEEEEERSt10error_code __errno_location 132
_ZNSt12experimental10filesystem2v115last_write_timeERKNS1_7__cxx114pathENSt6chrono10time_pointINS6_3_V212system_clockENS6_8durationIxSt5ratioILx1ELx1000000000EEEEEERSt10error_code _ZNSt3_V216generic_categoryEv 140
_ZNSt12experimental10filesystem2v115last_write_timeERKNS1_7__cxx114pathENSt6chrono10time_pointINS6_3_V212system_clockENS6_8durationIxSt5ratioILx1ELx1000000000EEEEEERSt10error_code _ZNSt10error_code5clearEv 164
_ZNSt12experimental10filesystem2v16removeERKNS1_7__cxx114pathERSt10error_code remove 12
_ZNSt12experimental10filesystem2v16removeERKNS1_7__cxx114pathERSt10error_code _ZNSt10error_code5clearEv 28
_ZNSt12experimental10filesystem2v16removeERKNS1_7__cxx114pathERSt10error_code __errno_location 40
_ZNSt12experimental10filesystem2v16removeERKNS1_7__cxx114pathERSt10error_code _ZNSt10error_code5clearEv 60
_ZNSt12experimental10filesystem2v16removeERKNS1_7__cxx114pathERSt10error_code _ZNSt3_V216generic_categoryEv 72
_ZNSt12experimental10filesystem2v16renameERKNS1_7__cxx114pathES5_RSt10error_code rename 16
_ZNSt12experimental10filesystem2v16renameERKNS1_7__cxx114pathES5_RSt10error_code _ZNSt12experimental10filesystem2v16renameERKNS1_7__cxx114pathES5_RSt10error_code.part.39 36
_ZNSt12experimental10filesystem2v16renameERKNS1_7__cxx114pathES5_RSt10error_code _ZNSt10error_code5clearEv 44
_ZNSt12experimental10filesystem2v111resize_fileERKNS1_7__cxx114pathEyRSt10error_code _ZNSt3_V216generic_categoryEv 20
_ZNSt12experimental10filesystem2v111resize_fileERKNS1_7__cxx114pathEyRSt10error_code truncate64 44
_ZNSt12experimental10filesystem2v111resize_fileERKNS1_7__cxx114pathEyRSt10error_code _ZNSt12experimental10filesystem2v111resize_fileERKNS1_7__cxx114pathEyRSt10error_code.part.40 64
_ZNSt12experimental10filesystem2v111resize_fileERKNS1_7__cxx114pathEyRSt10error_code _ZNSt10error_code5clearEv 72
_ZNSt12experimental10filesystem2v15spaceERKNS1_7__cxx114pathERSt10error_code statvfs64 56
_ZNSt12experimental10filesystem2v15spaceERKNS1_7__cxx114pathERSt10error_code _ZNSt12experimental10filesystem2v15spaceERKNS1_7__cxx114pathERSt10error_code.part.41 72
_ZNSt12experimental10filesystem2v15spaceERKNS1_7__cxx114pathERSt10error_code _ZNSt10error_code5clearEv 156
_ZNSt12experimental10filesystem2v16statusERKNS1_7__cxx114pathERSt10error_code stat64 48
_ZNSt12experimental10filesystem2v16statusERKNS1_7__cxx114pathERSt10error_code __errno_location 60
_ZNSt12experimental10filesystem2v16statusERKNS1_7__cxx114pathERSt10error_code _ZNSt3_V216generic_categoryEv 68
_ZNSt12experimental10filesystem2v16statusERKNS1_7__cxx114pathERSt10error_code _ZNSt12experimental10filesystem16make_file_statusERK4stat 132
_ZNSt12experimental10filesystem2v16statusERKNS1_7__cxx114pathERSt10error_code _ZNSt10error_code5clearEv 140
_ZNSt12experimental10filesystem2v16existsERKNS1_7__cxx114pathERSt10error_code _ZNSt12experimental10filesystem2v16statusERKNS1_7__cxx114pathERSt10error_code 20
_ZNSt12experimental10filesystem2v16existsERKNS1_7__cxx114pathERSt10error_code _ZNSt10error_code5clearEv 44
_ZN12_GLOBAL__N_110create_dirERKNSt12experimental10filesystem2v17__cxx114pathENS2_5permsERSt10error_code.part.42 __errno_location 12
_ZN12_GLOBAL__N_110create_dirERKNSt12experimental10filesystem2v17__cxx114pathENS2_5permsERSt10error_code.part.42 _ZNSt3_V216generic_categoryEv 28
_ZN12_GLOBAL__N_110create_dirERKNSt12experimental10filesystem2v17__cxx114pathENS2_5permsERSt10error_code.part.42 _ZNSt12experimental10filesystem2v16statusERKNS1_7__cxx114pathERSt10error_code 64
_ZNSt12experimental10filesystem2v116create_directoryERKNS1_7__cxx114pathES5_RSt10error_code stat64 28
_ZNSt12experimental10filesystem2v116create_directoryERKNS1_7__cxx114pathES5_RSt10error_code __errno_location 40
_ZNSt12experimental10filesystem2v116create_directoryERKNS1_7__cxx114pathES5_RSt10error_code _ZNSt3_V216generic_categoryEv 48
_ZNSt12experimental10filesystem2v116create_directoryERKNS1_7__cxx114pathES5_RSt10error_code mkdir 80
_ZNSt12experimental10filesystem2v116create_directoryERKNS1_7__cxx114pathES5_RSt10error_code _ZN12_GLOBAL__N_110create_dirERKNSt12experimental10filesystem2v17__cxx114pathENS2_5permsERSt10error_code.part.42 100
_ZNSt12experimental10filesystem2v116create_directoryERKNS1_7__cxx114pathES5_RSt10error_code _ZNSt10error_code5clearEv 112
_ZNSt12experimental10filesystem2v116create_directoryERKNS1_7__cxx114pathERSt10error_code mkdir 20
_ZNSt12experimental10filesystem2v116create_directoryERKNS1_7__cxx114pathERSt10error_code _ZN12_GLOBAL__N_110create_dirERKNSt12experimental10filesystem2v17__cxx114pathENS2_5permsERSt10error_code.part.42 44
_ZNSt12experimental10filesystem2v116create_directoryERKNS1_7__cxx114pathERSt10error_code _ZNSt10error_code5clearEv 52
_ZNSt12experimental10filesystem2v114symlink_statusERKNS1_7__cxx114pathERSt10error_code lstat64 48
_ZNSt12experimental10filesystem2v114symlink_statusERKNS1_7__cxx114pathERSt10error_code __errno_location 60
_ZNSt12experimental10filesystem2v114symlink_statusERKNS1_7__cxx114pathERSt10error_code _ZNSt3_V216generic_categoryEv 68
_ZNSt12experimental10filesystem2v114symlink_statusERKNS1_7__cxx114pathERSt10error_code _ZNSt12experimental10filesystem16make_file_statusERK4stat 116
_ZNSt12experimental10filesystem2v114symlink_statusERKNS1_7__cxx114pathERSt10error_code _ZNSt10error_code5clearEv 124
_ZNSt12experimental10filesystem2v111permissionsERKNS1_7__cxx114pathENS1_5permsERSt10error_code _ZNSt3_V216generic_categoryEv 20
_ZNSt12experimental10filesystem2v111permissionsERKNS1_7__cxx114pathENS1_5permsERSt10error_code _ZNSt12experimental10filesystem2v114symlink_statusERKNS1_7__cxx114pathERSt10error_code 96
_ZNSt12experimental10filesystem2v111permissionsERKNS1_7__cxx114pathENS1_5permsERSt10error_code fchmodat 180
_ZNSt12experimental10filesystem2v111permissionsERKNS1_7__cxx114pathENS1_5permsERSt10error_code __errno_location 192
_ZNSt12experimental10filesystem2v111permissionsERKNS1_7__cxx114pathENS1_5permsERSt10error_code _ZNSt3_V216generic_categoryEv 208
_ZNSt12experimental10filesystem2v111permissionsERKNS1_7__cxx114pathENS1_5permsERSt10error_code _ZNSt12experimental10filesystem2v16statusERKNS1_7__cxx114pathERSt10error_code 236
_ZNSt12experimental10filesystem2v111permissionsERKNS1_7__cxx114pathENS1_5permsERSt10error_code _ZNSt10error_code5clearEv 256
_ZNSt7__cxx1112basic_stringIcSt11char_traitsIcESaIcEEC1EOS4_,_ZNSt7__cxx1112basic_stringIcSt11char_traitsIcESaIcEEC2EOS4_ _ZNSt11char_traitsIcE4copyEPcPKcj 56
_ZNSt12experimental10filesystem2v110remove_allERKNS1_7__cxx114pathERSt10error_code,_ZNSt12experimental10filesystem2v110remove_allERKNS1_7__cxx114pathERSt10error_code.localalias.143 _ZNSt12experimental10filesystem2v114symlink_statusERKNS1_7__cxx114pathERSt10error_code 28
_ZNSt12experimental10filesystem2v110remove_allERKNS1_7__cxx114pathERSt10error_code,_ZNSt12experimental10filesystem2v110remove_allERKNS1_7__cxx114pathERSt10error_code.localalias.143 _ZNSt10error_code5clearEv 60
_ZNSt12experimental10filesystem2v110remove_allERKNS1_7__cxx114pathERSt10error_code,_ZNSt12experimental10filesystem2v110remove_allERKNS1_7__cxx114pathERSt10error_code.localalias.143 _ZNSt12experimental10filesystem2v17__cxx1118directory_iteratorC1ERKNS2_4pathENS1_17directory_optionsEPSt10error_code 112
_ZNSt12experimental10filesystem2v110remove_allERKNS1_7__cxx114pathERSt10error_code,_ZNSt12experimental10filesystem2v110remove_allERKNS1_7__cxx114pathERSt10error_code.localalias.143 _ZNSt12experimental10filesystem2v17__cxx11neERKNS2_18directory_iteratorES5_ 164
_ZNSt12experimental10filesystem2v110remove_allERKNS1_7__cxx114pathERSt10error_code,_ZNSt12experimental10filesystem2v110remove_allERKNS1_7__cxx114pathERSt10error_code.localalias.143 _ZNKSt12experimental10filesystem2v17__cxx1118directory_iteratordeEv 180
_ZNSt12experimental10filesystem2v110remove_allERKNS1_7__cxx114pathERSt10error_code,_ZNSt12experimental10filesystem2v110remove_allERKNS1_7__cxx114pathERSt10error_code.localalias.143 _ZNSt14__shared_countILN9__gnu_cxx12_Lock_policyE2EED1Ev 208
_ZNSt12experimental10filesystem2v110remove_allERKNS1_7__cxx114pathERSt10error_code,_ZNSt12experimental10filesystem2v110remove_allERKNS1_7__cxx114pathERSt10error_code.localalias.143 _ZNSt14__shared_countILN9__gnu_cxx12_Lock_policyE2EED1Ev 216
_ZNSt12experimental10filesystem2v110remove_allERKNS1_7__cxx114pathERSt10error_code,_ZNSt12experimental10filesystem2v110remove_allERKNS1_7__cxx114pathERSt10error_code.localalias.143 _ZNSt14__shared_countILN9__gnu_cxx12_Lock_policyE2EED1Ev 228
_ZNSt12experimental10filesystem2v110remove_allERKNS1_7__cxx114pathERSt10error_code,_ZNSt12experimental10filesystem2v110remove_allERKNS1_7__cxx114pathERSt10error_code.localalias.143 _ZNSt14__shared_countILN9__gnu_cxx12_Lock_policyE2EED1Ev 236
_ZNSt12experimental10filesystem2v110remove_allERKNS1_7__cxx114pathERSt10error_code,_ZNSt12experimental10filesystem2v110remove_allERKNS1_7__cxx114pathERSt10error_code.localalias.143 _ZNSt12experimental10filesystem2v16removeERKNS1_7__cxx114pathERSt10error_code 248
_ZNSt12experimental10filesystem2v110remove_allERKNS1_7__cxx114pathERSt10error_code,_ZNSt12experimental10filesystem2v110remove_allERKNS1_7__cxx114pathERSt10error_code.localalias.143 _ZNSt12experimental10filesystem2v17__cxx1118directory_iterator9incrementERSt10error_code 312
_ZNSt12experimental10filesystem2v18is_emptyERKNS1_7__cxx114pathERSt10error_code _ZNSt12experimental10filesystem2v16statusERKNS1_7__cxx114pathERSt10error_code 28
_ZNSt12experimental10filesystem2v18is_emptyERKNS1_7__cxx114pathERSt10error_code _ZNSt12experimental10filesystem2v17__cxx1118directory_iteratorC1ERKNS2_4pathENS1_17directory_optionsEPSt10error_code 88
_ZNSt12experimental10filesystem2v18is_emptyERKNS1_7__cxx114pathERSt10error_code _ZNSt14__shared_countILN9__gnu_cxx12_Lock_policyE2EED1Ev 108
_ZNSt12experimental10filesystem2v18is_emptyERKNS1_7__cxx114pathERSt10error_code _ZNSt14__shared_countILN9__gnu_cxx12_Lock_policyE2EED1Ev 124
_ZNSt12experimental10filesystem2v18is_emptyERKNS1_7__cxx114pathERSt10error_code _ZNSt12experimental10filesystem2v19file_sizeERKNS1_7__cxx114pathERSt10error_code 152
_ZNSt11_Deque_baseINSt12experimental10filesystem2v17__cxx114pathESaIS4_EEC1Ev,_ZNSt11_Deque_baseINSt12experimental10filesystem2v17__cxx114pathESaIS4_EEC2Ev _Znwj 60
_ZNSt11_Deque_baseINSt12experimental10filesystem2v17__cxx114pathESaIS4_EEC1Ev,_ZNSt11_Deque_baseINSt12experimental10filesystem2v17__cxx114pathESaIS4_EEC2Ev _Znwj 92
_ZNSt11_Deque_baseINSt12experimental10filesystem2v17__cxx114pathESaIS4_EEC1Ev,_ZNSt11_Deque_baseINSt12experimental10filesystem2v17__cxx114pathESaIS4_EEC2Ev __cxa_begin_catch 100
_ZNSt11_Deque_baseINSt12experimental10filesystem2v17__cxx114pathESaIS4_EEC1Ev,_ZNSt11_Deque_baseINSt12experimental10filesystem2v17__cxx114pathESaIS4_EEC2Ev _ZNSt11_Deque_baseINSt12experimental10filesystem2v17__cxx114pathESaIS4_EE16_M_destroy_nodesEPPS4_S8_.isra.107 112
_ZNSt11_Deque_baseINSt12experimental10filesystem2v17__cxx114pathESaIS4_EEC1Ev,_ZNSt11_Deque_baseINSt12experimental10filesystem2v17__cxx114pathESaIS4_EEC2Ev __cxa_rethrow 116
_ZNSt11_Deque_baseINSt12experimental10filesystem2v17__cxx114pathESaIS4_EEC1Ev,_ZNSt11_Deque_baseINSt12experimental10filesystem2v17__cxx114pathESaIS4_EEC2Ev __cxa_end_catch 124
_ZNSt11_Deque_baseINSt12experimental10filesystem2v17__cxx114pathESaIS4_EEC1Ev,_ZNSt11_Deque_baseINSt12experimental10filesystem2v17__cxx114pathESaIS4_EEC2Ev __cxa_begin_catch 132
_ZNSt11_Deque_baseINSt12experimental10filesystem2v17__cxx114pathESaIS4_EEC1Ev,_ZNSt11_Deque_baseINSt12experimental10filesystem2v17__cxx114pathESaIS4_EEC2Ev _ZdlPv 140
_ZNSt11_Deque_baseINSt12experimental10filesystem2v17__cxx114pathESaIS4_EEC1Ev,_ZNSt11_Deque_baseINSt12experimental10filesystem2v17__cxx114pathESaIS4_EEC2Ev __cxa_rethrow 156
_ZNSt11_Deque_baseINSt12experimental10filesystem2v17__cxx114pathESaIS4_EEC1Ev,_ZNSt11_Deque_baseINSt12experimental10filesystem2v17__cxx114pathESaIS4_EEC2Ev __cxa_end_catch 160
_ZNSt11_Deque_baseINSt12experimental10filesystem2v17__cxx114pathESaIS4_EEC1Ev,_ZNSt11_Deque_baseINSt12experimental10filesystem2v17__cxx114pathESaIS4_EEC2Ev __cxa_end_cleanup 164
_ZNSt11_Deque_baseINSt12experimental10filesystem2v17__cxx114pathESaIS4_EED1Ev,_ZNSt11_Deque_baseINSt12experimental10filesystem2v17__cxx114pathESaIS4_EED2Ev _ZNSt11_Deque_baseINSt12experimental10filesystem2v17__cxx114pathESaIS4_EE16_M_destroy_nodesEPPS4_S8_.isra.107 32
_ZNSt11_Deque_baseINSt12experimental10filesystem2v17__cxx114pathESaIS4_EED1Ev,_ZNSt11_Deque_baseINSt12experimental10filesystem2v17__cxx114pathESaIS4_EED2Ev _ZdlPv 40
_ZNSt5dequeINSt12experimental10filesystem2v17__cxx114pathESaIS4_EE4backEv _ZNSt15_Deque_iteratorINSt12experimental10filesystem2v17__cxx114pathERS4_PS4_EC1ERKS7_ 12
_ZNSt12experimental10filesystem2v17__cxx114path9_M_appendERKNSt7__cxx1112basic_stringIcSt11char_traitsIcESaIcEEE _ZNSt7__cxx1112basic_stringIcSt11char_traitsIcESaIcEE9push_backEc 76
_ZNSt12experimental10filesystem2v17__cxx114path9_M_appendERKNSt7__cxx1112basic_stringIcSt11char_traitsIcESaIcEEE _ZNSt7__cxx1112basic_stringIcSt11char_traitsIcESaIcEE9_M_appendEPKcj 88
_ZNSt12experimental10filesystem2v17__cxx114path9_M_appendERKNSt7__cxx1112basic_stringIcSt11char_traitsIcESaIcEEE _ZNSt12experimental10filesystem2v17__cxx114path14_M_split_cmptsEv 96
_ZNKSt15_Deque_iteratorINSt12experimental10filesystem2v17__cxx114pathERS4_PS4_EplEi _ZNSt15_Deque_iteratorINSt12experimental10filesystem2v17__cxx114pathERS4_PS4_EC1ERKS7_ 20
_ZNKSt15_Deque_iteratorINSt12experimental10filesystem2v17__cxx114pathERS4_PS4_EplEi _ZNSt15_Deque_iteratorINSt12experimental10filesystem2v17__cxx114pathERS4_PS4_EpLEi 32
_ZNKSt15_Deque_iteratorINSt12experimental10filesystem2v17__cxx114pathERS4_PS4_EplEi _ZNSt15_Deque_iteratorINSt12experimental10filesystem2v17__cxx114pathERS4_PS4_EC1ERKS7_ 44
_ZNSt7__cxx1112basic_stringIcSt11char_traitsIcESaIcEE9_S_assignEPcjc memset 40
_ZNSt7__cxx1112basic_stringIcSt11char_traitsIcESaIcEE12_M_constructIPKcEEvT_S8_St20forward_iterator_tag _ZSt19__throw_logic_errorPKc 40
_ZNSt7__cxx1112basic_stringIcSt11char_traitsIcESaIcEE12_M_constructIPKcEEvT_S8_St20forward_iterator_tag _ZNSt7__cxx1112basic_stringIcSt11char_traitsIcESaIcEE9_M_createERjj.isra.64 68
_ZNSt7__cxx1112basic_stringIcSt11char_traitsIcESaIcEE12_M_constructIPKcEEvT_S8_St20forward_iterator_tag _ZNSt7__cxx1112basic_stringIcSt11char_traitsIcESaIcEE7_S_copyEPcPKcj 96
_ZNSt7__cxx1112basic_stringIcSt11char_traitsIcESaIcEE12_M_constructIPKcEEvT_S8_St20forward_iterator_tag .LC1 128
_ZNSt7__cxx1112basic_stringIcSt11char_traitsIcESaIcEEC2IS3_EEPKcRKS3_.constprop.149 _ZNSt11char_traitsIcE6lengthEPKc 32
_ZNSt7__cxx1112basic_stringIcSt11char_traitsIcESaIcEEC2IS3_EEPKcRKS3_.constprop.149 _ZNSt7__cxx1112basic_stringIcSt11char_traitsIcESaIcEE12_M_constructIPKcEEvT_S8_St20forward_iterator_tag 52
_ZNSt12experimental10filesystem2v119temp_directory_pathB5cxx11ERSt10error_code getenv 60
_ZNSt12experimental10filesystem2v119temp_directory_pathB5cxx11ERSt10error_code _ZNSt7__cxx1112basic_stringIcSt11char_traitsIcESaIcEEC2IS3_EEPKcRKS3_.constprop.149 80
_ZNSt12experimental10filesystem2v119temp_directory_pathB5cxx11ERSt10error_code _ZNSt12experimental10filesystem2v17__cxx114path14_M_split_cmptsEv 108
_ZNSt12experimental10filesystem2v119temp_directory_pathB5cxx11ERSt10error_code _ZNSt12experimental10filesystem2v16statusERKNS1_7__cxx114pathERSt10error_code 140
_ZNSt12experimental10filesystem2v119temp_directory_pathB5cxx11ERSt10error_code _ZNSt12experimental10filesystem2v17__cxx114pathC1Ev 160
_ZNSt12experimental10filesystem2v119temp_directory_pathB5cxx11ERSt10error_code _ZNSt6vectorINSt12experimental10filesystem2v17__cxx114path5_CmptESaIS5_EED1Ev 172
_ZNSt12experimental10filesystem2v119temp_directory_pathB5cxx11ERSt10error_code _ZNSt7__cxx1112basic_stringIcSt11char_traitsIcESaIcEE10_M_disposeEv 180
_ZNSt12experimental10filesystem2v119temp_directory_pathB5cxx11ERSt10error_code __cxa_end_cleanup 184
_ZNSt12experimental10filesystem2v119temp_directory_pathB5cxx11ERSt10error_code _ZNSt10error_code5clearEv 204
_ZNSt12experimental10filesystem2v119temp_directory_pathB5cxx11ERSt10error_code _ZNSt12experimental10filesystem2v17__cxx114pathC1EOS3_ 216
_ZNSt12experimental10filesystem2v119temp_directory_pathB5cxx11ERSt10error_code _ZNSt12experimental10filesystem2v17__cxx114pathD1Ev 224
_ZNSt12experimental10filesystem2v119temp_directory_pathB5cxx11ERSt10error_code _ZNSt3_V216generic_categoryEv 240
_ZNSt12experimental10filesystem2v119temp_directory_pathB5cxx11ERSt10error_code .LC8 264
_ZNSt12experimental10filesystem2v17__cxx114path6assignIPcEERNSt9enable_ifIXsrSt6__and_IJSt6__not_ISt7is_sameINSt9remove_cvIT_E4typeES3_EES8_ISt7is_voidINSt14remove_pointerISB_E4typeEEENS3_20__constructible_fromISB_vEEEE5valueES3_E4typeERKSB_ _ZNSt7__cxx1112basic_stringIcSt11char_traitsIcESaIcEEC2IS3_EEPKcRKS3_.constprop.149 24
_ZNSt12experimental10filesystem2v17__cxx114path6assignIPcEERNSt9enable_ifIXsrSt6__and_IJSt6__not_ISt7is_sameINSt9remove_cvIT_E4typeES3_EES8_ISt7is_voidINSt14remove_pointerISB_E4typeEEENS3_20__constructible_fromISB_vEEEE5valueES3_E4typeERKSB_ _ZNSt12experimental10filesystem2v17__cxx114path14_M_split_cmptsEv 52
_ZNSt12experimental10filesystem2v17__cxx114path6assignIPcEERNSt9enable_ifIXsrSt6__and_IJSt6__not_ISt7is_sameINSt9remove_cvIT_E4typeES3_EES8_ISt7is_voidINSt14remove_pointerISB_E4typeEEENS3_20__constructible_fromISB_vEEEE5valueES3_E4typeERKSB_ _ZNSt6vectorINSt12experimental10filesystem2v17__cxx114path5_CmptESaIS5_EED1Ev 64
_ZNSt12experimental10filesystem2v17__cxx114path6assignIPcEERNSt9enable_ifIXsrSt6__and_IJSt6__not_ISt7is_sameINSt9remove_cvIT_E4typeES3_EES8_ISt7is_voidINSt14remove_pointerISB_E4typeEEENS3_20__constructible_fromISB_vEEEE5valueES3_E4typeERKSB_ _ZNSt7__cxx1112basic_stringIcSt11char_traitsIcESaIcEE10_M_disposeEv 72
_ZNSt12experimental10filesystem2v17__cxx114path6assignIPcEERNSt9enable_ifIXsrSt6__and_IJSt6__not_ISt7is_sameINSt9remove_cvIT_E4typeES3_EES8_ISt7is_voidINSt14remove_pointerISB_E4typeEEENS3_20__constructible_fromISB_vEEEE5valueES3_E4typeERKSB_ __cxa_end_cleanup 76
_ZNSt12experimental10filesystem2v17__cxx114path6assignIPcEERNSt9enable_ifIXsrSt6__and_IJSt6__not_ISt7is_sameINSt9remove_cvIT_E4typeES3_EES8_ISt7is_voidINSt14remove_pointerISB_E4typeEEENS3_20__constructible_fromISB_vEEEE5valueES3_E4typeERKSB_ _ZNSt12experimental10filesystem2v17__cxx114pathaSEOS3_ 88
_ZNSt12experimental10filesystem2v17__cxx114path6assignIPcEERNSt9enable_ifIXsrSt6__and_IJSt6__not_ISt7is_sameINSt9remove_cvIT_E4typeES3_EES8_ISt7is_voidINSt14remove_pointerISB_E4typeEEENS3_20__constructible_fromISB_vEEEE5valueES3_E4typeERKSB_ _ZNSt12experimental10filesystem2v17__cxx114pathD1Ev 100
_ZNSt12experimental10filesystem2v112current_pathB5cxx11ERSt10error_code _ZNSt12experimental10filesystem2v17__cxx114pathC1Ev 16
_ZNSt12experimental10filesystem2v112current_pathB5cxx11ERSt10error_code getcwd 28
_ZNSt12experimental10filesystem2v112current_pathB5cxx11ERSt10error_code _ZNSt12experimental10filesystem2v17__cxx114path6assignIPcEERNSt9enable_ifIXsrSt6__and_IJSt6__not_ISt7is_sameINSt9remove_cvIT_E4typeES3_EES8_ISt7is_voidINSt14remove_pointerISB_E4typeEEENS3_20__constructible_fromISB_vEEEE5valueES3_E4typeERKSB_ 56
_ZNSt12experimental10filesystem2v112current_pathB5cxx11ERSt10error_code _ZNSt10error_code5clearEv 64
_ZNSt12experimental10filesystem2v112current_pathB5cxx11ERSt10error_code _ZNSt10unique_ptrIA_cN12_GLOBAL__N_117free_as_in_mallocEED1Ev 72
_ZNSt12experimental10filesystem2v112current_pathB5cxx11ERSt10error_code __errno_location 88
_ZNSt12experimental10filesystem2v112current_pathB5cxx11ERSt10error_code _ZNSt3_V216generic_categoryEv 96
_ZNSt12experimental10filesystem2v112current_pathB5cxx11ERSt10error_code _ZNSt10unique_ptrIA_cN12_GLOBAL__N_117free_as_in_mallocEED1Ev 116
_ZNSt12experimental10filesystem2v112current_pathB5cxx11ERSt10error_code _ZNSt12experimental10filesystem2v17__cxx114pathD1Ev 124
_ZNSt12experimental10filesystem2v112current_pathB5cxx11ERSt10error_code __cxa_end_cleanup 128
_ZNSt12experimental10filesystem2v17__cxx11dvERKNS2_4pathES5_ _ZNSt12experimental10filesystem2v17__cxx114pathC1ERKS3_ 12
_ZNSt12experimental10filesystem2v17__cxx11dvERKNS2_4pathES5_ _ZNSt12experimental10filesystem2v17__cxx114path9_M_appendERKNSt7__cxx1112basic_stringIcSt11char_traitsIcESaIcEEE 24
_ZNSt12experimental10filesystem2v17__cxx11dvERKNS2_4pathES5_ _ZNSt12experimental10filesystem2v17__cxx114pathD1Ev 36
_ZNSt12experimental10filesystem2v17__cxx11dvERKNS2_4pathES5_ __cxa_end_cleanup 40
_ZNKSt12experimental10filesystem2v17__cxx114path8filenameEv _ZNSt12experimental10filesystem2v17__cxx114pathC1Ev 20
_ZNKSt12experimental10filesystem2v17__cxx114path8filenameEv _ZNSt12experimental10filesystem2v17__cxx114pathC1ERKS3_ 48
_ZNSt5dequeINSt12experimental10filesystem2v17__cxx114pathESaIS4_EE17_M_reallocate_mapEjb memmove 180
_ZNSt5dequeINSt12experimental10filesystem2v17__cxx114pathESaIS4_EE17_M_reallocate_mapEjb _ZSt17__throw_bad_allocv 212
_ZNSt5dequeINSt12experimental10filesystem2v17__cxx114pathESaIS4_EE17_M_reallocate_mapEjb _Znwj 228
_ZNSt5dequeINSt12experimental10filesystem2v17__cxx114pathESaIS4_EE17_M_reallocate_mapEjb memmove 284
_ZNSt5dequeINSt12experimental10filesystem2v17__cxx114pathESaIS4_EE17_M_reallocate_mapEjb _ZdlPv 292
_ZNSt5dequeINSt12experimental10filesystem2v17__cxx114pathESaIS4_EE22_M_reserve_map_at_backEj _ZNSt5dequeINSt12experimental10filesystem2v17__cxx114pathESaIS4_EE17_M_reallocate_mapEjb 44
_ZNSt7__cxx1112basic_stringIcSt11char_traitsIcESaIcEE6resizeEjc _ZNSt7__cxx1112basic_stringIcSt11char_traitsIcESaIcEE14_M_replace_auxEjjjc 32
_ZNSt12experimental10filesystem2v112read_symlinkERKNS1_7__cxx114pathERSt10error_code _ZNSt12experimental10filesystem2v17__cxx114pathC1Ev 20
_ZNSt12experimental10filesystem2v112read_symlinkERKNS1_7__cxx114pathERSt10error_code lstat64 32
_ZNSt12experimental10filesystem2v112read_symlinkERKNS1_7__cxx114pathERSt10error_code __errno_location 44
_ZNSt12experimental10filesystem2v112read_symlinkERKNS1_7__cxx114pathERSt10error_code _ZNSt3_V216generic_categoryEv 52
_ZNSt12experimental10filesystem2v112read_symlinkERKNS1_7__cxx114pathERSt10error_code _ZNSt7__cxx1112basic_stringIcSt11char_traitsIcESaIcEE9_M_createERjj.isra.84 116
_ZNSt12experimental10filesystem2v112read_symlinkERKNS1_7__cxx114pathERSt10error_code _ZNSt7__cxx1112basic_stringIcSt11char_traitsIcESaIcEE9_S_assignEPcjc 152
_ZNSt12experimental10filesystem2v112read_symlinkERKNS1_7__cxx114pathERSt10error_code readlink 192
_ZNSt12experimental10filesystem2v112read_symlinkERKNS1_7__cxx114pathERSt10error_code __errno_location 204
_ZNSt12experimental10filesystem2v112read_symlinkERKNS1_7__cxx114pathERSt10error_code _ZNSt3_V216generic_categoryEv 212
_ZNSt12experimental10filesystem2v112read_symlinkERKNS1_7__cxx114pathERSt10error_code _ZNSt7__cxx1112basic_stringIcSt11char_traitsIcESaIcEE10_M_disposeEv 228
_ZNSt12experimental10filesystem2v112read_symlinkERKNS1_7__cxx114pathERSt10error_code _ZNSt3_V216generic_categoryEv 256
_ZNSt12experimental10filesystem2v112read_symlinkERKNS1_7__cxx114pathERSt10error_code _ZNSt7__cxx1112basic_stringIcSt11char_traitsIcESaIcEE6resizeEjc 284
_ZNSt12experimental10filesystem2v112read_symlinkERKNS1_7__cxx114pathERSt10error_code _ZNSt7__cxx1112basic_stringIcSt11char_traitsIcESaIcEE6resizeEjc 304
_ZNSt12experimental10filesystem2v112read_symlinkERKNS1_7__cxx114pathERSt10error_code _ZNSt7__cxx1112basic_stringIcSt11char_traitsIcESaIcEE12_M_constructIPKcEEvT_S8_St20forward_iterator_tag 340
_ZNSt12experimental10filesystem2v112read_symlinkERKNS1_7__cxx114pathERSt10error_code _ZNSt12experimental10filesystem2v17__cxx114path14_M_split_cmptsEv 368
_ZNSt12experimental10filesystem2v112read_symlinkERKNS1_7__cxx114pathERSt10error_code _ZNSt12experimental10filesystem2v17__cxx114pathaSEOS3_ 380
_ZNSt12experimental10filesystem2v112read_symlinkERKNS1_7__cxx114pathERSt10error_code _ZNSt12experimental10filesystem2v17__cxx114pathD1Ev 388
_ZNSt12experimental10filesystem2v112read_symlinkERKNS1_7__cxx114pathERSt10error_code _ZNSt10error_code5clearEv 396
_ZNSt12experimental10filesystem2v112read_symlinkERKNS1_7__cxx114pathERSt10error_code _ZNSt6vectorINSt12experimental10filesystem2v17__cxx114path5_CmptESaIS5_EED1Ev 408
_ZNSt12experimental10filesystem2v112read_symlinkERKNS1_7__cxx114pathERSt10error_code _ZNSt7__cxx1112basic_stringIcSt11char_traitsIcESaIcEE10_M_disposeEv 416
_ZNSt12experimental10filesystem2v112read_symlinkERKNS1_7__cxx114pathERSt10error_code _ZNSt7__cxx1112basic_stringIcSt11char_traitsIcESaIcEE10_M_disposeEv 424
_ZNSt12experimental10filesystem2v112read_symlinkERKNS1_7__cxx114pathERSt10error_code _ZNSt12experimental10filesystem2v17__cxx114pathD1Ev 432
_ZNSt12experimental10filesystem2v112read_symlinkERKNS1_7__cxx114pathERSt10error_code __cxa_end_cleanup 436
_ZNSt12experimental10filesystem2v112copy_symlinkERKNS1_7__cxx114pathES5_RSt10error_code _ZNSt12experimental10filesystem2v112read_symlinkERKNS1_7__cxx114pathERSt10error_code 28
_ZNSt12experimental10filesystem2v112copy_symlinkERKNS1_7__cxx114pathES5_RSt10error_code _ZNSt12experimental10filesystem2v17__cxx114pathD1Ev 48
_ZNSt12experimental10filesystem2v112copy_symlinkERKNS1_7__cxx114pathES5_RSt10error_code _ZNSt12experimental10filesystem2v114create_symlinkERKNS1_7__cxx114pathES5_RSt10error_code 72
_ZNSt12experimental10filesystem2v14copyERKNS1_7__cxx114pathES5_NS1_12copy_optionsERSt10error_code,_ZNSt12experimental10filesystem2v14copyERKNS1_7__cxx114pathES5_NS1_12copy_optionsERSt10error_code.localalias.144 lstat64 44
_ZNSt12experimental10filesystem2v14copyERKNS1_7__cxx114pathES5_NS1_12copy_optionsERSt10error_code,_ZNSt12experimental10filesystem2v14copyERKNS1_7__cxx114pathES5_NS1_12copy_optionsERSt10error_code.localalias.144 __errno_location 64
_ZNSt12experimental10filesystem2v14copyERKNS1_7__cxx114pathES5_NS1_12copy_optionsERSt10error_code,_ZNSt12experimental10filesystem2v14copyERKNS1_7__cxx114pathES5_NS1_12copy_optionsERSt10error_code.localalias.144 _ZNSt3_V216generic_categoryEv 72
_ZNSt12experimental10filesystem2v14copyERKNS1_7__cxx114pathES5_NS1_12copy_optionsERSt10error_code,_ZNSt12experimental10filesystem2v14copyERKNS1_7__cxx114pathES5_NS1_12copy_optionsERSt10error_code.localalias.144 stat64 92
_ZNSt12experimental10filesystem2v14copyERKNS1_7__cxx114pathES5_NS1_12copy_optionsERSt10error_code,_ZNSt12experimental10filesystem2v14copyERKNS1_7__cxx114pathES5_NS1_12copy_optionsERSt10error_code.localalias.144 lstat64 124
_ZNSt12experimental10filesystem2v14copyERKNS1_7__cxx114pathES5_NS1_12copy_optionsERSt10error_code,_ZNSt12experimental10filesystem2v14copyERKNS1_7__cxx114pathES5_NS1_12copy_optionsERSt10error_code.localalias.144 __errno_location 144
_ZNSt12experimental10filesystem2v14copyERKNS1_7__cxx114pathES5_NS1_12copy_optionsERSt10error_code,_ZNSt12experimental10filesystem2v14copyERKNS1_7__cxx114pathES5_NS1_12copy_optionsERSt10error_code.localalias.144 _ZNSt3_V216generic_categoryEv 168
_ZNSt12experimental10filesystem2v14copyERKNS1_7__cxx114pathES5_NS1_12copy_optionsERSt10error_code,_ZNSt12experimental10filesystem2v14copyERKNS1_7__cxx114pathES5_NS1_12copy_optionsERSt10error_code.localalias.144 stat64 184
_ZNSt12experimental10filesystem2v14copyERKNS1_7__cxx114pathES5_NS1_12copy_optionsERSt10error_code,_ZNSt12experimental10filesystem2v14copyERKNS1_7__cxx114pathES5_NS1_12copy_optionsERSt10error_code.localalias.144 _ZNSt12experimental10filesystem16make_file_statusERK4stat 204
_ZNSt12experimental10filesystem2v14copyERKNS1_7__cxx114pathES5_NS1_12copy_optionsERSt10error_code,_ZNSt12experimental10filesystem2v14copyERKNS1_7__cxx114pathES5_NS1_12copy_optionsERSt10error_code.localalias.144 _ZNSt12experimental10filesystem16make_file_statusERK4stat 224
_ZNSt12experimental10filesystem2v14copyERKNS1_7__cxx114pathES5_NS1_12copy_optionsERSt10error_code,_ZNSt12experimental10filesystem2v14copyERKNS1_7__cxx114pathES5_NS1_12copy_optionsERSt10error_code.localalias.144 _ZNSt12experimental10filesystem2v18is_otherENS1_11file_statusE.isra.21 252
_ZNSt12experimental10filesystem2v14copyERKNS1_7__cxx114pathES5_NS1_12copy_optionsERSt10error_code,_ZNSt12experimental10filesystem2v14copyERKNS1_7__cxx114pathES5_NS1_12copy_optionsERSt10error_code.localalias.144 _ZNSt12experimental10filesystem2v18is_otherENS1_11file_statusE.isra.21 268
_ZNSt12experimental10filesystem2v14copyERKNS1_7__cxx114pathES5_NS1_12copy_optionsERSt10error_code,_ZNSt12experimental10filesystem2v14copyERKNS1_7__cxx114pathES5_NS1_12copy_optionsERSt10error_code.localalias.144 _ZNSt3_V216generic_categoryEv 324
_ZNSt12experimental10filesystem2v14copyERKNS1_7__cxx114pathES5_NS1_12copy_optionsERSt10error_code,_ZNSt12experimental10filesystem2v14copyERKNS1_7__cxx114pathES5_NS1_12copy_optionsERSt10error_code.localalias.144 _ZNSt12experimental10filesystem2v18is_otherENS1_11file_statusE.isra.21 348
_ZNSt12experimental10filesystem2v14copyERKNS1_7__cxx114pathES5_NS1_12copy_optionsERSt10error_code,_ZNSt12experimental10filesystem2v14copyERKNS1_7__cxx114pathES5_NS1_12copy_optionsERSt10error_code.localalias.144 _ZNSt12experimental10filesystem2v18is_otherENS1_11file_statusE.isra.21 364
_ZNSt12experimental10filesystem2v14copyERKNS1_7__cxx114pathES5_NS1_12copy_optionsERSt10error_code,_ZNSt12experimental10filesystem2v14copyERKNS1_7__cxx114pathES5_NS1_12copy_optionsERSt10error_code.localalias.144 _ZNSt3_V216generic_categoryEv 396
_ZNSt12experimental10filesystem2v14copyERKNS1_7__cxx114pathES5_NS1_12copy_optionsERSt10error_code,_ZNSt12experimental10filesystem2v14copyERKNS1_7__cxx114pathES5_NS1_12copy_optionsERSt10error_code.localalias.144 _ZNSt3_V216generic_categoryEv 408
_ZNSt12experimental10filesystem2v14copyERKNS1_7__cxx114pathES5_NS1_12copy_optionsERSt10error_code,_ZNSt12experimental10filesystem2v14copyERKNS1_7__cxx114pathES5_NS1_12copy_optionsERSt10error_code.localalias.144 _ZNSt10error_code5clearEv 440
_ZNSt12experimental10filesystem2v14copyERKNS1_7__cxx114pathES5_NS1_12copy_optionsERSt10error_code,_ZNSt12experimental10filesystem2v14copyERKNS1_7__cxx114pathES5_NS1_12copy_optionsERSt10error_code.localalias.144 _ZNSt3_V216generic_categoryEv 464
_ZNSt12experimental10filesystem2v14copyERKNS1_7__cxx114pathES5_NS1_12copy_optionsERSt10error_code,_ZNSt12experimental10filesystem2v14copyERKNS1_7__cxx114pathES5_NS1_12copy_optionsERSt10error_code.localalias.144 _ZNSt12experimental10filesystem2v112copy_symlinkERKNS1_7__cxx114pathES5_RSt10error_code 488
_ZNSt12experimental10filesystem2v14copyERKNS1_7__cxx114pathES5_NS1_12copy_optionsERSt10error_code,_ZNSt12experimental10filesystem2v14copyERKNS1_7__cxx114pathES5_NS1_12copy_optionsERSt10error_code.localalias.144 _ZNSt12experimental10filesystem2v114create_symlinkERKNS1_7__cxx114pathES5_RSt10error_code 532
_ZNSt12experimental10filesystem2v14copyERKNS1_7__cxx114pathES5_NS1_12copy_optionsERSt10error_code,_ZNSt12experimental10filesystem2v14copyERKNS1_7__cxx114pathES5_NS1_12copy_optionsERSt10error_code.localalias.144 _ZNSt12experimental10filesystem2v116create_hard_linkERKNS1_7__cxx114pathES5_RSt10error_code 560
_ZNSt12experimental10filesystem2v14copyERKNS1_7__cxx114pathES5_NS1_12copy_optionsERSt10error_code,_ZNSt12experimental10filesystem2v14copyERKNS1_7__cxx114pathES5_NS1_12copy_optionsERSt10error_code.localalias.144 _ZNKSt12experimental10filesystem2v17__cxx114path8filenameEv 596
_ZNSt12experimental10filesystem2v14copyERKNS1_7__cxx114pathES5_NS1_12copy_optionsERSt10error_code,_ZNSt12experimental10filesystem2v14copyERKNS1_7__cxx114pathES5_NS1_12copy_optionsERSt10error_code.localalias.144 _ZNSt12experimental10filesystem2v17__cxx11dvERKNS2_4pathES5_ 616
_ZNSt12experimental10filesystem2v14copyERKNS1_7__cxx114pathES5_NS1_12copy_optionsERSt10error_code,_ZNSt12experimental10filesystem2v14copyERKNS1_7__cxx114pathES5_NS1_12copy_optionsERSt10error_code.localalias.144 _ZNSt12experimental10filesystem17copy_file_optionsENS0_2v112copy_optionsE 624
_ZNSt12experimental10filesystem2v14copyERKNS1_7__cxx114pathES5_NS1_12copy_optionsERSt10error_code,_ZNSt12experimental10filesystem2v14copyERKNS1_7__cxx114pathES5_NS1_12copy_optionsERSt10error_code.localalias.144 _ZNSt10filesystem12do_copy_fileEPKcS1_NS_26copy_options_existing_fileEP4statS4_RSt10error_code 676
_ZNSt12experimental10filesystem2v14copyERKNS1_7__cxx114pathES5_NS1_12copy_optionsERSt10error_code,_ZNSt12experimental10filesystem2v14copyERKNS1_7__cxx114pathES5_NS1_12copy_optionsERSt10error_code.localalias.144 _ZNSt12experimental10filesystem2v17__cxx114pathD1Ev 684
_ZNSt12experimental10filesystem2v14copyERKNS1_7__cxx114pathES5_NS1_12copy_optionsERSt10error_code,_ZNSt12experimental10filesystem2v14copyERKNS1_7__cxx114pathES5_NS1_12copy_optionsERSt10error_code.localalias.144 _ZNSt12experimental10filesystem2v17__cxx114pathD1Ev 692
_ZNSt12experimental10filesystem2v14copyERKNS1_7__cxx114pathES5_NS1_12copy_optionsERSt10error_code,_ZNSt12experimental10filesystem2v14copyERKNS1_7__cxx114pathES5_NS1_12copy_optionsERSt10error_code.localalias.144 _ZNSt12experimental10filesystem17copy_file_optionsENS0_2v112copy_optionsE 724
_ZNSt12experimental10filesystem2v14copyERKNS1_7__cxx114pathES5_NS1_12copy_optionsERSt10error_code,_ZNSt12experimental10filesystem2v14copyERKNS1_7__cxx114pathES5_NS1_12copy_optionsERSt10error_code.localalias.144 _ZNSt10filesystem12do_copy_fileEPKcS1_NS_26copy_options_existing_fileEP4statS4_RSt10error_code 772
_ZNSt12experimental10filesystem2v14copyERKNS1_7__cxx114pathES5_NS1_12copy_optionsERSt10error_code,_ZNSt12experimental10filesystem2v14copyERKNS1_7__cxx114pathES5_NS1_12copy_optionsERSt10error_code.localalias.144 _ZNSt12experimental10filesystem2v116create_directoryERKNS1_7__cxx114pathES5_RSt10error_code 852
_ZNSt12experimental10filesystem2v14copyERKNS1_7__cxx114pathES5_NS1_12copy_optionsERSt10error_code,_ZNSt12experimental10filesystem2v14copyERKNS1_7__cxx114pathES5_NS1_12copy_optionsERSt10error_code.localalias.144 _ZNSt12experimental10filesystem2v17__cxx1118directory_iteratorC1ERKNS2_4pathENS1_17directory_optionsEPSt10error_code 900
_ZNSt12experimental10filesystem2v14copyERKNS1_7__cxx114pathES5_NS1_12copy_optionsERSt10error_code,_ZNSt12experimental10filesystem2v14copyERKNS1_7__cxx114pathES5_NS1_12copy_optionsERSt10error_code.localalias.144 _ZNSt12__shared_ptrINSt12experimental10filesystem2v17__cxx114_DirELN9__gnu_cxx12_Lock_policyE2EEC2ERKS7_ 912
_ZNSt12experimental10filesystem2v14copyERKNS1_7__cxx114pathES5_NS1_12copy_optionsERSt10error_code,_ZNSt12experimental10filesystem2v14copyERKNS1_7__cxx114pathES5_NS1_12copy_optionsERSt10error_code.localalias.144 _ZNSt14__shared_countILN9__gnu_cxx12_Lock_policyE2EED1Ev 956
_ZNSt12experimental10filesystem2v14copyERKNS1_7__cxx114pathES5_NS1_12copy_optionsERSt10error_code,_ZNSt12experimental10filesystem2v14copyERKNS1_7__cxx114pathES5_NS1_12copy_optionsERSt10error_code.localalias.144 _ZNSt12__shared_ptrINSt12experimental10filesystem2v17__cxx114_DirELN9__gnu_cxx12_Lock_policyE2EEC2ERKS7_ 968
_ZNSt12experimental10filesystem2v14copyERKNS1_7__cxx114pathES5_NS1_12copy_optionsERSt10error_code,_ZNSt12experimental10filesystem2v14copyERKNS1_7__cxx114pathES5_NS1_12copy_optionsERSt10error_code.localalias.144 _ZNSt14__shared_countILN9__gnu_cxx12_Lock_policyE2EED1Ev 992
_ZNSt12experimental10filesystem2v14copyERKNS1_7__cxx114pathES5_NS1_12copy_optionsERSt10error_code,_ZNSt12experimental10filesystem2v14copyERKNS1_7__cxx114pathES5_NS1_12copy_optionsERSt10error_code.localalias.144 _ZNSt12experimental10filesystem2v17__cxx11neERKNS2_18directory_iteratorES5_ 1004
_ZNSt12experimental10filesystem2v14copyERKNS1_7__cxx114pathES5_NS1_12copy_optionsERSt10error_code,_ZNSt12experimental10filesystem2v14copyERKNS1_7__cxx114pathES5_NS1_12copy_optionsERSt10error_code.localalias.144 _ZNKSt12experimental10filesystem2v17__cxx1118directory_iteratordeEv 1020
_ZNSt12experimental10filesystem2v14copyERKNS1_7__cxx114pathES5_NS1_12copy_optionsERSt10error_code,_ZNSt12experimental10filesystem2v14copyERKNS1_7__cxx114pathES5_NS1_12copy_optionsERSt10error_code.localalias.144 _ZNKSt12experimental10filesystem2v17__cxx114path8filenameEv 1036
_ZNSt12experimental10filesystem2v14copyERKNS1_7__cxx114pathES5_NS1_12copy_optionsERSt10error_code,_ZNSt12experimental10filesystem2v14copyERKNS1_7__cxx114pathES5_NS1_12copy_optionsERSt10error_code.localalias.144 _ZNSt12experimental10filesystem2v17__cxx11dvERKNS2_4pathES5_ 1052
_ZNSt12experimental10filesystem2v14copyERKNS1_7__cxx114pathES5_NS1_12copy_optionsERSt10error_code,_ZNSt12experimental10filesystem2v14copyERKNS1_7__cxx114pathES5_NS1_12copy_optionsERSt10error_code.localalias.144 _ZNSt12experimental10filesystem2v17__cxx114pathD1Ev 1080
_ZNSt12experimental10filesystem2v14copyERKNS1_7__cxx114pathES5_NS1_12copy_optionsERSt10error_code,_ZNSt12experimental10filesystem2v14copyERKNS1_7__cxx114pathES5_NS1_12copy_optionsERSt10error_code.localalias.144 _ZNSt12experimental10filesystem2v17__cxx114pathD1Ev 1088
_ZNSt12experimental10filesystem2v14copyERKNS1_7__cxx114pathES5_NS1_12copy_optionsERSt10error_code,_ZNSt12experimental10filesystem2v14copyERKNS1_7__cxx114pathES5_NS1_12copy_optionsERSt10error_code.localalias.144 _ZNSt12experimental10filesystem2v17__cxx1118directory_iteratorppEv 1096
_ZNSt12experimental10filesystem2v14copyERKNS1_7__cxx114pathES5_NS1_12copy_optionsERSt10error_code,_ZNSt12experimental10filesystem2v14copyERKNS1_7__cxx114pathES5_NS1_12copy_optionsERSt10error_code.localalias.144 _ZNSt14__shared_countILN9__gnu_cxx12_Lock_policyE2EED1Ev 1108
_ZNSt12experimental10filesystem2v14copyERKNS1_7__cxx114pathES5_NS1_12copy_optionsERSt10error_code,_ZNSt12experimental10filesystem2v14copyERKNS1_7__cxx114pathES5_NS1_12copy_optionsERSt10error_code.localalias.144 _ZNSt14__shared_countILN9__gnu_cxx12_Lock_policyE2EED1Ev 1116
_ZNSt12experimental10filesystem2v14copyERKNS1_7__cxx114pathES5_NS1_12copy_optionsERSt10error_code,_ZNSt12experimental10filesystem2v14copyERKNS1_7__cxx114pathES5_NS1_12copy_optionsERSt10error_code.localalias.144 _ZNSt14__shared_countILN9__gnu_cxx12_Lock_policyE2EED1Ev 1124
_ZNSt12experimental10filesystem2v112current_pathB5cxx11Ev _ZNSt10error_codeC1Ev 20
_ZNSt12experimental10filesystem2v112current_pathB5cxx11Ev _ZNSt12experimental10filesystem2v112current_pathB5cxx11ERSt10error_code 32
_ZNSt12experimental10filesystem2v112current_pathB5cxx11Ev __cxa_allocate_exception 64
_ZNSt12experimental10filesystem2v112current_pathB5cxx11Ev _ZNSt7__cxx1112basic_stringIcSt11char_traitsIcESaIcEEC2IS3_EEPKcRKS3_.constprop.149 84
_ZNSt12experimental10filesystem2v112current_pathB5cxx11Ev _ZNSt12experimental10filesystem2v17__cxx1116filesystem_errorC1ERKNSt7__cxx1112basic_stringIcSt11char_traitsIcESaIcEEESt10error_code 100
_ZNSt12experimental10filesystem2v112current_pathB5cxx11Ev _ZNSt7__cxx1112basic_stringIcSt11char_traitsIcESaIcEE10_M_disposeEv 108
_ZNSt12experimental10filesystem2v112current_pathB5cxx11Ev __cxa_throw 148
_ZNSt12experimental10filesystem2v112current_pathB5cxx11Ev _ZNSt7__cxx1112basic_stringIcSt11char_traitsIcESaIcEE10_M_disposeEv 160
_ZNSt12experimental10filesystem2v112current_pathB5cxx11Ev __cxa_free_exception 168
_ZNSt12experimental10filesystem2v112current_pathB5cxx11Ev _ZNSt12experimental10filesystem2v17__cxx114pathD1Ev 176
_ZNSt12experimental10filesystem2v112current_pathB5cxx11Ev __cxa_end_cleanup 180
_ZNSt12experimental10filesystem2v112current_pathB5cxx11Ev .LC14 204
_ZNSt12experimental10filesystem2v112current_pathB5cxx11Ev _ZNSt12experimental10filesystem2v17__cxx1116filesystem_errorD1Ev 208
_ZNSt12experimental10filesystem2v112current_pathB5cxx11Ev _ZTINSt12experimental10filesystem2v17__cxx1116filesystem_errorE 212
_ZNSt12experimental10filesystem2v18absoluteERKNS1_7__cxx114pathES5_,_ZNSt12experimental10filesystem2v18absoluteERKNS1_7__cxx114pathES5_.localalias.145 _ZNKSt12experimental10filesystem2v17__cxx114path18has_root_directoryEv 24
_ZNSt12experimental10filesystem2v18absoluteERKNS1_7__cxx114pathES5_,_ZNSt12experimental10filesystem2v18absoluteERKNS1_7__cxx114pathES5_.localalias.145 _ZNKSt12experimental10filesystem2v17__cxx114path13has_root_nameEv 36
_ZNSt12experimental10filesystem2v18absoluteERKNS1_7__cxx114pathES5_,_ZNSt12experimental10filesystem2v18absoluteERKNS1_7__cxx114pathES5_.localalias.145 _ZNSt12experimental10filesystem2v17__cxx114pathC1Ev 52
_ZNSt12experimental10filesystem2v18absoluteERKNS1_7__cxx114pathES5_,_ZNSt12experimental10filesystem2v18absoluteERKNS1_7__cxx114pathES5_.localalias.145 _ZNSt12experimental10filesystem2v17__cxx114pathaSERKS3_ 72
_ZNSt12experimental10filesystem2v18absoluteERKNS1_7__cxx114pathES5_,_ZNSt12experimental10filesystem2v18absoluteERKNS1_7__cxx114pathES5_.localalias.145 _ZNKSt12experimental10filesystem2v17__cxx114path18has_root_directoryEv 84
_ZNSt12experimental10filesystem2v18absoluteERKNS1_7__cxx114pathES5_,_ZNSt12experimental10filesystem2v18absoluteERKNS1_7__cxx114pathES5_.localalias.145 _ZNSt12experimental10filesystem2v17__cxx114pathC1ERKS3_ 112
_ZNSt12experimental10filesystem2v18absoluteERKNS1_7__cxx114pathES5_,_ZNSt12experimental10filesystem2v18absoluteERKNS1_7__cxx114pathES5_.localalias.145 _ZNSt12experimental10filesystem2v112current_pathB5cxx11Ev 124
_ZNSt12experimental10filesystem2v18absoluteERKNS1_7__cxx114pathES5_,_ZNSt12experimental10filesystem2v18absoluteERKNS1_7__cxx114pathES5_.localalias.145 _ZNSt12experimental10filesystem2v17__cxx114pathaSERKS3_ 156
_ZNSt12experimental10filesystem2v18absoluteERKNS1_7__cxx114pathES5_,_ZNSt12experimental10filesystem2v18absoluteERKNS1_7__cxx114pathES5_.localalias.145 _ZNSt12experimental10filesystem2v17__cxx114pathD1Ev 164
_ZNSt12experimental10filesystem2v18absoluteERKNS1_7__cxx114pathES5_,_ZNSt12experimental10filesystem2v18absoluteERKNS1_7__cxx114pathES5_.localalias.145 _ZNSt12experimental10filesystem2v17__cxx114pathD1Ev 180
_ZNSt12experimental10filesystem2v18absoluteERKNS1_7__cxx114pathES5_,_ZNSt12experimental10filesystem2v18absoluteERKNS1_7__cxx114pathES5_.localalias.145 _ZNKSt12experimental10filesystem2v17__cxx114path9root_nameEv 200
_ZNSt12experimental10filesystem2v18absoluteERKNS1_7__cxx114pathES5_,_ZNSt12experimental10filesystem2v18absoluteERKNS1_7__cxx114pathES5_.localalias.145 _ZNSt12experimental10filesystem2v17__cxx11dvERKNS2_4pathES5_ 220
_ZNSt12experimental10filesystem2v18absoluteERKNS1_7__cxx114pathES5_,_ZNSt12experimental10filesystem2v18absoluteERKNS1_7__cxx114pathES5_.localalias.145 _ZNSt12experimental10filesystem2v17__cxx114pathaSEOS3_ 232
_ZNSt12experimental10filesystem2v18absoluteERKNS1_7__cxx114pathES5_,_ZNSt12experimental10filesystem2v18absoluteERKNS1_7__cxx114pathES5_.localalias.145 _ZNSt12experimental10filesystem2v17__cxx114pathD1Ev 240
_ZNSt12experimental10filesystem2v18absoluteERKNS1_7__cxx114pathES5_,_ZNSt12experimental10filesystem2v18absoluteERKNS1_7__cxx114pathES5_.localalias.145 _ZNKSt12experimental10filesystem2v17__cxx114path9root_nameEv 272
_ZNSt12experimental10filesystem2v18absoluteERKNS1_7__cxx114pathES5_,_ZNSt12experimental10filesystem2v18absoluteERKNS1_7__cxx114pathES5_.localalias.145 _ZNKSt12experimental10filesystem2v17__cxx114path14root_directoryEv 288
_ZNSt12experimental10filesystem2v18absoluteERKNS1_7__cxx114pathES5_,_ZNSt12experimental10filesystem2v18absoluteERKNS1_7__cxx114pathES5_.localalias.145 _ZNSt12experimental10filesystem2v17__cxx11dvERKNS2_4pathES5_ 308
_ZNSt12experimental10filesystem2v18absoluteERKNS1_7__cxx114pathES5_,_ZNSt12experimental10filesystem2v18absoluteERKNS1_7__cxx114pathES5_.localalias.145 _ZNKSt12experimental10filesystem2v17__cxx114path13relative_pathEv 320
_ZNSt12experimental10filesystem2v18absoluteERKNS1_7__cxx114pathES5_,_ZNSt12experimental10filesystem2v18absoluteERKNS1_7__cxx114pathES5_.localalias.145 _ZNSt12experimental10filesystem2v17__cxx11dvERKNS2_4pathES5_ 340
_ZNSt12experimental10filesystem2v18absoluteERKNS1_7__cxx114pathES5_,_ZNSt12experimental10filesystem2v18absoluteERKNS1_7__cxx114pathES5_.localalias.145 _ZNKSt12experimental10filesystem2v17__cxx114path13relative_pathEv 352
_ZNSt12experimental10filesystem2v18absoluteERKNS1_7__cxx114pathES5_,_ZNSt12experimental10filesystem2v18absoluteERKNS1_7__cxx114pathES5_.localalias.145 _ZNSt12experimental10filesystem2v17__cxx11dvERKNS2_4pathES5_ 372
_ZNSt12experimental10filesystem2v18absoluteERKNS1_7__cxx114pathES5_,_ZNSt12experimental10filesystem2v18absoluteERKNS1_7__cxx114pathES5_.localalias.145 _ZNSt12experimental10filesystem2v17__cxx114pathaSEOS3_ 384
_ZNSt12experimental10filesystem2v18absoluteERKNS1_7__cxx114pathES5_,_ZNSt12experimental10filesystem2v18absoluteERKNS1_7__cxx114pathES5_.localalias.145 _ZNSt12experimental10filesystem2v17__cxx114pathD1Ev 392
_ZNSt12experimental10filesystem2v18absoluteERKNS1_7__cxx114pathES5_,_ZNSt12experimental10filesystem2v18absoluteERKNS1_7__cxx114pathES5_.localalias.145 _ZNSt12experimental10filesystem2v17__cxx114pathD1Ev 400
_ZNSt12experimental10filesystem2v18absoluteERKNS1_7__cxx114pathES5_,_ZNSt12experimental10filesystem2v18absoluteERKNS1_7__cxx114pathES5_.localalias.145 _ZNSt12experimental10filesystem2v17__cxx114pathD1Ev 408
_ZNSt12experimental10filesystem2v18absoluteERKNS1_7__cxx114pathES5_,_ZNSt12experimental10filesystem2v18absoluteERKNS1_7__cxx114pathES5_.localalias.145 _ZNSt12experimental10filesystem2v17__cxx114pathD1Ev 416
_ZNSt12experimental10filesystem2v18absoluteERKNS1_7__cxx114pathES5_,_ZNSt12experimental10filesystem2v18absoluteERKNS1_7__cxx114pathES5_.localalias.145 _ZNSt12experimental10filesystem2v17__cxx114pathD1Ev 424
_ZNSt12experimental10filesystem2v18absoluteERKNS1_7__cxx114pathES5_,_ZNSt12experimental10filesystem2v18absoluteERKNS1_7__cxx114pathES5_.localalias.145 _ZNSt12experimental10filesystem2v17__cxx114pathD1Ev 432
_ZNSt12experimental10filesystem2v18absoluteERKNS1_7__cxx114pathES5_,_ZNSt12experimental10filesystem2v18absoluteERKNS1_7__cxx114pathES5_.localalias.145 _ZNSt12experimental10filesystem2v17__cxx114pathD1Ev 440
_ZNSt12experimental10filesystem2v18absoluteERKNS1_7__cxx114pathES5_,_ZNSt12experimental10filesystem2v18absoluteERKNS1_7__cxx114pathES5_.localalias.145 _ZNSt12experimental10filesystem2v17__cxx11dvERKNS2_4pathES5_ 468
_ZNSt12experimental10filesystem2v18absoluteERKNS1_7__cxx114pathES5_,_ZNSt12experimental10filesystem2v18absoluteERKNS1_7__cxx114pathES5_.localalias.145 _ZNSt12experimental10filesystem2v17__cxx114pathaSEOS3_ 480
_ZNSt12experimental10filesystem2v18absoluteERKNS1_7__cxx114pathES5_,_ZNSt12experimental10filesystem2v18absoluteERKNS1_7__cxx114pathES5_.localalias.145 _ZNSt12experimental10filesystem2v17__cxx114pathD1Ev 492
_ZNSt12experimental10filesystem2v18absoluteERKNS1_7__cxx114pathES5_,_ZNSt12experimental10filesystem2v18absoluteERKNS1_7__cxx114pathES5_.localalias.145 _ZNSt12experimental10filesystem2v17__cxx114pathD1Ev 508
_ZNSt12experimental10filesystem2v18absoluteERKNS1_7__cxx114pathES5_,_ZNSt12experimental10filesystem2v18absoluteERKNS1_7__cxx114pathES5_.localalias.145 _ZNSt12experimental10filesystem2v17__cxx114pathD1Ev 516
_ZNSt12experimental10filesystem2v18absoluteERKNS1_7__cxx114pathES5_,_ZNSt12experimental10filesystem2v18absoluteERKNS1_7__cxx114pathES5_.localalias.145 __cxa_end_cleanup 520
_ZNSt12experimental10filesystem2v18absoluteERKNS1_7__cxx114pathES5_,_ZNSt12experimental10filesystem2v18absoluteERKNS1_7__cxx114pathES5_.localalias.145 _ZNSt12experimental10filesystem2v17__cxx114pathD1Ev 536
_ZNSt12experimental10filesystem2v18absoluteERKNS1_7__cxx114pathES5_,_ZNSt12experimental10filesystem2v18absoluteERKNS1_7__cxx114pathES5_.localalias.145 _ZNSt12experimental10filesystem2v17__cxx114pathD1Ev 544
_ZNSt12experimental10filesystem2v18absoluteERKNS1_7__cxx114pathES5_,_ZNSt12experimental10filesystem2v18absoluteERKNS1_7__cxx114pathES5_.localalias.145 _ZNSt12experimental10filesystem2v17__cxx114pathD1Ev 552
_ZNSt12experimental10filesystem2v18absoluteERKNS1_7__cxx114pathES5_,_ZNSt12experimental10filesystem2v18absoluteERKNS1_7__cxx114pathES5_.localalias.145 _ZNSt12experimental10filesystem2v17__cxx114pathD1Ev 560
_ZNSt12experimental10filesystem2v18absoluteERKNS1_7__cxx114pathES5_,_ZNSt12experimental10filesystem2v18absoluteERKNS1_7__cxx114pathES5_.localalias.145 _ZNSt12experimental10filesystem2v17__cxx114pathD1Ev 568
_ZNSt12experimental10filesystem2v115system_completeERKNS1_7__cxx114pathERSt10error_code _ZNSt12experimental10filesystem2v112current_pathB5cxx11ERSt10error_code 32
_ZNSt12experimental10filesystem2v115system_completeERKNS1_7__cxx114pathERSt10error_code _ZNSt12experimental10filesystem2v17__cxx114pathC1Ev 52
_ZNSt12experimental10filesystem2v115system_completeERKNS1_7__cxx114pathERSt10error_code _ZNSt12experimental10filesystem2v17__cxx114pathD1Ev 60
_ZNSt12experimental10filesystem2v115system_completeERKNS1_7__cxx114pathERSt10error_code _ZNSt12experimental10filesystem2v18absoluteERKNS1_7__cxx114pathES5_ 88
_ZNSt12experimental10filesystem2v115system_completeERKNS1_7__cxx114pathERSt10error_code _ZNSt12experimental10filesystem2v17__cxx114pathD1Ev 100
_ZNSt12experimental10filesystem2v115system_completeERKNS1_7__cxx114pathERSt10error_code __cxa_end_cleanup 104
_ZNSt12experimental10filesystem2v112current_pathERKNS1_7__cxx114pathE _ZNSt10error_codeC1Ev 20
_ZNSt12experimental10filesystem2v112current_pathERKNS1_7__cxx114pathE _ZNSt12experimental10filesystem2v112current_pathERKNS1_7__cxx114pathERSt10error_code 32
_ZNSt12experimental10filesystem2v112current_pathERKNS1_7__cxx114pathE __cxa_allocate_exception 64
_ZNSt12experimental10filesystem2v112current_pathERKNS1_7__cxx114pathE _ZNSt7__cxx1112basic_stringIcSt11char_traitsIcESaIcEEC2IS3_EEPKcRKS3_.constprop.149 84
_ZNSt12experimental10filesystem2v112current_pathERKNS1_7__cxx114pathE _ZNSt12experimental10filesystem2v17__cxx1116filesystem_errorC1ERKNSt7__cxx1112basic_stringIcSt11char_traitsIcESaIcEEESt10error_code 100
_ZNSt12experimental10filesystem2v112current_pathERKNS1_7__cxx114pathE _ZNSt7__cxx1112basic_stringIcSt11char_traitsIcESaIcEE10_M_disposeEv 108
_ZNSt12experimental10filesystem2v112current_pathERKNS1_7__cxx114pathE __cxa_throw 148
_ZNSt12experimental10filesystem2v112current_pathERKNS1_7__cxx114pathE _ZNSt7__cxx1112basic_stringIcSt11char_traitsIcESaIcEE10_M_disposeEv 156
_ZNSt12experimental10filesystem2v112current_pathERKNS1_7__cxx114pathE __cxa_free_exception 164
_ZNSt12experimental10filesystem2v112current_pathERKNS1_7__cxx114pathE __cxa_end_cleanup 168
_ZNSt12experimental10filesystem2v112current_pathERKNS1_7__cxx114pathE .LC15 188
_ZNSt12experimental10filesystem2v112current_pathERKNS1_7__cxx114pathE _ZNSt12experimental10filesystem2v17__cxx1116filesystem_errorD1Ev 192
_ZNSt12experimental10filesystem2v112current_pathERKNS1_7__cxx114pathE _ZTINSt12experimental10filesystem2v17__cxx1116filesystem_errorE 196
_ZNSt12experimental10filesystem2v119temp_directory_pathB5cxx11Ev _ZNSt10error_codeC1Ev 20
_ZNSt12experimental10filesystem2v119temp_directory_pathB5cxx11Ev _ZNSt12experimental10filesystem2v119temp_directory_pathB5cxx11ERSt10error_code 32
_ZNSt12experimental10filesystem2v119temp_directory_pathB5cxx11Ev __cxa_allocate_exception 64
_ZNSt12experimental10filesystem2v119temp_directory_pathB5cxx11Ev _ZNSt7__cxx1112basic_stringIcSt11char_traitsIcESaIcEEC2IS3_EEPKcRKS3_.constprop.149 84
_ZNSt12experimental10filesystem2v119temp_directory_pathB5cxx11Ev _ZNSt12experimental10filesystem2v17__cxx1116filesystem_errorC1ERKNSt7__cxx1112basic_stringIcSt11char_traitsIcESaIcEEESt10error_code 100
_ZNSt12experimental10filesystem2v119temp_directory_pathB5cxx11Ev _ZNSt7__cxx1112basic_stringIcSt11char_traitsIcESaIcEE10_M_disposeEv 108
_ZNSt12experimental10filesystem2v119temp_directory_pathB5cxx11Ev __cxa_throw 148
_ZNSt12experimental10filesystem2v119temp_directory_pathB5cxx11Ev _ZNSt7__cxx1112basic_stringIcSt11char_traitsIcESaIcEE10_M_disposeEv 160
_ZNSt12experimental10filesystem2v119temp_directory_pathB5cxx11Ev __cxa_free_exception 168
_ZNSt12experimental10filesystem2v119temp_directory_pathB5cxx11Ev _ZNSt12experimental10filesystem2v17__cxx114pathD1Ev 176
_ZNSt12experimental10filesystem2v119temp_directory_pathB5cxx11Ev __cxa_end_cleanup 180
_ZNSt12experimental10filesystem2v119temp_directory_pathB5cxx11Ev .LC16 204
_ZNSt12experimental10filesystem2v119temp_directory_pathB5cxx11Ev _ZNSt12experimental10filesystem2v17__cxx1116filesystem_errorD1Ev 208
_ZNSt12experimental10filesystem2v119temp_directory_pathB5cxx11Ev _ZTINSt12experimental10filesystem2v17__cxx1116filesystem_errorE 212
_ZNSt12experimental10filesystem2v17__cxx1116filesystem_errorC1ERKNSt7__cxx1112basic_stringIcSt11char_traitsIcESaIcEEERKNS2_4pathESE_St10error_code,_ZNSt12experimental10filesystem2v17__cxx1116filesystem_errorC2ERKNSt7__cxx1112basic_stringIcSt11char_traitsIcESaIcEEERKNS2_4pathESE_St10error_code _ZNSt12system_errorC2ESt10error_codeRKNSt7__cxx1112basic_stringIcSt11char_traitsIcESaIcEEE 32
_ZNSt12experimental10filesystem2v17__cxx1116filesystem_errorC1ERKNSt7__cxx1112basic_stringIcSt11char_traitsIcESaIcEEERKNS2_4pathESE_St10error_code,_ZNSt12experimental10filesystem2v17__cxx1116filesystem_errorC2ERKNSt7__cxx1112basic_stringIcSt11char_traitsIcESaIcEEERKNS2_4pathESE_St10error_code _ZNSt12experimental10filesystem2v17__cxx114pathC1ERKS3_ 68
_ZNSt12experimental10filesystem2v17__cxx1116filesystem_errorC1ERKNSt7__cxx1112basic_stringIcSt11char_traitsIcESaIcEEERKNS2_4pathESE_St10error_code,_ZNSt12experimental10filesystem2v17__cxx1116filesystem_errorC2ERKNSt7__cxx1112basic_stringIcSt11char_traitsIcESaIcEEERKNS2_4pathESE_St10error_code _ZNSt12experimental10filesystem2v17__cxx114pathC1ERKS3_ 84
_ZNSt12experimental10filesystem2v17__cxx1116filesystem_errorC1ERKNSt7__cxx1112basic_stringIcSt11char_traitsIcESaIcEEERKNS2_4pathESE_St10error_code,_ZNSt12experimental10filesystem2v17__cxx1116filesystem_errorC2ERKNSt7__cxx1112basic_stringIcSt11char_traitsIcESaIcEEERKNS2_4pathESE_St10error_code _ZNSt12experimental10filesystem2v17__cxx1116filesystem_error11_M_gen_whatEv 96
_ZNSt12experimental10filesystem2v17__cxx1116filesystem_errorC1ERKNSt7__cxx1112basic_stringIcSt11char_traitsIcESaIcEEERKNS2_4pathESE_St10error_code,_ZNSt12experimental10filesystem2v17__cxx1116filesystem_errorC2ERKNSt7__cxx1112basic_stringIcSt11char_traitsIcESaIcEEERKNS2_4pathESE_St10error_code _ZNSt12experimental10filesystem2v17__cxx114pathD1Ev 108
_ZNSt12experimental10filesystem2v17__cxx1116filesystem_errorC1ERKNSt7__cxx1112basic_stringIcSt11char_traitsIcESaIcEEERKNS2_4pathESE_St10error_code,_ZNSt12experimental10filesystem2v17__cxx1116filesystem_errorC2ERKNSt7__cxx1112basic_stringIcSt11char_traitsIcESaIcEEERKNS2_4pathESE_St10error_code _ZNSt12experimental10filesystem2v17__cxx114pathD1Ev 116
_ZNSt12experimental10filesystem2v17__cxx1116filesystem_errorC1ERKNSt7__cxx1112basic_stringIcSt11char_traitsIcESaIcEEERKNS2_4pathESE_St10error_code,_ZNSt12experimental10filesystem2v17__cxx1116filesystem_errorC2ERKNSt7__cxx1112basic_stringIcSt11char_traitsIcESaIcEEERKNS2_4pathESE_St10error_code _ZNSt12system_errorD2Ev 124
_ZNSt12experimental10filesystem2v17__cxx1116filesystem_errorC1ERKNSt7__cxx1112basic_stringIcSt11char_traitsIcESaIcEEERKNS2_4pathESE_St10error_code,_ZNSt12experimental10filesystem2v17__cxx1116filesystem_errorC2ERKNSt7__cxx1112basic_stringIcSt11char_traitsIcESaIcEEERKNS2_4pathESE_St10error_code __cxa_end_cleanup 128
_ZNSt12experimental10filesystem2v17__cxx1116filesystem_errorC1ERKNSt7__cxx1112basic_stringIcSt11char_traitsIcESaIcEEERKNS2_4pathESE_St10error_code,_ZNSt12experimental10filesystem2v17__cxx1116filesystem_errorC2ERKNSt7__cxx1112basic_stringIcSt11char_traitsIcESaIcEEERKNS2_4pathESE_St10error_code _ZTVNSt12experimental10filesystem2v17__cxx1116filesystem_errorE 152
_ZNSt12experimental10filesystem2v19copy_fileERKNS1_7__cxx114pathES5_NS1_12copy_optionsE _ZNSt10error_codeC1Ev 32
_ZNSt12experimental10filesystem2v19copy_fileERKNS1_7__cxx114pathES5_NS1_12copy_optionsE _ZNSt12experimental10filesystem2v19copy_fileERKNS1_7__cxx114pathES5_NS1_12copy_optionsERSt10error_code 52
_ZNSt12experimental10filesystem2v19copy_fileERKNS1_7__cxx114pathES5_NS1_12copy_optionsE __cxa_allocate_exception 80
_ZNSt12experimental10filesystem2v19copy_fileERKNS1_7__cxx114pathES5_NS1_12copy_optionsE _ZNSt7__cxx1112basic_stringIcSt11char_traitsIcESaIcEEC2IS3_EEPKcRKS3_.constprop.149 100
_ZNSt12experimental10filesystem2v19copy_fileERKNS1_7__cxx114pathES5_NS1_12copy_optionsE _ZNSt12experimental10filesystem2v17__cxx1116filesystem_errorC1ERKNSt7__cxx1112basic_stringIcSt11char_traitsIcESaIcEEERKNS2_4pathESE_St10error_code 128
_ZNSt12experimental10filesystem2v19copy_fileERKNS1_7__cxx114pathES5_NS1_12copy_optionsE _ZNSt7__cxx1112basic_stringIcSt11char_traitsIcESaIcEE10_M_disposeEv 136
_ZNSt12experimental10filesystem2v19copy_fileERKNS1_7__cxx114pathES5_NS1_12copy_optionsE __cxa_throw 176
_ZNSt12experimental10filesystem2v19copy_fileERKNS1_7__cxx114pathES5_NS1_12copy_optionsE _ZNSt7__cxx1112basic_stringIcSt11char_traitsIcESaIcEE10_M_disposeEv 184
_ZNSt12experimental10filesystem2v19copy_fileERKNS1_7__cxx114pathES5_NS1_12copy_optionsE __cxa_free_exception 192
_ZNSt12experimental10filesystem2v19copy_fileERKNS1_7__cxx114pathES5_NS1_12copy_optionsE __cxa_end_cleanup 196
_ZNSt12experimental10filesystem2v19copy_fileERKNS1_7__cxx114pathES5_NS1_12copy_optionsE .LC17 216
_ZNSt12experimental10filesystem2v19copy_fileERKNS1_7__cxx114pathES5_NS1_12copy_optionsE _ZNSt12experimental10filesystem2v17__cxx1116filesystem_errorD1Ev 220
_ZNSt12experimental10filesystem2v19copy_fileERKNS1_7__cxx114pathES5_NS1_12copy_optionsE _ZTINSt12experimental10filesystem2v17__cxx1116filesystem_errorE 224
_ZNSt12experimental10filesystem2v112copy_symlinkERKNS1_7__cxx114pathES5_ _ZNSt10error_codeC1Ev 24
_ZNSt12experimental10filesystem2v112copy_symlinkERKNS1_7__cxx114pathES5_ _ZNSt12experimental10filesystem2v112copy_symlinkERKNS1_7__cxx114pathES5_RSt10error_code 44
_ZNSt12experimental10filesystem2v112copy_symlinkERKNS1_7__cxx114pathES5_ __cxa_allocate_exception 72
_ZNSt12experimental10filesystem2v112copy_symlinkERKNS1_7__cxx114pathES5_ _ZNSt7__cxx1112basic_stringIcSt11char_traitsIcESaIcEEC2IS3_EEPKcRKS3_.constprop.149 92
_ZNSt12experimental10filesystem2v112copy_symlinkERKNS1_7__cxx114pathES5_ _ZNSt12experimental10filesystem2v17__cxx1116filesystem_errorC1ERKNSt7__cxx1112basic_stringIcSt11char_traitsIcESaIcEEERKNS2_4pathESE_St10error_code 120
_ZNSt12experimental10filesystem2v112copy_symlinkERKNS1_7__cxx114pathES5_ _ZNSt7__cxx1112basic_stringIcSt11char_traitsIcESaIcEE10_M_disposeEv 128
_ZNSt12experimental10filesystem2v112copy_symlinkERKNS1_7__cxx114pathES5_ __cxa_throw 168
_ZNSt12experimental10filesystem2v112copy_symlinkERKNS1_7__cxx114pathES5_ _ZNSt7__cxx1112basic_stringIcSt11char_traitsIcESaIcEE10_M_disposeEv 176
_ZNSt12experimental10filesystem2v112copy_symlinkERKNS1_7__cxx114pathES5_ __cxa_free_exception 184
_ZNSt12experimental10filesystem2v112copy_symlinkERKNS1_7__cxx114pathES5_ __cxa_end_cleanup 188
_ZNSt12experimental10filesystem2v112copy_symlinkERKNS1_7__cxx114pathES5_ .LC18 208
_ZNSt12experimental10filesystem2v112copy_symlinkERKNS1_7__cxx114pathES5_ _ZNSt12experimental10filesystem2v17__cxx1116filesystem_errorD1Ev 212
_ZNSt12experimental10filesystem2v112copy_symlinkERKNS1_7__cxx114pathES5_ _ZTINSt12experimental10filesystem2v17__cxx1116filesystem_errorE 216
_ZNSt12experimental10filesystem2v124create_directory_symlinkERKNS1_7__cxx114pathES5_ _ZNSt10error_codeC1Ev 24
_ZNSt12experimental10filesystem2v124create_directory_symlinkERKNS1_7__cxx114pathES5_ _ZNSt12experimental10filesystem2v124create_directory_symlinkERKNS1_7__cxx114pathES5_RSt10error_code 44
_ZNSt12experimental10filesystem2v124create_directory_symlinkERKNS1_7__cxx114pathES5_ __cxa_allocate_exception 72
_ZNSt12experimental10filesystem2v124create_directory_symlinkERKNS1_7__cxx114pathES5_ _ZNSt7__cxx1112basic_stringIcSt11char_traitsIcESaIcEEC2IS3_EEPKcRKS3_.constprop.149 92
_ZNSt12experimental10filesystem2v124create_directory_symlinkERKNS1_7__cxx114pathES5_ _ZNSt12experimental10filesystem2v17__cxx1116filesystem_errorC1ERKNSt7__cxx1112basic_stringIcSt11char_traitsIcESaIcEEERKNS2_4pathESE_St10error_code 120
_ZNSt12experimental10filesystem2v124create_directory_symlinkERKNS1_7__cxx114pathES5_ _ZNSt7__cxx1112basic_stringIcSt11char_traitsIcESaIcEE10_M_disposeEv 128
_ZNSt12experimental10filesystem2v124create_directory_symlinkERKNS1_7__cxx114pathES5_ __cxa_throw 168
_ZNSt12experimental10filesystem2v124create_directory_symlinkERKNS1_7__cxx114pathES5_ _ZNSt7__cxx1112basic_stringIcSt11char_traitsIcESaIcEE10_M_disposeEv 176
_ZNSt12experimental10filesystem2v124create_directory_symlinkERKNS1_7__cxx114pathES5_ __cxa_free_exception 184
_ZNSt12experimental10filesystem2v124create_directory_symlinkERKNS1_7__cxx114pathES5_ __cxa_end_cleanup 188
_ZNSt12experimental10filesystem2v124create_directory_symlinkERKNS1_7__cxx114pathES5_ .LC19 208
_ZNSt12experimental10filesystem2v124create_directory_symlinkERKNS1_7__cxx114pathES5_ _ZNSt12experimental10filesystem2v17__cxx1116filesystem_errorD1Ev 212
_ZNSt12experimental10filesystem2v124create_directory_symlinkERKNS1_7__cxx114pathES5_ _ZTINSt12experimental10filesystem2v17__cxx1116filesystem_errorE 216
_ZNSt12experimental10filesystem2v116create_hard_linkERKNS1_7__cxx114pathES5_ _ZNSt10error_codeC1Ev 24
_ZNSt12experimental10filesystem2v116create_hard_linkERKNS1_7__cxx114pathES5_ _ZNSt12experimental10filesystem2v116create_hard_linkERKNS1_7__cxx114pathES5_RSt10error_code 44
_ZNSt12experimental10filesystem2v116create_hard_linkERKNS1_7__cxx114pathES5_ __cxa_allocate_exception 72
_ZNSt12experimental10filesystem2v116create_hard_linkERKNS1_7__cxx114pathES5_ _ZNSt7__cxx1112basic_stringIcSt11char_traitsIcESaIcEEC2IS3_EEPKcRKS3_.constprop.149 92
_ZNSt12experimental10filesystem2v116create_hard_linkERKNS1_7__cxx114pathES5_ _ZNSt12experimental10filesystem2v17__cxx1116filesystem_errorC1ERKNSt7__cxx1112basic_stringIcSt11char_traitsIcESaIcEEERKNS2_4pathESE_St10error_code 120
_ZNSt12experimental10filesystem2v116create_hard_linkERKNS1_7__cxx114pathES5_ _ZNSt7__cxx1112basic_stringIcSt11char_traitsIcESaIcEE10_M_disposeEv 128
_ZNSt12experimental10filesystem2v116create_hard_linkERKNS1_7__cxx114pathES5_ __cxa_throw 168
_ZNSt12experimental10filesystem2v116create_hard_linkERKNS1_7__cxx114pathES5_ _ZNSt7__cxx1112basic_stringIcSt11char_traitsIcESaIcEE10_M_disposeEv 176
_ZNSt12experimental10filesystem2v116create_hard_linkERKNS1_7__cxx114pathES5_ __cxa_free_exception 184
_ZNSt12experimental10filesystem2v116create_hard_linkERKNS1_7__cxx114pathES5_ __cxa_end_cleanup 188
_ZNSt12experimental10filesystem2v116create_hard_linkERKNS1_7__cxx114pathES5_ .LC20 208
_ZNSt12experimental10filesystem2v116create_hard_linkERKNS1_7__cxx114pathES5_ _ZNSt12experimental10filesystem2v17__cxx1116filesystem_errorD1Ev 212
_ZNSt12experimental10filesystem2v116create_hard_linkERKNS1_7__cxx114pathES5_ _ZTINSt12experimental10filesystem2v17__cxx1116filesystem_errorE 216
_ZNSt12experimental10filesystem2v114create_symlinkERKNS1_7__cxx114pathES5_ _ZNSt10error_codeC1Ev 24
_ZNSt12experimental10filesystem2v114create_symlinkERKNS1_7__cxx114pathES5_ _ZNSt12experimental10filesystem2v114create_symlinkERKNS1_7__cxx114pathES5_RSt10error_code 44
_ZNSt12experimental10filesystem2v114create_symlinkERKNS1_7__cxx114pathES5_ __cxa_allocate_exception 72
_ZNSt12experimental10filesystem2v114create_symlinkERKNS1_7__cxx114pathES5_ _ZNSt7__cxx1112basic_stringIcSt11char_traitsIcESaIcEEC2IS3_EEPKcRKS3_.constprop.149 92
_ZNSt12experimental10filesystem2v114create_symlinkERKNS1_7__cxx114pathES5_ _ZNSt12experimental10filesystem2v17__cxx1116filesystem_errorC1ERKNSt7__cxx1112basic_stringIcSt11char_traitsIcESaIcEEERKNS2_4pathESE_St10error_code 120
_ZNSt12experimental10filesystem2v114create_symlinkERKNS1_7__cxx114pathES5_ _ZNSt7__cxx1112basic_stringIcSt11char_traitsIcESaIcEE10_M_disposeEv 128
_ZNSt12experimental10filesystem2v114create_symlinkERKNS1_7__cxx114pathES5_ __cxa_throw 168
_ZNSt12experimental10filesystem2v114create_symlinkERKNS1_7__cxx114pathES5_ _ZNSt7__cxx1112basic_stringIcSt11char_traitsIcESaIcEE10_M_disposeEv 176
_ZNSt12experimental10filesystem2v114create_symlinkERKNS1_7__cxx114pathES5_ __cxa_free_exception 184
_ZNSt12experimental10filesystem2v114create_symlinkERKNS1_7__cxx114pathES5_ __cxa_end_cleanup 188
_ZNSt12experimental10filesystem2v114create_symlinkERKNS1_7__cxx114pathES5_ .LC21 208
_ZNSt12experimental10filesystem2v114create_symlinkERKNS1_7__cxx114pathES5_ _ZNSt12experimental10filesystem2v17__cxx1116filesystem_errorD1Ev 212
_ZNSt12experimental10filesystem2v114create_symlinkERKNS1_7__cxx114pathES5_ _ZTINSt12experimental10filesystem2v17__cxx1116filesystem_errorE 216
_ZNSt12experimental10filesystem2v110equivalentERKNS1_7__cxx114pathES5_ _ZNSt10error_codeC1Ev 24
_ZNSt12experimental10filesystem2v110equivalentERKNS1_7__cxx114pathES5_ _ZNSt12experimental10filesystem2v110equivalentERKNS1_7__cxx114pathES5_RSt10error_code 44
_ZNSt12experimental10filesystem2v110equivalentERKNS1_7__cxx114pathES5_ __cxa_allocate_exception 72
_ZNSt12experimental10filesystem2v110equivalentERKNS1_7__cxx114pathES5_ _ZNSt7__cxx1112basic_stringIcSt11char_traitsIcESaIcEEC2IS3_EEPKcRKS3_.constprop.149 92
_ZNSt12experimental10filesystem2v110equivalentERKNS1_7__cxx114pathES5_ _ZNSt12experimental10filesystem2v17__cxx1116filesystem_errorC1ERKNSt7__cxx1112basic_stringIcSt11char_traitsIcESaIcEEERKNS2_4pathESE_St10error_code 120
_ZNSt12experimental10filesystem2v110equivalentERKNS1_7__cxx114pathES5_ _ZNSt7__cxx1112basic_stringIcSt11char_traitsIcESaIcEE10_M_disposeEv 128
_ZNSt12experimental10filesystem2v110equivalentERKNS1_7__cxx114pathES5_ __cxa_throw 168
_ZNSt12experimental10filesystem2v110equivalentERKNS1_7__cxx114pathES5_ _ZNSt7__cxx1112basic_stringIcSt11char_traitsIcESaIcEE10_M_disposeEv 176
_ZNSt12experimental10filesystem2v110equivalentERKNS1_7__cxx114pathES5_ __cxa_free_exception 184
_ZNSt12experimental10filesystem2v110equivalentERKNS1_7__cxx114pathES5_ __cxa_end_cleanup 188
_ZNSt12experimental10filesystem2v110equivalentERKNS1_7__cxx114pathES5_ .LC22 208
_ZNSt12experimental10filesystem2v110equivalentERKNS1_7__cxx114pathES5_ _ZNSt12experimental10filesystem2v17__cxx1116filesystem_errorD1Ev 212
_ZNSt12experimental10filesystem2v110equivalentERKNS1_7__cxx114pathES5_ _ZTINSt12experimental10filesystem2v17__cxx1116filesystem_errorE 216
_ZNSt12experimental10filesystem2v16renameERKNS1_7__cxx114pathES5_ _ZNSt10error_codeC1Ev 24
_ZNSt12experimental10filesystem2v16renameERKNS1_7__cxx114pathES5_ _ZNSt12experimental10filesystem2v16renameERKNS1_7__cxx114pathES5_RSt10error_code 44
_ZNSt12experimental10filesystem2v16renameERKNS1_7__cxx114pathES5_ __cxa_allocate_exception 72
_ZNSt12experimental10filesystem2v16renameERKNS1_7__cxx114pathES5_ _ZNSt7__cxx1112basic_stringIcSt11char_traitsIcESaIcEEC2IS3_EEPKcRKS3_.constprop.149 92
_ZNSt12experimental10filesystem2v16renameERKNS1_7__cxx114pathES5_ _ZNSt12experimental10filesystem2v17__cxx1116filesystem_errorC1ERKNSt7__cxx1112basic_stringIcSt11char_traitsIcESaIcEEERKNS2_4pathESE_St10error_code 120
_ZNSt12experimental10filesystem2v16renameERKNS1_7__cxx114pathES5_ _ZNSt7__cxx1112basic_stringIcSt11char_traitsIcESaIcEE10_M_disposeEv 128
_ZNSt12experimental10filesystem2v16renameERKNS1_7__cxx114pathES5_ __cxa_throw 168
_ZNSt12experimental10filesystem2v16renameERKNS1_7__cxx114pathES5_ _ZNSt7__cxx1112basic_stringIcSt11char_traitsIcESaIcEE10_M_disposeEv 176
_ZNSt12experimental10filesystem2v16renameERKNS1_7__cxx114pathES5_ __cxa_free_exception 184
_ZNSt12experimental10filesystem2v16renameERKNS1_7__cxx114pathES5_ __cxa_end_cleanup 188
_ZNSt12experimental10filesystem2v16renameERKNS1_7__cxx114pathES5_ .LC23 208
_ZNSt12experimental10filesystem2v16renameERKNS1_7__cxx114pathES5_ _ZNSt12experimental10filesystem2v17__cxx1116filesystem_errorD1Ev 212
_ZNSt12experimental10filesystem2v16renameERKNS1_7__cxx114pathES5_ _ZTINSt12experimental10filesystem2v17__cxx1116filesystem_errorE 216
_ZNSt12experimental10filesystem2v14copyERKNS1_7__cxx114pathES5_NS1_12copy_optionsE _ZNSt10error_codeC1Ev 32
_ZNSt12experimental10filesystem2v14copyERKNS1_7__cxx114pathES5_NS1_12copy_optionsE _ZNSt12experimental10filesystem2v14copyERKNS1_7__cxx114pathES5_NS1_12copy_optionsERSt10error_code 52
_ZNSt12experimental10filesystem2v14copyERKNS1_7__cxx114pathES5_NS1_12copy_optionsE __cxa_allocate_exception 80
_ZNSt12experimental10filesystem2v14copyERKNS1_7__cxx114pathES5_NS1_12copy_optionsE _ZNSt7__cxx1112basic_stringIcSt11char_traitsIcESaIcEEC2IS3_EEPKcRKS3_.constprop.149 100
_ZNSt12experimental10filesystem2v14copyERKNS1_7__cxx114pathES5_NS1_12copy_optionsE _ZNSt12experimental10filesystem2v17__cxx1116filesystem_errorC1ERKNSt7__cxx1112basic_stringIcSt11char_traitsIcESaIcEEERKNS2_4pathESE_St10error_code 128
_ZNSt12experimental10filesystem2v14copyERKNS1_7__cxx114pathES5_NS1_12copy_optionsE _ZNSt7__cxx1112basic_stringIcSt11char_traitsIcESaIcEE10_M_disposeEv 136
_ZNSt12experimental10filesystem2v14copyERKNS1_7__cxx114pathES5_NS1_12copy_optionsE __cxa_throw 176
_ZNSt12experimental10filesystem2v14copyERKNS1_7__cxx114pathES5_NS1_12copy_optionsE _ZNSt7__cxx1112basic_stringIcSt11char_traitsIcESaIcEE10_M_disposeEv 184
_ZNSt12experimental10filesystem2v14copyERKNS1_7__cxx114pathES5_NS1_12copy_optionsE __cxa_free_exception 192
_ZNSt12experimental10filesystem2v14copyERKNS1_7__cxx114pathES5_NS1_12copy_optionsE __cxa_end_cleanup 196
_ZNSt12experimental10filesystem2v14copyERKNS1_7__cxx114pathES5_NS1_12copy_optionsE .LC24 216
_ZNSt12experimental10filesystem2v14copyERKNS1_7__cxx114pathES5_NS1_12copy_optionsE _ZNSt12experimental10filesystem2v17__cxx1116filesystem_errorD1Ev 220
_ZNSt12experimental10filesystem2v14copyERKNS1_7__cxx114pathES5_NS1_12copy_optionsE _ZTINSt12experimental10filesystem2v17__cxx1116filesystem_errorE 224
_ZNSt12experimental10filesystem2v116create_directoryERKNS1_7__cxx114pathE _ZNSt10error_codeC1Ev 20
_ZNSt12experimental10filesystem2v116create_directoryERKNS1_7__cxx114pathE _ZNSt12experimental10filesystem2v116create_directoryERKNS1_7__cxx114pathERSt10error_code 32
_ZNSt12experimental10filesystem2v116create_directoryERKNS1_7__cxx114pathE __cxa_allocate_exception 64
_ZNSt12experimental10filesystem2v116create_directoryERKNS1_7__cxx114pathE _ZNSt7__cxx1112basic_stringIcSt11char_traitsIcESaIcEEC2IS3_EEPKcRKS3_.constprop.149 84
_ZNSt12experimental10filesystem2v116create_directoryERKNS1_7__cxx114pathE _ZNSt12experimental10filesystem2v17__cxx1116filesystem_errorC1ERKNSt7__cxx1112basic_stringIcSt11char_traitsIcESaIcEEERKNS2_4pathESt10error_code 112
_ZNSt12experimental10filesystem2v116create_directoryERKNS1_7__cxx114pathE _ZNSt7__cxx1112basic_stringIcSt11char_traitsIcESaIcEE10_M_disposeEv 120
_ZNSt12experimental10filesystem2v116create_directoryERKNS1_7__cxx114pathE __cxa_throw 160
_ZNSt12experimental10filesystem2v116create_directoryERKNS1_7__cxx114pathE _ZNSt7__cxx1112basic_stringIcSt11char_traitsIcESaIcEE10_M_disposeEv 168
_ZNSt12experimental10filesystem2v116create_directoryERKNS1_7__cxx114pathE __cxa_free_exception 176
_ZNSt12experimental10filesystem2v116create_directoryERKNS1_7__cxx114pathE __cxa_end_cleanup 180
_ZNSt12experimental10filesystem2v116create_directoryERKNS1_7__cxx114pathE .LC25 200
_ZNSt12experimental10filesystem2v116create_directoryERKNS1_7__cxx114pathE _ZNSt12experimental10filesystem2v17__cxx1116filesystem_errorD1Ev 204
_ZNSt12experimental10filesystem2v116create_directoryERKNS1_7__cxx114pathE _ZTINSt12experimental10filesystem2v17__cxx1116filesystem_errorE 208
_ZNSt12experimental10filesystem2v116create_directoryERKNS1_7__cxx114pathES5_ _ZNSt10error_codeC1Ev 24
_ZNSt12experimental10filesystem2v116create_directoryERKNS1_7__cxx114pathES5_ _ZNSt12experimental10filesystem2v116create_directoryERKNS1_7__cxx114pathES5_RSt10error_code 44
_ZNSt12experimental10filesystem2v116create_directoryERKNS1_7__cxx114pathES5_ __cxa_allocate_exception 72
_ZNSt12experimental10filesystem2v116create_directoryERKNS1_7__cxx114pathES5_ _ZNSt7__cxx1112basic_stringIcSt11char_traitsIcESaIcEEC2IS3_EEPKcRKS3_.constprop.149 92
_ZNSt12experimental10filesystem2v116create_directoryERKNS1_7__cxx114pathES5_ _ZNSt12experimental10filesystem2v17__cxx1116filesystem_errorC1ERKNSt7__cxx1112basic_stringIcSt11char_traitsIcESaIcEEERKNS2_4pathESt10error_code 120
_ZNSt12experimental10filesystem2v116create_directoryERKNS1_7__cxx114pathES5_ _ZNSt7__cxx1112basic_stringIcSt11char_traitsIcESaIcEE10_M_disposeEv 128
_ZNSt12experimental10filesystem2v116create_directoryERKNS1_7__cxx114pathES5_ __cxa_throw 168
_ZNSt12experimental10filesystem2v116create_directoryERKNS1_7__cxx114pathES5_ _ZNSt7__cxx1112basic_stringIcSt11char_traitsIcESaIcEE10_M_disposeEv 176
_ZNSt12experimental10filesystem2v116create_directoryERKNS1_7__cxx114pathES5_ __cxa_free_exception 184
_ZNSt12experimental10filesystem2v116create_directoryERKNS1_7__cxx114pathES5_ __cxa_end_cleanup 188
_ZNSt12experimental10filesystem2v116create_directoryERKNS1_7__cxx114pathES5_ .LC25 208
_ZNSt12experimental10filesystem2v116create_directoryERKNS1_7__cxx114pathES5_ _ZNSt12experimental10filesystem2v17__cxx1116filesystem_errorD1Ev 212
_ZNSt12experimental10filesystem2v116create_directoryERKNS1_7__cxx114pathES5_ _ZTINSt12experimental10filesystem2v17__cxx1116filesystem_errorE 216
_ZNSt12experimental10filesystem2v19file_sizeERKNS1_7__cxx114pathE _ZNSt10error_codeC1Ev 20
_ZNSt12experimental10filesystem2v19file_sizeERKNS1_7__cxx114pathE _ZNSt12experimental10filesystem2v19file_sizeERKNS1_7__cxx114pathERSt10error_code 32
_ZNSt12experimental10filesystem2v19file_sizeERKNS1_7__cxx114pathE __cxa_allocate_exception 64
_ZNSt12experimental10filesystem2v19file_sizeERKNS1_7__cxx114pathE _ZNSt7__cxx1112basic_stringIcSt11char_traitsIcESaIcEEC2IS3_EEPKcRKS3_.constprop.149 84
_ZNSt12experimental10filesystem2v19file_sizeERKNS1_7__cxx114pathE _ZNSt12experimental10filesystem2v17__cxx1116filesystem_errorC1ERKNSt7__cxx1112basic_stringIcSt11char_traitsIcESaIcEEERKNS2_4pathESt10error_code 112
_ZNSt12experimental10filesystem2v19file_sizeERKNS1_7__cxx114pathE _ZNSt7__cxx1112basic_stringIcSt11char_traitsIcESaIcEE10_M_disposeEv 120
_ZNSt12experimental10filesystem2v19file_sizeERKNS1_7__cxx114pathE __cxa_throw 160
_ZNSt12experimental10filesystem2v19file_sizeERKNS1_7__cxx114pathE _ZNSt7__cxx1112basic_stringIcSt11char_traitsIcESaIcEE10_M_disposeEv 168
_ZNSt12experimental10filesystem2v19file_sizeERKNS1_7__cxx114pathE __cxa_free_exception 176
_ZNSt12experimental10filesystem2v19file_sizeERKNS1_7__cxx114pathE __cxa_end_cleanup 180
_ZNSt12experimental10filesystem2v19file_sizeERKNS1_7__cxx114pathE .LC26 200
_ZNSt12experimental10filesystem2v19file_sizeERKNS1_7__cxx114pathE _ZNSt12experimental10filesystem2v17__cxx1116filesystem_errorD1Ev 204
_ZNSt12experimental10filesystem2v19file_sizeERKNS1_7__cxx114pathE _ZTINSt12experimental10filesystem2v17__cxx1116filesystem_errorE 208
_ZNSt12experimental10filesystem2v115hard_link_countERKNS1_7__cxx114pathE _ZNSt10error_codeC1Ev 20
_ZNSt12experimental10filesystem2v115hard_link_countERKNS1_7__cxx114pathE _ZNSt12experimental10filesystem2v115hard_link_countERKNS1_7__cxx114pathERSt10error_code 32
_ZNSt12experimental10filesystem2v115hard_link_countERKNS1_7__cxx114pathE __cxa_allocate_exception 64
_ZNSt12experimental10filesystem2v115hard_link_countERKNS1_7__cxx114pathE _ZNSt7__cxx1112basic_stringIcSt11char_traitsIcESaIcEEC2IS3_EEPKcRKS3_.constprop.149 84
_ZNSt12experimental10filesystem2v115hard_link_countERKNS1_7__cxx114pathE _ZNSt12experimental10filesystem2v17__cxx1116filesystem_errorC1ERKNSt7__cxx1112basic_stringIcSt11char_traitsIcESaIcEEERKNS2_4pathESt10error_code 112
_ZNSt12experimental10filesystem2v115hard_link_countERKNS1_7__cxx114pathE _ZNSt7__cxx1112basic_stringIcSt11char_traitsIcESaIcEE10_M_disposeEv 120
_ZNSt12experimental10filesystem2v115hard_link_countERKNS1_7__cxx114pathE __cxa_throw 160
_ZNSt12experimental10filesystem2v115hard_link_countERKNS1_7__cxx114pathE _ZNSt7__cxx1112basic_stringIcSt11char_traitsIcESaIcEE10_M_disposeEv 168
_ZNSt12experimental10filesystem2v115hard_link_countERKNS1_7__cxx114pathE __cxa_free_exception 176
_ZNSt12experimental10filesystem2v115hard_link_countERKNS1_7__cxx114pathE __cxa_end_cleanup 180
_ZNSt12experimental10filesystem2v115hard_link_countERKNS1_7__cxx114pathE .LC27 200
_ZNSt12experimental10filesystem2v115hard_link_countERKNS1_7__cxx114pathE _ZNSt12experimental10filesystem2v17__cxx1116filesystem_errorD1Ev 204
_ZNSt12experimental10filesystem2v115hard_link_countERKNS1_7__cxx114pathE _ZTINSt12experimental10filesystem2v17__cxx1116filesystem_errorE 208
_ZNSt12experimental10filesystem2v18is_emptyERKNS1_7__cxx114pathE _ZNSt10error_codeC1Ev 20
_ZNSt12experimental10filesystem2v18is_emptyERKNS1_7__cxx114pathE _ZNSt12experimental10filesystem2v18is_emptyERKNS1_7__cxx114pathERSt10error_code 32
_ZNSt12experimental10filesystem2v18is_emptyERKNS1_7__cxx114pathE __cxa_allocate_exception 64
_ZNSt12experimental10filesystem2v18is_emptyERKNS1_7__cxx114pathE _ZNSt7__cxx1112basic_stringIcSt11char_traitsIcESaIcEEC2IS3_EEPKcRKS3_.constprop.149 84
_ZNSt12experimental10filesystem2v18is_emptyERKNS1_7__cxx114pathE _ZNSt12experimental10filesystem2v17__cxx1116filesystem_errorC1ERKNSt7__cxx1112basic_stringIcSt11char_traitsIcESaIcEEERKNS2_4pathESt10error_code 112
_ZNSt12experimental10filesystem2v18is_emptyERKNS1_7__cxx114pathE _ZNSt7__cxx1112basic_stringIcSt11char_traitsIcESaIcEE10_M_disposeEv 120
_ZNSt12experimental10filesystem2v18is_emptyERKNS1_7__cxx114pathE __cxa_throw 160
_ZNSt12experimental10filesystem2v18is_emptyERKNS1_7__cxx114pathE _ZNSt7__cxx1112basic_stringIcSt11char_traitsIcESaIcEE10_M_disposeEv 168
_ZNSt12experimental10filesystem2v18is_emptyERKNS1_7__cxx114pathE __cxa_free_exception 176
_ZNSt12experimental10filesystem2v18is_emptyERKNS1_7__cxx114pathE __cxa_end_cleanup 180
_ZNSt12experimental10filesystem2v18is_emptyERKNS1_7__cxx114pathE .LC28 200
_ZNSt12experimental10filesystem2v18is_emptyERKNS1_7__cxx114pathE _ZNSt12experimental10filesystem2v17__cxx1116filesystem_errorD1Ev 204
_ZNSt12experimental10filesystem2v18is_emptyERKNS1_7__cxx114pathE _ZTINSt12experimental10filesystem2v17__cxx1116filesystem_errorE 208
_ZNSt12experimental10filesystem2v115last_write_timeERKNS1_7__cxx114pathE _ZNSt10error_codeC1Ev 24
_ZNSt12experimental10filesystem2v115last_write_timeERKNS1_7__cxx114pathE _ZNSt12experimental10filesystem2v115last_write_timeERKNS1_7__cxx114pathERSt10error_code 44
_ZNSt12experimental10filesystem2v115last_write_timeERKNS1_7__cxx114pathE __cxa_allocate_exception 72
_ZNSt12experimental10filesystem2v115last_write_timeERKNS1_7__cxx114pathE _ZNSt7__cxx1112basic_stringIcSt11char_traitsIcESaIcEEC2IS3_EEPKcRKS3_.constprop.149 92
_ZNSt12experimental10filesystem2v115last_write_timeERKNS1_7__cxx114pathE _ZNSt12experimental10filesystem2v17__cxx1116filesystem_errorC1ERKNSt7__cxx1112basic_stringIcSt11char_traitsIcESaIcEEERKNS2_4pathESt10error_code 120
_ZNSt12experimental10filesystem2v115last_write_timeERKNS1_7__cxx114pathE _ZNSt7__cxx1112basic_stringIcSt11char_traitsIcESaIcEE10_M_disposeEv 128
_ZNSt12experimental10filesystem2v115last_write_timeERKNS1_7__cxx114pathE __cxa_throw 168
_ZNSt12experimental10filesystem2v115last_write_timeERKNS1_7__cxx114pathE _ZNSt7__cxx1112basic_stringIcSt11char_traitsIcESaIcEE10_M_disposeEv 176
_ZNSt12experimental10filesystem2v115last_write_timeERKNS1_7__cxx114pathE __cxa_free_exception 184
_ZNSt12experimental10filesystem2v115last_write_timeERKNS1_7__cxx114pathE __cxa_end_cleanup 188
_ZNSt12experimental10filesystem2v115last_write_timeERKNS1_7__cxx114pathE .LC29 212
_ZNSt12experimental10filesystem2v115last_write_timeERKNS1_7__cxx114pathE _ZNSt12experimental10filesystem2v17__cxx1116filesystem_errorD1Ev 216
_ZNSt12experimental10filesystem2v115last_write_timeERKNS1_7__cxx114pathE _ZTINSt12experimental10filesystem2v17__cxx1116filesystem_errorE 220
_ZNSt12experimental10filesystem2v115last_write_timeERKNS1_7__cxx114pathENSt6chrono10time_pointINS6_3_V212system_clockENS6_8durationIxSt5ratioILx1ELx1000000000EEEEEE _ZNSt10error_codeC1Ev 32
_ZNSt12experimental10filesystem2v115last_write_timeERKNS1_7__cxx114pathENSt6chrono10time_pointINS6_3_V212system_clockENS6_8durationIxSt5ratioILx1ELx1000000000EEEEEE _ZNSt12experimental10filesystem2v115last_write_timeERKNS1_7__cxx114pathENSt6chrono10time_pointINS6_3_V212system_clockENS6_8durationIxSt5ratioILx1ELx1000000000EEEEEERSt10error_code 52
_ZNSt12experimental10filesystem2v115last_write_timeERKNS1_7__cxx114pathENSt6chrono10time_pointINS6_3_V212system_clockENS6_8durationIxSt5ratioILx1ELx1000000000EEEEEE __cxa_allocate_exception 80
_ZNSt12experimental10filesystem2v115last_write_timeERKNS1_7__cxx114pathENSt6chrono10time_pointINS6_3_V212system_clockENS6_8durationIxSt5ratioILx1ELx1000000000EEEEEE _ZNSt7__cxx1112basic_stringIcSt11char_traitsIcESaIcEEC2IS3_EEPKcRKS3_.constprop.149 100
_ZNSt12experimental10filesystem2v115last_write_timeERKNS1_7__cxx114pathENSt6chrono10time_pointINS6_3_V212system_clockENS6_8durationIxSt5ratioILx1ELx1000000000EEEEEE _ZNSt12experimental10filesystem2v17__cxx1116filesystem_errorC1ERKNSt7__cxx1112basic_stringIcSt11char_traitsIcESaIcEEERKNS2_4pathESt10error_code 128
_ZNSt12experimental10filesystem2v115last_write_timeERKNS1_7__cxx114pathENSt6chrono10time_pointINS6_3_V212system_clockENS6_8durationIxSt5ratioILx1ELx1000000000EEEEEE _ZNSt7__cxx1112basic_stringIcSt11char_traitsIcESaIcEE10_M_disposeEv 136
_ZNSt12experimental10filesystem2v115last_write_timeERKNS1_7__cxx114pathENSt6chrono10time_pointINS6_3_V212system_clockENS6_8durationIxSt5ratioILx1ELx1000000000EEEEEE __cxa_throw 176
_ZNSt12experimental10filesystem2v115last_write_timeERKNS1_7__cxx114pathENSt6chrono10time_pointINS6_3_V212system_clockENS6_8durationIxSt5ratioILx1ELx1000000000EEEEEE _ZNSt7__cxx1112basic_stringIcSt11char_traitsIcESaIcEE10_M_disposeEv 184
_ZNSt12experimental10filesystem2v115last_write_timeERKNS1_7__cxx114pathENSt6chrono10time_pointINS6_3_V212system_clockENS6_8durationIxSt5ratioILx1ELx1000000000EEEEEE __cxa_free_exception 192
_ZNSt12experimental10filesystem2v115last_write_timeERKNS1_7__cxx114pathENSt6chrono10time_pointINS6_3_V212system_clockENS6_8durationIxSt5ratioILx1ELx1000000000EEEEEE __cxa_end_cleanup 196
_ZNSt12experimental10filesystem2v115last_write_timeERKNS1_7__cxx114pathENSt6chrono10time_pointINS6_3_V212system_clockENS6_8durationIxSt5ratioILx1ELx1000000000EEEEEE .LC30 216
_ZNSt12experimental10filesystem2v115last_write_timeERKNS1_7__cxx114pathENSt6chrono10time_pointINS6_3_V212system_clockENS6_8durationIxSt5ratioILx1ELx1000000000EEEEEE _ZNSt12experimental10filesystem2v17__cxx1116filesystem_errorD1Ev 220
_ZNSt12experimental10filesystem2v115last_write_timeERKNS1_7__cxx114pathENSt6chrono10time_pointINS6_3_V212system_clockENS6_8durationIxSt5ratioILx1ELx1000000000EEEEEE _ZTINSt12experimental10filesystem2v17__cxx1116filesystem_errorE 224
_ZNSt12experimental10filesystem2v111permissionsERKNS1_7__cxx114pathENS1_5permsE _ZNSt10error_codeC1Ev 24
_ZNSt12experimental10filesystem2v111permissionsERKNS1_7__cxx114pathENS1_5permsE _ZNSt12experimental10filesystem2v111permissionsERKNS1_7__cxx114pathENS1_5permsERSt10error_code 44
_ZNSt12experimental10filesystem2v111permissionsERKNS1_7__cxx114pathENS1_5permsE __cxa_allocate_exception 72
_ZNSt12experimental10filesystem2v111permissionsERKNS1_7__cxx114pathENS1_5permsE _ZNSt7__cxx1112basic_stringIcSt11char_traitsIcESaIcEEC2IS3_EEPKcRKS3_.constprop.149 92
_ZNSt12experimental10filesystem2v111permissionsERKNS1_7__cxx114pathENS1_5permsE _ZNSt12experimental10filesystem2v17__cxx1116filesystem_errorC1ERKNSt7__cxx1112basic_stringIcSt11char_traitsIcESaIcEEERKNS2_4pathESt10error_code 120
_ZNSt12experimental10filesystem2v111permissionsERKNS1_7__cxx114pathENS1_5permsE _ZNSt7__cxx1112basic_stringIcSt11char_traitsIcESaIcEE10_M_disposeEv 128
_ZNSt12experimental10filesystem2v111permissionsERKNS1_7__cxx114pathENS1_5permsE __cxa_throw 168
_ZNSt12experimental10filesystem2v111permissionsERKNS1_7__cxx114pathENS1_5permsE _ZNSt7__cxx1112basic_stringIcSt11char_traitsIcESaIcEE10_M_disposeEv 176
_ZNSt12experimental10filesystem2v111permissionsERKNS1_7__cxx114pathENS1_5permsE __cxa_free_exception 184
_ZNSt12experimental10filesystem2v111permissionsERKNS1_7__cxx114pathENS1_5permsE __cxa_end_cleanup 188
_ZNSt12experimental10filesystem2v111permissionsERKNS1_7__cxx114pathENS1_5permsE .LC31 208
_ZNSt12experimental10filesystem2v111permissionsERKNS1_7__cxx114pathENS1_5permsE _ZNSt12experimental10filesystem2v17__cxx1116filesystem_errorD1Ev 212
_ZNSt12experimental10filesystem2v111permissionsERKNS1_7__cxx114pathENS1_5permsE _ZTINSt12experimental10filesystem2v17__cxx1116filesystem_errorE 216
_ZNSt12experimental10filesystem2v112read_symlinkERKNS1_7__cxx114pathE _ZNSt10error_codeC1Ev 24
_ZNSt12experimental10filesystem2v112read_symlinkERKNS1_7__cxx114pathE _ZNSt12experimental10filesystem2v112read_symlinkERKNS1_7__cxx114pathERSt10error_code 44
_ZNSt12experimental10filesystem2v112read_symlinkERKNS1_7__cxx114pathE __cxa_allocate_exception 72
_ZNSt12experimental10filesystem2v112read_symlinkERKNS1_7__cxx114pathE _ZNSt7__cxx1112basic_stringIcSt11char_traitsIcESaIcEEC2IS3_EEPKcRKS3_.constprop.149 92
_ZNSt12experimental10filesystem2v112read_symlinkERKNS1_7__cxx114pathE _ZNSt12experimental10filesystem2v17__cxx1116filesystem_errorC1ERKNSt7__cxx1112basic_stringIcSt11char_traitsIcESaIcEEERKNS2_4pathESt10error_code 120
_ZNSt12experimental10filesystem2v112read_symlinkERKNS1_7__cxx114pathE _ZNSt7__cxx1112basic_stringIcSt11char_traitsIcESaIcEE10_M_disposeEv 128
_ZNSt12experimental10filesystem2v112read_symlinkERKNS1_7__cxx114pathE __cxa_throw 168
_ZNSt12experimental10filesystem2v112read_symlinkERKNS1_7__cxx114pathE _ZNSt7__cxx1112basic_stringIcSt11char_traitsIcESaIcEE10_M_disposeEv 180
_ZNSt12experimental10filesystem2v112read_symlinkERKNS1_7__cxx114pathE __cxa_free_exception 188
_ZNSt12experimental10filesystem2v112read_symlinkERKNS1_7__cxx114pathE _ZNSt12experimental10filesystem2v17__cxx114pathD1Ev 196
_ZNSt12experimental10filesystem2v112read_symlinkERKNS1_7__cxx114pathE __cxa_end_cleanup 200
_ZNSt12experimental10filesystem2v112read_symlinkERKNS1_7__cxx114pathE .LC32 224
_ZNSt12experimental10filesystem2v112read_symlinkERKNS1_7__cxx114pathE _ZNSt12experimental10filesystem2v17__cxx1116filesystem_errorD1Ev 228
_ZNSt12experimental10filesystem2v112read_symlinkERKNS1_7__cxx114pathE _ZTINSt12experimental10filesystem2v17__cxx1116filesystem_errorE 232
_ZNSt12experimental10filesystem2v16removeERKNS1_7__cxx114pathE _ZNSt10error_codeC1Ev 20
_ZNSt12experimental10filesystem2v16removeERKNS1_7__cxx114pathE _ZNSt12experimental10filesystem2v16removeERKNS1_7__cxx114pathERSt10error_code 32
_ZNSt12experimental10filesystem2v16removeERKNS1_7__cxx114pathE __cxa_allocate_exception 64
_ZNSt12experimental10filesystem2v16removeERKNS1_7__cxx114pathE _ZNSt7__cxx1112basic_stringIcSt11char_traitsIcESaIcEEC2IS3_EEPKcRKS3_.constprop.149 84
_ZNSt12experimental10filesystem2v16removeERKNS1_7__cxx114pathE _ZNSt12experimental10filesystem2v17__cxx1116filesystem_errorC1ERKNSt7__cxx1112basic_stringIcSt11char_traitsIcESaIcEEERKNS2_4pathESt10error_code 112
_ZNSt12experimental10filesystem2v16removeERKNS1_7__cxx114pathE _ZNSt7__cxx1112basic_stringIcSt11char_traitsIcESaIcEE10_M_disposeEv 120
_ZNSt12experimental10filesystem2v16removeERKNS1_7__cxx114pathE __cxa_throw 160
_ZNSt12experimental10filesystem2v16removeERKNS1_7__cxx114pathE _ZNSt7__cxx1112basic_stringIcSt11char_traitsIcESaIcEE10_M_disposeEv 168
_ZNSt12experimental10filesystem2v16removeERKNS1_7__cxx114pathE __cxa_free_exception 176
_ZNSt12experimental10filesystem2v16removeERKNS1_7__cxx114pathE __cxa_end_cleanup 180
_ZNSt12experimental10filesystem2v16removeERKNS1_7__cxx114pathE .LC33 200
_ZNSt12experimental10filesystem2v16removeERKNS1_7__cxx114pathE _ZNSt12experimental10filesystem2v17__cxx1116filesystem_errorD1Ev 204
_ZNSt12experimental10filesystem2v16removeERKNS1_7__cxx114pathE _ZTINSt12experimental10filesystem2v17__cxx1116filesystem_errorE 208
_ZNSt12experimental10filesystem2v110remove_allERKNS1_7__cxx114pathE _ZNSt10error_codeC1Ev 20
_ZNSt12experimental10filesystem2v110remove_allERKNS1_7__cxx114pathE _ZNSt12experimental10filesystem2v110remove_allERKNS1_7__cxx114pathERSt10error_code 32
_ZNSt12experimental10filesystem2v110remove_allERKNS1_7__cxx114pathE __cxa_allocate_exception 64
_ZNSt12experimental10filesystem2v110remove_allERKNS1_7__cxx114pathE _ZNSt7__cxx1112basic_stringIcSt11char_traitsIcESaIcEEC2IS3_EEPKcRKS3_.constprop.149 84
_ZNSt12experimental10filesystem2v110remove_allERKNS1_7__cxx114pathE _ZNSt12experimental10filesystem2v17__cxx1116filesystem_errorC1ERKNSt7__cxx1112basic_stringIcSt11char_traitsIcESaIcEEERKNS2_4pathESt10error_code 112
_ZNSt12experimental10filesystem2v110remove_allERKNS1_7__cxx114pathE _ZNSt7__cxx1112basic_stringIcSt11char_traitsIcESaIcEE10_M_disposeEv 120
_ZNSt12experimental10filesystem2v110remove_allERKNS1_7__cxx114pathE __cxa_throw 160
_ZNSt12experimental10filesystem2v110remove_allERKNS1_7__cxx114pathE _ZNSt7__cxx1112basic_stringIcSt11char_traitsIcESaIcEE10_M_disposeEv 168
_ZNSt12experimental10filesystem2v110remove_allERKNS1_7__cxx114pathE __cxa_free_exception 176
_ZNSt12experimental10filesystem2v110remove_allERKNS1_7__cxx114pathE __cxa_end_cleanup 180
_ZNSt12experimental10filesystem2v110remove_allERKNS1_7__cxx114pathE .LC34 200
_ZNSt12experimental10filesystem2v110remove_allERKNS1_7__cxx114pathE _ZNSt12experimental10filesystem2v17__cxx1116filesystem_errorD1Ev 204
_ZNSt12experimental10filesystem2v110remove_allERKNS1_7__cxx114pathE _ZTINSt12experimental10filesystem2v17__cxx1116filesystem_errorE 208
_ZNSt12experimental10filesystem2v111resize_fileERKNS1_7__cxx114pathEy _ZNSt10error_codeC1Ev 32
_ZNSt12experimental10filesystem2v111resize_fileERKNS1_7__cxx114pathEy _ZNSt12experimental10filesystem2v111resize_fileERKNS1_7__cxx114pathEyRSt10error_code 52
_ZNSt12experimental10filesystem2v111resize_fileERKNS1_7__cxx114pathEy __cxa_allocate_exception 80
_ZNSt12experimental10filesystem2v111resize_fileERKNS1_7__cxx114pathEy _ZNSt7__cxx1112basic_stringIcSt11char_traitsIcESaIcEEC2IS3_EEPKcRKS3_.constprop.149 100
_ZNSt12experimental10filesystem2v111resize_fileERKNS1_7__cxx114pathEy _ZNSt12experimental10filesystem2v17__cxx1116filesystem_errorC1ERKNSt7__cxx1112basic_stringIcSt11char_traitsIcESaIcEEERKNS2_4pathESt10error_code 128
_ZNSt12experimental10filesystem2v111resize_fileERKNS1_7__cxx114pathEy _ZNSt7__cxx1112basic_stringIcSt11char_traitsIcESaIcEE10_M_disposeEv 136
_ZNSt12experimental10filesystem2v111resize_fileERKNS1_7__cxx114pathEy __cxa_throw 176
_ZNSt12experimental10filesystem2v111resize_fileERKNS1_7__cxx114pathEy _ZNSt7__cxx1112basic_stringIcSt11char_traitsIcESaIcEE10_M_disposeEv 184
_ZNSt12experimental10filesystem2v111resize_fileERKNS1_7__cxx114pathEy __cxa_free_exception 192
_ZNSt12experimental10filesystem2v111resize_fileERKNS1_7__cxx114pathEy __cxa_end_cleanup 196
_ZNSt12experimental10filesystem2v111resize_fileERKNS1_7__cxx114pathEy .LC35 216
_ZNSt12experimental10filesystem2v111resize_fileERKNS1_7__cxx114pathEy _ZNSt12experimental10filesystem2v17__cxx1116filesystem_errorD1Ev 220
_ZNSt12experimental10filesystem2v111resize_fileERKNS1_7__cxx114pathEy _ZTINSt12experimental10filesystem2v17__cxx1116filesystem_errorE 224
_ZNSt12experimental10filesystem2v15spaceERKNS1_7__cxx114pathE _ZNSt10error_codeC1Ev 24
_ZNSt12experimental10filesystem2v15spaceERKNS1_7__cxx114pathE _ZNSt12experimental10filesystem2v15spaceERKNS1_7__cxx114pathERSt10error_code 44
_ZNSt12experimental10filesystem2v15spaceERKNS1_7__cxx114pathE __cxa_allocate_exception 72
_ZNSt12experimental10filesystem2v15spaceERKNS1_7__cxx114pathE _ZNSt7__cxx1112basic_stringIcSt11char_traitsIcESaIcEEC2IS3_EEPKcRKS3_.constprop.149 92
_ZNSt12experimental10filesystem2v15spaceERKNS1_7__cxx114pathE _ZNSt12experimental10filesystem2v17__cxx1116filesystem_errorC1ERKNSt7__cxx1112basic_stringIcSt11char_traitsIcESaIcEEERKNS2_4pathESt10error_code 120
_ZNSt12experimental10filesystem2v15spaceERKNS1_7__cxx114pathE _ZNSt7__cxx1112basic_stringIcSt11char_traitsIcESaIcEE10_M_disposeEv 128
_ZNSt12experimental10filesystem2v15spaceERKNS1_7__cxx114pathE __cxa_throw 168
_ZNSt12experimental10filesystem2v15spaceERKNS1_7__cxx114pathE _ZNSt7__cxx1112basic_stringIcSt11char_traitsIcESaIcEE10_M_disposeEv 176
_ZNSt12experimental10filesystem2v15spaceERKNS1_7__cxx114pathE __cxa_free_exception 184
_ZNSt12experimental10filesystem2v15spaceERKNS1_7__cxx114pathE __cxa_end_cleanup 188
_ZNSt12experimental10filesystem2v15spaceERKNS1_7__cxx114pathE .LC36 212
_ZNSt12experimental10filesystem2v15spaceERKNS1_7__cxx114pathE _ZNSt12experimental10filesystem2v17__cxx1116filesystem_errorD1Ev 216
_ZNSt12experimental10filesystem2v15spaceERKNS1_7__cxx114pathE _ZTINSt12experimental10filesystem2v17__cxx1116filesystem_errorE 220
_ZNSt12experimental10filesystem2v16statusERKNS1_7__cxx114pathE _ZNSt10error_codeC1Ev 24
_ZNSt12experimental10filesystem2v16statusERKNS1_7__cxx114pathE _ZNSt12experimental10filesystem2v16statusERKNS1_7__cxx114pathERSt10error_code 44
_ZNSt12experimental10filesystem2v16statusERKNS1_7__cxx114pathE __cxa_allocate_exception 72
_ZNSt12experimental10filesystem2v16statusERKNS1_7__cxx114pathE _ZNSt7__cxx1112basic_stringIcSt11char_traitsIcESaIcEEC2IS3_EEPKcRKS3_.constprop.149 92
_ZNSt12experimental10filesystem2v16statusERKNS1_7__cxx114pathE _ZNSt12experimental10filesystem2v17__cxx1116filesystem_errorC1ERKNSt7__cxx1112basic_stringIcSt11char_traitsIcESaIcEEERKNS2_4pathESt10error_code 120
_ZNSt12experimental10filesystem2v16statusERKNS1_7__cxx114pathE _ZNSt7__cxx1112basic_stringIcSt11char_traitsIcESaIcEE10_M_disposeEv 128
_ZNSt12experimental10filesystem2v16statusERKNS1_7__cxx114pathE __cxa_throw 168
_ZNSt12experimental10filesystem2v16statusERKNS1_7__cxx114pathE _ZNSt7__cxx1112basic_stringIcSt11char_traitsIcESaIcEE10_M_disposeEv 176
_ZNSt12experimental10filesystem2v16statusERKNS1_7__cxx114pathE __cxa_free_exception 184
_ZNSt12experimental10filesystem2v16statusERKNS1_7__cxx114pathE __cxa_end_cleanup 188
_ZNSt12experimental10filesystem2v16statusERKNS1_7__cxx114pathE .LC37 212
_ZNSt12experimental10filesystem2v16statusERKNS1_7__cxx114pathE _ZNSt12experimental10filesystem2v17__cxx1116filesystem_errorD1Ev 216
_ZNSt12experimental10filesystem2v16statusERKNS1_7__cxx114pathE _ZTINSt12experimental10filesystem2v17__cxx1116filesystem_errorE 220
_ZNSt12experimental10filesystem2v114symlink_statusERKNS1_7__cxx114pathE _ZNSt10error_codeC1Ev 24
_ZNSt12experimental10filesystem2v114symlink_statusERKNS1_7__cxx114pathE _ZNSt12experimental10filesystem2v114symlink_statusERKNS1_7__cxx114pathERSt10error_code 44
_ZNSt12experimental10filesystem2v114symlink_statusERKNS1_7__cxx114pathE __cxa_allocate_exception 72
_ZNSt12experimental10filesystem2v114symlink_statusERKNS1_7__cxx114pathE _ZNSt7__cxx1112basic_stringIcSt11char_traitsIcESaIcEEC2IS3_EEPKcRKS3_.constprop.149 92
_ZNSt12experimental10filesystem2v114symlink_statusERKNS1_7__cxx114pathE _ZNSt12experimental10filesystem2v17__cxx1116filesystem_errorC1ERKNSt7__cxx1112basic_stringIcSt11char_traitsIcESaIcEEERKNS2_4pathESt10error_code 120
_ZNSt12experimental10filesystem2v114symlink_statusERKNS1_7__cxx114pathE _ZNSt7__cxx1112basic_stringIcSt11char_traitsIcESaIcEE10_M_disposeEv 128
_ZNSt12experimental10filesystem2v114symlink_statusERKNS1_7__cxx114pathE __cxa_throw 168
_ZNSt12experimental10filesystem2v114symlink_statusERKNS1_7__cxx114pathE _ZNSt7__cxx1112basic_stringIcSt11char_traitsIcESaIcEE10_M_disposeEv 176
_ZNSt12experimental10filesystem2v114symlink_statusERKNS1_7__cxx114pathE __cxa_free_exception 184
_ZNSt12experimental10filesystem2v114symlink_statusERKNS1_7__cxx114pathE __cxa_end_cleanup 188
_ZNSt12experimental10filesystem2v114symlink_statusERKNS1_7__cxx114pathE .LC38 212
_ZNSt12experimental10filesystem2v114symlink_statusERKNS1_7__cxx114pathE _ZNSt12experimental10filesystem2v17__cxx1116filesystem_errorD1Ev 216
_ZNSt12experimental10filesystem2v114symlink_statusERKNS1_7__cxx114pathE _ZTINSt12experimental10filesystem2v17__cxx1116filesystem_errorE 220
_ZNSt12experimental10filesystem2v115system_completeERKNS1_7__cxx114pathE _ZNSt10error_codeC1Ev 24
_ZNSt12experimental10filesystem2v115system_completeERKNS1_7__cxx114pathE _ZNSt12experimental10filesystem2v115system_completeERKNS1_7__cxx114pathERSt10error_code 44
_ZNSt12experimental10filesystem2v115system_completeERKNS1_7__cxx114pathE __cxa_allocate_exception 72
_ZNSt12experimental10filesystem2v115system_completeERKNS1_7__cxx114pathE _ZNSt7__cxx1112basic_stringIcSt11char_traitsIcESaIcEEC2IS3_EEPKcRKS3_.constprop.149 92
_ZNSt12experimental10filesystem2v115system_completeERKNS1_7__cxx114pathE _ZNSt12experimental10filesystem2v17__cxx1116filesystem_errorC1ERKNSt7__cxx1112basic_stringIcSt11char_traitsIcESaIcEEERKNS2_4pathESt10error_code 120
_ZNSt12experimental10filesystem2v115system_completeERKNS1_7__cxx114pathE _ZNSt7__cxx1112basic_stringIcSt11char_traitsIcESaIcEE10_M_disposeEv 128
_ZNSt12experimental10filesystem2v115system_completeERKNS1_7__cxx114pathE __cxa_throw 168
_ZNSt12experimental10filesystem2v115system_completeERKNS1_7__cxx114pathE _ZNSt7__cxx1112basic_stringIcSt11char_traitsIcESaIcEE10_M_disposeEv 180
_ZNSt12experimental10filesystem2v115system_completeERKNS1_7__cxx114pathE __cxa_free_exception 188
_ZNSt12experimental10filesystem2v115system_completeERKNS1_7__cxx114pathE _ZNSt12experimental10filesystem2v17__cxx114pathD1Ev 196
_ZNSt12experimental10filesystem2v115system_completeERKNS1_7__cxx114pathE __cxa_end_cleanup 200
_ZNSt12experimental10filesystem2v115system_completeERKNS1_7__cxx114pathE .LC39 224
_ZNSt12experimental10filesystem2v115system_completeERKNS1_7__cxx114pathE _ZNSt12experimental10filesystem2v17__cxx1116filesystem_errorD1Ev 228
_ZNSt12experimental10filesystem2v115system_completeERKNS1_7__cxx114pathE _ZTINSt12experimental10filesystem2v17__cxx1116filesystem_errorE 232
_ZNKSt15_Deque_iteratorINSt12experimental10filesystem2v17__cxx114pathERS4_PS4_EmiEi _ZNSt15_Deque_iteratorINSt12experimental10filesystem2v17__cxx114pathERS4_PS4_EC1ERKS7_ 20
_ZNKSt15_Deque_iteratorINSt12experimental10filesystem2v17__cxx114pathERS4_PS4_EmiEi _ZNSt15_Deque_iteratorINSt12experimental10filesystem2v17__cxx114pathERS4_PS4_EpLEi 32
_ZNKSt15_Deque_iteratorINSt12experimental10filesystem2v17__cxx114pathERS4_PS4_EmiEi _ZNSt15_Deque_iteratorINSt12experimental10filesystem2v17__cxx114pathERS4_PS4_EC1ERKS7_ 44
_ZNSt5dequeINSt12experimental10filesystem2v17__cxx114pathESaIS4_EE23_M_new_elements_at_backEj _ZStmiINSt12experimental10filesystem2v17__cxx114pathERS4_PS4_ENSt15_Deque_iteratorIT_T0_T1_E15difference_typeERKSB_SE_ 20
_ZNSt5dequeINSt12experimental10filesystem2v17__cxx114pathESaIS4_EE23_M_new_elements_at_backEj _ZSt20__throw_length_errorPKc 56
_ZNSt5dequeINSt12experimental10filesystem2v17__cxx114pathESaIS4_EE23_M_new_elements_at_backEj _ZNSt5dequeINSt12experimental10filesystem2v17__cxx114pathESaIS4_EE22_M_reserve_map_at_backEj 88
_ZNSt5dequeINSt12experimental10filesystem2v17__cxx114pathESaIS4_EE23_M_new_elements_at_backEj _Znwj 108
_ZNSt5dequeINSt12experimental10filesystem2v17__cxx114pathESaIS4_EE23_M_new_elements_at_backEj __cxa_begin_catch 128
_ZNSt5dequeINSt12experimental10filesystem2v17__cxx114pathESaIS4_EE23_M_new_elements_at_backEj _ZdlPv 152
_ZNSt5dequeINSt12experimental10filesystem2v17__cxx114pathESaIS4_EE23_M_new_elements_at_backEj __cxa_rethrow 160
_ZNSt5dequeINSt12experimental10filesystem2v17__cxx114pathESaIS4_EE23_M_new_elements_at_backEj __cxa_end_catch 164
_ZNSt5dequeINSt12experimental10filesystem2v17__cxx114pathESaIS4_EE23_M_new_elements_at_backEj __cxa_end_cleanup 168
_ZNSt5dequeINSt12experimental10filesystem2v17__cxx114pathESaIS4_EE23_M_new_elements_at_backEj .LC40 172
_ZNSt5dequeINSt12experimental10filesystem2v17__cxx114pathESaIS4_EE27_M_reserve_elements_at_backEj _ZNSt5dequeINSt12experimental10filesystem2v17__cxx114pathESaIS4_EE23_M_new_elements_at_backEj 60
_ZNSt5dequeINSt12experimental10filesystem2v17__cxx114pathESaIS4_EE27_M_reserve_elements_at_backEj _ZNKSt15_Deque_iteratorINSt12experimental10filesystem2v17__cxx114pathERS4_PS4_EplEi 76
_ZNSt5dequeINSt12experimental10filesystem2v17__cxx114pathESaIS4_EE24_M_new_elements_at_frontEj _ZStmiINSt12experimental10filesystem2v17__cxx114pathERS4_PS4_ENSt15_Deque_iteratorIT_T0_T1_E15difference_typeERKSB_SE_ 20
_ZNSt5dequeINSt12experimental10filesystem2v17__cxx114pathESaIS4_EE24_M_new_elements_at_frontEj _ZSt20__throw_length_errorPKc 56
_ZNSt5dequeINSt12experimental10filesystem2v17__cxx114pathESaIS4_EE24_M_new_elements_at_frontEj _ZNSt5dequeINSt12experimental10filesystem2v17__cxx114pathESaIS4_EE17_M_reallocate_mapEjb 108
_ZNSt5dequeINSt12experimental10filesystem2v17__cxx114pathESaIS4_EE24_M_new_elements_at_frontEj _Znwj 140
_ZNSt5dequeINSt12experimental10filesystem2v17__cxx114pathESaIS4_EE24_M_new_elements_at_frontEj __cxa_begin_catch 164
_ZNSt5dequeINSt12experimental10filesystem2v17__cxx114pathESaIS4_EE24_M_new_elements_at_frontEj _ZdlPv 192
_ZNSt5dequeINSt12experimental10filesystem2v17__cxx114pathESaIS4_EE24_M_new_elements_at_frontEj __cxa_rethrow 200
_ZNSt5dequeINSt12experimental10filesystem2v17__cxx114pathESaIS4_EE24_M_new_elements_at_frontEj __cxa_end_catch 204
_ZNSt5dequeINSt12experimental10filesystem2v17__cxx114pathESaIS4_EE24_M_new_elements_at_frontEj __cxa_end_cleanup 208
_ZNSt5dequeINSt12experimental10filesystem2v17__cxx114pathESaIS4_EE24_M_new_elements_at_frontEj .LC41 212
_ZNSt5dequeINSt12experimental10filesystem2v17__cxx114pathESaIS4_EE28_M_reserve_elements_at_frontEj _ZNSt5dequeINSt12experimental10filesystem2v17__cxx114pathESaIS4_EE24_M_new_elements_at_frontEj 56
_ZNSt5dequeINSt12experimental10filesystem2v17__cxx114pathESaIS4_EE28_M_reserve_elements_at_frontEj _ZNKSt15_Deque_iteratorINSt12experimental10filesystem2v17__cxx114pathERS4_PS4_EmiEi 72
_ZNSt12_Destroy_auxILb0EE9__destroyIPNSt12experimental10filesystem2v17__cxx114pathEEEvT_S8_ _ZNSt12experimental10filesystem2v17__cxx114pathD1Ev 28
_ZNSt5dequeINSt12experimental10filesystem2v17__cxx114pathESaIS4_EED1Ev,_ZNSt5dequeINSt12experimental10filesystem2v17__cxx114pathESaIS4_EED2Ev _ZNSt15_Deque_iteratorINSt12experimental10filesystem2v17__cxx114pathERS4_PS4_EC1ERKS7_ 28
_ZNSt5dequeINSt12experimental10filesystem2v17__cxx114pathESaIS4_EED1Ev,_ZNSt5dequeINSt12experimental10filesystem2v17__cxx114pathESaIS4_EED2Ev _ZNSt15_Deque_iteratorINSt12experimental10filesystem2v17__cxx114pathERS4_PS4_EC1ERKS7_ 40
_ZNSt5dequeINSt12experimental10filesystem2v17__cxx114pathESaIS4_EED1Ev,_ZNSt5dequeINSt12experimental10filesystem2v17__cxx114pathESaIS4_EED2Ev _ZNSt15_Deque_iteratorINSt12experimental10filesystem2v17__cxx114pathERS4_PS4_EC1ERKS7_ 52
_ZNSt5dequeINSt12experimental10filesystem2v17__cxx114pathESaIS4_EED1Ev,_ZNSt5dequeINSt12experimental10filesystem2v17__cxx114pathESaIS4_EED2Ev _ZNSt15_Deque_iteratorINSt12experimental10filesystem2v17__cxx114pathERS4_PS4_EC1ERKS7_ 64
_ZNSt5dequeINSt12experimental10filesystem2v17__cxx114pathESaIS4_EED1Ev,_ZNSt5dequeINSt12experimental10filesystem2v17__cxx114pathESaIS4_EED2Ev _ZNSt12_Destroy_auxILb0EE9__destroyIPNSt12experimental10filesystem2v17__cxx114pathEEEvT_S8_ 96
_ZNSt5dequeINSt12experimental10filesystem2v17__cxx114pathESaIS4_EED1Ev,_ZNSt5dequeINSt12experimental10filesystem2v17__cxx114pathESaIS4_EED2Ev _ZNSt12_Destroy_auxILb0EE9__destroyIPNSt12experimental10filesystem2v17__cxx114pathEEEvT_S8_ 128
_ZNSt5dequeINSt12experimental10filesystem2v17__cxx114pathESaIS4_EED1Ev,_ZNSt5dequeINSt12experimental10filesystem2v17__cxx114pathESaIS4_EED2Ev _ZNSt12_Destroy_auxILb0EE9__destroyIPNSt12experimental10filesystem2v17__cxx114pathEEEvT_S8_ 140
_ZNSt5dequeINSt12experimental10filesystem2v17__cxx114pathESaIS4_EED1Ev,_ZNSt5dequeINSt12experimental10filesystem2v17__cxx114pathESaIS4_EED2Ev _ZNSt11_Deque_baseINSt12experimental10filesystem2v17__cxx114pathESaIS4_EED2Ev 148
_ZNSt12experimental10filesystem2v118create_directoriesERKNS1_7__cxx114pathERSt10error_code _ZNSt3_V216generic_categoryEv 24
_ZNSt12experimental10filesystem2v118create_directoriesERKNS1_7__cxx114pathERSt10error_code _ZNSt12experimental10filesystem2v114symlink_statusERKNS1_7__cxx114pathERSt10error_code 68
_ZNSt12experimental10filesystem2v118create_directoriesERKNS1_7__cxx114pathERSt10error_code _ZNSt3_V216generic_categoryEv 136
_ZNSt12experimental10filesystem2v118create_directoriesERKNS1_7__cxx114pathERSt10error_code _ZNSt11_Deque_baseINSt12experimental10filesystem2v17__cxx114pathESaIS4_EEC2Ev 164
_ZNSt12experimental10filesystem2v118create_directoriesERKNS1_7__cxx114pathERSt10error_code _ZNSt12experimental10filesystem2v17__cxx114pathC1ERKS3_ 180
_ZNSt12experimental10filesystem2v118create_directoriesERKNS1_7__cxx114pathERSt10error_code _ZNSt12experimental10filesystem2v16statusERKNS1_7__cxx114pathERSt10error_code 228
_ZNSt12experimental10filesystem2v118create_directoriesERKNS1_7__cxx114pathERSt10error_code _ZNSt10error_code5clearEv 248
_ZNSt12experimental10filesystem2v118create_directoriesERKNS1_7__cxx114pathERSt10error_code _ZNKSt12experimental10filesystem2v17__cxx114path8filenameEv 260
_ZNSt12experimental10filesystem2v118create_directoriesERKNS1_7__cxx114pathERSt10error_code _ZNSt12experimental10filesystem2v17__cxx114pathC1EOS3_ 348
_ZNSt12experimental10filesystem2v118create_directoriesERKNS1_7__cxx114pathERSt10error_code _ZNSt5dequeINSt12experimental10filesystem2v17__cxx114pathESaIS4_EE4backEv 368
_ZNSt12experimental10filesystem2v118create_directoriesERKNS1_7__cxx114pathERSt10error_code _ZNSt5dequeINSt12experimental10filesystem2v17__cxx114pathESaIS4_EE4backEv 376
_ZNSt12experimental10filesystem2v118create_directoriesERKNS1_7__cxx114pathERSt10error_code _ZNKSt12experimental10filesystem2v17__cxx114path11parent_pathEv 388
_ZNSt12experimental10filesystem2v118create_directoriesERKNS1_7__cxx114pathERSt10error_code _ZNSt12experimental10filesystem2v17__cxx114pathaSEOS3_ 400
_ZNSt12experimental10filesystem2v118create_directoriesERKNS1_7__cxx114pathERSt10error_code _ZNSt12experimental10filesystem2v17__cxx114pathD1Ev 408
_ZNSt12experimental10filesystem2v118create_directoriesERKNS1_7__cxx114pathERSt10error_code _ZNSt12experimental10filesystem2v17__cxx114pathD1Ev 416
_ZNSt12experimental10filesystem2v118create_directoriesERKNS1_7__cxx114pathERSt10error_code _ZNSt5dequeINSt12experimental10filesystem2v17__cxx114pathESaIS4_EE22_M_reserve_map_at_backEj 432
_ZNSt12experimental10filesystem2v118create_directoriesERKNS1_7__cxx114pathERSt10error_code _Znwj 444
_ZNSt12experimental10filesystem2v118create_directoriesERKNS1_7__cxx114pathERSt10error_code _ZNSt12experimental10filesystem2v17__cxx114pathC1EOS3_ 460
_ZNSt12experimental10filesystem2v118create_directoriesERKNS1_7__cxx114pathERSt10error_code _ZNSt5dequeINSt12experimental10filesystem2v17__cxx114pathESaIS4_EE4backEv 516
_ZNSt12experimental10filesystem2v118create_directoriesERKNS1_7__cxx114pathERSt10error_code _ZNSt12experimental10filesystem2v116create_directoryERKNS1_7__cxx114pathERSt10error_code 524
_ZNSt12experimental10filesystem2v118create_directoriesERKNS1_7__cxx114pathERSt10error_code _ZdlPv 564
_ZNSt12experimental10filesystem2v118create_directoriesERKNS1_7__cxx114pathERSt10error_code _ZNSt12experimental10filesystem2v17__cxx114pathD1Ev 604
_ZNSt12experimental10filesystem2v118create_directoriesERKNS1_7__cxx114pathERSt10error_code _ZNSt12experimental10filesystem2v17__cxx114pathD1Ev 628
_ZNSt12experimental10filesystem2v118create_directoriesERKNS1_7__cxx114pathERSt10error_code _ZNSt5dequeINSt12experimental10filesystem2v17__cxx114pathESaIS4_EED1Ev 636
_ZNSt12experimental10filesystem2v118create_directoriesERKNS1_7__cxx114pathE _ZNSt10error_codeC1Ev 20
_ZNSt12experimental10filesystem2v118create_directoriesERKNS1_7__cxx114pathE _ZNSt12experimental10filesystem2v118create_directoriesERKNS1_7__cxx114pathERSt10error_code 32
_ZNSt12experimental10filesystem2v118create_directoriesERKNS1_7__cxx114pathE __cxa_allocate_exception 64
_ZNSt12experimental10filesystem2v118create_directoriesERKNS1_7__cxx114pathE _ZNSt7__cxx1112basic_stringIcSt11char_traitsIcESaIcEEC2IS3_EEPKcRKS3_.constprop.149 84
_ZNSt12experimental10filesystem2v118create_directoriesERKNS1_7__cxx114pathE _ZNSt12experimental10filesystem2v17__cxx1116filesystem_errorC1ERKNSt7__cxx1112basic_stringIcSt11char_traitsIcESaIcEEERKNS2_4pathESt10error_code 112
_ZNSt12experimental10filesystem2v118create_directoriesERKNS1_7__cxx114pathE _ZNSt7__cxx1112basic_stringIcSt11char_traitsIcESaIcEE10_M_disposeEv 120
_ZNSt12experimental10filesystem2v118create_directoriesERKNS1_7__cxx114pathE __cxa_throw 160
_ZNSt12experimental10filesystem2v118create_directoriesERKNS1_7__cxx114pathE _ZNSt7__cxx1112basic_stringIcSt11char_traitsIcESaIcEE10_M_disposeEv 168
_ZNSt12experimental10filesystem2v118create_directoriesERKNS1_7__cxx114pathE __cxa_free_exception 176
_ZNSt12experimental10filesystem2v118create_directoriesERKNS1_7__cxx114pathE __cxa_end_cleanup 180
_ZNSt12experimental10filesystem2v118create_directoriesERKNS1_7__cxx114pathE .LC42 200
_ZNSt12experimental10filesystem2v118create_directoriesERKNS1_7__cxx114pathE _ZNSt12experimental10filesystem2v17__cxx1116filesystem_errorD1Ev 204
_ZNSt12experimental10filesystem2v118create_directoriesERKNS1_7__cxx114pathE _ZTINSt12experimental10filesystem2v17__cxx1116filesystem_errorE 208
_ZSt4copyINSt12experimental10filesystem2v17__cxx114path8iteratorESt15_Deque_iteratorIS4_RS4_PS4_EET0_T_SB_SA_ _ZNSt15_Deque_iteratorINSt12experimental10filesystem2v17__cxx114pathERS4_PS4_EC1ERKS7_ 72
_ZSt4copyINSt12experimental10filesystem2v17__cxx114path8iteratorESt15_Deque_iteratorIS4_RS4_PS4_EET0_T_SB_SA_ _ZNSt15_Deque_iteratorINSt12experimental10filesystem2v17__cxx114pathERS4_PS4_EC1ERKS7_ 144
_ZSt4copyINSt12experimental10filesystem2v17__cxx114path8iteratorESt15_Deque_iteratorIS4_RS4_PS4_EET0_T_SB_SA_ _ZNSt15_Deque_iteratorINSt12experimental10filesystem2v17__cxx114pathERS4_PS4_EC1ERKS7_ 160
_ZSt4copyINSt12experimental10filesystem2v17__cxx114path8iteratorESt15_Deque_iteratorIS4_RS4_PS4_EET0_T_SB_SA_ _ZNSt15_Deque_iteratorINSt12experimental10filesystem2v17__cxx114pathERS4_PS4_EC1ERKS7_ 200
_ZSt4copyINSt12experimental10filesystem2v17__cxx114path8iteratorESt15_Deque_iteratorIS4_RS4_PS4_EET0_T_SB_SA_ _ZNSt12experimental10filesystem2v17__cxx11neERKNS2_4path8iteratorES6_ 232
_ZSt4copyINSt12experimental10filesystem2v17__cxx114path8iteratorESt15_Deque_iteratorIS4_RS4_PS4_EET0_T_SB_SA_ _ZNSt12experimental10filesystem2v17__cxx114pathaSERKS3_ 264
_ZSt4copyINSt12experimental10filesystem2v17__cxx114path8iteratorESt15_Deque_iteratorIS4_RS4_PS4_EET0_T_SB_SA_ _ZNSt15_Deque_iteratorINSt12experimental10filesystem2v17__cxx114pathERS4_PS4_EppEv 272
_ZSt4copyINSt12experimental10filesystem2v17__cxx114path8iteratorESt15_Deque_iteratorIS4_RS4_PS4_EET0_T_SB_SA_ _ZNSt12experimental10filesystem2v17__cxx114path8iteratorppEv 280
_ZSt4copyINSt12experimental10filesystem2v17__cxx114path8iteratorESt15_Deque_iteratorIS4_RS4_PS4_EET0_T_SB_SA_ _ZNSt15_Deque_iteratorINSt12experimental10filesystem2v17__cxx114pathERS4_PS4_EC1ERKS7_ 296
_ZSt22__uninitialized_move_aISt15_Deque_iteratorINSt12experimental10filesystem2v17__cxx114pathERS5_PS5_ES8_SaIS5_EET0_T_SB_SA_RT1_ _ZNSt15_Deque_iteratorINSt12experimental10filesystem2v17__cxx114pathERS4_PS4_EC1ERKS7_ 36
_ZSt22__uninitialized_move_aISt15_Deque_iteratorINSt12experimental10filesystem2v17__cxx114pathERS5_PS5_ES8_SaIS5_EET0_T_SB_SA_RT1_ _ZNSt15_Deque_iteratorINSt12experimental10filesystem2v17__cxx114pathERS4_PS4_EC1ERKS7_ 48
_ZSt22__uninitialized_move_aISt15_Deque_iteratorINSt12experimental10filesystem2v17__cxx114pathERS5_PS5_ES8_SaIS5_EET0_T_SB_SA_RT1_ _ZNSt15_Deque_iteratorINSt12experimental10filesystem2v17__cxx114pathERS4_PS4_EC1ERKS7_ 64
_ZSt22__uninitialized_move_aISt15_Deque_iteratorINSt12experimental10filesystem2v17__cxx114pathERS5_PS5_ES8_SaIS5_EET0_T_SB_SA_RT1_ _ZNSt15_Deque_iteratorINSt12experimental10filesystem2v17__cxx114pathERS4_PS4_EC1ERKS7_ 76
_ZSt22__uninitialized_move_aISt15_Deque_iteratorINSt12experimental10filesystem2v17__cxx114pathERS5_PS5_ES8_SaIS5_EET0_T_SB_SA_RT1_ _ZNSt15_Deque_iteratorINSt12experimental10filesystem2v17__cxx114pathERS4_PS4_EC1ERKS7_ 96
_ZSt22__uninitialized_move_aISt15_Deque_iteratorINSt12experimental10filesystem2v17__cxx114pathERS5_PS5_ES8_SaIS5_EET0_T_SB_SA_RT1_ _ZNSt15_Deque_iteratorINSt12experimental10filesystem2v17__cxx114pathERS4_PS4_EC1ERKS7_ 108
_ZSt22__uninitialized_move_aISt15_Deque_iteratorINSt12experimental10filesystem2v17__cxx114pathERS5_PS5_ES8_SaIS5_EET0_T_SB_SA_RT1_ _ZNSt15_Deque_iteratorINSt12experimental10filesystem2v17__cxx114pathERS4_PS4_EC1ERKS7_ 120
_ZSt22__uninitialized_move_aISt15_Deque_iteratorINSt12experimental10filesystem2v17__cxx114pathERS5_PS5_ES8_SaIS5_EET0_T_SB_SA_RT1_ _ZNSt15_Deque_iteratorINSt12experimental10filesystem2v17__cxx114pathERS4_PS4_EC1ERKS7_ 140
_ZSt22__uninitialized_move_aISt15_Deque_iteratorINSt12experimental10filesystem2v17__cxx114pathERS5_PS5_ES8_SaIS5_EET0_T_SB_SA_RT1_ _ZNSt15_Deque_iteratorINSt12experimental10filesystem2v17__cxx114pathERS4_PS4_EC1ERKS7_ 156
_ZSt22__uninitialized_move_aISt15_Deque_iteratorINSt12experimental10filesystem2v17__cxx114pathERS5_PS5_ES8_SaIS5_EET0_T_SB_SA_RT1_ _ZNSt15_Deque_iteratorINSt12experimental10filesystem2v17__cxx114pathERS4_PS4_EC1ERKS7_ 172
_ZSt22__uninitialized_move_aISt15_Deque_iteratorINSt12experimental10filesystem2v17__cxx114pathERS5_PS5_ES8_SaIS5_EET0_T_SB_SA_RT1_ _ZNSt15_Deque_iteratorINSt12experimental10filesystem2v17__cxx114pathERS4_PS4_EC1ERKS7_ 188
_ZSt22__uninitialized_move_aISt15_Deque_iteratorINSt12experimental10filesystem2v17__cxx114pathERS5_PS5_ES8_SaIS5_EET0_T_SB_SA_RT1_ _ZNSt15_Deque_iteratorINSt12experimental10filesystem2v17__cxx114pathERS4_PS4_EC1ERKS7_ 200
_ZSt22__uninitialized_move_aISt15_Deque_iteratorINSt12experimental10filesystem2v17__cxx114pathERS5_PS5_ES8_SaIS5_EET0_T_SB_SA_RT1_ _ZNSt15_Deque_iteratorINSt12experimental10filesystem2v17__cxx114pathERS4_PS4_EC1ERKS7_ 216
_ZSt22__uninitialized_move_aISt15_Deque_iteratorINSt12experimental10filesystem2v17__cxx114pathERS5_PS5_ES8_SaIS5_EET0_T_SB_SA_RT1_ _ZNSt15_Deque_iteratorINSt12experimental10filesystem2v17__cxx114pathERS4_PS4_EC1ERKS7_ 232
_ZSt22__uninitialized_move_aISt15_Deque_iteratorINSt12experimental10filesystem2v17__cxx114pathERS5_PS5_ES8_SaIS5_EET0_T_SB_SA_RT1_ _ZNSt15_Deque_iteratorINSt12experimental10filesystem2v17__cxx114pathERS4_PS4_EC1ERKS7_ 244
_ZSt22__uninitialized_move_aISt15_Deque_iteratorINSt12experimental10filesystem2v17__cxx114pathERS5_PS5_ES8_SaIS5_EET0_T_SB_SA_RT1_ _ZNSt15_Deque_iteratorINSt12experimental10filesystem2v17__cxx114pathERS4_PS4_EC1ERKS7_ 256
_ZSt22__uninitialized_move_aISt15_Deque_iteratorINSt12experimental10filesystem2v17__cxx114pathERS5_PS5_ES8_SaIS5_EET0_T_SB_SA_RT1_ _ZNSt12experimental10filesystem2v17__cxx114pathC1EOS3_ 284
_ZSt22__uninitialized_move_aISt15_Deque_iteratorINSt12experimental10filesystem2v17__cxx114pathERS5_PS5_ES8_SaIS5_EET0_T_SB_SA_RT1_ _ZNSt15_Deque_iteratorINSt12experimental10filesystem2v17__cxx114pathERS4_PS4_EppEv 292
_ZSt22__uninitialized_move_aISt15_Deque_iteratorINSt12experimental10filesystem2v17__cxx114pathERS5_PS5_ES8_SaIS5_EET0_T_SB_SA_RT1_ _ZNSt15_Deque_iteratorINSt12experimental10filesystem2v17__cxx114pathERS4_PS4_EppEv 300
_ZSt8_DestroyISt15_Deque_iteratorINSt12experimental10filesystem2v17__cxx114pathERS5_PS5_EEvT_S9_ _ZNSt15_Deque_iteratorINSt12experimental10filesystem2v17__cxx114pathERS4_PS4_EC1ERKS7_ 24
_ZSt8_DestroyISt15_Deque_iteratorINSt12experimental10filesystem2v17__cxx114pathERS5_PS5_EEvT_S9_ _ZNSt15_Deque_iteratorINSt12experimental10filesystem2v17__cxx114pathERS4_PS4_EC1ERKS7_ 36
_ZSt8_DestroyISt15_Deque_iteratorINSt12experimental10filesystem2v17__cxx114pathERS5_PS5_EEvT_S9_ _ZNSt12experimental10filesystem2v17__cxx114pathD1Ev 56
_ZSt8_DestroyISt15_Deque_iteratorINSt12experimental10filesystem2v17__cxx114pathERS5_PS5_EEvT_S9_ _ZNSt15_Deque_iteratorINSt12experimental10filesystem2v17__cxx114pathERS4_PS4_EppEv 64
_ZSt22__uninitialized_copy_aINSt12experimental10filesystem2v17__cxx114path8iteratorESt15_Deque_iteratorIS4_RS4_PS4_ES4_ET0_T_SB_SA_RSaIT1_E.isra.139 _ZNSt15_Deque_iteratorINSt12experimental10filesystem2v17__cxx114pathERS4_PS4_EC1ERKS7_ 40
_ZSt22__uninitialized_copy_aINSt12experimental10filesystem2v17__cxx114path8iteratorESt15_Deque_iteratorIS4_RS4_PS4_ES4_ET0_T_SB_SA_RSaIT1_E.isra.139 _ZNSt15_Deque_iteratorINSt12experimental10filesystem2v17__cxx114pathERS4_PS4_EC1ERKS7_ 80
_ZSt22__uninitialized_copy_aINSt12experimental10filesystem2v17__cxx114path8iteratorESt15_Deque_iteratorIS4_RS4_PS4_ES4_ET0_T_SB_SA_RSaIT1_E.isra.139 _ZNSt15_Deque_iteratorINSt12experimental10filesystem2v17__cxx114pathERS4_PS4_EC1ERKS7_ 112
_ZSt22__uninitialized_copy_aINSt12experimental10filesystem2v17__cxx114path8iteratorESt15_Deque_iteratorIS4_RS4_PS4_ES4_ET0_T_SB_SA_RSaIT1_E.isra.139 _ZNSt12experimental10filesystem2v17__cxx11neERKNS2_4path8iteratorES6_ 124
_ZSt22__uninitialized_copy_aINSt12experimental10filesystem2v17__cxx114path8iteratorESt15_Deque_iteratorIS4_RS4_PS4_ES4_ET0_T_SB_SA_RSaIT1_E.isra.139 _ZNSt12experimental10filesystem2v17__cxx114pathC1ERKS3_ 156
_ZSt22__uninitialized_copy_aINSt12experimental10filesystem2v17__cxx114path8iteratorESt15_Deque_iteratorIS4_RS4_PS4_ES4_ET0_T_SB_SA_RSaIT1_E.isra.139 _ZNSt12experimental10filesystem2v17__cxx114path8iteratorppEv 164
_ZSt22__uninitialized_copy_aINSt12experimental10filesystem2v17__cxx114path8iteratorESt15_Deque_iteratorIS4_RS4_PS4_ES4_ET0_T_SB_SA_RSaIT1_E.isra.139 _ZNSt15_Deque_iteratorINSt12experimental10filesystem2v17__cxx114pathERS4_PS4_EppEv 172
_ZSt22__uninitialized_copy_aINSt12experimental10filesystem2v17__cxx114path8iteratorESt15_Deque_iteratorIS4_RS4_PS4_ES4_ET0_T_SB_SA_RSaIT1_E.isra.139 __cxa_begin_catch 188
_ZSt22__uninitialized_copy_aINSt12experimental10filesystem2v17__cxx114path8iteratorESt15_Deque_iteratorIS4_RS4_PS4_ES4_ET0_T_SB_SA_RSaIT1_E.isra.139 _ZNSt15_Deque_iteratorINSt12experimental10filesystem2v17__cxx114pathERS4_PS4_EC1ERKS7_ 200
_ZSt22__uninitialized_copy_aINSt12experimental10filesystem2v17__cxx114path8iteratorESt15_Deque_iteratorIS4_RS4_PS4_ES4_ET0_T_SB_SA_RSaIT1_E.isra.139 _ZNSt15_Deque_iteratorINSt12experimental10filesystem2v17__cxx114pathERS4_PS4_EC1ERKS7_ 212
_ZSt22__uninitialized_copy_aINSt12experimental10filesystem2v17__cxx114path8iteratorESt15_Deque_iteratorIS4_RS4_PS4_ES4_ET0_T_SB_SA_RSaIT1_E.isra.139 _ZSt8_DestroyISt15_Deque_iteratorINSt12experimental10filesystem2v17__cxx114pathERS5_PS5_EEvT_S9_ 224
_ZSt22__uninitialized_copy_aINSt12experimental10filesystem2v17__cxx114path8iteratorESt15_Deque_iteratorIS4_RS4_PS4_ES4_ET0_T_SB_SA_RSaIT1_E.isra.139 __cxa_rethrow 228
_ZSt22__uninitialized_copy_aINSt12experimental10filesystem2v17__cxx114path8iteratorESt15_Deque_iteratorIS4_RS4_PS4_ES4_ET0_T_SB_SA_RSaIT1_E.isra.139 __cxa_end_catch 232
_ZSt22__uninitialized_copy_aINSt12experimental10filesystem2v17__cxx114path8iteratorESt15_Deque_iteratorIS4_RS4_PS4_ES4_ET0_T_SB_SA_RSaIT1_E.isra.139 __cxa_end_cleanup 236
_ZSt13move_backwardINSt12experimental10filesystem2v17__cxx114pathEESt15_Deque_iteratorIT_RS6_PS6_ES9_S9_S9_ _ZNSt15_Deque_iteratorINSt12experimental10filesystem2v17__cxx114pathERS4_PS4_EC1ERKS7_ 64
_ZSt13move_backwardINSt12experimental10filesystem2v17__cxx114pathEESt15_Deque_iteratorIT_RS6_PS6_ES9_S9_S9_ _ZStmiINSt12experimental10filesystem2v17__cxx114pathERKS4_PS5_ENSt15_Deque_iteratorIT_T0_T1_E15difference_typeERKSC_SF_ 124
_ZSt13move_backwardINSt12experimental10filesystem2v17__cxx114pathEESt15_Deque_iteratorIT_RS6_PS6_ES9_S9_S9_ _ZNSt12experimental10filesystem2v17__cxx114pathaSEOS3_ 284
_ZSt13move_backwardINSt12experimental10filesystem2v17__cxx114pathEESt15_Deque_iteratorIT_RS6_PS6_ES9_S9_S9_ _ZNSt15_Deque_iteratorINSt12experimental10filesystem2v17__cxx114pathERKS4_PS5_EpLEi 316
_ZSt13move_backwardINSt12experimental10filesystem2v17__cxx114pathEESt15_Deque_iteratorIT_RS6_PS6_ES9_S9_S9_ _ZNSt15_Deque_iteratorINSt12experimental10filesystem2v17__cxx114pathERS4_PS4_EpLEi 328
_ZSt13move_backwardINSt12experimental10filesystem2v17__cxx114pathEESt15_Deque_iteratorIT_RS6_PS6_ES9_S9_S9_ _ZNSt15_Deque_iteratorINSt12experimental10filesystem2v17__cxx114pathERS4_PS4_EC1ERKS7_ 344
_ZSt4moveINSt12experimental10filesystem2v17__cxx114pathEESt15_Deque_iteratorIT_RS6_PS6_ES9_S9_S9_ _ZNSt15_Deque_iteratorINSt12experimental10filesystem2v17__cxx114pathERS4_PS4_EC1ERKS7_ 64
_ZSt4moveINSt12experimental10filesystem2v17__cxx114pathEESt15_Deque_iteratorIT_RS6_PS6_ES9_S9_S9_ _ZStmiINSt12experimental10filesystem2v17__cxx114pathERKS4_PS5_ENSt15_Deque_iteratorIT_T0_T1_E15difference_typeERKSC_SF_ 124
_ZSt4moveINSt12experimental10filesystem2v17__cxx114pathEESt15_Deque_iteratorIT_RS6_PS6_ES9_S9_S9_ _ZNSt12experimental10filesystem2v17__cxx114pathaSEOS3_ 224
_ZSt4moveINSt12experimental10filesystem2v17__cxx114pathEESt15_Deque_iteratorIT_RS6_PS6_ES9_S9_S9_ _ZNSt15_Deque_iteratorINSt12experimental10filesystem2v17__cxx114pathERKS4_PS5_EpLEi 256
_ZSt4moveINSt12experimental10filesystem2v17__cxx114pathEESt15_Deque_iteratorIT_RS6_PS6_ES9_S9_S9_ _ZNSt15_Deque_iteratorINSt12experimental10filesystem2v17__cxx114pathERS4_PS4_EpLEi 268
_ZSt4moveINSt12experimental10filesystem2v17__cxx114pathEESt15_Deque_iteratorIT_RS6_PS6_ES9_S9_S9_ _ZNSt15_Deque_iteratorINSt12experimental10filesystem2v17__cxx114pathERS4_PS4_EC1ERKS7_ 288
_ZNSt5dequeINSt12experimental10filesystem2v17__cxx114pathESaIS4_EE13_M_insert_auxINS4_8iteratorEEEvSt15_Deque_iteratorIS4_RS4_PS4_ET_SD_j _ZStmiINSt12experimental10filesystem2v17__cxx114pathERS4_PS4_ENSt15_Deque_iteratorIT_T0_T1_E15difference_typeERKSB_SE_ 52
_ZNSt5dequeINSt12experimental10filesystem2v17__cxx114pathESaIS4_EE13_M_insert_auxINS4_8iteratorEEEvSt15_Deque_iteratorIS4_RS4_PS4_ET_SD_j _ZStmiINSt12experimental10filesystem2v17__cxx114pathERS4_PS4_ENSt15_Deque_iteratorIT_T0_T1_E15difference_typeERKSB_SE_ 68
_ZNSt5dequeINSt12experimental10filesystem2v17__cxx114pathESaIS4_EE13_M_insert_auxINS4_8iteratorEEEvSt15_Deque_iteratorIS4_RS4_PS4_ET_SD_j _ZNSt5dequeINSt12experimental10filesystem2v17__cxx114pathESaIS4_EE28_M_reserve_elements_at_frontEj 112
_ZNSt5dequeINSt12experimental10filesystem2v17__cxx114pathESaIS4_EE13_M_insert_auxINS4_8iteratorEEEvSt15_Deque_iteratorIS4_RS4_PS4_ET_SD_j _ZNSt15_Deque_iteratorINSt12experimental10filesystem2v17__cxx114pathERS4_PS4_EC1ERKS7_ 132
_ZNSt5dequeINSt12experimental10filesystem2v17__cxx114pathESaIS4_EE13_M_insert_auxINS4_8iteratorEEEvSt15_Deque_iteratorIS4_RS4_PS4_ET_SD_j _ZNKSt15_Deque_iteratorINSt12experimental10filesystem2v17__cxx114pathERS4_PS4_EplEi 148
_ZNSt5dequeINSt12experimental10filesystem2v17__cxx114pathESaIS4_EE13_M_insert_auxINS4_8iteratorEEEvSt15_Deque_iteratorIS4_RS4_PS4_ET_SD_j _ZNKSt15_Deque_iteratorINSt12experimental10filesystem2v17__cxx114pathERS4_PS4_EplEi 192
_ZNSt5dequeINSt12experimental10filesystem2v17__cxx114pathESaIS4_EE13_M_insert_auxINS4_8iteratorEEEvSt15_Deque_iteratorIS4_RS4_PS4_ET_SD_j _ZNSt15_Deque_iteratorINSt12experimental10filesystem2v17__cxx114pathERS4_PS4_EC1ERKS7_ 204
_ZNSt5dequeINSt12experimental10filesystem2v17__cxx114pathESaIS4_EE13_M_insert_auxINS4_8iteratorEEEvSt15_Deque_iteratorIS4_RS4_PS4_ET_SD_j _ZNSt15_Deque_iteratorINSt12experimental10filesystem2v17__cxx114pathERS4_PS4_EC1ERKS7_ 216
_ZNSt5dequeINSt12experimental10filesystem2v17__cxx114pathESaIS4_EE13_M_insert_auxINS4_8iteratorEEEvSt15_Deque_iteratorIS4_RS4_PS4_ET_SD_j _ZNSt15_Deque_iteratorINSt12experimental10filesystem2v17__cxx114pathERS4_PS4_EC1ERKS7_ 228
_ZNSt5dequeINSt12experimental10filesystem2v17__cxx114pathESaIS4_EE13_M_insert_auxINS4_8iteratorEEEvSt15_Deque_iteratorIS4_RS4_PS4_ET_SD_j _ZSt22__uninitialized_move_aISt15_Deque_iteratorINSt12experimental10filesystem2v17__cxx114pathERS5_PS5_ES8_SaIS5_EET0_T_SB_SA_RT1_ 252
_ZNSt5dequeINSt12experimental10filesystem2v17__cxx114pathESaIS4_EE13_M_insert_auxINS4_8iteratorEEEvSt15_Deque_iteratorIS4_RS4_PS4_ET_SD_j _ZNSt15_Deque_iteratorINSt12experimental10filesystem2v17__cxx114pathERS4_PS4_EC1ERKS7_ 276
_ZNSt5dequeINSt12experimental10filesystem2v17__cxx114pathESaIS4_EE13_M_insert_auxINS4_8iteratorEEEvSt15_Deque_iteratorIS4_RS4_PS4_ET_SD_j _ZNSt15_Deque_iteratorINSt12experimental10filesystem2v17__cxx114pathERS4_PS4_EC1ERKS7_ 288
_ZNSt5dequeINSt12experimental10filesystem2v17__cxx114pathESaIS4_EE13_M_insert_auxINS4_8iteratorEEEvSt15_Deque_iteratorIS4_RS4_PS4_ET_SD_j _ZNSt15_Deque_iteratorINSt12experimental10filesystem2v17__cxx114pathERS4_PS4_EC1ERKS7_ 300
_ZNSt5dequeINSt12experimental10filesystem2v17__cxx114pathESaIS4_EE13_M_insert_auxINS4_8iteratorEEEvSt15_Deque_iteratorIS4_RS4_PS4_ET_SD_j _ZSt4moveINSt12experimental10filesystem2v17__cxx114pathEESt15_Deque_iteratorIT_RS6_PS6_ES9_S9_S9_ 320
_ZNSt5dequeINSt12experimental10filesystem2v17__cxx114pathESaIS4_EE13_M_insert_auxINS4_8iteratorEEEvSt15_Deque_iteratorIS4_RS4_PS4_ET_SD_j _ZNKSt15_Deque_iteratorINSt12experimental10filesystem2v17__cxx114pathERS4_PS4_EmiEi 336
_ZNSt5dequeINSt12experimental10filesystem2v17__cxx114pathESaIS4_EE13_M_insert_auxINS4_8iteratorEEEvSt15_Deque_iteratorIS4_RS4_PS4_ET_SD_j _ZSt4copyINSt12experimental10filesystem2v17__cxx114path8iteratorESt15_Deque_iteratorIS4_RS4_PS4_EET0_T_SB_SA_ 368
_ZNSt5dequeINSt12experimental10filesystem2v17__cxx114pathESaIS4_EE13_M_insert_auxINS4_8iteratorEEEvSt15_Deque_iteratorIS4_RS4_PS4_ET_SD_j _ZSt9__advanceINSt12experimental10filesystem2v17__cxx114path8iteratorEiEvRT_T0_St26bidirectional_iterator_tag.isra.88 412
_ZNSt5dequeINSt12experimental10filesystem2v17__cxx114pathESaIS4_EE13_M_insert_auxINS4_8iteratorEEEvSt15_Deque_iteratorIS4_RS4_PS4_ET_SD_j _ZNSt15_Deque_iteratorINSt12experimental10filesystem2v17__cxx114pathERS4_PS4_EC1ERKS7_ 424
_ZNSt5dequeINSt12experimental10filesystem2v17__cxx114pathESaIS4_EE13_M_insert_auxINS4_8iteratorEEEvSt15_Deque_iteratorIS4_RS4_PS4_ET_SD_j _ZNSt15_Deque_iteratorINSt12experimental10filesystem2v17__cxx114pathERS4_PS4_EC1ERKS7_ 440
_ZNSt5dequeINSt12experimental10filesystem2v17__cxx114pathESaIS4_EE13_M_insert_auxINS4_8iteratorEEEvSt15_Deque_iteratorIS4_RS4_PS4_ET_SD_j _ZNSt15_Deque_iteratorINSt12experimental10filesystem2v17__cxx114pathERS4_PS4_EC1ERKS7_ 452
_ZNSt5dequeINSt12experimental10filesystem2v17__cxx114pathESaIS4_EE13_M_insert_auxINS4_8iteratorEEEvSt15_Deque_iteratorIS4_RS4_PS4_ET_SD_j _ZNSt15_Deque_iteratorINSt12experimental10filesystem2v17__cxx114pathERS4_PS4_EC1ERKS7_ 496
_ZNSt5dequeINSt12experimental10filesystem2v17__cxx114pathESaIS4_EE13_M_insert_auxINS4_8iteratorEEEvSt15_Deque_iteratorIS4_RS4_PS4_ET_SD_j _ZNSt15_Deque_iteratorINSt12experimental10filesystem2v17__cxx114pathERS4_PS4_EC1ERKS7_ 512
_ZNSt5dequeINSt12experimental10filesystem2v17__cxx114pathESaIS4_EE13_M_insert_auxINS4_8iteratorEEEvSt15_Deque_iteratorIS4_RS4_PS4_ET_SD_j _ZNSt15_Deque_iteratorINSt12experimental10filesystem2v17__cxx114pathERS4_PS4_EC1ERKS7_ 524
_ZNSt5dequeINSt12experimental10filesystem2v17__cxx114pathESaIS4_EE13_M_insert_auxINS4_8iteratorEEEvSt15_Deque_iteratorIS4_RS4_PS4_ET_SD_j _ZSt22__uninitialized_move_aISt15_Deque_iteratorINSt12experimental10filesystem2v17__cxx114pathERS5_PS5_ES8_SaIS5_EET0_T_SB_SA_RT1_ 548
_ZNSt5dequeINSt12experimental10filesystem2v17__cxx114pathESaIS4_EE13_M_insert_auxINS4_8iteratorEEEvSt15_Deque_iteratorIS4_RS4_PS4_ET_SD_j _ZNSt15_Deque_iteratorINSt12experimental10filesystem2v17__cxx114pathERS4_PS4_EC1ERKS7_ 560
_ZNSt5dequeINSt12experimental10filesystem2v17__cxx114pathESaIS4_EE13_M_insert_auxINS4_8iteratorEEEvSt15_Deque_iteratorIS4_RS4_PS4_ET_SD_j _ZSt22__uninitialized_copy_aINSt12experimental10filesystem2v17__cxx114path8iteratorESt15_Deque_iteratorIS4_RS4_PS4_ES4_ET0_T_SB_SA_RSaIT1_E.isra.139 588
_ZNSt5dequeINSt12experimental10filesystem2v17__cxx114pathESaIS4_EE13_M_insert_auxINS4_8iteratorEEEvSt15_Deque_iteratorIS4_RS4_PS4_ET_SD_j _ZNSt15_Deque_iteratorINSt12experimental10filesystem2v17__cxx114pathERS4_PS4_EC1ERKS7_ 612
_ZNSt5dequeINSt12experimental10filesystem2v17__cxx114pathESaIS4_EE13_M_insert_auxINS4_8iteratorEEEvSt15_Deque_iteratorIS4_RS4_PS4_ET_SD_j __cxa_begin_catch 644
_ZNSt5dequeINSt12experimental10filesystem2v17__cxx114pathESaIS4_EE13_M_insert_auxINS4_8iteratorEEEvSt15_Deque_iteratorIS4_RS4_PS4_ET_SD_j _ZNSt15_Deque_iteratorINSt12experimental10filesystem2v17__cxx114pathERS4_PS4_EC1ERKS7_ 660
_ZNSt5dequeINSt12experimental10filesystem2v17__cxx114pathESaIS4_EE13_M_insert_auxINS4_8iteratorEEEvSt15_Deque_iteratorIS4_RS4_PS4_ET_SD_j _ZNSt15_Deque_iteratorINSt12experimental10filesystem2v17__cxx114pathERS4_PS4_EC1ERKS7_ 672
_ZNSt5dequeINSt12experimental10filesystem2v17__cxx114pathESaIS4_EE13_M_insert_auxINS4_8iteratorEEEvSt15_Deque_iteratorIS4_RS4_PS4_ET_SD_j _ZNSt15_Deque_iteratorINSt12experimental10filesystem2v17__cxx114pathERS4_PS4_EC1ERKS7_ 684
_ZNSt5dequeINSt12experimental10filesystem2v17__cxx114pathESaIS4_EE13_M_insert_auxINS4_8iteratorEEEvSt15_Deque_iteratorIS4_RS4_PS4_ET_SD_j _ZNSt15_Deque_iteratorINSt12experimental10filesystem2v17__cxx114pathERS4_PS4_EC1ERKS7_ 696
_ZNSt5dequeINSt12experimental10filesystem2v17__cxx114pathESaIS4_EE13_M_insert_auxINS4_8iteratorEEEvSt15_Deque_iteratorIS4_RS4_PS4_ET_SD_j _ZSt8_DestroyISt15_Deque_iteratorINSt12experimental10filesystem2v17__cxx114pathERS5_PS5_EEvT_S9_ 708
_ZNSt5dequeINSt12experimental10filesystem2v17__cxx114pathESaIS4_EE13_M_insert_auxINS4_8iteratorEEEvSt15_Deque_iteratorIS4_RS4_PS4_ET_SD_j __cxa_rethrow 712
_ZNSt5dequeINSt12experimental10filesystem2v17__cxx114pathESaIS4_EE13_M_insert_auxINS4_8iteratorEEEvSt15_Deque_iteratorIS4_RS4_PS4_ET_SD_j __cxa_end_catch 720
_ZNSt5dequeINSt12experimental10filesystem2v17__cxx114pathESaIS4_EE13_M_insert_auxINS4_8iteratorEEEvSt15_Deque_iteratorIS4_RS4_PS4_ET_SD_j __cxa_begin_catch 728
_ZNSt5dequeINSt12experimental10filesystem2v17__cxx114pathESaIS4_EE13_M_insert_auxINS4_8iteratorEEEvSt15_Deque_iteratorIS4_RS4_PS4_ET_SD_j _ZNSt11_Deque_baseINSt12experimental10filesystem2v17__cxx114pathESaIS4_EE16_M_destroy_nodesEPPS4_S8_.isra.107 740
_ZNSt5dequeINSt12experimental10filesystem2v17__cxx114pathESaIS4_EE13_M_insert_auxINS4_8iteratorEEEvSt15_Deque_iteratorIS4_RS4_PS4_ET_SD_j __cxa_rethrow 744
_ZNSt5dequeINSt12experimental10filesystem2v17__cxx114pathESaIS4_EE13_M_insert_auxINS4_8iteratorEEEvSt15_Deque_iteratorIS4_RS4_PS4_ET_SD_j __cxa_end_catch 748
_ZNSt5dequeINSt12experimental10filesystem2v17__cxx114pathESaIS4_EE13_M_insert_auxINS4_8iteratorEEEvSt15_Deque_iteratorIS4_RS4_PS4_ET_SD_j __cxa_end_cleanup 752
_ZNSt5dequeINSt12experimental10filesystem2v17__cxx114pathESaIS4_EE13_M_insert_auxINS4_8iteratorEEEvSt15_Deque_iteratorIS4_RS4_PS4_ET_SD_j _ZNSt5dequeINSt12experimental10filesystem2v17__cxx114pathESaIS4_EE27_M_reserve_elements_at_backEj 780
_ZNSt5dequeINSt12experimental10filesystem2v17__cxx114pathESaIS4_EE13_M_insert_auxINS4_8iteratorEEEvSt15_Deque_iteratorIS4_RS4_PS4_ET_SD_j _ZNSt15_Deque_iteratorINSt12experimental10filesystem2v17__cxx114pathERS4_PS4_EC1ERKS7_ 804
_ZNSt5dequeINSt12experimental10filesystem2v17__cxx114pathESaIS4_EE13_M_insert_auxINS4_8iteratorEEEvSt15_Deque_iteratorIS4_RS4_PS4_ET_SD_j _ZNKSt15_Deque_iteratorINSt12experimental10filesystem2v17__cxx114pathERS4_PS4_EmiEi 820
_ZNSt5dequeINSt12experimental10filesystem2v17__cxx114pathESaIS4_EE13_M_insert_auxINS4_8iteratorEEEvSt15_Deque_iteratorIS4_RS4_PS4_ET_SD_j _ZNKSt15_Deque_iteratorINSt12experimental10filesystem2v17__cxx114pathERS4_PS4_EmiEi 864
_ZNSt5dequeINSt12experimental10filesystem2v17__cxx114pathESaIS4_EE13_M_insert_auxINS4_8iteratorEEEvSt15_Deque_iteratorIS4_RS4_PS4_ET_SD_j _ZNSt15_Deque_iteratorINSt12experimental10filesystem2v17__cxx114pathERS4_PS4_EC1ERKS7_ 876
_ZNSt5dequeINSt12experimental10filesystem2v17__cxx114pathESaIS4_EE13_M_insert_auxINS4_8iteratorEEEvSt15_Deque_iteratorIS4_RS4_PS4_ET_SD_j _ZNSt15_Deque_iteratorINSt12experimental10filesystem2v17__cxx114pathERS4_PS4_EC1ERKS7_ 888
_ZNSt5dequeINSt12experimental10filesystem2v17__cxx114pathESaIS4_EE13_M_insert_auxINS4_8iteratorEEEvSt15_Deque_iteratorIS4_RS4_PS4_ET_SD_j _ZNSt15_Deque_iteratorINSt12experimental10filesystem2v17__cxx114pathERS4_PS4_EC1ERKS7_ 900
_ZNSt5dequeINSt12experimental10filesystem2v17__cxx114pathESaIS4_EE13_M_insert_auxINS4_8iteratorEEEvSt15_Deque_iteratorIS4_RS4_PS4_ET_SD_j _ZSt22__uninitialized_move_aISt15_Deque_iteratorINSt12experimental10filesystem2v17__cxx114pathERS5_PS5_ES8_SaIS5_EET0_T_SB_SA_RT1_ 924
_ZNSt5dequeINSt12experimental10filesystem2v17__cxx114pathESaIS4_EE13_M_insert_auxINS4_8iteratorEEEvSt15_Deque_iteratorIS4_RS4_PS4_ET_SD_j _ZNSt15_Deque_iteratorINSt12experimental10filesystem2v17__cxx114pathERS4_PS4_EC1ERKS7_ 944
_ZNSt5dequeINSt12experimental10filesystem2v17__cxx114pathESaIS4_EE13_M_insert_auxINS4_8iteratorEEEvSt15_Deque_iteratorIS4_RS4_PS4_ET_SD_j _ZNSt15_Deque_iteratorINSt12experimental10filesystem2v17__cxx114pathERS4_PS4_EC1ERKS7_ 956
_ZNSt5dequeINSt12experimental10filesystem2v17__cxx114pathESaIS4_EE13_M_insert_auxINS4_8iteratorEEEvSt15_Deque_iteratorIS4_RS4_PS4_ET_SD_j _ZNSt15_Deque_iteratorINSt12experimental10filesystem2v17__cxx114pathERS4_PS4_EC1ERKS7_ 968
_ZNSt5dequeINSt12experimental10filesystem2v17__cxx114pathESaIS4_EE13_M_insert_auxINS4_8iteratorEEEvSt15_Deque_iteratorIS4_RS4_PS4_ET_SD_j _ZSt13move_backwardINSt12experimental10filesystem2v17__cxx114pathEESt15_Deque_iteratorIT_RS6_PS6_ES9_S9_S9_ 988
_ZNSt5dequeINSt12experimental10filesystem2v17__cxx114pathESaIS4_EE13_M_insert_auxINS4_8iteratorEEEvSt15_Deque_iteratorIS4_RS4_PS4_ET_SD_j _ZNSt15_Deque_iteratorINSt12experimental10filesystem2v17__cxx114pathERS4_PS4_EC1ERKS7_ 1000
_ZNSt5dequeINSt12experimental10filesystem2v17__cxx114pathESaIS4_EE13_M_insert_auxINS4_8iteratorEEEvSt15_Deque_iteratorIS4_RS4_PS4_ET_SD_j _ZSt4copyINSt12experimental10filesystem2v17__cxx114path8iteratorESt15_Deque_iteratorIS4_RS4_PS4_EET0_T_SB_SA_ 1032
_ZNSt5dequeINSt12experimental10filesystem2v17__cxx114pathESaIS4_EE13_M_insert_auxINS4_8iteratorEEEvSt15_Deque_iteratorIS4_RS4_PS4_ET_SD_j _ZSt9__advanceINSt12experimental10filesystem2v17__cxx114path8iteratorEiEvRT_T0_St26bidirectional_iterator_tag.isra.88 1072
_ZNSt5dequeINSt12experimental10filesystem2v17__cxx114pathESaIS4_EE13_M_insert_auxINS4_8iteratorEEEvSt15_Deque_iteratorIS4_RS4_PS4_ET_SD_j _ZNSt15_Deque_iteratorINSt12experimental10filesystem2v17__cxx114pathERS4_PS4_EC1ERKS7_ 1084
_ZNSt5dequeINSt12experimental10filesystem2v17__cxx114pathESaIS4_EE13_M_insert_auxINS4_8iteratorEEEvSt15_Deque_iteratorIS4_RS4_PS4_ET_SD_j _ZNSt15_Deque_iteratorINSt12experimental10filesystem2v17__cxx114pathERS4_PS4_EC1ERKS7_ 1096
_ZNSt5dequeINSt12experimental10filesystem2v17__cxx114pathESaIS4_EE13_M_insert_auxINS4_8iteratorEEEvSt15_Deque_iteratorIS4_RS4_PS4_ET_SD_j _ZNSt15_Deque_iteratorINSt12experimental10filesystem2v17__cxx114pathERS4_PS4_EC1ERKS7_ 1108
_ZNSt5dequeINSt12experimental10filesystem2v17__cxx114pathESaIS4_EE13_M_insert_auxINS4_8iteratorEEEvSt15_Deque_iteratorIS4_RS4_PS4_ET_SD_j _ZNSt15_Deque_iteratorINSt12experimental10filesystem2v17__cxx114pathERS4_PS4_EC1ERKS7_ 1152
_ZNSt5dequeINSt12experimental10filesystem2v17__cxx114pathESaIS4_EE13_M_insert_auxINS4_8iteratorEEEvSt15_Deque_iteratorIS4_RS4_PS4_ET_SD_j _ZSt22__uninitialized_copy_aINSt12experimental10filesystem2v17__cxx114path8iteratorESt15_Deque_iteratorIS4_RS4_PS4_ES4_ET0_T_SB_SA_RSaIT1_E.isra.139 1176
_ZNSt5dequeINSt12experimental10filesystem2v17__cxx114pathESaIS4_EE13_M_insert_auxINS4_8iteratorEEEvSt15_Deque_iteratorIS4_RS4_PS4_ET_SD_j _ZNSt15_Deque_iteratorINSt12experimental10filesystem2v17__cxx114pathERS4_PS4_EC1ERKS7_ 1196
_ZNSt5dequeINSt12experimental10filesystem2v17__cxx114pathESaIS4_EE13_M_insert_auxINS4_8iteratorEEEvSt15_Deque_iteratorIS4_RS4_PS4_ET_SD_j _ZNSt15_Deque_iteratorINSt12experimental10filesystem2v17__cxx114pathERS4_PS4_EC1ERKS7_ 1208
_ZNSt5dequeINSt12experimental10filesystem2v17__cxx114pathESaIS4_EE13_M_insert_auxINS4_8iteratorEEEvSt15_Deque_iteratorIS4_RS4_PS4_ET_SD_j _ZNSt15_Deque_iteratorINSt12experimental10filesystem2v17__cxx114pathERS4_PS4_EC1ERKS7_ 1220
_ZNSt5dequeINSt12experimental10filesystem2v17__cxx114pathESaIS4_EE13_M_insert_auxINS4_8iteratorEEEvSt15_Deque_iteratorIS4_RS4_PS4_ET_SD_j _ZSt22__uninitialized_move_aISt15_Deque_iteratorINSt12experimental10filesystem2v17__cxx114pathERS5_PS5_ES8_SaIS5_EET0_T_SB_SA_RT1_ 1244
_ZNSt5dequeINSt12experimental10filesystem2v17__cxx114pathESaIS4_EE13_M_insert_auxINS4_8iteratorEEEvSt15_Deque_iteratorIS4_RS4_PS4_ET_SD_j _ZNSt15_Deque_iteratorINSt12experimental10filesystem2v17__cxx114pathERS4_PS4_EC1ERKS7_ 1268
_ZNSt5dequeINSt12experimental10filesystem2v17__cxx114pathESaIS4_EE13_M_insert_auxINS4_8iteratorEEEvSt15_Deque_iteratorIS4_RS4_PS4_ET_SD_j __cxa_begin_catch 1308
_ZNSt5dequeINSt12experimental10filesystem2v17__cxx114pathESaIS4_EE13_M_insert_auxINS4_8iteratorEEEvSt15_Deque_iteratorIS4_RS4_PS4_ET_SD_j _ZNSt11_Deque_baseINSt12experimental10filesystem2v17__cxx114pathESaIS4_EE16_M_destroy_nodesEPPS4_S8_.isra.107 1328
_ZNSt5dequeINSt12experimental10filesystem2v17__cxx114pathESaIS4_EE13_M_insert_auxINS4_8iteratorEEEvSt15_Deque_iteratorIS4_RS4_PS4_ET_SD_j __cxa_rethrow 1332
_ZNSt5dequeINSt12experimental10filesystem2v17__cxx114pathESaIS4_EE13_M_insert_auxINS4_8iteratorEEEvSt15_Deque_iteratorIS4_RS4_PS4_ET_SD_j __cxa_end_catch 1336
_ZNSt5dequeINSt12experimental10filesystem2v17__cxx114pathESaIS4_EE19_M_range_insert_auxINS4_8iteratorEEEvSt15_Deque_iteratorIS4_RS4_PS4_ET_SD_St20forward_iterator_tag _ZNSt12experimental10filesystem2v17__cxx11neERKNS2_4path8iteratorES6_ 92
_ZNSt5dequeINSt12experimental10filesystem2v17__cxx114pathESaIS4_EE19_M_range_insert_auxINS4_8iteratorEEEvSt15_Deque_iteratorIS4_RS4_PS4_ET_SD_St20forward_iterator_tag _ZNSt12experimental10filesystem2v17__cxx114path8iteratorppEv 112
_ZNSt5dequeINSt12experimental10filesystem2v17__cxx114pathESaIS4_EE19_M_range_insert_auxINS4_8iteratorEEEvSt15_Deque_iteratorIS4_RS4_PS4_ET_SD_St20forward_iterator_tag _ZNSt5dequeINSt12experimental10filesystem2v17__cxx114pathESaIS4_EE28_M_reserve_elements_at_frontEj 148
_ZNSt5dequeINSt12experimental10filesystem2v17__cxx114pathESaIS4_EE19_M_range_insert_auxINS4_8iteratorEEEvSt15_Deque_iteratorIS4_RS4_PS4_ET_SD_St20forward_iterator_tag _ZNSt15_Deque_iteratorINSt12experimental10filesystem2v17__cxx114pathERS4_PS4_EC1ERKS7_ 160
_ZNSt5dequeINSt12experimental10filesystem2v17__cxx114pathESaIS4_EE19_M_range_insert_auxINS4_8iteratorEEEvSt15_Deque_iteratorIS4_RS4_PS4_ET_SD_St20forward_iterator_tag _ZSt22__uninitialized_copy_aINSt12experimental10filesystem2v17__cxx114path8iteratorESt15_Deque_iteratorIS4_RS4_PS4_ES4_ET0_T_SB_SA_RSaIT1_E.isra.139 184
_ZNSt5dequeINSt12experimental10filesystem2v17__cxx114pathESaIS4_EE19_M_range_insert_auxINS4_8iteratorEEEvSt15_Deque_iteratorIS4_RS4_PS4_ET_SD_St20forward_iterator_tag _ZNSt5dequeINSt12experimental10filesystem2v17__cxx114pathESaIS4_EE27_M_reserve_elements_at_backEj 244
_ZNSt5dequeINSt12experimental10filesystem2v17__cxx114pathESaIS4_EE19_M_range_insert_auxINS4_8iteratorEEEvSt15_Deque_iteratorIS4_RS4_PS4_ET_SD_St20forward_iterator_tag _ZNSt15_Deque_iteratorINSt12experimental10filesystem2v17__cxx114pathERS4_PS4_EC1ERKS7_ 256
_ZNSt5dequeINSt12experimental10filesystem2v17__cxx114pathESaIS4_EE19_M_range_insert_auxINS4_8iteratorEEEvSt15_Deque_iteratorIS4_RS4_PS4_ET_SD_St20forward_iterator_tag _ZSt22__uninitialized_copy_aINSt12experimental10filesystem2v17__cxx114path8iteratorESt15_Deque_iteratorIS4_RS4_PS4_ES4_ET0_T_SB_SA_RSaIT1_E.isra.139 280
_ZNSt5dequeINSt12experimental10filesystem2v17__cxx114pathESaIS4_EE19_M_range_insert_auxINS4_8iteratorEEEvSt15_Deque_iteratorIS4_RS4_PS4_ET_SD_St20forward_iterator_tag _ZNSt15_Deque_iteratorINSt12experimental10filesystem2v17__cxx114pathERS4_PS4_EC1ERKS7_ 304
_ZNSt5dequeINSt12experimental10filesystem2v17__cxx114pathESaIS4_EE19_M_range_insert_auxINS4_8iteratorEEEvSt15_Deque_iteratorIS4_RS4_PS4_ET_SD_St20forward_iterator_tag _ZNSt5dequeINSt12experimental10filesystem2v17__cxx114pathESaIS4_EE13_M_insert_auxINS4_8iteratorEEEvSt15_Deque_iteratorIS4_RS4_PS4_ET_SD_j 340
_ZNSt5dequeINSt12experimental10filesystem2v17__cxx114pathESaIS4_EE19_M_range_insert_auxINS4_8iteratorEEEvSt15_Deque_iteratorIS4_RS4_PS4_ET_SD_St20forward_iterator_tag __cxa_begin_catch 348
_ZNSt5dequeINSt12experimental10filesystem2v17__cxx114pathESaIS4_EE19_M_range_insert_auxINS4_8iteratorEEEvSt15_Deque_iteratorIS4_RS4_PS4_ET_SD_St20forward_iterator_tag _ZNSt11_Deque_baseINSt12experimental10filesystem2v17__cxx114pathESaIS4_EE16_M_destroy_nodesEPPS4_S8_.isra.107 360
_ZNSt5dequeINSt12experimental10filesystem2v17__cxx114pathESaIS4_EE19_M_range_insert_auxINS4_8iteratorEEEvSt15_Deque_iteratorIS4_RS4_PS4_ET_SD_St20forward_iterator_tag __cxa_rethrow 364
_ZNSt5dequeINSt12experimental10filesystem2v17__cxx114pathESaIS4_EE19_M_range_insert_auxINS4_8iteratorEEEvSt15_Deque_iteratorIS4_RS4_PS4_ET_SD_St20forward_iterator_tag __cxa_end_catch 368
_ZNSt5dequeINSt12experimental10filesystem2v17__cxx114pathESaIS4_EE19_M_range_insert_auxINS4_8iteratorEEEvSt15_Deque_iteratorIS4_RS4_PS4_ET_SD_St20forward_iterator_tag __cxa_end_cleanup 372
_ZNSt5dequeINSt12experimental10filesystem2v17__cxx114pathESaIS4_EE19_M_range_insert_auxINS4_8iteratorEEEvSt15_Deque_iteratorIS4_RS4_PS4_ET_SD_St20forward_iterator_tag __cxa_begin_catch 376
_ZNSt5dequeINSt12experimental10filesystem2v17__cxx114pathESaIS4_EE19_M_range_insert_auxINS4_8iteratorEEEvSt15_Deque_iteratorIS4_RS4_PS4_ET_SD_St20forward_iterator_tag _ZNSt11_Deque_baseINSt12experimental10filesystem2v17__cxx114pathESaIS4_EE16_M_destroy_nodesEPPS4_S8_.isra.107 396
_ZNSt5dequeINSt12experimental10filesystem2v17__cxx114pathESaIS4_EE19_M_range_insert_auxINS4_8iteratorEEEvSt15_Deque_iteratorIS4_RS4_PS4_ET_SD_St20forward_iterator_tag __cxa_rethrow 400
_ZNSt5dequeINSt12experimental10filesystem2v17__cxx114pathESaIS4_EE19_M_range_insert_auxINS4_8iteratorEEEvSt15_Deque_iteratorIS4_RS4_PS4_ET_SD_St20forward_iterator_tag __cxa_end_catch 404
_ZNSt12experimental10filesystem2v19canonicalERKNS1_7__cxx114pathES5_RSt10error_code _ZNSt12experimental10filesystem2v18absoluteERKNS1_7__cxx114pathES5_ 24
_ZNSt12experimental10filesystem2v19canonicalERKNS1_7__cxx114pathES5_RSt10error_code _ZNSt12experimental10filesystem2v17__cxx114pathC1Ev 32
_ZNSt12experimental10filesystem2v19canonicalERKNS1_7__cxx114pathES5_RSt10error_code realpath 48
_ZNSt12experimental10filesystem2v19canonicalERKNS1_7__cxx114pathES5_RSt10error_code _ZNSt12experimental10filesystem2v17__cxx114path6assignIPcEERNSt9enable_ifIXsrSt6__and_IJSt6__not_ISt7is_sameINSt9remove_cvIT_E4typeES3_EES8_ISt7is_voidINSt14remove_pointerISB_E4typeEEENS3_20__constructible_fromISB_vEEEE5valueES3_E4typeERKSB_ 84
_ZNSt12experimental10filesystem2v19canonicalERKNS1_7__cxx114pathES5_RSt10error_code _ZNSt10error_code5clearEv 92
_ZNSt12experimental10filesystem2v19canonicalERKNS1_7__cxx114pathES5_RSt10error_code _ZNSt10unique_ptrIA_cN12_GLOBAL__N_117free_as_in_mallocEED1Ev 100
_ZNSt12experimental10filesystem2v19canonicalERKNS1_7__cxx114pathES5_RSt10error_code _ZNSt12experimental10filesystem2v17__cxx114pathD1Ev 108
_ZNSt12experimental10filesystem2v19canonicalERKNS1_7__cxx114pathES5_RSt10error_code __errno_location 124
_ZNSt12experimental10filesystem2v19canonicalERKNS1_7__cxx114pathES5_RSt10error_code _ZNSt3_V216generic_categoryEv 140
_ZNSt12experimental10filesystem2v19canonicalERKNS1_7__cxx114pathES5_RSt10error_code _ZNSt12experimental10filesystem2v16existsERKNS1_7__cxx114pathERSt10error_code 164
_ZNSt12experimental10filesystem2v19canonicalERKNS1_7__cxx114pathES5_RSt10error_code _ZNSt3_V216generic_categoryEv 188
_ZNSt12experimental10filesystem2v19canonicalERKNS1_7__cxx114pathES5_RSt10error_code _ZNKSt12experimental10filesystem2v17__cxx114path9root_pathEv 216
_ZNSt12experimental10filesystem2v19canonicalERKNS1_7__cxx114pathES5_RSt10error_code _ZNSt12experimental10filesystem2v17__cxx114pathaSEOS3_ 228
_ZNSt12experimental10filesystem2v19canonicalERKNS1_7__cxx114pathES5_RSt10error_code _ZNSt12experimental10filesystem2v17__cxx114pathD1Ev 236
_ZNSt12experimental10filesystem2v19canonicalERKNS1_7__cxx114pathES5_RSt10error_code _ZNSt11_Deque_baseINSt12experimental10filesystem2v17__cxx114pathESaIS4_EEC2Ev 252
_ZNSt12experimental10filesystem2v19canonicalERKNS1_7__cxx114pathES5_RSt10error_code _ZNKSt12experimental10filesystem2v17__cxx114path13relative_pathEv 268
_ZNSt12experimental10filesystem2v19canonicalERKNS1_7__cxx114pathES5_RSt10error_code _ZNSt12experimental10filesystem2v17__cxx11neERKNS2_4path8iteratorES6_ 332
_ZNSt12experimental10filesystem2v19canonicalERKNS1_7__cxx114pathES5_RSt10error_code _ZNSt12experimental10filesystem2v17__cxx114pathC1ERKS3_ 384
_ZNSt12experimental10filesystem2v19canonicalERKNS1_7__cxx114pathES5_RSt10error_code _ZNSt12experimental10filesystem2v17__cxx114path8iteratorppEv 436
_ZNSt12experimental10filesystem2v19canonicalERKNS1_7__cxx114pathES5_RSt10error_code _ZNSt5dequeINSt12experimental10filesystem2v17__cxx114pathESaIS4_EE22_M_reserve_map_at_backEj 452
_ZNSt12experimental10filesystem2v19canonicalERKNS1_7__cxx114pathES5_RSt10error_code _Znwj 468
_ZNSt12experimental10filesystem2v19canonicalERKNS1_7__cxx114pathES5_RSt10error_code _ZNSt12experimental10filesystem2v17__cxx114pathC1ERKS3_ 488
_ZNSt12experimental10filesystem2v19canonicalERKNS1_7__cxx114pathES5_RSt10error_code __cxa_begin_catch 524
_ZNSt12experimental10filesystem2v19canonicalERKNS1_7__cxx114pathES5_RSt10error_code _ZdlPv 536
_ZNSt12experimental10filesystem2v19canonicalERKNS1_7__cxx114pathES5_RSt10error_code __cxa_rethrow 540
_ZNSt12experimental10filesystem2v19canonicalERKNS1_7__cxx114pathES5_RSt10error_code __cxa_end_catch 544
_ZNSt12experimental10filesystem2v19canonicalERKNS1_7__cxx114pathES5_RSt10error_code _ZNSt12experimental10filesystem2v17__cxx114pathD1Ev 552
_ZNSt12experimental10filesystem2v19canonicalERKNS1_7__cxx114pathES5_RSt10error_code _ZNSt5dequeINSt12experimental10filesystem2v17__cxx114pathESaIS4_EED1Ev 560
_ZNSt12experimental10filesystem2v19canonicalERKNS1_7__cxx114pathES5_RSt10error_code _ZNSt10unique_ptrIA_cN12_GLOBAL__N_117free_as_in_mallocEED1Ev 568
_ZNSt12experimental10filesystem2v19canonicalERKNS1_7__cxx114pathES5_RSt10error_code _ZNSt12experimental10filesystem2v17__cxx114pathD1Ev 576
_ZNSt12experimental10filesystem2v19canonicalERKNS1_7__cxx114pathES5_RSt10error_code _ZNSt12experimental10filesystem2v17__cxx114pathD1Ev 584
_ZNSt12experimental10filesystem2v19canonicalERKNS1_7__cxx114pathES5_RSt10error_code __cxa_end_cleanup 588
_ZNSt12experimental10filesystem2v19canonicalERKNS1_7__cxx114pathES5_RSt10error_code _ZNSt12experimental10filesystem2v17__cxx114pathD1Ev 596
_ZNSt12experimental10filesystem2v19canonicalERKNS1_7__cxx114pathES5_RSt10error_code _ZNSt12experimental10filesystem2v17__cxx114path14_M_split_cmptsEv 668
_ZNSt12experimental10filesystem2v19canonicalERKNS1_7__cxx114pathES5_RSt10error_code _ZNSt5dequeINSt12experimental10filesystem2v17__cxx114pathESaIS4_EED1Ev 676
_ZNSt12experimental10filesystem2v19canonicalERKNS1_7__cxx114pathES5_RSt10error_code _ZNSt15_Deque_iteratorINSt12experimental10filesystem2v17__cxx114pathERS4_PS4_EC1ERKS7_ 696
_ZNSt12experimental10filesystem2v19canonicalERKNS1_7__cxx114pathES5_RSt10error_code _ZNSt12experimental10filesystem2v17__cxx114pathC1EOS3_ 708
_ZNSt12experimental10filesystem2v19canonicalERKNS1_7__cxx114pathES5_RSt10error_code _ZNSt12experimental10filesystem2v17__cxx114pathD1Ev 732
_ZNSt12experimental10filesystem2v19canonicalERKNS1_7__cxx114pathES5_RSt10error_code _ZNSt12experimental10filesystem2v16statusERKNS1_7__cxx114pathERSt10error_code 792
_ZNSt12experimental10filesystem2v19canonicalERKNS1_7__cxx114pathES5_RSt10error_code _ZNSt3_V216generic_categoryEv 820
_ZNSt12experimental10filesystem2v19canonicalERKNS1_7__cxx114pathES5_RSt10error_code _ZNSt12experimental10filesystem2v17__cxx114pathD1Ev 840
_ZNSt12experimental10filesystem2v19canonicalERKNS1_7__cxx114pathES5_RSt10error_code _ZNSt12experimental10filesystem2v17__cxx114pathD1Ev 848
_ZNSt12experimental10filesystem2v19canonicalERKNS1_7__cxx114pathES5_RSt10error_code _ZdlPv 856
_ZNSt12experimental10filesystem2v19canonicalERKNS1_7__cxx114pathES5_RSt10error_code _ZNSt12experimental10filesystem2v16existsERKNS1_7__cxx114pathERSt10error_code 908
_ZNSt12experimental10filesystem2v19canonicalERKNS1_7__cxx114pathES5_RSt10error_code _ZNKSt12experimental10filesystem2v17__cxx114path11parent_pathEv 968
_ZNSt12experimental10filesystem2v19canonicalERKNS1_7__cxx114pathES5_RSt10error_code _ZNKSt12experimental10filesystem2v17__cxx114path9root_pathEv 996
_ZNSt12experimental10filesystem2v19canonicalERKNS1_7__cxx114pathES5_RSt10error_code _ZNSt12experimental10filesystem2v17__cxx114pathaSEOS3_ 1008
_ZNSt12experimental10filesystem2v19canonicalERKNS1_7__cxx114pathES5_RSt10error_code _ZNSt12experimental10filesystem2v17__cxx114pathD1Ev 1016
_ZNSt12experimental10filesystem2v19canonicalERKNS1_7__cxx114pathES5_RSt10error_code _ZNSt12experimental10filesystem2v17__cxx114pathD1Ev 1024
_ZNSt12experimental10filesystem2v19canonicalERKNS1_7__cxx114pathES5_RSt10error_code _ZNSt12experimental10filesystem2v17__cxx114path4swapERS3_ 1040
_ZNSt12experimental10filesystem2v19canonicalERKNS1_7__cxx114pathES5_RSt10error_code _ZNSt12experimental10filesystem2v17__cxx114path9_M_appendERKNSt7__cxx1112basic_stringIcSt11char_traitsIcESaIcEEE 1056
_ZNSt12experimental10filesystem2v19canonicalERKNS1_7__cxx114pathES5_RSt10error_code _ZNSt12experimental10filesystem2v114symlink_statusERKNS1_7__cxx114pathERSt10error_code 1076
_ZNSt12experimental10filesystem2v19canonicalERKNS1_7__cxx114pathES5_RSt10error_code _ZNSt12experimental10filesystem2v112read_symlinkERKNS1_7__cxx114pathERSt10error_code 1108
_ZNSt12experimental10filesystem2v19canonicalERKNS1_7__cxx114pathES5_RSt10error_code _ZNSt3_V216generic_categoryEv 1140
_ZNSt12experimental10filesystem2v19canonicalERKNS1_7__cxx114pathES5_RSt10error_code _ZNKSt12experimental10filesystem2v17__cxx114path18has_root_directoryEv 1168
_ZNSt12experimental10filesystem2v19canonicalERKNS1_7__cxx114pathES5_RSt10error_code _ZNKSt12experimental10filesystem2v17__cxx114path9root_pathEv 1192
_ZNSt12experimental10filesystem2v19canonicalERKNS1_7__cxx114pathES5_RSt10error_code _ZNSt12experimental10filesystem2v17__cxx114pathaSEOS3_ 1204
_ZNSt12experimental10filesystem2v19canonicalERKNS1_7__cxx114pathES5_RSt10error_code _ZNSt12experimental10filesystem2v17__cxx114pathD1Ev 1212
_ZNSt12experimental10filesystem2v19canonicalERKNS1_7__cxx114pathES5_RSt10error_code _ZNKSt12experimental10filesystem2v17__cxx114path13relative_pathEv 1224
_ZNSt12experimental10filesystem2v19canonicalERKNS1_7__cxx114pathES5_RSt10error_code _ZNSt12experimental10filesystem2v17__cxx114pathaSEOS3_ 1236
_ZNSt12experimental10filesystem2v19canonicalERKNS1_7__cxx114pathES5_RSt10error_code _ZNSt12experimental10filesystem2v17__cxx114pathD1Ev 1244
_ZNSt12experimental10filesystem2v19canonicalERKNS1_7__cxx114pathES5_RSt10error_code _ZNSt15_Deque_iteratorINSt12experimental10filesystem2v17__cxx114pathERS4_PS4_EC1ERKS7_ 1256
_ZNSt12experimental10filesystem2v19canonicalERKNS1_7__cxx114pathES5_RSt10error_code _ZStmiINSt12experimental10filesystem2v17__cxx114pathERKS4_PS5_ENSt15_Deque_iteratorIT_T0_T1_E15difference_typeERKSC_SF_ 1360
_ZNSt12experimental10filesystem2v19canonicalERKNS1_7__cxx114pathES5_RSt10error_code _ZNSt15_Deque_iteratorINSt12experimental10filesystem2v17__cxx114pathERS4_PS4_EC1ERKS7_ 1444
_ZNSt12experimental10filesystem2v19canonicalERKNS1_7__cxx114pathES5_RSt10error_code _ZNSt5dequeINSt12experimental10filesystem2v17__cxx114pathESaIS4_EE19_M_range_insert_auxINS4_8iteratorEEEvSt15_Deque_iteratorIS4_RS4_PS4_ET_SD_St20forward_iterator_tag 1492
_ZNSt12experimental10filesystem2v19canonicalERKNS1_7__cxx114pathES5_RSt10error_code _ZNSt12experimental10filesystem2v17__cxx114path15remove_filenameEv 1504
_ZNSt12experimental10filesystem2v19canonicalERKNS1_7__cxx114pathES5_RSt10error_code _ZNSt15_Deque_iteratorINSt12experimental10filesystem2v17__cxx114pathERS4_PS4_EC1ERKS7_ 1520
_ZNSt12experimental10filesystem2v19canonicalERKNS1_7__cxx114pathES5_RSt10error_code _ZNKSt15_Deque_iteratorINSt12experimental10filesystem2v17__cxx114pathERS4_PS4_EplEi 1536
_ZNSt12experimental10filesystem2v19canonicalERKNS1_7__cxx114pathES5_RSt10error_code _ZNSt12experimental10filesystem2v17__cxx114pathD1Ev 1552
_ZNSt12experimental10filesystem2v19canonicalERKNS1_7__cxx114pathERSt10error_code _ZNSt12experimental10filesystem2v112current_pathB5cxx11ERSt10error_code 32
_ZNSt12experimental10filesystem2v19canonicalERKNS1_7__cxx114pathERSt10error_code _ZNSt12experimental10filesystem2v17__cxx114pathC1Ev 52
_ZNSt12experimental10filesystem2v19canonicalERKNS1_7__cxx114pathERSt10error_code _ZNSt12experimental10filesystem2v17__cxx114pathD1Ev 60
_ZNSt12experimental10filesystem2v19canonicalERKNS1_7__cxx114pathERSt10error_code _ZNSt12experimental10filesystem2v19canonicalERKNS1_7__cxx114pathES5_RSt10error_code 92
_ZNSt12experimental10filesystem2v19canonicalERKNS1_7__cxx114pathERSt10error_code _ZNSt12experimental10filesystem2v17__cxx114pathD1Ev 104
_ZNSt12experimental10filesystem2v19canonicalERKNS1_7__cxx114pathERSt10error_code __cxa_end_cleanup 108
_ZNSt12experimental10filesystem2v19canonicalERKNS1_7__cxx114pathES5_ _ZNSt10error_codeC1Ev 32
_ZNSt12experimental10filesystem2v19canonicalERKNS1_7__cxx114pathES5_ _ZNSt12experimental10filesystem2v19canonicalERKNS1_7__cxx114pathES5_RSt10error_code 52
_ZNSt12experimental10filesystem2v19canonicalERKNS1_7__cxx114pathES5_ __cxa_allocate_exception 80
_ZNSt12experimental10filesystem2v19canonicalERKNS1_7__cxx114pathES5_ _ZNSt7__cxx1112basic_stringIcSt11char_traitsIcESaIcEEC2IS3_EEPKcRKS3_.constprop.149 100
_ZNSt12experimental10filesystem2v19canonicalERKNS1_7__cxx114pathES5_ _ZNSt12experimental10filesystem2v17__cxx1116filesystem_errorC1ERKNSt7__cxx1112basic_stringIcSt11char_traitsIcESaIcEEERKNS2_4pathESE_St10error_code 128
_ZNSt12experimental10filesystem2v19canonicalERKNS1_7__cxx114pathES5_ _ZNSt7__cxx1112basic_stringIcSt11char_traitsIcESaIcEE10_M_disposeEv 136
_ZNSt12experimental10filesystem2v19canonicalERKNS1_7__cxx114pathES5_ __cxa_throw 176
_ZNSt12experimental10filesystem2v19canonicalERKNS1_7__cxx114pathES5_ _ZNSt7__cxx1112basic_stringIcSt11char_traitsIcESaIcEE10_M_disposeEv 188
_ZNSt12experimental10filesystem2v19canonicalERKNS1_7__cxx114pathES5_ __cxa_free_exception 196
_ZNSt12experimental10filesystem2v19canonicalERKNS1_7__cxx114pathES5_ _ZNSt12experimental10filesystem2v17__cxx114pathD1Ev 204
_ZNSt12experimental10filesystem2v19canonicalERKNS1_7__cxx114pathES5_ __cxa_end_cleanup 208
_ZNSt12experimental10filesystem2v19canonicalERKNS1_7__cxx114pathES5_ .LC43 232
_ZNSt12experimental10filesystem2v19canonicalERKNS1_7__cxx114pathES5_ _ZNSt12experimental10filesystem2v17__cxx1116filesystem_errorD1Ev 236
_ZNSt12experimental10filesystem2v19canonicalERKNS1_7__cxx114pathES5_ _ZTINSt12experimental10filesystem2v17__cxx1116filesystem_errorE 240
_ZNSt12codecvt_utf8IwLm1114111ELSt12codecvt_mode0EED1Ev,_ZNSt12codecvt_utf8IwLm1114111ELSt12codecvt_mode0EED2Ev _ZNSt19__codecvt_utf8_baseIwED2Ev 32
_ZNSt12codecvt_utf8IwLm1114111ELSt12codecvt_mode0EED1Ev,_ZNSt12codecvt_utf8IwLm1114111ELSt12codecvt_mode0EED2Ev _ZTVSt12codecvt_utf8IwLm1114111ELSt12codecvt_mode0EE 48
_ZNSt12codecvt_utf8IwLm1114111ELSt12codecvt_mode0EED0Ev _ZNSt12codecvt_utf8IwLm1114111ELSt12codecvt_mode0EED1Ev 8
_ZNSt12codecvt_utf8IwLm1114111ELSt12codecvt_mode0EED0Ev _ZdlPvj 20
_ZNSt7__cxx1112basic_stringIcSt11char_traitsIcESaIcEE9_M_createERjj.isra.58 _ZSt20__throw_length_errorPKc 24
_ZNSt7__cxx1112basic_stringIcSt11char_traitsIcESaIcEE9_M_createERjj.isra.58 _Znwj 72
_ZNSt7__cxx1112basic_stringIcSt11char_traitsIcESaIcEE9_M_createERjj.isra.58 .LC0 76
_ZNSt12_Vector_baseINSt12experimental10filesystem2v17__cxx114path5_CmptESaIS5_EE13_M_deallocateEPS5_j.isra.61 _ZdlPv 8
_ZNSt12_Vector_baseINSt12experimental10filesystem2v17__cxx114path5_CmptESaIS5_EE11_M_allocateEj.isra.85 _ZSt17__throw_bad_allocv 24
_ZNSt12_Vector_baseINSt12experimental10filesystem2v17__cxx114path5_CmptESaIS5_EE11_M_allocateEj.isra.85 _Znwj 36
_ZNSt7__cxx1112basic_stringIwSt11char_traitsIwESaIwEE9_M_createERjj.isra.101 _ZSt20__throw_length_errorPKc 24
_ZNSt7__cxx1112basic_stringIwSt11char_traitsIwESaIwEE9_M_createERjj.isra.101 _ZSt17__throw_bad_allocv 80
_ZNSt7__cxx1112basic_stringIwSt11char_traitsIwESaIwEE9_M_createERjj.isra.101 _Znwj 92
_ZNSt7__cxx1112basic_stringIwSt11char_traitsIwESaIwEE9_M_createERjj.isra.101 .LC0 96
_ZNSt12experimental10filesystem2v17__cxx1110hash_valueERKNS2_4pathE _ZSt11_Hash_bytesPKvjj 100
_ZNKSt7__cxx1112basic_stringIcSt11char_traitsIcESaIcEE7compareERKS4_ memcmp 40
_ZNKSt12experimental10filesystem2v17__cxx114path7compareERKS3_ _ZNKSt7__cxx1112basic_stringIcSt11char_traitsIcESaIcEE7compareERKS4_ 72
_ZNKSt12experimental10filesystem2v17__cxx114path7compareERKS3_ _ZNKSt7__cxx1112basic_stringIcSt11char_traitsIcESaIcEE7compareERKS4_ 128
_ZNKSt12experimental10filesystem2v17__cxx114path7compareERKS3_ _ZNKSt7__cxx1112basic_stringIcSt11char_traitsIcESaIcEE7compareERKS4_ 188
_ZNKSt12experimental10filesystem2v17__cxx114path7compareERKS3_ _ZNKSt7__cxx1112basic_stringIcSt11char_traitsIcESaIcEE7compareERKS4_ 240
_ZNSt7__cxx1112basic_stringIwSt11char_traitsIwESaIwEE10_M_disposeEv _ZdlPv 16
_ZNSt7__cxx1112basic_stringIcSt11char_traitsIcESaIcEEC1ERKS4_,_ZNSt7__cxx1112basic_stringIcSt11char_traitsIcESaIcEEC2ERKS4_ _ZSt19__throw_logic_errorPKc 52
_ZNSt7__cxx1112basic_stringIcSt11char_traitsIcESaIcEEC1ERKS4_,_ZNSt7__cxx1112basic_stringIcSt11char_traitsIcESaIcEEC2ERKS4_ _ZNSt7__cxx1112basic_stringIcSt11char_traitsIcESaIcEE9_M_createERjj.isra.64 76
_ZNSt7__cxx1112basic_stringIcSt11char_traitsIcESaIcEEC1ERKS4_,_ZNSt7__cxx1112basic_stringIcSt11char_traitsIcESaIcEEC2ERKS4_ _ZNSt7__cxx1112basic_stringIcSt11char_traitsIcESaIcEE7_S_copyEPcPKcj 104
_ZNSt7__cxx1112basic_stringIcSt11char_traitsIcESaIcEEC1ERKS4_,_ZNSt7__cxx1112basic_stringIcSt11char_traitsIcESaIcEEC2ERKS4_ .LC1 140
_ZNSt12experimental10filesystem2v17__cxx114path5_CmptC1ENSt7__cxx1112basic_stringIcSt11char_traitsIcESaIcEEENS3_5_TypeEj,_ZNSt12experimental10filesystem2v17__cxx114path5_CmptC2ENSt7__cxx1112basic_stringIcSt11char_traitsIcESaIcEEENS3_5_TypeEj _ZNSt7__cxx1112basic_stringIcSt11char_traitsIcESaIcEEC1EOS4_ 28
_ZNSt12experimental10filesystem2v17__cxx114path5_CmptC1ENSt7__cxx1112basic_stringIcSt11char_traitsIcESaIcEEENS3_5_TypeEj,_ZNSt12experimental10filesystem2v17__cxx114path5_CmptC2ENSt7__cxx1112basic_stringIcSt11char_traitsIcESaIcEEENS3_5_TypeEj _ZNSt7__cxx1112basic_stringIcSt11char_traitsIcESaIcEEC1ERKS4_ 40
_ZNSt12experimental10filesystem2v17__cxx114path5_CmptC1ENSt7__cxx1112basic_stringIcSt11char_traitsIcESaIcEEENS3_5_TypeEj,_ZNSt12experimental10filesystem2v17__cxx114path5_CmptC2ENSt7__cxx1112basic_stringIcSt11char_traitsIcESaIcEEENS3_5_TypeEj _ZNSt7__cxx1112basic_stringIcSt11char_traitsIcESaIcEE10_M_disposeEv 52
_ZNSt12experimental10filesystem2v17__cxx114path5_CmptC1ENSt7__cxx1112basic_stringIcSt11char_traitsIcESaIcEEENS3_5_TypeEj,_ZNSt12experimental10filesystem2v17__cxx114path5_CmptC2ENSt7__cxx1112basic_stringIcSt11char_traitsIcESaIcEEENS3_5_TypeEj __cxa_end_cleanup 56
_ZNSt12experimental10filesystem2v17__cxx114path5_CmptC1ENSt7__cxx1112basic_stringIcSt11char_traitsIcESaIcEEENS3_5_TypeEj,_ZNSt12experimental10filesystem2v17__cxx114path5_CmptC2ENSt7__cxx1112basic_stringIcSt11char_traitsIcESaIcEEENS3_5_TypeEj _ZNSt7__cxx1112basic_stringIcSt11char_traitsIcESaIcEE10_M_disposeEv 84
_ZN9__gnu_cxx13new_allocatorINSt12experimental10filesystem2v17__cxx114path5_CmptEE9constructIS6_JNSt7__cxx1112basic_stringIcSt11char_traitsIcESaIcEEENS5_5_TypeERjEEEvPT_DpOT0_.isra.75 _ZNSt7__cxx1112basic_stringIcSt11char_traitsIcESaIcEEC1EOS4_ 28
_ZN9__gnu_cxx13new_allocatorINSt12experimental10filesystem2v17__cxx114path5_CmptEE9constructIS6_JNSt7__cxx1112basic_stringIcSt11char_traitsIcESaIcEEENS5_5_TypeERjEEEvPT_DpOT0_.isra.75 _ZNSt12experimental10filesystem2v17__cxx114path5_CmptC1ENSt7__cxx1112basic_stringIcSt11char_traitsIcESaIcEEENS3_5_TypeEj 48
_ZN9__gnu_cxx13new_allocatorINSt12experimental10filesystem2v17__cxx114path5_CmptEE9constructIS6_JNSt7__cxx1112basic_stringIcSt11char_traitsIcESaIcEEENS5_5_TypeERjEEEvPT_DpOT0_.isra.75 _ZNSt7__cxx1112basic_stringIcSt11char_traitsIcESaIcEE10_M_disposeEv 56
_ZN9__gnu_cxx13new_allocatorINSt12experimental10filesystem2v17__cxx114path5_CmptEE9constructIS6_JNSt7__cxx1112basic_stringIcSt11char_traitsIcESaIcEEENS5_5_TypeERjEEEvPT_DpOT0_.isra.75 _ZNSt7__cxx1112basic_stringIcSt11char_traitsIcESaIcEE10_M_disposeEv 72
_ZN9__gnu_cxx13new_allocatorINSt12experimental10filesystem2v17__cxx114path5_CmptEE9constructIS6_JNSt7__cxx1112basic_stringIcSt11char_traitsIcESaIcEEENS5_5_TypeERjEEEvPT_DpOT0_.isra.75 __cxa_end_cleanup 76
_ZN9__gnu_cxx13new_allocatorINSt12experimental10filesystem2v17__cxx114path5_CmptEE9constructIS6_JNSt7__cxx1112basic_stringIcSt11char_traitsIcESaIcEEENS5_5_TypeEiEEEvPT_DpOT0_.isra.77 _ZNSt7__cxx1112basic_stringIcSt11char_traitsIcESaIcEEC1EOS4_ 28
_ZN9__gnu_cxx13new_allocatorINSt12experimental10filesystem2v17__cxx114path5_CmptEE9constructIS6_JNSt7__cxx1112basic_stringIcSt11char_traitsIcESaIcEEENS5_5_TypeEiEEEvPT_DpOT0_.isra.77 _ZNSt12experimental10filesystem2v17__cxx114path5_CmptC1ENSt7__cxx1112basic_stringIcSt11char_traitsIcESaIcEEENS3_5_TypeEj 48
_ZN9__gnu_cxx13new_allocatorINSt12experimental10filesystem2v17__cxx114path5_CmptEE9constructIS6_JNSt7__cxx1112basic_stringIcSt11char_traitsIcESaIcEEENS5_5_TypeEiEEEvPT_DpOT0_.isra.77 _ZNSt7__cxx1112basic_stringIcSt11char_traitsIcESaIcEE10_M_disposeEv 56
_ZN9__gnu_cxx13new_allocatorINSt12experimental10filesystem2v17__cxx114path5_CmptEE9constructIS6_JNSt7__cxx1112basic_stringIcSt11char_traitsIcESaIcEEENS5_5_TypeEiEEEvPT_DpOT0_.isra.77 _ZNSt7__cxx1112basic_stringIcSt11char_traitsIcESaIcEE10_M_disposeEv 72
_ZN9__gnu_cxx13new_allocatorINSt12experimental10filesystem2v17__cxx114path5_CmptEE9constructIS6_JNSt7__cxx1112basic_stringIcSt11char_traitsIcESaIcEEENS5_5_TypeEiEEEvPT_DpOT0_.isra.77 __cxa_end_cleanup 76
_ZNKSt7__cxx1112basic_stringIcSt11char_traitsIcESaIcEE8_M_checkEjPKc _ZSt24__throw_out_of_range_fmtPKcz 36
_ZNKSt7__cxx1112basic_stringIcSt11char_traitsIcESaIcEE8_M_checkEjPKc .LC2 48
_ZNSt7__cxx1112basic_stringIcSt11char_traitsIcESaIcEE9push_backEc _ZNSt7__cxx1112basic_stringIcSt11char_traitsIcESaIcEE9_M_mutateEjjPKcj 68
_ZNKSt6vectorINSt12experimental10filesystem2v17__cxx114path5_CmptESaIS5_EE12_M_check_lenEjPKc _ZSt20__throw_length_errorPKc 44
_ZNSt7__cxx1112basic_stringIcSt11char_traitsIcESaIcEEC1ERKS4_jj,_ZNSt7__cxx1112basic_stringIcSt11char_traitsIcESaIcEEC2ERKS4_jj _ZNKSt7__cxx1112basic_stringIcSt11char_traitsIcESaIcEE8_M_checkEjPKc 48
_ZNSt7__cxx1112basic_stringIcSt11char_traitsIcESaIcEEC1ERKS4_jj,_ZNSt7__cxx1112basic_stringIcSt11char_traitsIcESaIcEEC2ERKS4_jj _ZNSt7__cxx1112basic_stringIcSt11char_traitsIcESaIcEE12_M_constructIPKcEEvT_S8_St20forward_iterator_tag 84
_ZNSt7__cxx1112basic_stringIcSt11char_traitsIcESaIcEEC1ERKS4_jj,_ZNSt7__cxx1112basic_stringIcSt11char_traitsIcESaIcEEC2ERKS4_jj .LC10 96
_ZNSt12experimental10filesystem2v17__cxx1116filesystem_error11_M_gen_whatEv _ZNKSt13runtime_error4whatEv 24
_ZNSt12experimental10filesystem2v17__cxx1116filesystem_error11_M_gen_whatEv _ZNSt7__cxx1112basic_stringIcSt11char_traitsIcESaIcEEC1IS3_EEPKcRKS3_ 40
_ZNSt12experimental10filesystem2v17__cxx1116filesystem_error11_M_gen_whatEv _ZNSt10filesystem13fs_err_concatERKNSt7__cxx1112basic_stringIcSt11char_traitsIcESaIcEEES7_S7_ 60
_ZNSt12experimental10filesystem2v17__cxx1116filesystem_error11_M_gen_whatEv _ZNSt7__cxx1112basic_stringIcSt11char_traitsIcESaIcEE10_M_disposeEv 72
_ZNSt12experimental10filesystem2v17__cxx1116filesystem_error11_M_gen_whatEv __cxa_end_cleanup 76
_ZNSt12experimental10filesystem2v17__cxx1116filesystem_error11_M_gen_whatEv _ZNSt7__cxx1112basic_stringIcSt11char_traitsIcESaIcEE10_M_disposeEv 84
_ZNSt12experimental10filesystem2v17__cxx1116filesystem_errorD1Ev,_ZNSt12experimental10filesystem2v17__cxx1116filesystem_errorD2Ev _ZNSt7__cxx1112basic_stringIcSt11char_traitsIcESaIcEE10_M_disposeEv 32
_ZNSt12experimental10filesystem2v17__cxx1116filesystem_errorD1Ev,_ZNSt12experimental10filesystem2v17__cxx1116filesystem_errorD2Ev _ZNSt12experimental10filesystem2v17__cxx114pathD1Ev 40
_ZNSt12experimental10filesystem2v17__cxx1116filesystem_errorD1Ev,_ZNSt12experimental10filesystem2v17__cxx1116filesystem_errorD2Ev _ZNSt12experimental10filesystem2v17__cxx114pathD1Ev 48
_ZNSt12experimental10filesystem2v17__cxx1116filesystem_errorD1Ev,_ZNSt12experimental10filesystem2v17__cxx1116filesystem_errorD2Ev _ZNSt12system_errorD2Ev 56
_ZNSt12experimental10filesystem2v17__cxx1116filesystem_errorD1Ev,_ZNSt12experimental10filesystem2v17__cxx1116filesystem_errorD2Ev _ZTVNSt12experimental10filesystem2v17__cxx1116filesystem_errorE 72
_ZNSt12experimental10filesystem2v17__cxx1116filesystem_errorD0Ev _ZNSt12experimental10filesystem2v17__cxx1116filesystem_errorD1Ev 8
_ZNSt12experimental10filesystem2v17__cxx1116filesystem_errorD0Ev _ZdlPvj 20
_ZNSt6vectorINSt12experimental10filesystem2v17__cxx114path5_CmptESaIS5_EE5clearEv _ZNSt12_Destroy_auxILb0EE9__destroyIPNSt12experimental10filesystem2v17__cxx114path5_CmptEEEvT_S9_ 28
_ZNSt12experimental10filesystem2v17__cxx114path7_M_trimEv _ZNSt6vectorINSt12experimental10filesystem2v17__cxx114path5_CmptESaIS5_EE5clearEv 28
_ZNKSt12experimental10filesystem2v17__cxx114path9root_nameEv _ZNSt12experimental10filesystem2v17__cxx114pathC1Ev 12
_ZNKSt12experimental10filesystem2v17__cxx114path9root_nameEv _ZNSt12experimental10filesystem2v17__cxx114pathaSERKS3_ 64
_ZNKSt12experimental10filesystem2v17__cxx114path9root_nameEv _ZNSt12experimental10filesystem2v17__cxx114pathD1Ev 76
_ZNKSt12experimental10filesystem2v17__cxx114path9root_nameEv __cxa_end_cleanup 80
_ZNKSt12experimental10filesystem2v17__cxx114path14root_directoryEv _ZNSt12experimental10filesystem2v17__cxx114pathC1Ev 12
_ZNKSt12experimental10filesystem2v17__cxx114path14root_directoryEv _ZNSt12experimental10filesystem2v17__cxx114pathaSERKS3_ 92
_ZNKSt12experimental10filesystem2v17__cxx114path14root_directoryEv _ZNSt12experimental10filesystem2v17__cxx114pathD1Ev 104
_ZNKSt12experimental10filesystem2v17__cxx114path14root_directoryEv __cxa_end_cleanup 108
_ZNSt20__uninitialized_copyILb0EE13__uninit_copyISt13move_iteratorIPNSt12experimental10filesystem2v17__cxx114path5_CmptEES9_EET0_T_SC_SB_ _ZNSt7__cxx1112basic_stringIcSt11char_traitsIcESaIcEEC1EOS4_ 40
_ZNSt20__uninitialized_copyILb0EE13__uninit_copyISt13move_iteratorIPNSt12experimental10filesystem2v17__cxx114path5_CmptEES9_EET0_T_SC_SB_ _ZNSt12experimental10filesystem2v17__cxx114path14_M_split_cmptsEv 76
_ZNSt20__uninitialized_copyILb0EE13__uninit_copyISt13move_iteratorIPNSt12experimental10filesystem2v17__cxx114path5_CmptEES9_EET0_T_SC_SB_ _ZNSt12experimental10filesystem2v17__cxx114path14_M_split_cmptsEv 104
_ZSt34__uninitialized_move_if_noexcept_aIPNSt12experimental10filesystem2v17__cxx114path5_CmptES6_SaIS5_EET0_T_S9_S8_RT1_.isra.94 _ZNSt20__uninitialized_copyILb0EE13__uninit_copyISt13move_iteratorIPNSt12experimental10filesystem2v17__cxx114path5_CmptEES9_EET0_T_SC_SB_ 0
_ZNSt6vectorINSt12experimental10filesystem2v17__cxx114path5_CmptESaIS5_EE17_M_realloc_insertIJNSt7__cxx1112basic_stringIcSt11char_traitsIcESaIcEEENS4_5_TypeERjEEEvN9__gnu_cxx17__normal_iteratorIPS5_S7_EEDpOT_ _ZNKSt6vectorINSt12experimental10filesystem2v17__cxx114path5_CmptESaIS5_EE12_M_check_lenEjPKc 32
_ZNSt6vectorINSt12experimental10filesystem2v17__cxx114path5_CmptESaIS5_EE17_M_realloc_insertIJNSt7__cxx1112basic_stringIcSt11char_traitsIcESaIcEEENS4_5_TypeERjEEEvN9__gnu_cxx17__normal_iteratorIPS5_S7_EEDpOT_ _ZNSt12_Vector_baseINSt12experimental10filesystem2v17__cxx114path5_CmptESaIS5_EE11_M_allocateEj.isra.85 44
_ZNSt6vectorINSt12experimental10filesystem2v17__cxx114path5_CmptESaIS5_EE17_M_realloc_insertIJNSt7__cxx1112basic_stringIcSt11char_traitsIcESaIcEEENS4_5_TypeERjEEEvN9__gnu_cxx17__normal_iteratorIPS5_S7_EEDpOT_ _ZN9__gnu_cxx13new_allocatorINSt12experimental10filesystem2v17__cxx114path5_CmptEE9constructIS6_JNSt7__cxx1112basic_stringIcSt11char_traitsIcESaIcEEENS5_5_TypeERjEEEvPT_DpOT0_.isra.75 76
_ZNSt6vectorINSt12experimental10filesystem2v17__cxx114path5_CmptESaIS5_EE17_M_realloc_insertIJNSt7__cxx1112basic_stringIcSt11char_traitsIcESaIcEEENS4_5_TypeERjEEEvN9__gnu_cxx17__normal_iteratorIPS5_S7_EEDpOT_ _ZSt34__uninitialized_move_if_noexcept_aIPNSt12experimental10filesystem2v17__cxx114path5_CmptES6_SaIS5_EET0_T_S9_S8_RT1_.isra.94 92
_ZNSt6vectorINSt12experimental10filesystem2v17__cxx114path5_CmptESaIS5_EE17_M_realloc_insertIJNSt7__cxx1112basic_stringIcSt11char_traitsIcESaIcEEENS4_5_TypeERjEEEvN9__gnu_cxx17__normal_iteratorIPS5_S7_EEDpOT_ _ZSt34__uninitialized_move_if_noexcept_aIPNSt12experimental10filesystem2v17__cxx114path5_CmptES6_SaIS5_EET0_T_S9_S8_RT1_.isra.94 108
_ZNSt6vectorINSt12experimental10filesystem2v17__cxx114path5_CmptESaIS5_EE17_M_realloc_insertIJNSt7__cxx1112basic_stringIcSt11char_traitsIcESaIcEEENS4_5_TypeERjEEEvN9__gnu_cxx17__normal_iteratorIPS5_S7_EEDpOT_ _ZNSt12_Destroy_auxILb0EE9__destroyIPNSt12experimental10filesystem2v17__cxx114path5_CmptEEEvT_S9_ 124
_ZNSt6vectorINSt12experimental10filesystem2v17__cxx114path5_CmptESaIS5_EE17_M_realloc_insertIJNSt7__cxx1112basic_stringIcSt11char_traitsIcESaIcEEENS4_5_TypeERjEEEvN9__gnu_cxx17__normal_iteratorIPS5_S7_EEDpOT_ _ZNSt12_Vector_baseINSt12experimental10filesystem2v17__cxx114path5_CmptESaIS5_EE13_M_deallocateEPS5_j.isra.61 132
_ZNSt6vectorINSt12experimental10filesystem2v17__cxx114path5_CmptESaIS5_EE17_M_realloc_insertIJNSt7__cxx1112basic_stringIcSt11char_traitsIcESaIcEEENS4_5_TypeERjEEEvN9__gnu_cxx17__normal_iteratorIPS5_S7_EEDpOT_ __cxa_begin_catch 164
_ZNSt6vectorINSt12experimental10filesystem2v17__cxx114path5_CmptESaIS5_EE17_M_realloc_insertIJNSt7__cxx1112basic_stringIcSt11char_traitsIcESaIcEEENS4_5_TypeERjEEEvN9__gnu_cxx17__normal_iteratorIPS5_S7_EEDpOT_ _ZNSt12experimental10filesystem2v17__cxx114pathD2Ev 180
_ZNSt6vectorINSt12experimental10filesystem2v17__cxx114path5_CmptESaIS5_EE17_M_realloc_insertIJNSt7__cxx1112basic_stringIcSt11char_traitsIcESaIcEEENS4_5_TypeERjEEEvN9__gnu_cxx17__normal_iteratorIPS5_S7_EEDpOT_ _ZNSt12_Vector_baseINSt12experimental10filesystem2v17__cxx114path5_CmptESaIS5_EE13_M_deallocateEPS5_j.isra.61 188
_ZNSt6vectorINSt12experimental10filesystem2v17__cxx114path5_CmptESaIS5_EE17_M_realloc_insertIJNSt7__cxx1112basic_stringIcSt11char_traitsIcESaIcEEENS4_5_TypeERjEEEvN9__gnu_cxx17__normal_iteratorIPS5_S7_EEDpOT_ __cxa_rethrow 192
_ZNSt6vectorINSt12experimental10filesystem2v17__cxx114path5_CmptESaIS5_EE17_M_realloc_insertIJNSt7__cxx1112basic_stringIcSt11char_traitsIcESaIcEEENS4_5_TypeERjEEEvN9__gnu_cxx17__normal_iteratorIPS5_S7_EEDpOT_ __cxa_end_catch 196
_ZNSt6vectorINSt12experimental10filesystem2v17__cxx114path5_CmptESaIS5_EE17_M_realloc_insertIJNSt7__cxx1112basic_stringIcSt11char_traitsIcESaIcEEENS4_5_TypeERjEEEvN9__gnu_cxx17__normal_iteratorIPS5_S7_EEDpOT_ __cxa_end_cleanup 200
_ZNSt6vectorINSt12experimental10filesystem2v17__cxx114path5_CmptESaIS5_EE17_M_realloc_insertIJNSt7__cxx1112basic_stringIcSt11char_traitsIcESaIcEEENS4_5_TypeERjEEEvN9__gnu_cxx17__normal_iteratorIPS5_S7_EEDpOT_ _ZNSt12_Destroy_auxILb0EE9__destroyIPNSt12experimental10filesystem2v17__cxx114path5_CmptEEEvT_S9_ 212
_ZNSt6vectorINSt12experimental10filesystem2v17__cxx114path5_CmptESaIS5_EE17_M_realloc_insertIJNSt7__cxx1112basic_stringIcSt11char_traitsIcESaIcEEENS4_5_TypeERjEEEvN9__gnu_cxx17__normal_iteratorIPS5_S7_EEDpOT_ .LC8 220
_ZNSt6vectorINSt12experimental10filesystem2v17__cxx114path5_CmptESaIS5_EE12emplace_backIJNSt7__cxx1112basic_stringIcSt11char_traitsIcESaIcEEENS4_5_TypeERjEEERS5_DpOT_ _ZN9__gnu_cxx13new_allocatorINSt12experimental10filesystem2v17__cxx114path5_CmptEE9constructIS6_JNSt7__cxx1112basic_stringIcSt11char_traitsIcESaIcEEENS5_5_TypeERjEEEvPT_DpOT0_.isra.75 28
_ZNSt6vectorINSt12experimental10filesystem2v17__cxx114path5_CmptESaIS5_EE12emplace_backIJNSt7__cxx1112basic_stringIcSt11char_traitsIcESaIcEEENS4_5_TypeERjEEERS5_DpOT_ _ZNSt6vectorINSt12experimental10filesystem2v17__cxx114path5_CmptESaIS5_EE17_M_realloc_insertIJNSt7__cxx1112basic_stringIcSt11char_traitsIcESaIcEEENS4_5_TypeERjEEEvN9__gnu_cxx17__normal_iteratorIPS5_S7_EEDpOT_ 76
_ZNSt12experimental10filesystem2v17__cxx114path15_M_add_root_dirEj _ZNKSt7__cxx1112basic_stringIcSt11char_traitsIcESaIcEE8_M_checkEjPKc 28
_ZNSt12experimental10filesystem2v17__cxx114path15_M_add_root_dirEj _ZNSt7__cxx1112basic_stringIcSt11char_traitsIcESaIcEEC1ERKS4_jj 48
_ZNSt12experimental10filesystem2v17__cxx114path15_M_add_root_dirEj _ZNSt6vectorINSt12experimental10filesystem2v17__cxx114path5_CmptESaIS5_EE12emplace_backIJNSt7__cxx1112basic_stringIcSt11char_traitsIcESaIcEEENS4_5_TypeERjEEERS5_DpOT_ 76
_ZNSt12experimental10filesystem2v17__cxx114path15_M_add_root_dirEj _ZNSt7__cxx1112basic_stringIcSt11char_traitsIcESaIcEE10_M_disposeEv 84
_ZNSt12experimental10filesystem2v17__cxx114path15_M_add_root_dirEj _ZNSt7__cxx1112basic_stringIcSt11char_traitsIcESaIcEE10_M_disposeEv 100
_ZNSt12experimental10filesystem2v17__cxx114path15_M_add_root_dirEj __cxa_end_cleanup 104
_ZNSt12experimental10filesystem2v17__cxx114path15_M_add_root_dirEj .LC9 108
_ZNSt12experimental10filesystem2v17__cxx114path15_M_add_filenameEjj _ZNKSt7__cxx1112basic_stringIcSt11char_traitsIcESaIcEE8_M_checkEjPKc 32
_ZNSt12experimental10filesystem2v17__cxx114path15_M_add_filenameEjj _ZNSt7__cxx1112basic_stringIcSt11char_traitsIcESaIcEEC1ERKS4_jj 52
_ZNSt12experimental10filesystem2v17__cxx114path15_M_add_filenameEjj _ZNSt6vectorINSt12experimental10filesystem2v17__cxx114path5_CmptESaIS5_EE12emplace_backIJNSt7__cxx1112basic_stringIcSt11char_traitsIcESaIcEEENS4_5_TypeERjEEERS5_DpOT_ 80
_ZNSt12experimental10filesystem2v17__cxx114path15_M_add_filenameEjj _ZNSt7__cxx1112basic_stringIcSt11char_traitsIcESaIcEE10_M_disposeEv 88
_ZNSt12experimental10filesystem2v17__cxx114path15_M_add_filenameEjj _ZNSt7__cxx1112basic_stringIcSt11char_traitsIcESaIcEE10_M_disposeEv 104
_ZNSt12experimental10filesystem2v17__cxx114path15_M_add_filenameEjj __cxa_end_cleanup 108
_ZNSt12experimental10filesystem2v17__cxx114path15_M_add_filenameEjj .LC9 112
_ZNSt6vectorINSt12experimental10filesystem2v17__cxx114path5_CmptESaIS5_EE17_M_realloc_insertIJNSt7__cxx1112basic_stringIcSt11char_traitsIcESaIcEEENS4_5_TypeEiEEEvN9__gnu_cxx17__normal_iteratorIPS5_S7_EEDpOT_ _ZNKSt6vectorINSt12experimental10filesystem2v17__cxx114path5_CmptESaIS5_EE12_M_check_lenEjPKc 32
_ZNSt6vectorINSt12experimental10filesystem2v17__cxx114path5_CmptESaIS5_EE17_M_realloc_insertIJNSt7__cxx1112basic_stringIcSt11char_traitsIcESaIcEEENS4_5_TypeEiEEEvN9__gnu_cxx17__normal_iteratorIPS5_S7_EEDpOT_ _ZNSt12_Vector_baseINSt12experimental10filesystem2v17__cxx114path5_CmptESaIS5_EE11_M_allocateEj.isra.85 44
_ZNSt6vectorINSt12experimental10filesystem2v17__cxx114path5_CmptESaIS5_EE17_M_realloc_insertIJNSt7__cxx1112basic_stringIcSt11char_traitsIcESaIcEEENS4_5_TypeEiEEEvN9__gnu_cxx17__normal_iteratorIPS5_S7_EEDpOT_ _ZN9__gnu_cxx13new_allocatorINSt12experimental10filesystem2v17__cxx114path5_CmptEE9constructIS6_JNSt7__cxx1112basic_stringIcSt11char_traitsIcESaIcEEENS5_5_TypeEiEEEvPT_DpOT0_.isra.77 76
_ZNSt6vectorINSt12experimental10filesystem2v17__cxx114path5_CmptESaIS5_EE17_M_realloc_insertIJNSt7__cxx1112basic_stringIcSt11char_traitsIcESaIcEEENS4_5_TypeEiEEEvN9__gnu_cxx17__normal_iteratorIPS5_S7_EEDpOT_ _ZSt34__uninitialized_move_if_noexcept_aIPNSt12experimental10filesystem2v17__cxx114path5_CmptES6_SaIS5_EET0_T_S9_S8_RT1_.isra.94 92
_ZNSt6vectorINSt12experimental10filesystem2v17__cxx114path5_CmptESaIS5_EE17_M_realloc_insertIJNSt7__cxx1112basic_stringIcSt11char_traitsIcESaIcEEENS4_5_TypeEiEEEvN9__gnu_cxx17__normal_iteratorIPS5_S7_EEDpOT_ _ZSt34__uninitialized_move_if_noexcept_aIPNSt12experimental10filesystem2v17__cxx114path5_CmptES6_SaIS5_EET0_T_S9_S8_RT1_.isra.94 108
_ZNSt6vectorINSt12experimental10filesystem2v17__cxx114path5_CmptESaIS5_EE17_M_realloc_insertIJNSt7__cxx1112basic_stringIcSt11char_traitsIcESaIcEEENS4_5_TypeEiEEEvN9__gnu_cxx17__normal_iteratorIPS5_S7_EEDpOT_ _ZNSt12_Destroy_auxILb0EE9__destroyIPNSt12experimental10filesystem2v17__cxx114path5_CmptEEEvT_S9_ 124
_ZNSt6vectorINSt12experimental10filesystem2v17__cxx114path5_CmptESaIS5_EE17_M_realloc_insertIJNSt7__cxx1112basic_stringIcSt11char_traitsIcESaIcEEENS4_5_TypeEiEEEvN9__gnu_cxx17__normal_iteratorIPS5_S7_EEDpOT_ _ZNSt12_Vector_baseINSt12experimental10filesystem2v17__cxx114path5_CmptESaIS5_EE13_M_deallocateEPS5_j.isra.61 132
_ZNSt6vectorINSt12experimental10filesystem2v17__cxx114path5_CmptESaIS5_EE17_M_realloc_insertIJNSt7__cxx1112basic_stringIcSt11char_traitsIcESaIcEEENS4_5_TypeEiEEEvN9__gnu_cxx17__normal_iteratorIPS5_S7_EEDpOT_ __cxa_begin_catch 164
_ZNSt6vectorINSt12experimental10filesystem2v17__cxx114path5_CmptESaIS5_EE17_M_realloc_insertIJNSt7__cxx1112basic_stringIcSt11char_traitsIcESaIcEEENS4_5_TypeEiEEEvN9__gnu_cxx17__normal_iteratorIPS5_S7_EEDpOT_ _ZNSt12experimental10filesystem2v17__cxx114pathD2Ev 180
_ZNSt6vectorINSt12experimental10filesystem2v17__cxx114path5_CmptESaIS5_EE17_M_realloc_insertIJNSt7__cxx1112basic_stringIcSt11char_traitsIcESaIcEEENS4_5_TypeEiEEEvN9__gnu_cxx17__normal_iteratorIPS5_S7_EEDpOT_ _ZNSt12_Vector_baseINSt12experimental10filesystem2v17__cxx114path5_CmptESaIS5_EE13_M_deallocateEPS5_j.isra.61 188
_ZNSt6vectorINSt12experimental10filesystem2v17__cxx114path5_CmptESaIS5_EE17_M_realloc_insertIJNSt7__cxx1112basic_stringIcSt11char_traitsIcESaIcEEENS4_5_TypeEiEEEvN9__gnu_cxx17__normal_iteratorIPS5_S7_EEDpOT_ __cxa_rethrow 192
_ZNSt6vectorINSt12experimental10filesystem2v17__cxx114path5_CmptESaIS5_EE17_M_realloc_insertIJNSt7__cxx1112basic_stringIcSt11char_traitsIcESaIcEEENS4_5_TypeEiEEEvN9__gnu_cxx17__normal_iteratorIPS5_S7_EEDpOT_ __cxa_end_catch 196
_ZNSt6vectorINSt12experimental10filesystem2v17__cxx114path5_CmptESaIS5_EE17_M_realloc_insertIJNSt7__cxx1112basic_stringIcSt11char_traitsIcESaIcEEENS4_5_TypeEiEEEvN9__gnu_cxx17__normal_iteratorIPS5_S7_EEDpOT_ __cxa_end_cleanup 200
_ZNSt6vectorINSt12experimental10filesystem2v17__cxx114path5_CmptESaIS5_EE17_M_realloc_insertIJNSt7__cxx1112basic_stringIcSt11char_traitsIcESaIcEEENS4_5_TypeEiEEEvN9__gnu_cxx17__normal_iteratorIPS5_S7_EEDpOT_ _ZNSt12_Destroy_auxILb0EE9__destroyIPNSt12experimental10filesystem2v17__cxx114path5_CmptEEEvT_S9_ 212
_ZNSt6vectorINSt12experimental10filesystem2v17__cxx114path5_CmptESaIS5_EE17_M_realloc_insertIJNSt7__cxx1112basic_stringIcSt11char_traitsIcESaIcEEENS4_5_TypeEiEEEvN9__gnu_cxx17__normal_iteratorIPS5_S7_EEDpOT_ .LC8 220
_ZNSt12experimental10filesystem2v17__cxx114path16_M_add_root_nameEj _ZNKSt7__cxx1112basic_stringIcSt11char_traitsIcESaIcEE8_M_checkEjPKc 32
_ZNSt12experimental10filesystem2v17__cxx114path16_M_add_root_nameEj _ZNSt7__cxx1112basic_stringIcSt11char_traitsIcESaIcEEC1ERKS4_jj 52
_ZNSt12experimental10filesystem2v17__cxx114path16_M_add_root_nameEj _ZN9__gnu_cxx13new_allocatorINSt12experimental10filesystem2v17__cxx114path5_CmptEE9constructIS6_JNSt7__cxx1112basic_stringIcSt11char_traitsIcESaIcEEENS5_5_TypeEiEEEvPT_DpOT0_.isra.77 100
_ZNSt12experimental10filesystem2v17__cxx114path16_M_add_root_nameEj _ZNSt7__cxx1112basic_stringIcSt11char_traitsIcESaIcEE10_M_disposeEv 120
_ZNSt12experimental10filesystem2v17__cxx114path16_M_add_root_nameEj _ZNSt6vectorINSt12experimental10filesystem2v17__cxx114path5_CmptESaIS5_EE17_M_realloc_insertIJNSt7__cxx1112basic_stringIcSt11char_traitsIcESaIcEEENS4_5_TypeEiEEEvN9__gnu_cxx17__normal_iteratorIPS5_S7_EEDpOT_ 152
_ZNSt12experimental10filesystem2v17__cxx114path16_M_add_root_nameEj _ZNSt7__cxx1112basic_stringIcSt11char_traitsIcESaIcEE10_M_disposeEv 164
_ZNSt12experimental10filesystem2v17__cxx114path16_M_add_root_nameEj __cxa_end_cleanup 168
_ZNSt12experimental10filesystem2v17__cxx114path16_M_add_root_nameEj .LC9 172
_ZNSt12experimental10filesystem2v17__cxx114path14_M_split_cmptsEv _ZNSt6vectorINSt12experimental10filesystem2v17__cxx114path5_CmptESaIS5_EE5clearEv 28
_ZNSt12experimental10filesystem2v17__cxx114path14_M_split_cmptsEv _ZSt20__throw_length_errorPKc 164
_ZNSt12experimental10filesystem2v17__cxx114path14_M_split_cmptsEv _ZNSt12_Vector_baseINSt12experimental10filesystem2v17__cxx114path5_CmptESaIS5_EE11_M_allocateEj.isra.85 208
_ZNSt12experimental10filesystem2v17__cxx114path14_M_split_cmptsEv _ZNSt20__uninitialized_copyILb0EE13__uninit_copyISt13move_iteratorIPNSt12experimental10filesystem2v17__cxx114path5_CmptEES9_EET0_T_SC_SB_ 228
_ZNSt12experimental10filesystem2v17__cxx114path14_M_split_cmptsEv _ZNSt12_Destroy_auxILb0EE9__destroyIPNSt12experimental10filesystem2v17__cxx114path5_CmptEEEvT_S9_ 240
_ZNSt12experimental10filesystem2v17__cxx114path14_M_split_cmptsEv _ZNSt12_Vector_baseINSt12experimental10filesystem2v17__cxx114path5_CmptESaIS5_EE13_M_deallocateEPS5_j.isra.61 252
_ZNSt12experimental10filesystem2v17__cxx114path14_M_split_cmptsEv _ZNSt12experimental10filesystem2v17__cxx114path16_M_add_root_nameEj 412
_ZNSt12experimental10filesystem2v17__cxx114path14_M_split_cmptsEv _ZNSt12experimental10filesystem2v17__cxx114path15_M_add_root_dirEj 424
_ZNSt12experimental10filesystem2v17__cxx114path14_M_split_cmptsEv _ZNSt12experimental10filesystem2v17__cxx114path15_M_add_filenameEjj 496
_ZNSt12experimental10filesystem2v17__cxx114path14_M_split_cmptsEv _ZNSt12experimental10filesystem2v17__cxx114path15_M_add_filenameEjj 592
_ZNSt12experimental10filesystem2v17__cxx114path14_M_split_cmptsEv _ZNSt12experimental10filesystem2v17__cxx114path7_M_trimEv 600
_ZNSt12experimental10filesystem2v17__cxx114path14_M_split_cmptsEv _ZNSt7__cxx1112basic_stringIcSt11char_traitsIcESaIcEE9_S_assignEPcjc 680
_ZNSt12experimental10filesystem2v17__cxx114path14_M_split_cmptsEv _ZNSt6vectorINSt12experimental10filesystem2v17__cxx114path5_CmptESaIS5_EE12emplace_backIJNSt7__cxx1112basic_stringIcSt11char_traitsIcESaIcEEENS4_5_TypeERjEEERS5_DpOT_ 724
_ZNSt12experimental10filesystem2v17__cxx114path14_M_split_cmptsEv _ZNSt7__cxx1112basic_stringIcSt11char_traitsIcESaIcEE10_M_disposeEv 732
_ZNSt12experimental10filesystem2v17__cxx114path14_M_split_cmptsEv _ZNSt7__cxx1112basic_stringIcSt11char_traitsIcESaIcEE10_M_disposeEv 744
_ZNSt12experimental10filesystem2v17__cxx114path14_M_split_cmptsEv __cxa_end_cleanup 748
_ZNSt12experimental10filesystem2v17__cxx114path14_M_split_cmptsEv .LC10 756
_ZNKSt12experimental10filesystem2v17__cxx114path11parent_pathEv _ZNSt12experimental10filesystem2v17__cxx114pathC1Ev 12
_ZNKSt12experimental10filesystem2v17__cxx114path11parent_pathEv _ZNSt12experimental10filesystem2v17__cxx114path9_M_appendERKNSt7__cxx1112basic_stringIcSt11char_traitsIcESaIcEEE 68
_ZNKSt12experimental10filesystem2v17__cxx114path11parent_pathEv _ZNSt12experimental10filesystem2v17__cxx114pathD1Ev 84
_ZNKSt12experimental10filesystem2v17__cxx114path11parent_pathEv __cxa_end_cleanup 88
_ZNSt12experimental10filesystem2v17__cxx114path17replace_extensionERKS3_ _ZNKSt12experimental10filesystem2v17__cxx114path17_M_find_extensionEv 24
_ZNSt12experimental10filesystem2v17__cxx114path17replace_extensionERKS3_ _ZNKSt7__cxx1112basic_stringIcSt11char_traitsIcESaIcEE8_M_checkEjPKc 80
_ZNSt12experimental10filesystem2v17__cxx114path17replace_extensionERKS3_ _ZNSt7__cxx1112basic_stringIcSt11char_traitsIcESaIcEE9push_backEc 136
_ZNSt12experimental10filesystem2v17__cxx114path17replace_extensionERKS3_ _ZNSt7__cxx1112basic_stringIcSt11char_traitsIcESaIcEE9_M_appendEPKcj 148
_ZNSt12experimental10filesystem2v17__cxx114path17replace_extensionERKS3_ _ZNSt12experimental10filesystem2v17__cxx114path14_M_split_cmptsEv 156
_ZNSt12experimental10filesystem2v17__cxx114path17replace_extensionERKS3_ __cxa_allocate_exception 192
_ZNSt12experimental10filesystem2v17__cxx114path17replace_extensionERKS3_ _ZNSt11logic_errorC1EPKc 208
_ZNSt12experimental10filesystem2v17__cxx114path17replace_extensionERKS3_ __cxa_throw 248
_ZNSt12experimental10filesystem2v17__cxx114path17replace_extensionERKS3_ __cxa_free_exception 276
_ZNSt12experimental10filesystem2v17__cxx114path17replace_extensionERKS3_ __cxa_end_cleanup 280
_ZNSt12experimental10filesystem2v17__cxx114path17replace_extensionERKS3_ .LC11 288
_ZNSt12experimental10filesystem2v17__cxx114path17replace_extensionERKS3_ .LC12 292
_ZNSt12experimental10filesystem2v17__cxx114path17replace_extensionERKS3_ _ZNSt11logic_errorD1Ev 296
_ZNSt12experimental10filesystem2v17__cxx114path17replace_extensionERKS3_ _ZTISt11logic_error 300
_ZNSt12experimental10filesystem2v17__cxx114path17replace_extensionERKS3_ .LC11 304
_ZNKSt12experimental10filesystem2v17__cxx114path9root_pathEv _ZNSt12experimental10filesystem2v17__cxx114pathC1Ev 12
_ZNKSt12experimental10filesystem2v17__cxx114path9root_pathEv _ZNSt12experimental10filesystem2v17__cxx114pathaSERKS3_ 76
_ZNKSt12experimental10filesystem2v17__cxx114path9root_pathEv _ZNSt7__cxx1112basic_stringIcSt11char_traitsIcESaIcEE9push_backEc 112
_ZNKSt12experimental10filesystem2v17__cxx114path9root_pathEv _ZNSt12experimental10filesystem2v17__cxx114path14_M_split_cmptsEv 120
_ZNKSt12experimental10filesystem2v17__cxx114path9root_pathEv _ZNSt12experimental10filesystem2v17__cxx114pathaSERKS3_ 144
_ZNKSt12experimental10filesystem2v17__cxx114path9root_pathEv _ZNSt12experimental10filesystem2v17__cxx114pathD1Ev 156
_ZNKSt12experimental10filesystem2v17__cxx114path9root_pathEv __cxa_end_cleanup 160
_ZNSt12experimental10filesystem2v17__cxx114path15remove_filenameEv _ZNKSt7__cxx1112basic_stringIcSt11char_traitsIcESaIcEE8_M_checkEjPKc 52
_ZNSt12experimental10filesystem2v17__cxx114path15remove_filenameEv _ZNSt12experimental10filesystem2v17__cxx114pathaSEOS3_ 124
_ZNSt12experimental10filesystem2v17__cxx114path15remove_filenameEv _ZNSt12experimental10filesystem2v17__cxx114pathD2Ev 156
_ZNSt12experimental10filesystem2v17__cxx114path15remove_filenameEv _ZNSt12experimental10filesystem2v17__cxx114path7_M_trimEv 164
_ZNSt12experimental10filesystem2v17__cxx114path15remove_filenameEv _ZNSt12experimental10filesystem2v17__cxx114path14_M_split_cmptsEv 192
_ZNSt12experimental10filesystem2v17__cxx114path15remove_filenameEv .LC11 200
_ZNSt12experimental10filesystem2v17__cxx114path16replace_filenameERKS3_ _ZNSt12experimental10filesystem2v17__cxx114path15remove_filenameEv 12
_ZNSt12experimental10filesystem2v17__cxx114path16replace_filenameERKS3_ _ZNSt12experimental10filesystem2v17__cxx114path9_M_appendERKNSt7__cxx1112basic_stringIcSt11char_traitsIcESaIcEEE 24
_ZNKSt12experimental10filesystem2v17__cxx114path13relative_pathEv _ZNSt12experimental10filesystem2v17__cxx114pathC1Ev 16
_ZNKSt12experimental10filesystem2v17__cxx114path13relative_pathEv _ZNSt12experimental10filesystem2v17__cxx114pathaSERKS3_ 40
_ZNKSt12experimental10filesystem2v17__cxx114path13relative_pathEv _ZNKSt7__cxx1112basic_stringIcSt11char_traitsIcESaIcEE8_M_checkEjPKc 124
_ZNKSt12experimental10filesystem2v17__cxx114path13relative_pathEv _ZNSt7__cxx1112basic_stringIcSt11char_traitsIcESaIcEEC1ERKS4_jj 148
_ZNKSt12experimental10filesystem2v17__cxx114path13relative_pathEv _ZNSt7__cxx1112basic_stringIcSt11char_traitsIcESaIcEEC1EOS4_ 164
_ZNKSt12experimental10filesystem2v17__cxx114path13relative_pathEv _ZNSt12experimental10filesystem2v17__cxx114path14_M_split_cmptsEv 192
_ZNKSt12experimental10filesystem2v17__cxx114path13relative_pathEv _ZNSt12experimental10filesystem2v17__cxx114pathaSEOS3_ 204
_ZNKSt12experimental10filesystem2v17__cxx114path13relative_pathEv _ZNSt12experimental10filesystem2v17__cxx114pathD1Ev 212
_ZNKSt12experimental10filesystem2v17__cxx114path13relative_pathEv _ZNSt7__cxx1112basic_stringIcSt11char_traitsIcESaIcEE10_M_disposeEv 220
_ZNKSt12experimental10filesystem2v17__cxx114path13relative_pathEv _ZNSt6vectorINSt12experimental10filesystem2v17__cxx114path5_CmptESaIS5_EED1Ev 240
_ZNKSt12experimental10filesystem2v17__cxx114path13relative_pathEv _ZNSt7__cxx1112basic_stringIcSt11char_traitsIcESaIcEE10_M_disposeEv 248
_ZNKSt12experimental10filesystem2v17__cxx114path13relative_pathEv _ZNSt7__cxx1112basic_stringIcSt11char_traitsIcESaIcEE10_M_disposeEv 256
_ZNKSt12experimental10filesystem2v17__cxx114path13relative_pathEv _ZNSt12experimental10filesystem2v17__cxx114pathD1Ev 264
_ZNKSt12experimental10filesystem2v17__cxx114path13relative_pathEv __cxa_end_cleanup 268
_ZNKSt12experimental10filesystem2v17__cxx114path13relative_pathEv .LC9 276
_ZNSt7__cxx1112basic_stringIwSt11char_traitsIwESaIwEE7_S_copyEPwPKwj wmemcpy 36
_ZNSt7__cxx1112basic_stringIcSt11char_traitsIcESaIcEE6assignIPKwvEERS4_T_S9_ _ZSt19__throw_logic_errorPKc 56
_ZNSt7__cxx1112basic_stringIcSt11char_traitsIcESaIcEE6assignIPKwvEERS4_T_S9_ _ZNSt7__cxx1112basic_stringIcSt11char_traitsIcESaIcEE9_M_createERjj.isra.64 92
_ZNSt7__cxx1112basic_stringIcSt11char_traitsIcESaIcEE6assignIPKwvEERS4_T_S9_ _ZNSt7__cxx1112basic_stringIcSt11char_traitsIcESaIcEE10_M_replaceEjjPKcj 196
_ZNSt7__cxx1112basic_stringIcSt11char_traitsIcESaIcEE6assignIPKwvEERS4_T_S9_ _ZNSt7__cxx1112basic_stringIcSt11char_traitsIcESaIcEE10_M_disposeEv 208
_ZNSt7__cxx1112basic_stringIcSt11char_traitsIcESaIcEE6assignIPKwvEERS4_T_S9_ __cxa_end_cleanup 212
_ZNSt7__cxx1112basic_stringIcSt11char_traitsIcESaIcEE6assignIPKwvEERS4_T_S9_ _ZNSt7__cxx1112basic_stringIcSt11char_traitsIcESaIcEE10_M_disposeEv 224
_ZNSt7__cxx1112basic_stringIcSt11char_traitsIcESaIcEE6assignIPKwvEERS4_T_S9_ .LC1 240
_ZNSt12experimental10filesystem2v17__cxx114path4_CvtIwE10_S_convertEPKwS7_ _ZNSt7codecvtIwc11__mbstate_tEC2Ej 32
_ZNSt12experimental10filesystem2v17__cxx114path4_CvtIwE10_S_convertEPKwS7_ _ZNKSt19__codecvt_utf8_baseIwE13do_max_lengthEv 120
_ZNSt12experimental10filesystem2v17__cxx114path4_CvtIwE10_S_convertEPKwS7_ _ZNSt7__cxx1112basic_stringIcSt11char_traitsIcESaIcEE6resizeEjc 172
_ZNSt12experimental10filesystem2v17__cxx114path4_CvtIwE10_S_convertEPKwS7_ _ZNKSt23__codecvt_abstract_baseIwc11__mbstate_tE3outERS0_PKwS4_RS4_PcS6_RS6_ 232
_ZNSt12experimental10filesystem2v17__cxx114path4_CvtIwE10_S_convertEPKwS7_ _ZNSt7__cxx1112basic_stringIcSt11char_traitsIcESaIcEE6resizeEjc 300
_ZNSt12experimental10filesystem2v17__cxx114path4_CvtIwE10_S_convertEPKwS7_ __cxa_allocate_exception 320
_ZNSt12experimental10filesystem2v17__cxx114path4_CvtIwE10_S_convertEPKwS7_ _ZNSt7__cxx1112basic_stringIcSt11char_traitsIcESaIcEEC1IS3_EEPKcRKS3_ 344
_ZNSt12experimental10filesystem2v17__cxx114path4_CvtIwE10_S_convertEPKwS7_ _ZNSt7__cxx1112basic_stringIcSt11char_traitsIcESaIcEE6assignIPKwvEERS4_T_S9_ 372
_ZNSt12experimental10filesystem2v17__cxx114path4_CvtIwE10_S_convertEPKwS7_ _ZNSt3_V216generic_categoryEv 380
_ZNSt12experimental10filesystem2v17__cxx114path4_CvtIwE10_S_convertEPKwS7_ _ZNSt12experimental10filesystem2v17__cxx1116filesystem_errorC1ERKNSt7__cxx1112basic_stringIcSt11char_traitsIcESaIcEEESt10error_code 412
_ZNSt12experimental10filesystem2v17__cxx114path4_CvtIwE10_S_convertEPKwS7_ _ZNSt7__cxx1112basic_stringIcSt11char_traitsIcESaIcEE10_M_disposeEv 420
_ZNSt12experimental10filesystem2v17__cxx114path4_CvtIwE10_S_convertEPKwS7_ __cxa_throw 460
_ZNSt12experimental10filesystem2v17__cxx114path4_CvtIwE10_S_convertEPKwS7_ _ZNSt7__cxx1112basic_stringIcSt11char_traitsIcESaIcEE10_M_disposeEv 472
_ZNSt12experimental10filesystem2v17__cxx114path4_CvtIwE10_S_convertEPKwS7_ __cxa_free_exception 480
_ZNSt12experimental10filesystem2v17__cxx114path4_CvtIwE10_S_convertEPKwS7_ _ZNSt7__cxx1112basic_stringIcSt11char_traitsIcESaIcEE10_M_disposeEv 488
_ZNSt12experimental10filesystem2v17__cxx114path4_CvtIwE10_S_convertEPKwS7_ _ZNSt12codecvt_utf8IwLm1114111ELSt12codecvt_mode0EED1Ev 496
_ZNSt12experimental10filesystem2v17__cxx114path4_CvtIwE10_S_convertEPKwS7_ __cxa_end_cleanup 500
_ZNSt12experimental10filesystem2v17__cxx114path4_CvtIwE10_S_convertEPKwS7_ _ZNSt12codecvt_utf8IwLm1114111ELSt12codecvt_mode0EED1Ev 512
_ZNSt12experimental10filesystem2v17__cxx114path4_CvtIwE10_S_convertEPKwS7_ _ZTVSt12codecvt_utf8IwLm1114111ELSt12codecvt_mode0EE 536
_ZNSt12experimental10filesystem2v17__cxx114path4_CvtIwE10_S_convertEPKwS7_ .LC14 540
_ZNSt12experimental10filesystem2v17__cxx114path4_CvtIwE10_S_convertEPKwS7_ _ZNSt12experimental10filesystem2v17__cxx1116filesystem_errorD1Ev 544
_ZNSt12experimental10filesystem2v17__cxx114path4_CvtIwE10_S_convertEPKwS7_ _ZTINSt12experimental10filesystem2v17__cxx1116filesystem_errorE 548
_ZNSt7__cxx1112basic_stringIwSt11char_traitsIwESaIwEE7_S_moveEPwPKwj wmemmove 36
_ZNSt7__cxx1112basic_stringIwSt11char_traitsIwESaIwEE9_M_mutateEjjPKwj _ZNSt7__cxx1112basic_stringIwSt11char_traitsIwESaIwEE9_M_createERjj.isra.110 68
_ZNSt7__cxx1112basic_stringIwSt11char_traitsIwESaIwEE9_M_mutateEjjPKwj _ZNSt7__cxx1112basic_stringIwSt11char_traitsIwESaIwEE7_S_copyEPwPKwj 92
_ZNSt7__cxx1112basic_stringIwSt11char_traitsIwESaIwEE9_M_mutateEjjPKwj _ZNSt7__cxx1112basic_stringIwSt11char_traitsIwESaIwEE7_S_copyEPwPKwj 120
_ZNSt7__cxx1112basic_stringIwSt11char_traitsIwESaIwEE9_M_mutateEjjPKwj _ZNSt7__cxx1112basic_stringIwSt11char_traitsIwESaIwEE7_S_copyEPwPKwj 152
_ZNSt7__cxx1112basic_stringIwSt11char_traitsIwESaIwEE9_M_mutateEjjPKwj _ZNSt7__cxx1112basic_stringIwSt11char_traitsIwESaIwEE10_M_disposeEv 160
_ZNSt7__cxx1112basic_stringIwSt11char_traitsIwESaIwEE6resizeEjw _ZSt20__throw_length_errorPKc 56
_ZNSt7__cxx1112basic_stringIwSt11char_traitsIwESaIwEE6resizeEjw _ZNSt7__cxx1112basic_stringIwSt11char_traitsIwESaIwEE9_M_mutateEjjPKwj 104
_ZNSt7__cxx1112basic_stringIwSt11char_traitsIwESaIwEE6resizeEjw wmemset 136
_ZNSt7__cxx1112basic_stringIwSt11char_traitsIwESaIwEE6resizeEjw .LC4 184
_ZNSt7__cxx1112basic_stringIwSt11char_traitsIwESaIwEE10_M_replaceEjjPKwj _ZSt20__throw_length_errorPKc 44
_ZNSt7__cxx1112basic_stringIwSt11char_traitsIwESaIwEE10_M_replaceEjjPKwj _ZNSt7__cxx1112basic_stringIwSt11char_traitsIwESaIwEE7_S_moveEPwPKwj 156
_ZNSt7__cxx1112basic_stringIwSt11char_traitsIwESaIwEE10_M_replaceEjjPKwj _ZNSt7__cxx1112basic_stringIwSt11char_traitsIwESaIwEE7_S_moveEPwPKwj 184
_ZNSt7__cxx1112basic_stringIwSt11char_traitsIwESaIwEE10_M_replaceEjjPKwj _ZNSt7__cxx1112basic_stringIwSt11char_traitsIwESaIwEE7_S_moveEPwPKwj 228
_ZNSt7__cxx1112basic_stringIwSt11char_traitsIwESaIwEE10_M_replaceEjjPKwj _ZNSt7__cxx1112basic_stringIwSt11char_traitsIwESaIwEE7_S_moveEPwPKwj 260
_ZNSt7__cxx1112basic_stringIwSt11char_traitsIwESaIwEE10_M_replaceEjjPKwj _ZNSt7__cxx1112basic_stringIwSt11char_traitsIwESaIwEE7_S_copyEPwPKwj 328
_ZNSt7__cxx1112basic_stringIwSt11char_traitsIwESaIwEE10_M_replaceEjjPKwj _ZNSt7__cxx1112basic_stringIwSt11char_traitsIwESaIwEE7_S_moveEPwPKwj 356
_ZNSt7__cxx1112basic_stringIwSt11char_traitsIwESaIwEE10_M_replaceEjjPKwj _ZNSt7__cxx1112basic_stringIwSt11char_traitsIwESaIwEE9_M_mutateEjjPKwj 392
_ZNSt7__cxx1112basic_stringIwSt11char_traitsIwESaIwEE10_M_replaceEjjPKwj .LC5 400
_ZNSt7__cxx1112basic_stringIwSt11char_traitsIwESaIwEE6assignIPKcvEERS4_T_S9_ _ZSt19__throw_logic_errorPKc 56
_ZNSt7__cxx1112basic_stringIwSt11char_traitsIwESaIwEE6assignIPKcvEERS4_T_S9_ _ZNSt7__cxx1112basic_stringIwSt11char_traitsIwESaIwEE9_M_createERjj.isra.110 92
_ZNSt7__cxx1112basic_stringIwSt11char_traitsIwESaIwEE6assignIPKcvEERS4_T_S9_ _ZNSt7__cxx1112basic_stringIwSt11char_traitsIwESaIwEE10_M_replaceEjjPKwj 184
_ZNSt7__cxx1112basic_stringIwSt11char_traitsIwESaIwEE6assignIPKcvEERS4_T_S9_ _ZNSt7__cxx1112basic_stringIwSt11char_traitsIwESaIwEE10_M_disposeEv 196
_ZNSt7__cxx1112basic_stringIwSt11char_traitsIwESaIwEE6assignIPKcvEERS4_T_S9_ __cxa_end_cleanup 200
_ZNSt7__cxx1112basic_stringIwSt11char_traitsIwESaIwEE6assignIPKcvEERS4_T_S9_ _ZNSt7__cxx1112basic_stringIwSt11char_traitsIwESaIwEE10_M_disposeEv 212
_ZNSt7__cxx1112basic_stringIwSt11char_traitsIwESaIwEE6assignIPKcvEERS4_T_S9_ .LC1 228
_ZNSt12experimental10filesystem2v17__cxx114path14_S_convert_locEPKcS5_RKSt6locale _ZSt9use_facetISt7codecvtIwc11__mbstate_tEERKT_RKSt6locale 32
_ZNSt12experimental10filesystem2v17__cxx114path14_S_convert_locEPKcS5_RKSt6locale _ZNSt12experimental10filesystem2v17__cxx114path4_CvtIwE10_S_convertEPKwS7_ 96
_ZNSt12experimental10filesystem2v17__cxx114path14_S_convert_locEPKcS5_RKSt6locale _ZNSt7__cxx1112basic_stringIwSt11char_traitsIwESaIwEE6resizeEjw 176
_ZNSt12experimental10filesystem2v17__cxx114path14_S_convert_locEPKcS5_RKSt6locale _ZNKSt23__codecvt_abstract_baseIwc11__mbstate_tE2inERS0_PKcS4_RS4_PwS6_RS6_ 240
_ZNSt12experimental10filesystem2v17__cxx114path14_S_convert_locEPKcS5_RKSt6locale _ZNSt7__cxx1112basic_stringIwSt11char_traitsIwESaIwEE6resizeEjw 312
_ZNSt12experimental10filesystem2v17__cxx114path14_S_convert_locEPKcS5_RKSt6locale __cxa_allocate_exception 332
_ZNSt12experimental10filesystem2v17__cxx114path14_S_convert_locEPKcS5_RKSt6locale _ZNSt7__cxx1112basic_stringIcSt11char_traitsIcESaIcEEC1IS3_EEPKcRKS3_ 356
_ZNSt12experimental10filesystem2v17__cxx114path14_S_convert_locEPKcS5_RKSt6locale _ZNSt7__cxx1112basic_stringIwSt11char_traitsIwESaIwEE6assignIPKcvEERS4_T_S9_ 384
_ZNSt12experimental10filesystem2v17__cxx114path14_S_convert_locEPKcS5_RKSt6locale _ZNSt3_V216generic_categoryEv 392
_ZNSt12experimental10filesystem2v17__cxx114path14_S_convert_locEPKcS5_RKSt6locale _ZNSt12experimental10filesystem2v17__cxx1116filesystem_errorC1ERKNSt7__cxx1112basic_stringIcSt11char_traitsIcESaIcEEESt10error_code 424
_ZNSt12experimental10filesystem2v17__cxx114path14_S_convert_locEPKcS5_RKSt6locale _ZNSt7__cxx1112basic_stringIcSt11char_traitsIcESaIcEE10_M_disposeEv 432
_ZNSt12experimental10filesystem2v17__cxx114path14_S_convert_locEPKcS5_RKSt6locale __cxa_throw 472
_ZNSt12experimental10filesystem2v17__cxx114path14_S_convert_locEPKcS5_RKSt6locale _ZNSt7__cxx1112basic_stringIcSt11char_traitsIcESaIcEE10_M_disposeEv 484
_ZNSt12experimental10filesystem2v17__cxx114path14_S_convert_locEPKcS5_RKSt6locale __cxa_free_exception 492
_ZNSt12experimental10filesystem2v17__cxx114path14_S_convert_locEPKcS5_RKSt6locale _ZNSt7__cxx1112basic_stringIwSt11char_traitsIwESaIwEE10_M_disposeEv 500
_ZNSt12experimental10filesystem2v17__cxx114path14_S_convert_locEPKcS5_RKSt6locale __cxa_end_cleanup 504
_ZNSt12experimental10filesystem2v17__cxx114path14_S_convert_locEPKcS5_RKSt6locale _ZNSt7__cxx1112basic_stringIwSt11char_traitsIwESaIwEE10_M_disposeEv 516
_ZNSt12experimental10filesystem2v17__cxx114path14_S_convert_locEPKcS5_RKSt6locale .LC14 536
_ZNSt12experimental10filesystem2v17__cxx114path14_S_convert_locEPKcS5_RKSt6locale _ZNSt12experimental10filesystem2v17__cxx1116filesystem_errorD1Ev 540
_ZNSt12experimental10filesystem2v17__cxx114path14_S_convert_locEPKcS5_RKSt6locale _ZTINSt12experimental10filesystem2v17__cxx1116filesystem_errorE 544
_ZNSt23_Sp_counted_ptr_inplaceINSt10filesystem7__cxx114_DirESaIS2_ELN9__gnu_cxx12_Lock_policyE2EE10_M_destroyEv _ZdlPv 0
_ZNSt23_Sp_counted_ptr_inplaceINSt10filesystem7__cxx114_DirESaIS2_ELN9__gnu_cxx12_Lock_policyE2EE14_M_get_deleterERKSt9type_info _ZNKSt9type_infoeqERKS_ 64
_ZNSt23_Sp_counted_ptr_inplaceINSt10filesystem7__cxx114_DirESaIS2_ELN9__gnu_cxx12_Lock_policyE2EE14_M_get_deleterERKSt9type_info _ZZNSt19_Sp_make_shared_tag5_S_tiEvE5__tag 84
_ZNSt23_Sp_counted_ptr_inplaceINSt10filesystem7__cxx114_DirESaIS2_ELN9__gnu_cxx12_Lock_policyE2EE14_M_get_deleterERKSt9type_info _ZTISt19_Sp_make_shared_tag 88
_ZNSt23_Sp_counted_ptr_inplaceINSt10filesystem7__cxx1128recursive_directory_iterator10_Dir_stackESaIS3_ELN9__gnu_cxx12_Lock_policyE2EE14_M_get_deleterERKSt9type_info _ZNKSt9type_infoeqERKS_ 64
_ZNSt23_Sp_counted_ptr_inplaceINSt10filesystem7__cxx1128recursive_directory_iterator10_Dir_stackESaIS3_ELN9__gnu_cxx12_Lock_policyE2EE14_M_get_deleterERKSt9type_info _ZZNSt19_Sp_make_shared_tag5_S_tiEvE5__tag 84
_ZNSt23_Sp_counted_ptr_inplaceINSt10filesystem7__cxx1128recursive_directory_iterator10_Dir_stackESaIS3_ELN9__gnu_cxx12_Lock_policyE2EE14_M_get_deleterERKSt9type_info _ZTISt19_Sp_make_shared_tag 88
_ZNSt23_Sp_counted_ptr_inplaceINSt10filesystem7__cxx114_DirESaIS2_ELN9__gnu_cxx12_Lock_policyE2EED0Ev _ZdlPvj 12
_ZNSt23_Sp_counted_ptr_inplaceINSt10filesystem7__cxx1128recursive_directory_iterator10_Dir_stackESaIS3_ELN9__gnu_cxx12_Lock_policyE2EED0Ev _ZdlPvj 12
_ZNSt12_Vector_baseINSt10filesystem7__cxx114path5_CmptESaIS3_EE13_M_deallocateEPS3_j.isra.53 _ZdlPv 8
_ZNSt7__cxx1112basic_stringIcSt11char_traitsIcESaIcEE9_M_createERjj.isra.59 _ZSt20__throw_length_errorPKc 24
_ZNSt7__cxx1112basic_stringIcSt11char_traitsIcESaIcEE9_M_createERjj.isra.59 _Znwj 72
_ZNSt7__cxx1112basic_stringIcSt11char_traitsIcESaIcEE9_M_createERjj.isra.59 .LC0 76
_ZNSt23_Sp_counted_ptr_inplaceINSt10filesystem7__cxx1128recursive_directory_iterator10_Dir_stackESaIS3_ELN9__gnu_cxx12_Lock_policyE2EE10_M_destroyEv _ZdlPv 0
_ZNSt10filesystem7__cxx114pathC1EOS1_,_ZNSt10filesystem7__cxx114pathC2EOS1_ _ZNSt7__cxx1112basic_stringIcSt11char_traitsIcESaIcEEC1EOS4_ 12
_ZNSt10filesystem7__cxx114pathC1EOS1_,_ZNSt10filesystem7__cxx114pathC2EOS1_ _ZNSt10filesystem7__cxx114path14_M_split_cmptsEv 52
_ZNSt10filesystem7__cxx114pathC1EOS1_,_ZNSt10filesystem7__cxx114pathC2EOS1_ _ZNSt10filesystem7__cxx114path5clearEv 60
_ZNSt10filesystem7__cxx1128recursive_directory_iteratorD1Ev,_ZNSt10filesystem7__cxx1128recursive_directory_iteratorD2Ev _ZNSt14__shared_countILN9__gnu_cxx12_Lock_policyE2EED1Ev 12
_ZNSt12__shared_ptrINSt10filesystem7__cxx114_DirELN9__gnu_cxx12_Lock_policyE2EE5resetEv _ZNSt14__shared_countILN9__gnu_cxx12_Lock_policyE2EED1Ev 36
_ZNSt12__shared_ptrINSt10filesystem7__cxx1128recursive_directory_iterator10_Dir_stackELN9__gnu_cxx12_Lock_policyE2EE5resetEv _ZNSt14__shared_countILN9__gnu_cxx12_Lock_policyE2EED1Ev 36
_ZNSt10filesystem7__cxx1128recursive_directory_iteratoraSEOS1_ _ZNSt14__shared_countILN9__gnu_cxx12_Lock_policyE2EED1Ev 56
_ZNSt10filesystem7__cxx1128recursive_directory_iteratoraSERKS1_ _ZNSt16_Sp_counted_baseILN9__gnu_cxx12_Lock_policyE2EE10_M_releaseEv 124
_ZNSt10filesystem7__cxx1128recursive_directory_iteratoraSERKS1_ __pthread_key_create 160
_ZNKSt10filesystem7__cxx1128recursive_directory_iteratordeEv _ZNSt5dequeINSt10filesystem7__cxx114_DirESaIS2_EE4backEv 8
_ZNSt12_Destroy_auxILb0EE9__destroyIPNSt10filesystem7__cxx114path5_CmptEEEvT_S7_ _ZNSt10filesystem7__cxx114pathD2Ev 28
_ZNSt6vectorINSt10filesystem7__cxx114path5_CmptESaIS3_EED1Ev,_ZNSt6vectorINSt10filesystem7__cxx114path5_CmptESaIS3_EED2Ev _ZNSt12_Destroy_auxILb0EE9__destroyIPNSt10filesystem7__cxx114path5_CmptEEEvT_S7_ 12
_ZNSt6vectorINSt10filesystem7__cxx114path5_CmptESaIS3_EED1Ev,_ZNSt6vectorINSt10filesystem7__cxx114path5_CmptESaIS3_EED2Ev _ZNSt12_Vector_baseINSt10filesystem7__cxx114path5_CmptESaIS3_EE13_M_deallocateEPS3_j.isra.58 20
_ZNSt10filesystem7__cxx114pathD1Ev,_ZNSt10filesystem7__cxx114pathD2Ev _ZNSt6vectorINSt10filesystem7__cxx114path5_CmptESaIS3_EED1Ev 12
_ZNSt10filesystem7__cxx114pathD1Ev,_ZNSt10filesystem7__cxx114pathD2Ev _ZNSt7__cxx1112basic_stringIcSt11char_traitsIcESaIcEE10_M_disposeEv 20
_ZNSt10filesystem7__cxx114_DirD1Ev,_ZNSt10filesystem7__cxx114_DirD2Ev _ZNSt10filesystem7__cxx114pathD1Ev 12
_ZNSt10filesystem7__cxx114_DirD1Ev,_ZNSt10filesystem7__cxx114_DirD2Ev _ZNSt10filesystem7__cxx114pathD1Ev 20
_ZNSt10filesystem7__cxx114_DirD1Ev,_ZNSt10filesystem7__cxx114_DirD2Ev _ZNSt10filesystem9_Dir_baseD2Ev 28
_ZNSt5dequeINSt10filesystem7__cxx114_DirESaIS2_EE8pop_backEv _ZdlPv 28
_ZNSt5dequeINSt10filesystem7__cxx114_DirESaIS2_EE8pop_backEv _ZNSt10filesystem7__cxx114_DirD1Ev 72
_ZNSt23_Sp_counted_ptr_inplaceINSt10filesystem7__cxx114_DirESaIS2_ELN9__gnu_cxx12_Lock_policyE2EE10_M_disposeEv _ZNSt10filesystem7__cxx114_DirD1Ev 4
_ZNSt10filesystem7__cxx114pathaSEOS1_.part.72 _ZNSt7__cxx1112basic_stringIcSt11char_traitsIcESaIcEE7_S_copyEPcPKcj 44
_ZNSt10filesystem7__cxx114pathaSEOS1_.part.72 _ZNSt6vectorINSt10filesystem7__cxx114path5_CmptESaIS3_EED1Ev 168
_ZNSt10filesystem7__cxx114pathaSEOS1_.part.72 _ZNSt10filesystem7__cxx114path14_M_split_cmptsEv 196
_ZNSt20__uninitialized_copyILb0EE13__uninit_copyIN9__gnu_cxx17__normal_iteratorIPKNSt10filesystem7__cxx114path5_CmptESt6vectorIS7_SaIS7_EEEEPS7_EET0_T_SG_SF_ _ZNSt10filesystem7__cxx114pathC2ERKS1_ 36
_ZNSt20__uninitialized_copyILb0EE13__uninit_copyIN9__gnu_cxx17__normal_iteratorIPKNSt10filesystem7__cxx114path5_CmptESt6vectorIS7_SaIS7_EEEEPS7_EET0_T_SG_SF_ __cxa_begin_catch 60
_ZNSt20__uninitialized_copyILb0EE13__uninit_copyIN9__gnu_cxx17__normal_iteratorIPKNSt10filesystem7__cxx114path5_CmptESt6vectorIS7_SaIS7_EEEEPS7_EET0_T_SG_SF_ _ZNSt12_Destroy_auxILb0EE9__destroyIPNSt10filesystem7__cxx114path5_CmptEEEvT_S7_ 72
_ZNSt20__uninitialized_copyILb0EE13__uninit_copyIN9__gnu_cxx17__normal_iteratorIPKNSt10filesystem7__cxx114path5_CmptESt6vectorIS7_SaIS7_EEEEPS7_EET0_T_SG_SF_ __cxa_rethrow 76
_ZNSt20__uninitialized_copyILb0EE13__uninit_copyIN9__gnu_cxx17__normal_iteratorIPKNSt10filesystem7__cxx114path5_CmptESt6vectorIS7_SaIS7_EEEEPS7_EET0_T_SG_SF_ __cxa_end_catch 80
_ZNSt20__uninitialized_copyILb0EE13__uninit_copyIN9__gnu_cxx17__normal_iteratorIPKNSt10filesystem7__cxx114path5_CmptESt6vectorIS7_SaIS7_EEEEPS7_EET0_T_SG_SF_ __cxa_end_cleanup 84
_ZNSt10filesystem7__cxx114pathC1ERKS1_,_ZNSt10filesystem7__cxx114pathC2ERKS1_ _ZNSt7__cxx1112basic_stringIcSt11char_traitsIcESaIcEEC1ERKS4_ 12
_ZNSt10filesystem7__cxx114pathC1ERKS1_,_ZNSt10filesystem7__cxx114pathC2ERKS1_ _ZNSt12_Vector_baseINSt10filesystem7__cxx114path5_CmptESaIS3_EE11_M_allocateEj.isra.83 56
_ZNSt10filesystem7__cxx114pathC1ERKS1_,_ZNSt10filesystem7__cxx114pathC2ERKS1_ _ZNSt20__uninitialized_copyILb0EE13__uninit_copyIN9__gnu_cxx17__normal_iteratorIPKNSt10filesystem7__cxx114path5_CmptESt6vectorIS7_SaIS7_EEEEPS7_EET0_T_SG_SF_ 84
_ZNSt10filesystem7__cxx114pathC1ERKS1_,_ZNSt10filesystem7__cxx114pathC2ERKS1_ _ZNSt12_Vector_baseINSt10filesystem7__cxx114path5_CmptESaIS3_EE13_M_deallocateEPS3_j.isra.58 96
_ZNSt10filesystem7__cxx114pathC1ERKS1_,_ZNSt10filesystem7__cxx114pathC2ERKS1_ _ZNSt7__cxx1112basic_stringIcSt11char_traitsIcESaIcEE10_M_disposeEv 104
_ZNSt10filesystem7__cxx114pathC1ERKS1_,_ZNSt10filesystem7__cxx114pathC2ERKS1_ __cxa_end_cleanup 108
_ZNSt6vectorINSt10filesystem7__cxx114path5_CmptESaIS3_EEaSERKS5_ _ZNSt12_Vector_baseINSt10filesystem7__cxx114path5_CmptESaIS3_EE11_M_allocateEj.isra.83 72
_ZNSt6vectorINSt10filesystem7__cxx114path5_CmptESaIS3_EEaSERKS5_ _ZNSt20__uninitialized_copyILb0EE13__uninit_copyIN9__gnu_cxx17__normal_iteratorIPKNSt10filesystem7__cxx114path5_CmptESt6vectorIS7_SaIS7_EEEEPS7_EET0_T_SG_SF_ 92
_ZNSt6vectorINSt10filesystem7__cxx114path5_CmptESaIS3_EEaSERKS5_ _ZNSt12_Destroy_auxILb0EE9__destroyIPNSt10filesystem7__cxx114path5_CmptEEEvT_S7_ 100
_ZNSt6vectorINSt10filesystem7__cxx114path5_CmptESaIS3_EEaSERKS5_ _ZNSt12_Vector_baseINSt10filesystem7__cxx114path5_CmptESaIS3_EE13_M_deallocateEPS3_j.isra.58 108
_ZNSt6vectorINSt10filesystem7__cxx114path5_CmptESaIS3_EEaSERKS5_ __cxa_begin_catch 144
_ZNSt6vectorINSt10filesystem7__cxx114path5_CmptESaIS3_EEaSERKS5_ _ZNSt12_Vector_baseINSt10filesystem7__cxx114path5_CmptESaIS3_EE13_M_deallocateEPS3_j.isra.58 152
_ZNSt6vectorINSt10filesystem7__cxx114path5_CmptESaIS3_EEaSERKS5_ __cxa_rethrow 156
_ZNSt6vectorINSt10filesystem7__cxx114path5_CmptESaIS3_EEaSERKS5_ __cxa_end_catch 160
_ZNSt6vectorINSt10filesystem7__cxx114path5_CmptESaIS3_EEaSERKS5_ __cxa_end_cleanup 164
_ZNSt6vectorINSt10filesystem7__cxx114path5_CmptESaIS3_EEaSERKS5_ _ZNSt10filesystem7__cxx114pathaSERKS1_ 216
_ZNSt6vectorINSt10filesystem7__cxx114path5_CmptESaIS3_EEaSERKS5_ _ZNSt10filesystem7__cxx114pathD2Ev 276
_ZNSt6vectorINSt10filesystem7__cxx114path5_CmptESaIS3_EEaSERKS5_ _ZNSt10filesystem7__cxx114pathaSERKS1_ 300
_ZNSt6vectorINSt10filesystem7__cxx114path5_CmptESaIS3_EEaSERKS5_ _ZNSt10filesystem7__cxx114pathC2ERKS1_ 368
_ZNSt6vectorINSt10filesystem7__cxx114path5_CmptESaIS3_EEaSERKS5_ __cxa_begin_catch 392
_ZNSt6vectorINSt10filesystem7__cxx114path5_CmptESaIS3_EEaSERKS5_ _ZNSt12_Destroy_auxILb0EE9__destroyIPNSt10filesystem7__cxx114path5_CmptEEEvT_S7_ 404
_ZNSt6vectorINSt10filesystem7__cxx114path5_CmptESaIS3_EEaSERKS5_ __cxa_rethrow 408
_ZNSt6vectorINSt10filesystem7__cxx114path5_CmptESaIS3_EEaSERKS5_ __cxa_end_catch 412
_ZNSt10filesystem7__cxx114pathaSERKS1_ _ZNSt7__cxx1112basic_stringIcSt11char_traitsIcESaIcEE9_M_createERjj.isra.64 60
_ZNSt10filesystem7__cxx114pathaSERKS1_ _ZNSt7__cxx1112basic_stringIcSt11char_traitsIcESaIcEE10_M_disposeEv 72
_ZNSt10filesystem7__cxx114pathaSERKS1_ _ZNSt7__cxx1112basic_stringIcSt11char_traitsIcESaIcEE7_S_copyEPcPKcj 108
_ZNSt10filesystem7__cxx114pathaSERKS1_ _ZNSt6vectorINSt10filesystem7__cxx114path5_CmptESaIS3_EEaSERKS5_ 136
_ZNSt10filesystem7__cxx114_DirC1ERKNS0_4pathEbRSt10error_code,_ZNSt10filesystem7__cxx114_DirC2ERKNS0_4pathEbRSt10error_code _ZNSt10filesystem9_Dir_baseC2EPKcbRSt10error_code 28
_ZNSt10filesystem7__cxx114_DirC1ERKNS0_4pathEbRSt10error_code,_ZNSt10filesystem7__cxx114_DirC2ERKNS0_4pathEbRSt10error_code _ZNSt10filesystem7__cxx114pathC1Ev 36
_ZNSt10filesystem7__cxx114_DirC1ERKNS0_4pathEbRSt10error_code,_ZNSt10filesystem7__cxx114_DirC2ERKNS0_4pathEbRSt10error_code _ZNSt10filesystem7__cxx114pathC1Ev 44
_ZNSt10filesystem7__cxx114_DirC1ERKNS0_4pathEbRSt10error_code,_ZNSt10filesystem7__cxx114_DirC2ERKNS0_4pathEbRSt10error_code _ZNSt10filesystem7__cxx114pathaSERKS1_ 76
_ZNSt10filesystem7__cxx114_DirC1ERKNS0_4pathEbRSt10error_code,_ZNSt10filesystem7__cxx114_DirC2ERKNS0_4pathEbRSt10error_code _ZNSt10filesystem7__cxx114pathD1Ev 88
_ZNSt10filesystem7__cxx114_DirC1ERKNS0_4pathEbRSt10error_code,_ZNSt10filesystem7__cxx114_DirC2ERKNS0_4pathEbRSt10error_code _ZNSt10filesystem7__cxx114pathD1Ev 96
_ZNSt10filesystem7__cxx114_DirC1ERKNS0_4pathEbRSt10error_code,_ZNSt10filesystem7__cxx114_DirC2ERKNS0_4pathEbRSt10error_code _ZNSt10filesystem9_Dir_baseD2Ev 104
_ZNSt10filesystem7__cxx114_DirC1ERKNS0_4pathEbRSt10error_code,_ZNSt10filesystem7__cxx114_DirC2ERKNS0_4pathEbRSt10error_code __cxa_end_cleanup 108
_ZNSt10filesystem7__cxx114_Dir7advanceEbRSt10error_code _ZNSt3_V215system_categoryEv 24
_ZNSt10filesystem7__cxx114_Dir7advanceEbRSt10error_code __errno_location 32
_ZNSt10filesystem7__cxx114_Dir7advanceEbRSt10error_code readdir64 80
_ZNSt10filesystem7__cxx114_Dir7advanceEbRSt10error_code strcmp 112
_ZNSt10filesystem7__cxx114_Dir7advanceEbRSt10error_code strcmp 132
_ZNSt10filesystem7__cxx114_Dir7advanceEbRSt10error_code _ZNSt7__cxx1112basic_stringIcSt11char_traitsIcESaIcEEC1IS3_EEPKcRKS3_ 196
_ZNSt10filesystem7__cxx114_Dir7advanceEbRSt10error_code _ZNSt10filesystem7__cxx114path14_M_split_cmptsEv 228
_ZNSt10filesystem7__cxx114_Dir7advanceEbRSt10error_code _ZNSt3_V216generic_categoryEv 264
_ZNSt10filesystem7__cxx114_Dir7advanceEbRSt10error_code memset 304
_ZNSt10filesystem7__cxx114_Dir7advanceEbRSt10error_code _ZNSt10filesystem7__cxx114pathC1Ev 312
_ZNSt10filesystem7__cxx114_Dir7advanceEbRSt10error_code _ZNSt10filesystem7__cxx114pathaSEOS1_.part.72 328
_ZNSt10filesystem7__cxx114_Dir7advanceEbRSt10error_code _ZNSt10filesystem7__cxx114pathD1Ev 344
_ZNSt10filesystem7__cxx114_Dir7advanceEbRSt10error_code _ZNSt10filesystem7__cxx114pathC1ERKS1_ 368
_ZNSt10filesystem7__cxx114_Dir7advanceEbRSt10error_code _ZNKSt10filesystem7__cxx114path18has_root_directoryEv 376
_ZNSt10filesystem7__cxx114_Dir7advanceEbRSt10error_code _ZNSt10filesystem7__cxx114pathaSERKS1_ 396
_ZNSt10filesystem7__cxx114_Dir7advanceEbRSt10error_code _ZNSt6vectorINSt10filesystem7__cxx114path5_CmptESaIS3_EED1Ev 408
_ZNSt10filesystem7__cxx114_Dir7advanceEbRSt10error_code _ZNSt7__cxx1112basic_stringIcSt11char_traitsIcESaIcEE10_M_disposeEv 416
_ZNSt10filesystem7__cxx114_Dir7advanceEbRSt10error_code _ZSt9terminatev 420
_ZNSt10filesystem7__cxx114_Dir7advanceEbRSt10error_code _ZNSt10filesystem7__cxx114pathC1ERKS1_ 432
_ZNSt10filesystem7__cxx114_Dir7advanceEbRSt10error_code _ZNSt10filesystem7__cxx114pathaSEOS1_.part.72 448
_ZNSt10filesystem7__cxx114_Dir7advanceEbRSt10error_code _ZNSt10filesystem7__cxx114pathD1Ev 464
_ZNSt10filesystem7__cxx114_Dir7advanceEbRSt10error_code _ZNSt10filesystem7__cxx114pathD1Ev 472
_ZNSt10filesystem7__cxx114_Dir7advanceEbRSt10error_code _ZNSt10filesystem7__cxx114pathD1Ev 480
_ZNSt10filesystem7__cxx114_Dir7advanceEbRSt10error_code _ZNKSt10filesystem7__cxx114path12has_filenameEv 500
_ZNSt10filesystem7__cxx114_Dir7advanceEbRSt10error_code _ZNSt7__cxx1112basic_stringIcSt11char_traitsIcESaIcEE9_M_appendEPKcj 600
_ZNSt10filesystem7__cxx114_Dir7advanceEbRSt10error_code _ZNSt7__cxx1112basic_stringIcSt11char_traitsIcESaIcEE9_M_mutateEjjPKcj 632
_ZNSt10filesystem7__cxx114_Dir7advanceEbRSt10error_code _ZNSt10filesystem7__cxx114path14_M_split_cmptsEv 644
_ZNSt10filesystem7__cxx114_Dir7advanceEbRSt10error_code _ZNSt10filesystem7__cxx114pathD1Ev 656
_ZNSt10filesystem7__cxx114_Dir7advanceEbRSt10error_code .LC2 664
_ZNSt10filesystem7__cxx114_Dir7advanceEbRSt10error_code .LC3 668
_ZNSt10filesystem7__cxx1128recursive_directory_iterator3popERSt10error_code _ZNSt3_V216generic_categoryEv 32
_ZNSt10filesystem7__cxx1128recursive_directory_iterator3popERSt10error_code _ZNSt5dequeINSt10filesystem7__cxx114_DirESaIS2_EE4backEv 52
_ZNSt10filesystem7__cxx1128recursive_directory_iterator3popERSt10error_code _ZNSt10filesystem7__cxx114_Dir7advanceEbRSt10error_code 64
_ZNSt10filesystem7__cxx1128recursive_directory_iterator3popERSt10error_code _ZNSt5dequeINSt10filesystem7__cxx114_DirESaIS2_EE8pop_backEv 80
_ZNSt10filesystem7__cxx1128recursive_directory_iterator3popERSt10error_code _ZNSt12__shared_ptrINSt10filesystem7__cxx1128recursive_directory_iterator10_Dir_stackELN9__gnu_cxx12_Lock_policyE2EE5resetEv 108
_ZNSt10filesystem7__cxx1128recursive_directory_iterator3popERSt10error_code _ZNSt3_V215system_categoryEv 112
_ZNSt10filesystem7__cxx1118directory_iterator9incrementERSt10error_code _ZNSt3_V216generic_categoryEv 24
_ZNSt10filesystem7__cxx1118directory_iterator9incrementERSt10error_code _ZNSt10filesystem7__cxx114_Dir7advanceEbRSt10error_code 56
_ZNSt10filesystem7__cxx1118directory_iterator9incrementERSt10error_code _ZNSt12__shared_ptrINSt10filesystem7__cxx114_DirELN9__gnu_cxx12_Lock_policyE2EE5resetEv 72
_ZNSt10filesystem7__cxx1116filesystem_errorC1ERKNSt7__cxx1112basic_stringIcSt11char_traitsIcESaIcEEESt10error_code,_ZNSt10filesystem7__cxx1116filesystem_errorC2ERKNSt7__cxx1112basic_stringIcSt11char_traitsIcESaIcEEESt10error_code _ZNSt12system_errorC2ESt10error_codeRKNSt7__cxx1112basic_stringIcSt11char_traitsIcESaIcEEE 32
_ZNSt10filesystem7__cxx1116filesystem_errorC1ERKNSt7__cxx1112basic_stringIcSt11char_traitsIcESaIcEEESt10error_code,_ZNSt10filesystem7__cxx1116filesystem_errorC2ERKNSt7__cxx1112basic_stringIcSt11char_traitsIcESaIcEEESt10error_code _ZNSt10filesystem7__cxx114pathC1Ev 64
_ZNSt10filesystem7__cxx1116filesystem_errorC1ERKNSt7__cxx1112basic_stringIcSt11char_traitsIcESaIcEEESt10error_code,_ZNSt10filesystem7__cxx1116filesystem_errorC2ERKNSt7__cxx1112basic_stringIcSt11char_traitsIcESaIcEEESt10error_code _ZNSt10filesystem7__cxx114pathC1Ev 72
_ZNSt10filesystem7__cxx1116filesystem_errorC1ERKNSt7__cxx1112basic_stringIcSt11char_traitsIcESaIcEEESt10error_code,_ZNSt10filesystem7__cxx1116filesystem_errorC2ERKNSt7__cxx1112basic_stringIcSt11char_traitsIcESaIcEEESt10error_code _ZNSt10filesystem7__cxx1116filesystem_error11_M_gen_whatEv 84
_ZNSt10filesystem7__cxx1116filesystem_errorC1ERKNSt7__cxx1112basic_stringIcSt11char_traitsIcESaIcEEESt10error_code,_ZNSt10filesystem7__cxx1116filesystem_errorC2ERKNSt7__cxx1112basic_stringIcSt11char_traitsIcESaIcEEESt10error_code _ZNSt10filesystem7__cxx114pathD1Ev 96
_ZNSt10filesystem7__cxx1116filesystem_errorC1ERKNSt7__cxx1112basic_stringIcSt11char_traitsIcESaIcEEESt10error_code,_ZNSt10filesystem7__cxx1116filesystem_errorC2ERKNSt7__cxx1112basic_stringIcSt11char_traitsIcESaIcEEESt10error_code _ZNSt10filesystem7__cxx114pathD1Ev 104
_ZNSt10filesystem7__cxx1116filesystem_errorC1ERKNSt7__cxx1112basic_stringIcSt11char_traitsIcESaIcEEESt10error_code,_ZNSt10filesystem7__cxx1116filesystem_errorC2ERKNSt7__cxx1112basic_stringIcSt11char_traitsIcESaIcEEESt10error_code _ZNSt12system_errorD2Ev 112
_ZNSt10filesystem7__cxx1116filesystem_errorC1ERKNSt7__cxx1112basic_stringIcSt11char_traitsIcESaIcEEESt10error_code,_ZNSt10filesystem7__cxx1116filesystem_errorC2ERKNSt7__cxx1112basic_stringIcSt11char_traitsIcESaIcEEESt10error_code __cxa_end_cleanup 116
_ZNSt10filesystem7__cxx1116filesystem_errorC1ERKNSt7__cxx1112basic_stringIcSt11char_traitsIcESaIcEEESt10error_code,_ZNSt10filesystem7__cxx1116filesystem_errorC2ERKNSt7__cxx1112basic_stringIcSt11char_traitsIcESaIcEEESt10error_code _ZTVNSt10filesystem7__cxx1116filesystem_errorE 136
_ZNKSt10filesystem7__cxx1118directory_iteratordeEv __cxa_allocate_exception 36
_ZNKSt10filesystem7__cxx1118directory_iteratordeEv _ZNSt7__cxx1112basic_stringIcSt11char_traitsIcESaIcEEC1IS3_EEPKcRKS3_ 60
_ZNKSt10filesystem7__cxx1118directory_iteratordeEv _ZNSt3_V216generic_categoryEv 64
_ZNKSt10filesystem7__cxx1118directory_iteratordeEv _ZNSt10filesystem7__cxx1116filesystem_errorC1ERKNSt7__cxx1112basic_stringIcSt11char_traitsIcESaIcEEESt10error_code 96
_ZNKSt10filesystem7__cxx1118directory_iteratordeEv _ZNSt7__cxx1112basic_stringIcSt11char_traitsIcESaIcEE10_M_disposeEv 104
_ZNKSt10filesystem7__cxx1118directory_iteratordeEv __cxa_throw 144
_ZNKSt10filesystem7__cxx1118directory_iteratordeEv _ZNSt7__cxx1112basic_stringIcSt11char_traitsIcESaIcEE10_M_disposeEv 152
_ZNKSt10filesystem7__cxx1118directory_iteratordeEv __cxa_free_exception 160
_ZNKSt10filesystem7__cxx1118directory_iteratordeEv __cxa_end_cleanup 164
_ZNKSt10filesystem7__cxx1118directory_iteratordeEv .LC7 188
_ZNKSt10filesystem7__cxx1118directory_iteratordeEv _ZNSt10filesystem7__cxx1116filesystem_errorD1Ev 192
_ZNKSt10filesystem7__cxx1118directory_iteratordeEv _ZTINSt10filesystem7__cxx1116filesystem_errorE 196
_ZNSt10filesystem7__cxx114_Dir7advanceEb _ZNSt3_V215system_categoryEv 28
_ZNSt10filesystem7__cxx114_Dir7advanceEb _ZNSt10filesystem7__cxx114_Dir7advanceEbRSt10error_code 48
_ZNSt10filesystem7__cxx114_Dir7advanceEb __cxa_allocate_exception 80
_ZNSt10filesystem7__cxx114_Dir7advanceEb _ZNSt7__cxx1112basic_stringIcSt11char_traitsIcESaIcEEC1IS3_EEPKcRKS3_ 104
_ZNSt10filesystem7__cxx114_Dir7advanceEb _ZNSt10filesystem7__cxx1116filesystem_errorC1ERKNSt7__cxx1112basic_stringIcSt11char_traitsIcESaIcEEESt10error_code 120
_ZNSt10filesystem7__cxx114_Dir7advanceEb _ZNSt7__cxx1112basic_stringIcSt11char_traitsIcESaIcEE10_M_disposeEv 128
_ZNSt10filesystem7__cxx114_Dir7advanceEb __cxa_throw 168
_ZNSt10filesystem7__cxx114_Dir7advanceEb _ZNSt7__cxx1112basic_stringIcSt11char_traitsIcESaIcEE10_M_disposeEv 176
_ZNSt10filesystem7__cxx114_Dir7advanceEb __cxa_free_exception 184
_ZNSt10filesystem7__cxx114_Dir7advanceEb __cxa_end_cleanup 188
_ZNSt10filesystem7__cxx114_Dir7advanceEb .LC8 208
_ZNSt10filesystem7__cxx114_Dir7advanceEb _ZNSt10filesystem7__cxx1116filesystem_errorD1Ev 212
_ZNSt10filesystem7__cxx114_Dir7advanceEb _ZTINSt10filesystem7__cxx1116filesystem_errorE 216
_ZNSt10filesystem7__cxx1118directory_iteratorppEv __cxa_allocate_exception 40
_ZNSt10filesystem7__cxx1118directory_iteratorppEv _ZNSt7__cxx1112basic_stringIcSt11char_traitsIcESaIcEEC1IS3_EEPKcRKS3_ 64
_ZNSt10filesystem7__cxx1118directory_iteratorppEv _ZNSt3_V216generic_categoryEv 68
_ZNSt10filesystem7__cxx1118directory_iteratorppEv _ZNSt10filesystem7__cxx1116filesystem_errorC1ERKNSt7__cxx1112basic_stringIcSt11char_traitsIcESaIcEEESt10error_code 100
_ZNSt10filesystem7__cxx1118directory_iteratorppEv _ZNSt7__cxx1112basic_stringIcSt11char_traitsIcESaIcEE10_M_disposeEv 108
_ZNSt10filesystem7__cxx1118directory_iteratorppEv __cxa_throw 148
_ZNSt10filesystem7__cxx1118directory_iteratorppEv _ZNSt10filesystem7__cxx114_Dir7advanceEb 156
_ZNSt10filesystem7__cxx1118directory_iteratorppEv _ZNSt12__shared_ptrINSt10filesystem7__cxx114_DirELN9__gnu_cxx12_Lock_policyE2EE5resetEv 172
_ZNSt10filesystem7__cxx1118directory_iteratorppEv _ZNSt7__cxx1112basic_stringIcSt11char_traitsIcESaIcEE10_M_disposeEv 192
_ZNSt10filesystem7__cxx1118directory_iteratorppEv __cxa_free_exception 200
_ZNSt10filesystem7__cxx1118directory_iteratorppEv __cxa_end_cleanup 204
_ZNSt10filesystem7__cxx1118directory_iteratorppEv .LC9 216
_ZNSt10filesystem7__cxx1118directory_iteratorppEv _ZNSt10filesystem7__cxx1116filesystem_errorD1Ev 220
_ZNSt10filesystem7__cxx1118directory_iteratorppEv _ZTINSt10filesystem7__cxx1116filesystem_errorE 224
_ZNSt10filesystem7__cxx1128recursive_directory_iterator3popEv _ZNSt3_V215system_categoryEv 24
_ZNSt10filesystem7__cxx1128recursive_directory_iterator3popEv _ZNSt10filesystem7__cxx1128recursive_directory_iterator3popERSt10error_code 44
_ZNSt10filesystem7__cxx1128recursive_directory_iterator3popEv __cxa_allocate_exception 68
_ZNSt10filesystem7__cxx1128recursive_directory_iterator3popEv _ZNSt7__cxx1112basic_stringIcSt11char_traitsIcESaIcEEC1IS3_EEPKcRKS3_ 108
_ZNSt10filesystem7__cxx1128recursive_directory_iterator3popEv _ZNSt10filesystem7__cxx1116filesystem_errorC1ERKNSt7__cxx1112basic_stringIcSt11char_traitsIcESaIcEEESt10error_code 140
_ZNSt10filesystem7__cxx1128recursive_directory_iterator3popEv _ZNSt7__cxx1112basic_stringIcSt11char_traitsIcESaIcEE10_M_disposeEv 148
_ZNSt10filesystem7__cxx1128recursive_directory_iterator3popEv __cxa_throw 188
_ZNSt10filesystem7__cxx1128recursive_directory_iterator3popEv _ZNSt7__cxx1112basic_stringIcSt11char_traitsIcESaIcEE10_M_disposeEv 196
_ZNSt10filesystem7__cxx1128recursive_directory_iterator3popEv __cxa_free_exception 204
_ZNSt10filesystem7__cxx1128recursive_directory_iterator3popEv __cxa_end_cleanup 208
_ZNSt10filesystem7__cxx1128recursive_directory_iterator3popEv .LC11 228
_ZNSt10filesystem7__cxx1128recursive_directory_iterator3popEv .LC10 232
_ZNSt10filesystem7__cxx1128recursive_directory_iterator3popEv _ZNSt10filesystem7__cxx1116filesystem_errorD1Ev 236
_ZNSt10filesystem7__cxx1128recursive_directory_iterator3popEv _ZTINSt10filesystem7__cxx1116filesystem_errorE 240
_ZNSt10filesystem7__cxx1116filesystem_errorC1ERKNSt7__cxx1112basic_stringIcSt11char_traitsIcESaIcEEERKNS0_4pathESt10error_code,_ZNSt10filesystem7__cxx1116filesystem_errorC2ERKNSt7__cxx1112basic_stringIcSt11char_traitsIcESaIcEEERKNS0_4pathESt10error_code _ZNSt12system_errorC2ESt10error_codeRKNSt7__cxx1112basic_stringIcSt11char_traitsIcESaIcEEE 40
_ZNSt10filesystem7__cxx1116filesystem_errorC1ERKNSt7__cxx1112basic_stringIcSt11char_traitsIcESaIcEEERKNS0_4pathESt10error_code,_ZNSt10filesystem7__cxx1116filesystem_errorC2ERKNSt7__cxx1112basic_stringIcSt11char_traitsIcESaIcEEERKNS0_4pathESt10error_code _ZNSt10filesystem7__cxx114pathC1ERKS1_ 72
_ZNSt10filesystem7__cxx1116filesystem_errorC1ERKNSt7__cxx1112basic_stringIcSt11char_traitsIcESaIcEEERKNS0_4pathESt10error_code,_ZNSt10filesystem7__cxx1116filesystem_errorC2ERKNSt7__cxx1112basic_stringIcSt11char_traitsIcESaIcEEERKNS0_4pathESt10error_code _ZNSt10filesystem7__cxx114pathC1Ev 84
_ZNSt10filesystem7__cxx1116filesystem_errorC1ERKNSt7__cxx1112basic_stringIcSt11char_traitsIcESaIcEEERKNS0_4pathESt10error_code,_ZNSt10filesystem7__cxx1116filesystem_errorC2ERKNSt7__cxx1112basic_stringIcSt11char_traitsIcESaIcEEERKNS0_4pathESt10error_code _ZNSt10filesystem7__cxx1116filesystem_error11_M_gen_whatEv 96
_ZNSt10filesystem7__cxx1116filesystem_errorC1ERKNSt7__cxx1112basic_stringIcSt11char_traitsIcESaIcEEERKNS0_4pathESt10error_code,_ZNSt10filesystem7__cxx1116filesystem_errorC2ERKNSt7__cxx1112basic_stringIcSt11char_traitsIcESaIcEEERKNS0_4pathESt10error_code _ZNSt10filesystem7__cxx114pathD1Ev 108
_ZNSt10filesystem7__cxx1116filesystem_errorC1ERKNSt7__cxx1112basic_stringIcSt11char_traitsIcESaIcEEERKNS0_4pathESt10error_code,_ZNSt10filesystem7__cxx1116filesystem_errorC2ERKNSt7__cxx1112basic_stringIcSt11char_traitsIcESaIcEEERKNS0_4pathESt10error_code _ZNSt10filesystem7__cxx114pathD1Ev 116
_ZNSt10filesystem7__cxx1116filesystem_errorC1ERKNSt7__cxx1112basic_stringIcSt11char_traitsIcESaIcEEERKNS0_4pathESt10error_code,_ZNSt10filesystem7__cxx1116filesystem_errorC2ERKNSt7__cxx1112basic_stringIcSt11char_traitsIcESaIcEEERKNS0_4pathESt10error_code _ZNSt12system_errorD2Ev 124
_ZNSt10filesystem7__cxx1116filesystem_errorC1ERKNSt7__cxx1112basic_stringIcSt11char_traitsIcESaIcEEERKNS0_4pathESt10error_code,_ZNSt10filesystem7__cxx1116filesystem_errorC2ERKNSt7__cxx1112basic_stringIcSt11char_traitsIcESaIcEEERKNS0_4pathESt10error_code __cxa_end_cleanup 128
_ZNSt10filesystem7__cxx1116filesystem_errorC1ERKNSt7__cxx1112basic_stringIcSt11char_traitsIcESaIcEEERKNS0_4pathESt10error_code,_ZNSt10filesystem7__cxx1116filesystem_errorC2ERKNSt7__cxx1112basic_stringIcSt11char_traitsIcESaIcEEERKNS0_4pathESt10error_code _ZTVNSt10filesystem7__cxx1116filesystem_errorE 156
_ZNSt10filesystem7__cxx114_DirC1EOS1_,_ZNSt10filesystem7__cxx114_DirC2EOS1_ _ZNSt10filesystem7__cxx114pathC1EOS1_ 28
_ZNSt10filesystem7__cxx114_DirC1EOS1_,_ZNSt10filesystem7__cxx114_DirC2EOS1_ _ZNSt10filesystem7__cxx114pathC1EOS1_ 40
_ZNSt10filesystem7__cxx1118directory_iteratorC1ERKNS0_4pathENS_17directory_optionsEPSt10error_code,_ZNSt10filesystem7__cxx1118directory_iteratorC2ERKNS0_4pathENS_17directory_optionsEPSt10error_code _ZNSt3_V215system_categoryEv 56
_ZNSt10filesystem7__cxx1118directory_iteratorC1ERKNS0_4pathENS_17directory_optionsEPSt10error_code,_ZNSt10filesystem7__cxx1118directory_iteratorC2ERKNS0_4pathENS_17directory_optionsEPSt10error_code _ZNSt10filesystem7__cxx114_DirC1ERKNS0_4pathEbRSt10error_code 80
_ZNSt10filesystem7__cxx1118directory_iteratorC1ERKNS0_4pathENS_17directory_optionsEPSt10error_code,_ZNSt10filesystem7__cxx1118directory_iteratorC2ERKNS0_4pathENS_17directory_optionsEPSt10error_code _Znwj 104
_ZNSt10filesystem7__cxx1118directory_iteratorC1ERKNS0_4pathENS_17directory_optionsEPSt10error_code,_ZNSt10filesystem7__cxx1118directory_iteratorC2ERKNS0_4pathENS_17directory_optionsEPSt10error_code _ZNSt10filesystem7__cxx114_DirC1EOS1_ 152
_ZNSt10filesystem7__cxx1118directory_iteratorC1ERKNS0_4pathENS_17directory_optionsEPSt10error_code,_ZNSt10filesystem7__cxx1118directory_iteratorC2ERKNS0_4pathENS_17directory_optionsEPSt10error_code _ZNSt10filesystem7__cxx114_Dir7advanceEbRSt10error_code 180
_ZNSt10filesystem7__cxx1118directory_iteratorC1ERKNS0_4pathENS_17directory_optionsEPSt10error_code,_ZNSt10filesystem7__cxx1118directory_iteratorC2ERKNS0_4pathENS_17directory_optionsEPSt10error_code _ZNSt14__shared_countILN9__gnu_cxx12_Lock_policyE2EED1Ev 228
_ZNSt10filesystem7__cxx1118directory_iteratorC1ERKNS0_4pathENS_17directory_optionsEPSt10error_code,_ZNSt10filesystem7__cxx1118directory_iteratorC2ERKNS0_4pathENS_17directory_optionsEPSt10error_code _ZNSt10filesystem7__cxx114_DirD1Ev 252
_ZNSt10filesystem7__cxx1118directory_iteratorC1ERKNS0_4pathENS_17directory_optionsEPSt10error_code,_ZNSt10filesystem7__cxx1118directory_iteratorC2ERKNS0_4pathENS_17directory_optionsEPSt10error_code __cxa_allocate_exception 288
_ZNSt10filesystem7__cxx1118directory_iteratorC1ERKNS0_4pathENS_17directory_optionsEPSt10error_code,_ZNSt10filesystem7__cxx1118directory_iteratorC2ERKNS0_4pathENS_17directory_optionsEPSt10error_code _ZNSt7__cxx1112basic_stringIcSt11char_traitsIcESaIcEEC1IS3_EEPKcRKS3_ 312
_ZNSt10filesystem7__cxx1118directory_iteratorC1ERKNS0_4pathENS_17directory_optionsEPSt10error_code,_ZNSt10filesystem7__cxx1118directory_iteratorC2ERKNS0_4pathENS_17directory_optionsEPSt10error_code _ZNSt10filesystem7__cxx1116filesystem_errorC1ERKNSt7__cxx1112basic_stringIcSt11char_traitsIcESaIcEEERKNS0_4pathESt10error_code 340
_ZNSt10filesystem7__cxx1118directory_iteratorC1ERKNS0_4pathENS_17directory_optionsEPSt10error_code,_ZNSt10filesystem7__cxx1118directory_iteratorC2ERKNS0_4pathENS_17directory_optionsEPSt10error_code _ZNSt7__cxx1112basic_stringIcSt11char_traitsIcESaIcEE10_M_disposeEv 348
_ZNSt10filesystem7__cxx1118directory_iteratorC1ERKNS0_4pathENS_17directory_optionsEPSt10error_code,_ZNSt10filesystem7__cxx1118directory_iteratorC2ERKNS0_4pathENS_17directory_optionsEPSt10error_code __cxa_throw 388
_ZNSt10filesystem7__cxx1118directory_iteratorC1ERKNS0_4pathENS_17directory_optionsEPSt10error_code,_ZNSt10filesystem7__cxx1118directory_iteratorC2ERKNS0_4pathENS_17directory_optionsEPSt10error_code _ZNSt7__cxx1112basic_stringIcSt11char_traitsIcESaIcEE10_M_disposeEv 400
_ZNSt10filesystem7__cxx1118directory_iteratorC1ERKNS0_4pathENS_17directory_optionsEPSt10error_code,_ZNSt10filesystem7__cxx1118directory_iteratorC2ERKNS0_4pathENS_17directory_optionsEPSt10error_code __cxa_free_exception 408
_ZNSt10filesystem7__cxx1118directory_iteratorC1ERKNS0_4pathENS_17directory_optionsEPSt10error_code,_ZNSt10filesystem7__cxx1118directory_iteratorC2ERKNS0_4pathENS_17directory_optionsEPSt10error_code _ZNSt10filesystem7__cxx114_DirD1Ev 416
_ZNSt10filesystem7__cxx1118directory_iteratorC1ERKNS0_4pathENS_17directory_optionsEPSt10error_code,_ZNSt10filesystem7__cxx1118directory_iteratorC2ERKNS0_4pathENS_17directory_optionsEPSt10error_code _ZNSt14__shared_countILN9__gnu_cxx12_Lock_policyE2EED1Ev 424
_ZNSt10filesystem7__cxx1118directory_iteratorC1ERKNS0_4pathENS_17directory_optionsEPSt10error_code,_ZNSt10filesystem7__cxx1118directory_iteratorC2ERKNS0_4pathENS_17directory_optionsEPSt10error_code __cxa_end_cleanup 428
_ZNSt10filesystem7__cxx1118directory_iteratorC1ERKNS0_4pathENS_17directory_optionsEPSt10error_code,_ZNSt10filesystem7__cxx1118directory_iteratorC2ERKNS0_4pathENS_17directory_optionsEPSt10error_code _ZTVSt23_Sp_counted_ptr_inplaceINSt10filesystem7__cxx114_DirESaIS2_ELN9__gnu_cxx12_Lock_policyE2EE 444
_ZNSt10filesystem7__cxx1118directory_iteratorC1ERKNS0_4pathENS_17directory_optionsEPSt10error_code,_ZNSt10filesystem7__cxx1118directory_iteratorC2ERKNS0_4pathENS_17directory_optionsEPSt10error_code .LC12 448
_ZNSt10filesystem7__cxx1118directory_iteratorC1ERKNS0_4pathENS_17directory_optionsEPSt10error_code,_ZNSt10filesystem7__cxx1118directory_iteratorC2ERKNS0_4pathENS_17directory_optionsEPSt10error_code _ZNSt10filesystem7__cxx1116filesystem_errorD1Ev 452
_ZNSt10filesystem7__cxx1118directory_iteratorC1ERKNS0_4pathENS_17directory_optionsEPSt10error_code,_ZNSt10filesystem7__cxx1118directory_iteratorC2ERKNS0_4pathENS_17directory_optionsEPSt10error_code _ZTINSt10filesystem7__cxx1116filesystem_errorE 456
_ZNSt5dequeINSt10filesystem7__cxx114_DirESaIS2_EE12emplace_backIJS2_EEERS2_DpOT_ _ZNSt10filesystem7__cxx114_DirC1EOS1_ 28
_ZNSt5dequeINSt10filesystem7__cxx114_DirESaIS2_EE12emplace_backIJS2_EEERS2_DpOT_ _ZNSt5dequeINSt10filesystem7__cxx114_DirESaIS2_EE4backEv 52
_ZNSt5dequeINSt10filesystem7__cxx114_DirESaIS2_EE12emplace_backIJS2_EEERS2_DpOT_ _Znwj 208
_ZNSt5dequeINSt10filesystem7__cxx114_DirESaIS2_EE12emplace_backIJS2_EEERS2_DpOT_ _ZNSt10filesystem7__cxx114_DirC1EOS1_ 224
_ZNSt5dequeINSt10filesystem7__cxx114_DirESaIS2_EE12emplace_backIJS2_EEERS2_DpOT_ memmove 280
_ZNSt5dequeINSt10filesystem7__cxx114_DirESaIS2_EE12emplace_backIJS2_EEERS2_DpOT_ _ZSt17__throw_bad_allocv 316
_ZNSt5dequeINSt10filesystem7__cxx114_DirESaIS2_EE12emplace_backIJS2_EEERS2_DpOT_ _Znwj 332
_ZNSt5dequeINSt10filesystem7__cxx114_DirESaIS2_EE12emplace_backIJS2_EEERS2_DpOT_ memmove 372
_ZNSt5dequeINSt10filesystem7__cxx114_DirESaIS2_EE12emplace_backIJS2_EEERS2_DpOT_ _ZdlPv 380
_ZNSt10filesystem7__cxx1128recursive_directory_iterator9incrementERSt10error_code _ZNSt3_V216generic_categoryEv 28
_ZNSt10filesystem7__cxx1128recursive_directory_iterator9incrementERSt10error_code _ZNSt5dequeINSt10filesystem7__cxx114_DirESaIS2_EE4backEv 56
_ZNSt10filesystem7__cxx1128recursive_directory_iterator9incrementERSt10error_code _ZNSt10filesystem14symlink_statusERKNS_7__cxx114pathERSt10error_code 116
_ZNSt10filesystem7__cxx1128recursive_directory_iterator9incrementERSt10error_code _ZNSt10filesystem7__cxx114_DirC1ERKNS0_4pathEbRSt10error_code 164
_ZNSt10filesystem7__cxx1128recursive_directory_iterator9incrementERSt10error_code _ZNSt12__shared_ptrINSt10filesystem7__cxx1128recursive_directory_iterator10_Dir_stackELN9__gnu_cxx12_Lock_policyE2EE5resetEv 184
_ZNSt10filesystem7__cxx1128recursive_directory_iterator9incrementERSt10error_code _ZNSt10filesystem7__cxx114_DirD1Ev 192
_ZNSt10filesystem7__cxx1128recursive_directory_iterator9incrementERSt10error_code _ZNSt10filesystem6statusERKNS_7__cxx114pathERSt10error_code 232
_ZNSt10filesystem7__cxx1128recursive_directory_iterator9incrementERSt10error_code _ZNSt5dequeINSt10filesystem7__cxx114_DirESaIS2_EE4backEv 252
_ZNSt10filesystem7__cxx1128recursive_directory_iterator9incrementERSt10error_code _ZNSt10filesystem7__cxx114_Dir7advanceEbRSt10error_code 264
_ZNSt10filesystem7__cxx1128recursive_directory_iterator9incrementERSt10error_code _ZNSt5dequeINSt10filesystem7__cxx114_DirESaIS2_EE8pop_backEv 292
_ZNSt10filesystem7__cxx1128recursive_directory_iterator9incrementERSt10error_code _ZNSt12__shared_ptrINSt10filesystem7__cxx1128recursive_directory_iterator10_Dir_stackELN9__gnu_cxx12_Lock_policyE2EE5resetEv 320
_ZNSt10filesystem7__cxx1128recursive_directory_iterator9incrementERSt10error_code _ZNSt10filesystem7__cxx114_DirD1Ev 344
_ZNSt10filesystem7__cxx1128recursive_directory_iterator9incrementERSt10error_code _ZNSt5dequeINSt10filesystem7__cxx114_DirESaIS2_EE12emplace_backIJS2_EEERS2_DpOT_ 360
_ZNSt10filesystem7__cxx1128recursive_directory_iterator9incrementERSt10error_code _ZNSt10filesystem7__cxx114_DirD1Ev 372
_ZNSt10filesystem7__cxx1128recursive_directory_iterator9incrementERSt10error_code __cxa_end_cleanup 376
_ZNSt10filesystem7__cxx1128recursive_directory_iteratorppEv _ZNSt3_V215system_categoryEv 24
_ZNSt10filesystem7__cxx1128recursive_directory_iteratorppEv _ZNSt10filesystem7__cxx1128recursive_directory_iterator9incrementERSt10error_code 44
_ZNSt10filesystem7__cxx1128recursive_directory_iteratorppEv __cxa_allocate_exception 72
_ZNSt10filesystem7__cxx1128recursive_directory_iteratorppEv _ZNSt7__cxx1112basic_stringIcSt11char_traitsIcESaIcEEC1IS3_EEPKcRKS3_ 96
_ZNSt10filesystem7__cxx1128recursive_directory_iteratorppEv _ZNSt10filesystem7__cxx1116filesystem_errorC1ERKNSt7__cxx1112basic_stringIcSt11char_traitsIcESaIcEEESt10error_code 112
_ZNSt10filesystem7__cxx1128recursive_directory_iteratorppEv _ZNSt7__cxx1112basic_stringIcSt11char_traitsIcESaIcEE10_M_disposeEv 120
_ZNSt10filesystem7__cxx1128recursive_directory_iteratorppEv __cxa_throw 160
_ZNSt10filesystem7__cxx1128recursive_directory_iteratorppEv _ZNSt7__cxx1112basic_stringIcSt11char_traitsIcESaIcEE10_M_disposeEv 168
_ZNSt10filesystem7__cxx1128recursive_directory_iteratorppEv __cxa_free_exception 176
_ZNSt10filesystem7__cxx1128recursive_directory_iteratorppEv __cxa_end_cleanup 180
_ZNSt10filesystem7__cxx1128recursive_directory_iteratorppEv .LC13 204
_ZNSt10filesystem7__cxx1128recursive_directory_iteratorppEv _ZNSt10filesystem7__cxx1116filesystem_errorD1Ev 208
_ZNSt10filesystem7__cxx1128recursive_directory_iteratorppEv _ZTINSt10filesystem7__cxx1116filesystem_errorE 212
_ZNSt10filesystem7__cxx1128recursive_directory_iteratorC1ERKNS0_4pathENS_17directory_optionsEPSt10error_code,_ZNSt10filesystem7__cxx1128recursive_directory_iteratorC2ERKNS0_4pathENS_17directory_optionsEPSt10error_code opendir 60
_ZNSt10filesystem7__cxx1128recursive_directory_iteratorC1ERKNS0_4pathENS_17directory_optionsEPSt10error_code,_ZNSt10filesystem7__cxx1128recursive_directory_iteratorC2ERKNS0_4pathENS_17directory_optionsEPSt10error_code _ZNSt3_V215system_categoryEv 80
_ZNSt10filesystem7__cxx1128recursive_directory_iteratorC1ERKNS0_4pathENS_17directory_optionsEPSt10error_code,_ZNSt10filesystem7__cxx1128recursive_directory_iteratorC2ERKNS0_4pathENS_17directory_optionsEPSt10error_code _Znwj 108
_ZNSt10filesystem7__cxx1128recursive_directory_iteratorC1ERKNS0_4pathENS_17directory_optionsEPSt10error_code,_ZNSt10filesystem7__cxx1128recursive_directory_iteratorC2ERKNS0_4pathENS_17directory_optionsEPSt10error_code _Znwj 200
_ZNSt10filesystem7__cxx1128recursive_directory_iteratorC1ERKNS0_4pathENS_17directory_optionsEPSt10error_code,_ZNSt10filesystem7__cxx1128recursive_directory_iteratorC2ERKNS0_4pathENS_17directory_optionsEPSt10error_code _Znwj 236
_ZNSt10filesystem7__cxx1128recursive_directory_iteratorC1ERKNS0_4pathENS_17directory_optionsEPSt10error_code,_ZNSt10filesystem7__cxx1128recursive_directory_iteratorC2ERKNS0_4pathENS_17directory_optionsEPSt10error_code _ZNSt10filesystem7__cxx114pathC1ERKS1_ 316
_ZNSt10filesystem7__cxx1128recursive_directory_iteratorC1ERKNS0_4pathENS_17directory_optionsEPSt10error_code,_ZNSt10filesystem7__cxx1128recursive_directory_iteratorC2ERKNS0_4pathENS_17directory_optionsEPSt10error_code __cxa_begin_catch 324
_ZNSt10filesystem7__cxx1128recursive_directory_iteratorC1ERKNS0_4pathENS_17directory_optionsEPSt10error_code,_ZNSt10filesystem7__cxx1128recursive_directory_iteratorC2ERKNS0_4pathENS_17directory_optionsEPSt10error_code __cxa_rethrow 328
_ZNSt10filesystem7__cxx1128recursive_directory_iteratorC1ERKNS0_4pathENS_17directory_optionsEPSt10error_code,_ZNSt10filesystem7__cxx1128recursive_directory_iteratorC2ERKNS0_4pathENS_17directory_optionsEPSt10error_code __cxa_end_catch 336
_ZNSt10filesystem7__cxx1128recursive_directory_iteratorC1ERKNS0_4pathENS_17directory_optionsEPSt10error_code,_ZNSt10filesystem7__cxx1128recursive_directory_iteratorC2ERKNS0_4pathENS_17directory_optionsEPSt10error_code __cxa_begin_catch 344
_ZNSt10filesystem7__cxx1128recursive_directory_iteratorC1ERKNS0_4pathENS_17directory_optionsEPSt10error_code,_ZNSt10filesystem7__cxx1128recursive_directory_iteratorC2ERKNS0_4pathENS_17directory_optionsEPSt10error_code _ZdlPv 352
_ZNSt10filesystem7__cxx1128recursive_directory_iteratorC1ERKNS0_4pathENS_17directory_optionsEPSt10error_code,_ZNSt10filesystem7__cxx1128recursive_directory_iteratorC2ERKNS0_4pathENS_17directory_optionsEPSt10error_code __cxa_rethrow 368
_ZNSt10filesystem7__cxx1128recursive_directory_iteratorC1ERKNS0_4pathENS_17directory_optionsEPSt10error_code,_ZNSt10filesystem7__cxx1128recursive_directory_iteratorC2ERKNS0_4pathENS_17directory_optionsEPSt10error_code __cxa_end_catch 372
_ZNSt10filesystem7__cxx1128recursive_directory_iteratorC1ERKNS0_4pathENS_17directory_optionsEPSt10error_code,_ZNSt10filesystem7__cxx1128recursive_directory_iteratorC2ERKNS0_4pathENS_17directory_optionsEPSt10error_code _ZdlPv 380
_ZNSt10filesystem7__cxx1128recursive_directory_iteratorC1ERKNS0_4pathENS_17directory_optionsEPSt10error_code,_ZNSt10filesystem7__cxx1128recursive_directory_iteratorC2ERKNS0_4pathENS_17directory_optionsEPSt10error_code _ZNSt14__shared_countILN9__gnu_cxx12_Lock_policyE2EED1Ev 388
_ZNSt10filesystem7__cxx1128recursive_directory_iteratorC1ERKNS0_4pathENS_17directory_optionsEPSt10error_code,_ZNSt10filesystem7__cxx1128recursive_directory_iteratorC2ERKNS0_4pathENS_17directory_optionsEPSt10error_code __cxa_end_cleanup 392
_ZNSt10filesystem7__cxx1128recursive_directory_iteratorC1ERKNS0_4pathENS_17directory_optionsEPSt10error_code,_ZNSt10filesystem7__cxx1128recursive_directory_iteratorC2ERKNS0_4pathENS_17directory_optionsEPSt10error_code _ZNSt10filesystem7__cxx114pathC1Ev 404
_ZNSt10filesystem7__cxx1128recursive_directory_iteratorC1ERKNS0_4pathENS_17directory_optionsEPSt10error_code,_ZNSt10filesystem7__cxx1128recursive_directory_iteratorC2ERKNS0_4pathENS_17directory_optionsEPSt10error_code _ZNSt5dequeINSt10filesystem7__cxx114_DirESaIS2_EE12emplace_backIJS2_EEERS2_DpOT_ 424
_ZNSt10filesystem7__cxx1128recursive_directory_iteratorC1ERKNS0_4pathENS_17directory_optionsEPSt10error_code,_ZNSt10filesystem7__cxx1128recursive_directory_iteratorC2ERKNS0_4pathENS_17directory_optionsEPSt10error_code _ZNSt10filesystem9_Dir_baseD2Ev 436
_ZNSt10filesystem7__cxx1128recursive_directory_iteratorC1ERKNS0_4pathENS_17directory_optionsEPSt10error_code,_ZNSt10filesystem7__cxx1128recursive_directory_iteratorC2ERKNS0_4pathENS_17directory_optionsEPSt10error_code _ZNSt14__shared_countILN9__gnu_cxx12_Lock_policyE2EED1Ev 444
_ZNSt10filesystem7__cxx1128recursive_directory_iteratorC1ERKNS0_4pathENS_17directory_optionsEPSt10error_code,_ZNSt10filesystem7__cxx1128recursive_directory_iteratorC2ERKNS0_4pathENS_17directory_optionsEPSt10error_code _ZNSt10filesystem7__cxx114_DirD1Ev 456
_ZNSt10filesystem7__cxx1128recursive_directory_iteratorC1ERKNS0_4pathENS_17directory_optionsEPSt10error_code,_ZNSt10filesystem7__cxx1128recursive_directory_iteratorC2ERKNS0_4pathENS_17directory_optionsEPSt10error_code _ZNSt5dequeINSt10filesystem7__cxx114_DirESaIS2_EE4backEv 472
_ZNSt10filesystem7__cxx1128recursive_directory_iteratorC1ERKNS0_4pathENS_17directory_optionsEPSt10error_code,_ZNSt10filesystem7__cxx1128recursive_directory_iteratorC2ERKNS0_4pathENS_17directory_optionsEPSt10error_code _ZNSt10filesystem7__cxx114_Dir7advanceEbRSt10error_code 484
_ZNSt10filesystem7__cxx1128recursive_directory_iteratorC1ERKNS0_4pathENS_17directory_optionsEPSt10error_code,_ZNSt10filesystem7__cxx1128recursive_directory_iteratorC2ERKNS0_4pathENS_17directory_optionsEPSt10error_code _ZNSt14__shared_countILN9__gnu_cxx12_Lock_policyE2EED1Ev 532
_ZNSt10filesystem7__cxx1128recursive_directory_iteratorC1ERKNS0_4pathENS_17directory_optionsEPSt10error_code,_ZNSt10filesystem7__cxx1128recursive_directory_iteratorC2ERKNS0_4pathENS_17directory_optionsEPSt10error_code _ZNSt5dequeINSt10filesystem7__cxx114_DirESaIS2_EE4backEv 548
_ZNSt10filesystem7__cxx1128recursive_directory_iteratorC1ERKNS0_4pathENS_17directory_optionsEPSt10error_code,_ZNSt10filesystem7__cxx1128recursive_directory_iteratorC2ERKNS0_4pathENS_17directory_optionsEPSt10error_code _ZNSt10filesystem7__cxx114_Dir7advanceEb 556
_ZNSt10filesystem7__cxx1128recursive_directory_iteratorC1ERKNS0_4pathENS_17directory_optionsEPSt10error_code,_ZNSt10filesystem7__cxx1128recursive_directory_iteratorC2ERKNS0_4pathENS_17directory_optionsEPSt10error_code __errno_location 564
_ZNSt10filesystem7__cxx1128recursive_directory_iteratorC1ERKNS0_4pathENS_17directory_optionsEPSt10error_code,_ZNSt10filesystem7__cxx1128recursive_directory_iteratorC2ERKNS0_4pathENS_17directory_optionsEPSt10error_code _ZNSt3_V215system_categoryEv 596
_ZNSt10filesystem7__cxx1128recursive_directory_iteratorC1ERKNS0_4pathENS_17directory_optionsEPSt10error_code,_ZNSt10filesystem7__cxx1128recursive_directory_iteratorC2ERKNS0_4pathENS_17directory_optionsEPSt10error_code __cxa_allocate_exception 628
_ZNSt10filesystem7__cxx1128recursive_directory_iteratorC1ERKNS0_4pathENS_17directory_optionsEPSt10error_code,_ZNSt10filesystem7__cxx1128recursive_directory_iteratorC2ERKNS0_4pathENS_17directory_optionsEPSt10error_code _ZNSt7__cxx1112basic_stringIcSt11char_traitsIcESaIcEEC1IS3_EEPKcRKS3_ 652
_ZNSt10filesystem7__cxx1128recursive_directory_iteratorC1ERKNS0_4pathENS_17directory_optionsEPSt10error_code,_ZNSt10filesystem7__cxx1128recursive_directory_iteratorC2ERKNS0_4pathENS_17directory_optionsEPSt10error_code _ZNSt3_V216generic_categoryEv 656
_ZNSt10filesystem7__cxx1128recursive_directory_iteratorC1ERKNS0_4pathENS_17directory_optionsEPSt10error_code,_ZNSt10filesystem7__cxx1128recursive_directory_iteratorC2ERKNS0_4pathENS_17directory_optionsEPSt10error_code _ZNSt10filesystem7__cxx1116filesystem_errorC1ERKNSt7__cxx1112basic_stringIcSt11char_traitsIcESaIcEEERKNS0_4pathESt10error_code 688
_ZNSt10filesystem7__cxx1128recursive_directory_iteratorC1ERKNS0_4pathENS_17directory_optionsEPSt10error_code,_ZNSt10filesystem7__cxx1128recursive_directory_iteratorC2ERKNS0_4pathENS_17directory_optionsEPSt10error_code _ZNSt7__cxx1112basic_stringIcSt11char_traitsIcESaIcEE10_M_disposeEv 696
_ZNSt10filesystem7__cxx1128recursive_directory_iteratorC1ERKNS0_4pathENS_17directory_optionsEPSt10error_code,_ZNSt10filesystem7__cxx1128recursive_directory_iteratorC2ERKNS0_4pathENS_17directory_optionsEPSt10error_code __cxa_throw 736
_ZNSt10filesystem7__cxx1128recursive_directory_iteratorC1ERKNS0_4pathENS_17directory_optionsEPSt10error_code,_ZNSt10filesystem7__cxx1128recursive_directory_iteratorC2ERKNS0_4pathENS_17directory_optionsEPSt10error_code _ZNSt3_V216generic_categoryEv 744
_ZNSt10filesystem7__cxx1128recursive_directory_iteratorC1ERKNS0_4pathENS_17directory_optionsEPSt10error_code,_ZNSt10filesystem7__cxx1128recursive_directory_iteratorC2ERKNS0_4pathENS_17directory_optionsEPSt10error_code _ZNSt10filesystem7__cxx114_DirD1Ev 760
_ZNSt10filesystem7__cxx1128recursive_directory_iteratorC1ERKNS0_4pathENS_17directory_optionsEPSt10error_code,_ZNSt10filesystem7__cxx1128recursive_directory_iteratorC2ERKNS0_4pathENS_17directory_optionsEPSt10error_code _ZNSt7__cxx1112basic_stringIcSt11char_traitsIcESaIcEE10_M_disposeEv 776
_ZNSt10filesystem7__cxx1128recursive_directory_iteratorC1ERKNS0_4pathENS_17directory_optionsEPSt10error_code,_ZNSt10filesystem7__cxx1128recursive_directory_iteratorC2ERKNS0_4pathENS_17directory_optionsEPSt10error_code __cxa_free_exception 784
_ZNSt10filesystem7__cxx1128recursive_directory_iteratorC1ERKNS0_4pathENS_17directory_optionsEPSt10error_code,_ZNSt10filesystem7__cxx1128recursive_directory_iteratorC2ERKNS0_4pathENS_17directory_optionsEPSt10error_code _ZTVSt23_Sp_counted_ptr_inplaceINSt10filesystem7__cxx1128recursive_directory_iterator10_Dir_stackESaIS3_ELN9__gnu_cxx12_Lock_policyE2EE 800
_ZNSt10filesystem7__cxx1128recursive_directory_iteratorC1ERKNS0_4pathENS_17directory_optionsEPSt10error_code,_ZNSt10filesystem7__cxx1128recursive_directory_iteratorC2ERKNS0_4pathENS_17directory_optionsEPSt10error_code .LC14 804
_ZNSt10filesystem7__cxx1128recursive_directory_iteratorC1ERKNS0_4pathENS_17directory_optionsEPSt10error_code,_ZNSt10filesystem7__cxx1128recursive_directory_iteratorC2ERKNS0_4pathENS_17directory_optionsEPSt10error_code _ZNSt10filesystem7__cxx1116filesystem_errorD1Ev 808
_ZNSt10filesystem7__cxx1128recursive_directory_iteratorC1ERKNS0_4pathENS_17directory_optionsEPSt10error_code,_ZNSt10filesystem7__cxx1128recursive_directory_iteratorC2ERKNS0_4pathENS_17directory_optionsEPSt10error_code _ZTINSt10filesystem7__cxx1116filesystem_errorE 812
_ZNSt12_Destroy_auxILb0EE9__destroyIPNSt10filesystem7__cxx114_DirEEEvT_S6_ _ZNSt10filesystem7__cxx114_DirD1Ev 28
_ZNSt11_Deque_baseINSt10filesystem7__cxx114_DirESaIS2_EED1Ev,_ZNSt11_Deque_baseINSt10filesystem7__cxx114_DirESaIS2_EED2Ev _ZdlPv 44
_ZNSt11_Deque_baseINSt10filesystem7__cxx114_DirESaIS2_EED1Ev,_ZNSt11_Deque_baseINSt10filesystem7__cxx114_DirESaIS2_EED2Ev _ZdlPv 56
_ZNSt23_Sp_counted_ptr_inplaceINSt10filesystem7__cxx1128recursive_directory_iterator10_Dir_stackESaIS3_ELN9__gnu_cxx12_Lock_policyE2EE10_M_disposeEv _ZNSt12_Destroy_auxILb0EE9__destroyIPNSt10filesystem7__cxx114_DirEEEvT_S6_ 52
_ZNSt23_Sp_counted_ptr_inplaceINSt10filesystem7__cxx1128recursive_directory_iterator10_Dir_stackESaIS3_ELN9__gnu_cxx12_Lock_policyE2EE10_M_disposeEv _ZNSt12_Destroy_auxILb0EE9__destroyIPNSt10filesystem7__cxx114_DirEEEvT_S6_ 84
_ZNSt23_Sp_counted_ptr_inplaceINSt10filesystem7__cxx1128recursive_directory_iterator10_Dir_stackESaIS3_ELN9__gnu_cxx12_Lock_policyE2EE10_M_disposeEv _ZNSt12_Destroy_auxILb0EE9__destroyIPNSt10filesystem7__cxx114_DirEEEvT_S6_ 96
_ZNSt23_Sp_counted_ptr_inplaceINSt10filesystem7__cxx1128recursive_directory_iterator10_Dir_stackESaIS3_ELN9__gnu_cxx12_Lock_policyE2EE10_M_disposeEv _ZNSt11_Deque_baseINSt10filesystem7__cxx114_DirESaIS2_EED2Ev 108
_ZN9__gnu_cxx13stdio_filebufIcSt11char_traitsIcEED1Ev,_ZN9__gnu_cxx13stdio_filebufIcSt11char_traitsIcEED2Ev _ZNSt13basic_filebufIcSt11char_traitsIcEED2Ev 32
_ZN9__gnu_cxx13stdio_filebufIcSt11char_traitsIcEED1Ev,_ZN9__gnu_cxx13stdio_filebufIcSt11char_traitsIcEED2Ev _ZTVN9__gnu_cxx13stdio_filebufIcSt11char_traitsIcEEE 48
_ZN9__gnu_cxx13stdio_filebufIcSt11char_traitsIcEED0Ev _ZN9__gnu_cxx13stdio_filebufIcSt11char_traitsIcEED1Ev 8
_ZN9__gnu_cxx13stdio_filebufIcSt11char_traitsIcEED0Ev _ZdlPvj 20
_ZNSt10filesystem8is_otherENS_11file_statusE.isra.26 _ZNSt10filesystem6existsENS_11file_statusE.isra.25 8
_ZNSt10filesystem11resize_fileERKNS_7__cxx114pathEyRSt10error_code.part.45,_ZNSt10filesystem12current_pathERKNS_7__cxx114pathERSt10error_code.part.41,_ZNSt10filesystem14create_symlinkERKNS_7__cxx114pathES3_RSt10error_code.part.40,_ZNSt10filesystem16create_hard_linkERKNS_7__cxx114pathES3_RSt10error_code.part.39,_ZNSt10filesystem5spaceERKNS_7__cxx114pathERSt10error_code.part.46,_ZNSt10filesystem6renameERKNS_7__cxx114pathES3_RSt10error_code.part.44 __errno_location 8
_ZNSt10filesystem11resize_fileERKNS_7__cxx114pathEyRSt10error_code.part.45,_ZNSt10filesystem12current_pathERKNS_7__cxx114pathERSt10error_code.part.41,_ZNSt10filesystem14create_symlinkERKNS_7__cxx114pathES3_RSt10error_code.part.40,_ZNSt10filesystem16create_hard_linkERKNS_7__cxx114pathES3_RSt10error_code.part.39,_ZNSt10filesystem5spaceERKNS_7__cxx114pathERSt10error_code.part.46,_ZNSt10filesystem6renameERKNS_7__cxx114pathES3_RSt10error_code.part.44 _ZNSt3_V216generic_categoryEv 16
_ZNSt12_Vector_baseINSt10filesystem7__cxx114path5_CmptESaIS3_EE13_M_deallocateEPS3_j.isra.84 _ZdlPv 8
_ZNSt7__cxx1112basic_stringIcSt11char_traitsIcESaIcEE9_M_createERjj.isra.90 _ZSt20__throw_length_errorPKc 24
_ZNSt7__cxx1112basic_stringIcSt11char_traitsIcESaIcEE9_M_createERjj.isra.90 _Znwj 72
_ZNSt7__cxx1112basic_stringIcSt11char_traitsIcESaIcEE9_M_createERjj.isra.90 .LC6 76
_ZNSt11_Deque_baseINSt10filesystem7__cxx114pathESaIS2_EE16_M_destroy_nodesEPPS2_S6_.isra.117 _ZdlPv 24
_ZNSt10filesystem7__cxx114path5clearEv _ZNSt10filesystem7__cxx114path14_M_split_cmptsEv 20
_ZNSt10filesystem7__cxx114path4swapERS1_ _ZNSt11char_traitsIcE4copyEPcPKcj 92
_ZNSt10filesystem7__cxx114path4swapERS1_ _ZNSt11char_traitsIcE4copyEPcPKcj 108
_ZNSt10filesystem7__cxx114path4swapERS1_ _ZNSt11char_traitsIcE4copyEPcPKcj 124
_ZNSt10filesystem7__cxx114path4swapERS1_ _ZNSt11char_traitsIcE4copyEPcPKcj 168
_ZNSt10filesystem7__cxx114path4swapERS1_ _ZNSt11char_traitsIcE4copyEPcPKcj 272
_ZNSt10filesystem7__cxx114path4swapERS1_ _ZNSt11char_traitsIcE4copyEPcPKcj 316
_ZNSt10filesystem7__cxx114path4swapERS1_ _ZNSt11char_traitsIcE4copyEPcPKcj 364
_ZSt9__advanceINSt10filesystem7__cxx114path8iteratorEiEvRT_T0_St26bidirectional_iterator_tag.isra.97 _ZNSt10filesystem7__cxx114path8iteratorppEv 32
_ZNSt10filesystem16make_file_statusERK4stat _ZNSt10filesystem14make_file_typeERK4stat 16
_ZNSt12__shared_ptrINSt10filesystem7__cxx114_DirELN9__gnu_cxx12_Lock_policyE2EEC1ERKS5_,_ZNSt12__shared_ptrINSt10filesystem7__cxx114_DirELN9__gnu_cxx12_Lock_policyE2EEC2ERKS5_ __pthread_key_create 104
_ZNSt10filesystem16create_hard_linkERKNS_7__cxx114pathES3_RSt10error_code link 16
_ZNSt10filesystem16create_hard_linkERKNS_7__cxx114pathES3_RSt10error_code _ZNSt10filesystem16create_hard_linkERKNS_7__cxx114pathES3_RSt10error_code.part.39 36
_ZNSt10filesystem16create_hard_linkERKNS_7__cxx114pathES3_RSt10error_code _ZNSt10error_code5clearEv 44
_ZNSt10filesystem14create_symlinkERKNS_7__cxx114pathES3_RSt10error_code symlink 16
_ZNSt10filesystem14create_symlinkERKNS_7__cxx114pathES3_RSt10error_code _ZNSt10filesystem14create_symlinkERKNS_7__cxx114pathES3_RSt10error_code.part.40 36
_ZNSt10filesystem14create_symlinkERKNS_7__cxx114pathES3_RSt10error_code _ZNSt10error_code5clearEv 44
_ZNSt10filesystem24create_directory_symlinkERKNS_7__cxx114pathES3_RSt10error_code _ZNSt10filesystem14create_symlinkERKNS_7__cxx114pathES3_RSt10error_code 0
_ZNSt10filesystem12current_pathERKNS_7__cxx114pathERSt10error_code chdir 12
_ZNSt10filesystem12current_pathERKNS_7__cxx114pathERSt10error_code _ZNSt10filesystem12current_pathERKNS_7__cxx114pathERSt10error_code.part.41 32
_ZNSt10filesystem12current_pathERKNS_7__cxx114pathERSt10error_code _ZNSt10error_code5clearEv 40
_ZNSt10filesystem10equivalentERKNS_7__cxx114pathES3_RSt10error_code stat64 28
_ZNSt10filesystem10equivalentERKNS_7__cxx114pathES3_RSt10error_code _ZNSt10filesystem16make_file_statusERK4stat 48
_ZNSt10filesystem10equivalentERKNS_7__cxx114pathES3_RSt10error_code stat64 68
_ZNSt10filesystem10equivalentERKNS_7__cxx114pathES3_RSt10error_code _ZNSt10filesystem16make_file_statusERK4stat 88
_ZNSt10filesystem10equivalentERKNS_7__cxx114pathES3_RSt10error_code _ZNSt10filesystem6existsENS_11file_statusE.isra.25 100
_ZNSt10filesystem10equivalentERKNS_7__cxx114pathES3_RSt10error_code _ZNSt10filesystem6existsENS_11file_statusE.isra.25 112
_ZNSt10filesystem10equivalentERKNS_7__cxx114pathES3_RSt10error_code _ZNSt10filesystem8is_otherENS_11file_statusE.isra.26 140
_ZNSt10filesystem10equivalentERKNS_7__cxx114pathES3_RSt10error_code _ZNSt10filesystem8is_otherENS_11file_statusE.isra.26 156
_ZNSt10filesystem10equivalentERKNS_7__cxx114pathES3_RSt10error_code _ZNSt10error_code5clearEv 172
_ZNSt10filesystem10equivalentERKNS_7__cxx114pathES3_RSt10error_code __errno_location 192
_ZNSt10filesystem10equivalentERKNS_7__cxx114pathES3_RSt10error_code __errno_location 236
_ZNSt10filesystem10equivalentERKNS_7__cxx114pathES3_RSt10error_code _ZNSt3_V216generic_categoryEv 280
_ZNSt10filesystem10equivalentERKNS_7__cxx114pathES3_RSt10error_code _ZNSt10filesystem8is_otherENS_11file_statusE.isra.26 304
_ZNSt10filesystem10equivalentERKNS_7__cxx114pathES3_RSt10error_code _ZNSt10error_code5clearEv 392
_ZNSt10filesystem10equivalentERKNS_7__cxx114pathES3_RSt10error_code _ZNSt3_V216generic_categoryEv 400
_ZNSt10filesystem10equivalentERKNS_7__cxx114pathES3_RSt10error_code _ZNSt3_V216generic_categoryEv 420
_ZNSt10filesystem9file_sizeERKNS_7__cxx114pathERSt10error_code stat64 24
_ZNSt10filesystem9file_sizeERKNS_7__cxx114pathERSt10error_code __errno_location 36
_ZNSt10filesystem9file_sizeERKNS_7__cxx114pathERSt10error_code _ZNSt3_V216generic_categoryEv 44
_ZNSt10filesystem9file_sizeERKNS_7__cxx114pathERSt10error_code _ZNSt3_V216generic_categoryEv 72
_ZNSt10filesystem9file_sizeERKNS_7__cxx114pathERSt10error_code _ZNSt10error_code5clearEv 112
_ZNSt10filesystem9file_sizeERKNS_7__cxx114pathERSt10error_code _ZNSt10filesystem14make_file_typeERK4stat 120
_ZNSt10filesystem15hard_link_countERKNS_7__cxx114pathERSt10error_code stat64 20
_ZNSt10filesystem15hard_link_countERKNS_7__cxx114pathERSt10error_code __errno_location 32
_ZNSt10filesystem15hard_link_countERKNS_7__cxx114pathERSt10error_code _ZNSt3_V216generic_categoryEv 40
_ZNSt10filesystem15hard_link_countERKNS_7__cxx114pathERSt10error_code _ZNSt10error_code5clearEv 72
_ZNSt10filesystem15last_write_timeERKNS_7__cxx114pathERSt10error_code stat64 28
_ZNSt10filesystem15last_write_timeERKNS_7__cxx114pathERSt10error_code __errno_location 40
_ZNSt10filesystem15last_write_timeERKNS_7__cxx114pathERSt10error_code _ZNSt3_V216generic_categoryEv 48
_ZNSt10filesystem15last_write_timeERKNS_7__cxx114pathERSt10error_code _ZNSt10error_code5clearEv 88
_ZNSt10filesystem15last_write_timeERKNS_7__cxx114pathERSt10error_code _ZNSt10error_code5clearEv 104
_ZNSt10filesystem15last_write_timeERKNS_7__cxx114pathENSt6chrono10time_pointINS4_3_V212system_clockENS4_8durationIxSt5ratioILx1ELx1000000000EEEEEERSt10error_code __aeabi_ldivmod 32
_ZNSt10filesystem15last_write_timeERKNS_7__cxx114pathENSt6chrono10time_pointINS4_3_V212system_clockENS4_8durationIxSt5ratioILx1ELx1000000000EEEEEERSt10error_code __aeabi_ldivmod 56
_ZNSt10filesystem15last_write_timeERKNS_7__cxx114pathENSt6chrono10time_pointINS4_3_V212system_clockENS4_8durationIxSt5ratioILx1ELx1000000000EEEEEERSt10error_code utimensat 120
_ZNSt10filesystem15last_write_timeERKNS_7__cxx114pathENSt6chrono10time_pointINS4_3_V212system_clockENS4_8durationIxSt5ratioILx1ELx1000000000EEEEEERSt10error_code __errno_location 132
_ZNSt10filesystem15last_write_timeERKNS_7__cxx114pathENSt6chrono10time_pointINS4_3_V212system_clockENS4_8durationIxSt5ratioILx1ELx1000000000EEEEEERSt10error_code _ZNSt3_V216generic_categoryEv 140
_ZNSt10filesystem15last_write_timeERKNS_7__cxx114pathENSt6chrono10time_pointINS4_3_V212system_clockENS4_8durationIxSt5ratioILx1ELx1000000000EEEEEERSt10error_code _ZNSt10error_code5clearEv 164
_ZNSt10filesystem6removeERKNS_7__cxx114pathERSt10error_code remove 12
_ZNSt10filesystem6removeERKNS_7__cxx114pathERSt10error_code _ZNSt10error_code5clearEv 28
_ZNSt10filesystem6removeERKNS_7__cxx114pathERSt10error_code __errno_location 40
_ZNSt10filesystem6removeERKNS_7__cxx114pathERSt10error_code _ZNSt10error_code5clearEv 60
_ZNSt10filesystem6removeERKNS_7__cxx114pathERSt10error_code _ZNSt3_V216generic_categoryEv 72
_ZNSt10filesystem6renameERKNS_7__cxx114pathES3_RSt10error_code rename 16
_ZNSt10filesystem6renameERKNS_7__cxx114pathES3_RSt10error_code _ZNSt10filesystem6renameERKNS_7__cxx114pathES3_RSt10error_code.part.44 36
_ZNSt10filesystem6renameERKNS_7__cxx114pathES3_RSt10error_code _ZNSt10error_code5clearEv 44
_ZNSt10filesystem11resize_fileERKNS_7__cxx114pathEyRSt10error_code _ZNSt3_V216generic_categoryEv 20
_ZNSt10filesystem11resize_fileERKNS_7__cxx114pathEyRSt10error_code truncate64 44
_ZNSt10filesystem11resize_fileERKNS_7__cxx114pathEyRSt10error_code _ZNSt10filesystem11resize_fileERKNS_7__cxx114pathEyRSt10error_code.part.45 64
_ZNSt10filesystem11resize_fileERKNS_7__cxx114pathEyRSt10error_code _ZNSt10error_code5clearEv 72
_ZNSt10filesystem5spaceERKNS_7__cxx114pathERSt10error_code statvfs64 56
_ZNSt10filesystem5spaceERKNS_7__cxx114pathERSt10error_code _ZNSt10filesystem5spaceERKNS_7__cxx114pathERSt10error_code.part.46 72
_ZNSt10filesystem5spaceERKNS_7__cxx114pathERSt10error_code _ZNSt10error_code5clearEv 156
_ZNSt10filesystem6statusERKNS_7__cxx114pathERSt10error_code stat64 48
_ZNSt10filesystem6statusERKNS_7__cxx114pathERSt10error_code __errno_location 60
_ZNSt10filesystem6statusERKNS_7__cxx114pathERSt10error_code _ZNSt3_V216generic_categoryEv 68
_ZNSt10filesystem6statusERKNS_7__cxx114pathERSt10error_code _ZNSt10filesystem16make_file_statusERK4stat 132
_ZNSt10filesystem6statusERKNS_7__cxx114pathERSt10error_code _ZNSt10error_code5clearEv 140
_ZNSt10filesystem6existsERKNS_7__cxx114pathERSt10error_code _ZNSt10filesystem6statusERKNS_7__cxx114pathERSt10error_code 20
_ZNSt10filesystem6existsERKNS_7__cxx114pathERSt10error_code _ZNSt10error_code5clearEv 44
_ZN12_GLOBAL__N_110create_dirERKNSt10filesystem7__cxx114pathENS0_5permsERSt10error_code.part.47 __errno_location 12
_ZN12_GLOBAL__N_110create_dirERKNSt10filesystem7__cxx114pathENS0_5permsERSt10error_code.part.47 _ZNSt3_V216generic_categoryEv 28
_ZN12_GLOBAL__N_110create_dirERKNSt10filesystem7__cxx114pathENS0_5permsERSt10error_code.part.47 _ZNSt10filesystem6statusERKNS_7__cxx114pathERSt10error_code 64
_ZNSt10filesystem16create_directoryERKNS_7__cxx114pathES3_RSt10error_code stat64 28
_ZNSt10filesystem16create_directoryERKNS_7__cxx114pathES3_RSt10error_code __errno_location 40
_ZNSt10filesystem16create_directoryERKNS_7__cxx114pathES3_RSt10error_code _ZNSt3_V216generic_categoryEv 48
_ZNSt10filesystem16create_directoryERKNS_7__cxx114pathES3_RSt10error_code mkdir 80
_ZNSt10filesystem16create_directoryERKNS_7__cxx114pathES3_RSt10error_code _ZN12_GLOBAL__N_110create_dirERKNSt10filesystem7__cxx114pathENS0_5permsERSt10error_code.part.47 100
_ZNSt10filesystem16create_directoryERKNS_7__cxx114pathES3_RSt10error_code _ZNSt10error_code5clearEv 112
_ZNSt10filesystem16create_directoryERKNS_7__cxx114pathERSt10error_code mkdir 20
_ZNSt10filesystem16create_directoryERKNS_7__cxx114pathERSt10error_code _ZN12_GLOBAL__N_110create_dirERKNSt10filesystem7__cxx114pathENS0_5permsERSt10error_code.part.47 44
_ZNSt10filesystem16create_directoryERKNS_7__cxx114pathERSt10error_code _ZNSt10error_code5clearEv 52
_ZNSt10filesystem14symlink_statusERKNS_7__cxx114pathERSt10error_code lstat64 48
_ZNSt10filesystem14symlink_statusERKNS_7__cxx114pathERSt10error_code __errno_location 60
_ZNSt10filesystem14symlink_statusERKNS_7__cxx114pathERSt10error_code _ZNSt3_V216generic_categoryEv 68
_ZNSt10filesystem14symlink_statusERKNS_7__cxx114pathERSt10error_code _ZNSt10filesystem16make_file_statusERK4stat 116
_ZNSt10filesystem14symlink_statusERKNS_7__cxx114pathERSt10error_code _ZNSt10error_code5clearEv 124
_ZNSt10filesystem11permissionsERKNS_7__cxx114pathENS_5permsENS_12perm_optionsERSt10error_code _ZNSt3_V216generic_categoryEv 40
_ZNSt10filesystem11permissionsERKNS_7__cxx114pathENS_5permsENS_12perm_optionsERSt10error_code _ZNSt10filesystem14symlink_statusERKNS_7__cxx114pathERSt10error_code 112
_ZNSt10filesystem11permissionsERKNS_7__cxx114pathENS_5permsENS_12perm_optionsERSt10error_code fchmodat 196
_ZNSt10filesystem11permissionsERKNS_7__cxx114pathENS_5permsENS_12perm_optionsERSt10error_code __errno_location 208
_ZNSt10filesystem11permissionsERKNS_7__cxx114pathENS_5permsENS_12perm_optionsERSt10error_code _ZNSt3_V216generic_categoryEv 224
_ZNSt10filesystem11permissionsERKNS_7__cxx114pathENS_5permsENS_12perm_optionsERSt10error_code _ZNSt10filesystem6statusERKNS_7__cxx114pathERSt10error_code 256
_ZNSt10filesystem11permissionsERKNS_7__cxx114pathENS_5permsENS_12perm_optionsERSt10error_code _ZNSt10error_code5clearEv 276
_ZNSt10filesystem10remove_allERKNS_7__cxx114pathERSt10error_code,_ZNSt10filesystem10remove_allERKNS_7__cxx114pathERSt10error_code.localalias.154 _ZNSt10filesystem14symlink_statusERKNS_7__cxx114pathERSt10error_code 28
_ZNSt10filesystem10remove_allERKNS_7__cxx114pathERSt10error_code,_ZNSt10filesystem10remove_allERKNS_7__cxx114pathERSt10error_code.localalias.154 _ZNSt10error_code5clearEv 60
_ZNSt10filesystem10remove_allERKNS_7__cxx114pathERSt10error_code,_ZNSt10filesystem10remove_allERKNS_7__cxx114pathERSt10error_code.localalias.154 _ZNSt10filesystem7__cxx1118directory_iteratorC1ERKNS0_4pathENS_17directory_optionsEPSt10error_code 112
_ZNSt10filesystem10remove_allERKNS_7__cxx114pathERSt10error_code,_ZNSt10filesystem10remove_allERKNS_7__cxx114pathERSt10error_code.localalias.154 _ZNSt10filesystem7__cxx11neERKNS0_18directory_iteratorES3_ 164
_ZNSt10filesystem10remove_allERKNS_7__cxx114pathERSt10error_code,_ZNSt10filesystem10remove_allERKNS_7__cxx114pathERSt10error_code.localalias.154 _ZNKSt10filesystem7__cxx1118directory_iteratordeEv 180
_ZNSt10filesystem10remove_allERKNS_7__cxx114pathERSt10error_code,_ZNSt10filesystem10remove_allERKNS_7__cxx114pathERSt10error_code.localalias.154 _ZNSt14__shared_countILN9__gnu_cxx12_Lock_policyE2EED1Ev 200
_ZNSt10filesystem10remove_allERKNS_7__cxx114pathERSt10error_code,_ZNSt10filesystem10remove_allERKNS_7__cxx114pathERSt10error_code.localalias.154 _ZNSt14__shared_countILN9__gnu_cxx12_Lock_policyE2EED1Ev 208
_ZNSt10filesystem10remove_allERKNS_7__cxx114pathERSt10error_code,_ZNSt10filesystem10remove_allERKNS_7__cxx114pathERSt10error_code.localalias.154 _ZNSt10filesystem6removeERKNS_7__cxx114pathERSt10error_code 220
_ZNSt10filesystem10remove_allERKNS_7__cxx114pathERSt10error_code,_ZNSt10filesystem10remove_allERKNS_7__cxx114pathERSt10error_code.localalias.154 _ZNSt10filesystem7__cxx1118directory_iterator9incrementERSt10error_code 296
_ZNSt10filesystem10remove_allERKNS_7__cxx114pathERSt10error_code,_ZNSt10filesystem10remove_allERKNS_7__cxx114pathERSt10error_code.localalias.154 _ZNSt14__shared_countILN9__gnu_cxx12_Lock_policyE2EED1Ev 316
_ZNSt10filesystem10remove_allERKNS_7__cxx114pathERSt10error_code,_ZNSt10filesystem10remove_allERKNS_7__cxx114pathERSt10error_code.localalias.154 _ZNSt14__shared_countILN9__gnu_cxx12_Lock_policyE2EED1Ev 324
_ZNSt10filesystem10remove_allERKNS_7__cxx114pathERSt10error_code,_ZNSt10filesystem10remove_allERKNS_7__cxx114pathERSt10error_code.localalias.154 _ZNSt14__shared_countILN9__gnu_cxx12_Lock_policyE2EED1Ev 344
_ZNSt10filesystem10remove_allERKNS_7__cxx114pathERSt10error_code,_ZNSt10filesystem10remove_allERKNS_7__cxx114pathERSt10error_code.localalias.154 _ZNSt14__shared_countILN9__gnu_cxx12_Lock_policyE2EED1Ev 352
_ZNSt10filesystem10remove_allERKNS_7__cxx114pathERSt10error_code,_ZNSt10filesystem10remove_allERKNS_7__cxx114pathERSt10error_code.localalias.154 __cxa_end_cleanup 356
_ZNSt10filesystem8is_emptyERKNS_7__cxx114pathERSt10error_code _ZNSt10filesystem6statusERKNS_7__cxx114pathERSt10error_code 28
_ZNSt10filesystem8is_emptyERKNS_7__cxx114pathERSt10error_code _ZNSt10filesystem7__cxx1118directory_iteratorC1ERKNS0_4pathENS_17directory_optionsEPSt10error_code 88
_ZNSt10filesystem8is_emptyERKNS_7__cxx114pathERSt10error_code _ZNSt14__shared_countILN9__gnu_cxx12_Lock_policyE2EED1Ev 108
_ZNSt10filesystem8is_emptyERKNS_7__cxx114pathERSt10error_code _ZNSt14__shared_countILN9__gnu_cxx12_Lock_policyE2EED1Ev 124
_ZNSt10filesystem8is_emptyERKNS_7__cxx114pathERSt10error_code _ZNSt10filesystem9file_sizeERKNS_7__cxx114pathERSt10error_code 152
_ZN9__gnu_cxx13stdio_filebufIcSt11char_traitsIcEEC1EiSt13_Ios_Openmodej,_ZN9__gnu_cxx13stdio_filebufIcSt11char_traitsIcEEC2EiSt13_Ios_Openmodej _ZNSt13basic_filebufIcSt11char_traitsIcEEC2Ev 24
_ZN9__gnu_cxx13stdio_filebufIcSt11char_traitsIcEEC1EiSt13_Ios_Openmodej,_ZN9__gnu_cxx13stdio_filebufIcSt11char_traitsIcEEC2EiSt13_Ios_Openmodej _ZNSt12__basic_fileIcE8sys_openEiSt13_Ios_Openmode 64
_ZN9__gnu_cxx13stdio_filebufIcSt11char_traitsIcEEC1EiSt13_Ios_Openmodej,_ZN9__gnu_cxx13stdio_filebufIcSt11char_traitsIcEEC2EiSt13_Ios_Openmodej _ZNKSt12__basic_fileIcE7is_openEv 72
_ZN9__gnu_cxx13stdio_filebufIcSt11char_traitsIcEEC1EiSt13_Ios_Openmodej,_ZN9__gnu_cxx13stdio_filebufIcSt11char_traitsIcEEC2EiSt13_Ios_Openmodej _ZNSt13basic_filebufIcSt11char_traitsIcEE27_M_allocate_internal_bufferEv 96
_ZN9__gnu_cxx13stdio_filebufIcSt11char_traitsIcEEC1EiSt13_Ios_Openmodej,_ZN9__gnu_cxx13stdio_filebufIcSt11char_traitsIcEEC2EiSt13_Ios_Openmodej _ZNSt13basic_filebufIcSt11char_traitsIcEE13_M_set_bufferEi 120
_ZN9__gnu_cxx13stdio_filebufIcSt11char_traitsIcEEC1EiSt13_Ios_Openmodej,_ZN9__gnu_cxx13stdio_filebufIcSt11char_traitsIcEEC2EiSt13_Ios_Openmodej _ZNSt13basic_filebufIcSt11char_traitsIcEED2Ev 136
_ZN9__gnu_cxx13stdio_filebufIcSt11char_traitsIcEEC1EiSt13_Ios_Openmodej,_ZN9__gnu_cxx13stdio_filebufIcSt11char_traitsIcEEC2EiSt13_Ios_Openmodej __cxa_end_cleanup 140
_ZN9__gnu_cxx13stdio_filebufIcSt11char_traitsIcEEC1EiSt13_Ios_Openmodej,_ZN9__gnu_cxx13stdio_filebufIcSt11char_traitsIcEEC2EiSt13_Ios_Openmodej _ZTVN9__gnu_cxx13stdio_filebufIcSt11char_traitsIcEEE 148
_ZNSt10filesystem12do_copy_fileEPKcS1_NS_26copy_options_existing_fileEP4statS4_RSt10error_code stat64 68
_ZNSt10filesystem12do_copy_fileEPKcS1_NS_26copy_options_existing_fileEP4statS4_RSt10error_code __errno_location 80
_ZNSt10filesystem12do_copy_fileEPKcS1_NS_26copy_options_existing_fileEP4statS4_RSt10error_code _ZNSt3_V216generic_categoryEv 116
_ZNSt10filesystem12do_copy_fileEPKcS1_NS_26copy_options_existing_fileEP4statS4_RSt10error_code _ZNSt10filesystem16make_file_statusERK4stat 176
_ZNSt10filesystem12do_copy_fileEPKcS1_NS_26copy_options_existing_fileEP4statS4_RSt10error_code _ZNSt3_V216generic_categoryEv 196
_ZNSt10filesystem12do_copy_fileEPKcS1_NS_26copy_options_existing_fileEP4statS4_RSt10error_code _ZNSt10filesystem6existsENS_11file_statusE.isra.25 224
_ZNSt10filesystem12do_copy_fileEPKcS1_NS_26copy_options_existing_fileEP4statS4_RSt10error_code _ZNSt3_V216generic_categoryEv 284
_ZNSt10filesystem12do_copy_fileEPKcS1_NS_26copy_options_existing_fileEP4statS4_RSt10error_code _ZNSt10error_code5clearEv 308
_ZNSt10filesystem12do_copy_fileEPKcS1_NS_26copy_options_existing_fileEP4statS4_RSt10error_code _ZNSt10error_code5clearEv 344
_ZNSt10filesystem12do_copy_fileEPKcS1_NS_26copy_options_existing_fileEP4statS4_RSt10error_code _ZNSt10error_code5clearEv 376
_ZNSt10filesystem12do_copy_fileEPKcS1_NS_26copy_options_existing_fileEP4statS4_RSt10error_code open64 448
_ZNSt10filesystem12do_copy_fileEPKcS1_NS_26copy_options_existing_fileEP4statS4_RSt10error_code open64 500
_ZNSt10filesystem12do_copy_fileEPKcS1_NS_26copy_options_existing_fileEP4statS4_RSt10error_code __errno_location 516
_ZNSt10filesystem12do_copy_fileEPKcS1_NS_26copy_options_existing_fileEP4statS4_RSt10error_code _ZNSt10error_code5clearEv 544
_ZNSt10filesystem12do_copy_fileEPKcS1_NS_26copy_options_existing_fileEP4statS4_RSt10error_code _ZNSt3_V216generic_categoryEv 572
_ZNSt10filesystem12do_copy_fileEPKcS1_NS_26copy_options_existing_fileEP4statS4_RSt10error_code fchmod 592
_ZNSt10filesystem12do_copy_fileEPKcS1_NS_26copy_options_existing_fileEP4statS4_RSt10error_code __errno_location 604
_ZNSt10filesystem12do_copy_fileEPKcS1_NS_26copy_options_existing_fileEP4statS4_RSt10error_code _ZNSt3_V216generic_categoryEv 612
_ZNSt10filesystem12do_copy_fileEPKcS1_NS_26copy_options_existing_fileEP4statS4_RSt10error_code close 632
_ZNSt10filesystem12do_copy_fileEPKcS1_NS_26copy_options_existing_fileEP4statS4_RSt10error_code sendfile64 672
_ZNSt10filesystem12do_copy_fileEPKcS1_NS_26copy_options_existing_fileEP4statS4_RSt10error_code __errno_location 688
_ZNSt10filesystem12do_copy_fileEPKcS1_NS_26copy_options_existing_fileEP4statS4_RSt10error_code _ZNSt3_V216generic_categoryEv 708
_ZNSt10filesystem12do_copy_fileEPKcS1_NS_26copy_options_existing_fileEP4statS4_RSt10error_code close 732
_ZNSt10filesystem12do_copy_fileEPKcS1_NS_26copy_options_existing_fileEP4statS4_RSt10error_code close 748
_ZNSt10filesystem12do_copy_fileEPKcS1_NS_26copy_options_existing_fileEP4statS4_RSt10error_code _ZNSt10error_code5clearEv 772
_ZNSt10filesystem12do_copy_fileEPKcS1_NS_26copy_options_existing_fileEP4statS4_RSt10error_code __errno_location 780
_ZNSt10filesystem12do_copy_fileEPKcS1_NS_26copy_options_existing_fileEP4statS4_RSt10error_code _ZNSt3_V216generic_categoryEv 792
_ZNSt10filesystem12do_copy_fileEPKcS1_NS_26copy_options_existing_fileEP4statS4_RSt10error_code close 816
_ZNSt10filesystem12do_copy_fileEPKcS1_NS_26copy_options_existing_fileEP4statS4_RSt10error_code _ZN9__gnu_cxx13stdio_filebufIcSt11char_traitsIcEEC1EiSt13_Ios_Openmodej 856
_ZNSt10filesystem12do_copy_fileEPKcS1_NS_26copy_options_existing_fileEP4statS4_RSt10error_code _ZN9__gnu_cxx13stdio_filebufIcSt11char_traitsIcEEC1EiSt13_Ios_Openmodej 876
_ZNSt10filesystem12do_copy_fileEPKcS1_NS_26copy_options_existing_fileEP4statS4_RSt10error_code _ZNKSt12__basic_fileIcE7is_openEv 884
_ZNSt10filesystem12do_copy_fileEPKcS1_NS_26copy_options_existing_fileEP4statS4_RSt10error_code _ZNKSt12__basic_fileIcE7is_openEv 900
_ZNSt10filesystem12do_copy_fileEPKcS1_NS_26copy_options_existing_fileEP4statS4_RSt10error_code _ZNSt15basic_streambufIcSt11char_traitsIcEE10pubseekoffExSt12_Ios_SeekdirSt13_Ios_Openmode 968
_ZNSt10filesystem12do_copy_fileEPKcS1_NS_26copy_options_existing_fileEP4statS4_RSt10error_code _ZNSt15basic_streambufIcSt11char_traitsIcEE10pubseekoffExSt12_Ios_SeekdirSt13_Ios_Openmode 996
_ZNSt10filesystem12do_copy_fileEPKcS1_NS_26copy_options_existing_fileEP4statS4_RSt10error_code _ZNSt3_V216generic_categoryEv 1044
_ZNSt10filesystem12do_copy_fileEPKcS1_NS_26copy_options_existing_fileEP4statS4_RSt10error_code _ZNSoC1EPSt15basic_streambufIcSt11char_traitsIcEE 1088
_ZNSt10filesystem12do_copy_fileEPKcS1_NS_26copy_options_existing_fileEP4statS4_RSt10error_code _ZNSolsEPSt15basic_streambufIcSt11char_traitsIcEE 1100
_ZNSt10filesystem12do_copy_fileEPKcS1_NS_26copy_options_existing_fileEP4statS4_RSt10error_code _ZNSoD1Ev 1128
_ZNSt10filesystem12do_copy_fileEPKcS1_NS_26copy_options_existing_fileEP4statS4_RSt10error_code _ZNSt13basic_filebufIcSt11char_traitsIcEE5closeEv 1148
_ZNSt10filesystem12do_copy_fileEPKcS1_NS_26copy_options_existing_fileEP4statS4_RSt10error_code _ZNSt13basic_filebufIcSt11char_traitsIcEE5closeEv 1164
_ZNSt10filesystem12do_copy_fileEPKcS1_NS_26copy_options_existing_fileEP4statS4_RSt10error_code _ZNSt10error_code5clearEv 1184
_ZNSt10filesystem12do_copy_fileEPKcS1_NS_26copy_options_existing_fileEP4statS4_RSt10error_code _ZN9__gnu_cxx13stdio_filebufIcSt11char_traitsIcEED1Ev 1192
_ZNSt10filesystem12do_copy_fileEPKcS1_NS_26copy_options_existing_fileEP4statS4_RSt10error_code _ZN9__gnu_cxx13stdio_filebufIcSt11char_traitsIcEED1Ev 1200
_ZNSt10filesystem12do_copy_fileEPKcS1_NS_26copy_options_existing_fileEP4statS4_RSt10error_code __errno_location 1216
_ZNSt10filesystem12do_copy_fileEPKcS1_NS_26copy_options_existing_fileEP4statS4_RSt10error_code _ZNSt3_V216generic_categoryEv 1224
_ZNSt10filesystem12do_copy_fileEPKcS1_NS_26copy_options_existing_fileEP4statS4_RSt10error_code _ZNSt10filesystem16make_file_statusERK4stat 1252
_ZNSt10filesystem12do_copy_fileEPKcS1_NS_26copy_options_existing_fileEP4statS4_RSt10error_code stat64 1284
_ZNSt10filesystem12do_copy_fileEPKcS1_NS_26copy_options_existing_fileEP4statS4_RSt10error_code __errno_location 1304
_ZNSt10filesystem12do_copy_fileEPKcS1_NS_26copy_options_existing_fileEP4statS4_RSt10error_code _ZNSt3_V216generic_categoryEv 1312
_ZNSt10filesystem9copy_fileERKNS_7__cxx114pathES3_NS_12copy_optionsERSt10error_code _ZNSt10filesystem17copy_file_optionsENS_12copy_optionsE 20
_ZNSt10filesystem9copy_fileERKNS_7__cxx114pathES3_NS_12copy_optionsERSt10error_code _ZNSt10filesystem12do_copy_fileEPKcS1_NS_26copy_options_existing_fileEP4statS4_RSt10error_code 68
_ZNSt11_Deque_baseINSt10filesystem7__cxx114pathESaIS2_EEC1Ev,_ZNSt11_Deque_baseINSt10filesystem7__cxx114pathESaIS2_EEC2Ev _Znwj 60
_ZNSt11_Deque_baseINSt10filesystem7__cxx114pathESaIS2_EEC1Ev,_ZNSt11_Deque_baseINSt10filesystem7__cxx114pathESaIS2_EEC2Ev _Znwj 92
_ZNSt11_Deque_baseINSt10filesystem7__cxx114pathESaIS2_EEC1Ev,_ZNSt11_Deque_baseINSt10filesystem7__cxx114pathESaIS2_EEC2Ev __cxa_begin_catch 100
_ZNSt11_Deque_baseINSt10filesystem7__cxx114pathESaIS2_EEC1Ev,_ZNSt11_Deque_baseINSt10filesystem7__cxx114pathESaIS2_EEC2Ev _ZNSt11_Deque_baseINSt10filesystem7__cxx114pathESaIS2_EE16_M_destroy_nodesEPPS2_S6_.isra.117 112
_ZNSt11_Deque_baseINSt10filesystem7__cxx114pathESaIS2_EEC1Ev,_ZNSt11_Deque_baseINSt10filesystem7__cxx114pathESaIS2_EEC2Ev __cxa_rethrow 116
_ZNSt11_Deque_baseINSt10filesystem7__cxx114pathESaIS2_EEC1Ev,_ZNSt11_Deque_baseINSt10filesystem7__cxx114pathESaIS2_EEC2Ev __cxa_end_catch 124
_ZNSt11_Deque_baseINSt10filesystem7__cxx114pathESaIS2_EEC1Ev,_ZNSt11_Deque_baseINSt10filesystem7__cxx114pathESaIS2_EEC2Ev __cxa_begin_catch 132
_ZNSt11_Deque_baseINSt10filesystem7__cxx114pathESaIS2_EEC1Ev,_ZNSt11_Deque_baseINSt10filesystem7__cxx114pathESaIS2_EEC2Ev _ZdlPv 140
_ZNSt11_Deque_baseINSt10filesystem7__cxx114pathESaIS2_EEC1Ev,_ZNSt11_Deque_baseINSt10filesystem7__cxx114pathESaIS2_EEC2Ev __cxa_rethrow 156
_ZNSt11_Deque_baseINSt10filesystem7__cxx114pathESaIS2_EEC1Ev,_ZNSt11_Deque_baseINSt10filesystem7__cxx114pathESaIS2_EEC2Ev __cxa_end_catch 160
_ZNSt11_Deque_baseINSt10filesystem7__cxx114pathESaIS2_EEC1Ev,_ZNSt11_Deque_baseINSt10filesystem7__cxx114pathESaIS2_EEC2Ev __cxa_end_cleanup 164
_ZNSt11_Deque_baseINSt10filesystem7__cxx114pathESaIS2_EED1Ev,_ZNSt11_Deque_baseINSt10filesystem7__cxx114pathESaIS2_EED2Ev _ZNSt11_Deque_baseINSt10filesystem7__cxx114pathESaIS2_EE16_M_destroy_nodesEPPS2_S6_.isra.117 32
_ZNSt11_Deque_baseINSt10filesystem7__cxx114pathESaIS2_EED1Ev,_ZNSt11_Deque_baseINSt10filesystem7__cxx114pathESaIS2_EED2Ev _ZdlPv 40
_ZNSt5dequeINSt10filesystem7__cxx114pathESaIS2_EE4backEv _ZNSt15_Deque_iteratorINSt10filesystem7__cxx114pathERS2_PS2_EC1ERKS5_ 12
_ZNKSt15_Deque_iteratorINSt10filesystem7__cxx114pathERS2_PS2_EplEi _ZNSt15_Deque_iteratorINSt10filesystem7__cxx114pathERS2_PS2_EC1ERKS5_ 20
_ZNKSt15_Deque_iteratorINSt10filesystem7__cxx114pathERS2_PS2_EplEi _ZNSt15_Deque_iteratorINSt10filesystem7__cxx114pathERS2_PS2_EpLEi 32
_ZNKSt15_Deque_iteratorINSt10filesystem7__cxx114pathERS2_PS2_EplEi _ZNSt15_Deque_iteratorINSt10filesystem7__cxx114pathERS2_PS2_EC1ERKS5_ 44
_ZNSt7__cxx1112basic_stringIcSt11char_traitsIcESaIcEEC2IS3_EEPKcRKS3_.constprop.160 _ZNSt11char_traitsIcE6lengthEPKc 32
_ZNSt7__cxx1112basic_stringIcSt11char_traitsIcESaIcEEC2IS3_EEPKcRKS3_.constprop.160 _ZNSt7__cxx1112basic_stringIcSt11char_traitsIcESaIcEE12_M_constructIPKcEEvT_S8_St20forward_iterator_tag 52
_ZNSt10filesystem19temp_directory_pathB5cxx11ERSt10error_code getenv 60
_ZNSt10filesystem19temp_directory_pathB5cxx11ERSt10error_code _ZNSt7__cxx1112basic_stringIcSt11char_traitsIcESaIcEEC2IS3_EEPKcRKS3_.constprop.160 80
_ZNSt10filesystem19temp_directory_pathB5cxx11ERSt10error_code _ZNSt10filesystem7__cxx114path14_M_split_cmptsEv 112
_ZNSt10filesystem19temp_directory_pathB5cxx11ERSt10error_code _ZNSt10filesystem6statusERKNS_7__cxx114pathERSt10error_code 144
_ZNSt10filesystem19temp_directory_pathB5cxx11ERSt10error_code _ZNSt10filesystem7__cxx114pathC1Ev 164
_ZNSt10filesystem19temp_directory_pathB5cxx11ERSt10error_code _ZNSt6vectorINSt10filesystem7__cxx114path5_CmptESaIS3_EED1Ev 176
_ZNSt10filesystem19temp_directory_pathB5cxx11ERSt10error_code _ZNSt7__cxx1112basic_stringIcSt11char_traitsIcESaIcEE10_M_disposeEv 184
_ZNSt10filesystem19temp_directory_pathB5cxx11ERSt10error_code __cxa_end_cleanup 188
_ZNSt10filesystem19temp_directory_pathB5cxx11ERSt10error_code _ZNSt10error_code5clearEv 208
_ZNSt10filesystem19temp_directory_pathB5cxx11ERSt10error_code _ZNSt10filesystem7__cxx114pathC1EOS1_ 220
_ZNSt10filesystem19temp_directory_pathB5cxx11ERSt10error_code _ZNSt10filesystem7__cxx114pathD1Ev 228
_ZNSt10filesystem19temp_directory_pathB5cxx11ERSt10error_code _ZNSt3_V216generic_categoryEv 244
_ZNSt10filesystem19temp_directory_pathB5cxx11ERSt10error_code .LC8 268
_ZNSt10filesystem7__cxx114pathaSEOS1_.part.111 _ZNSt7__cxx1112basic_stringIcSt11char_traitsIcESaIcEE7_S_copyEPcPKcj 48
_ZNSt10filesystem7__cxx114pathaSEOS1_.part.111 _ZNSt6vectorINSt10filesystem7__cxx114path5_CmptESaIS3_EED1Ev 172
_ZNSt10filesystem7__cxx114pathaSEOS1_.part.111 _ZNSt10filesystem7__cxx114path5clearEv 188
_ZNSt10filesystem7__cxx114pathaSEOS1_ _ZNSt10filesystem7__cxx114pathaSEOS1_.part.111 16
_ZNSt10filesystem7__cxx114path6assignIPcEERNSt9enable_ifIXsrSt6__and_IJSt6__not_ISt7is_sameINSt9remove_cvIT_E4typeES1_EES6_ISt7is_voidINSt14remove_pointerIS9_E4typeEEENS1_20__constructible_fromIS9_vEEEE5valueES1_E4typeERKS9_ _ZNSt7__cxx1112basic_stringIcSt11char_traitsIcESaIcEEC2IS3_EEPKcRKS3_.constprop.160 24
_ZNSt10filesystem7__cxx114path6assignIPcEERNSt9enable_ifIXsrSt6__and_IJSt6__not_ISt7is_sameINSt9remove_cvIT_E4typeES1_EES6_ISt7is_voidINSt14remove_pointerIS9_E4typeEEENS1_20__constructible_fromIS9_vEEEE5valueES1_E4typeERKS9_ _ZNSt10filesystem7__cxx114path14_M_split_cmptsEv 56
_ZNSt10filesystem7__cxx114path6assignIPcEERNSt9enable_ifIXsrSt6__and_IJSt6__not_ISt7is_sameINSt9remove_cvIT_E4typeES1_EES6_ISt7is_voidINSt14remove_pointerIS9_E4typeEEENS1_20__constructible_fromIS9_vEEEE5valueES1_E4typeERKS9_ _ZNSt6vectorINSt10filesystem7__cxx114path5_CmptESaIS3_EED1Ev 68
_ZNSt10filesystem7__cxx114path6assignIPcEERNSt9enable_ifIXsrSt6__and_IJSt6__not_ISt7is_sameINSt9remove_cvIT_E4typeES1_EES6_ISt7is_voidINSt14remove_pointerIS9_E4typeEEENS1_20__constructible_fromIS9_vEEEE5valueES1_E4typeERKS9_ _ZNSt7__cxx1112basic_stringIcSt11char_traitsIcESaIcEE10_M_disposeEv 76
_ZNSt10filesystem7__cxx114path6assignIPcEERNSt9enable_ifIXsrSt6__and_IJSt6__not_ISt7is_sameINSt9remove_cvIT_E4typeES1_EES6_ISt7is_voidINSt14remove_pointerIS9_E4typeEEENS1_20__constructible_fromIS9_vEEEE5valueES1_E4typeERKS9_ __cxa_end_cleanup 80
_ZNSt10filesystem7__cxx114path6assignIPcEERNSt9enable_ifIXsrSt6__and_IJSt6__not_ISt7is_sameINSt9remove_cvIT_E4typeES1_EES6_ISt7is_voidINSt14remove_pointerIS9_E4typeEEENS1_20__constructible_fromIS9_vEEEE5valueES1_E4typeERKS9_ _ZNSt10filesystem7__cxx114pathaSEOS1_ 92
_ZNSt10filesystem7__cxx114path6assignIPcEERNSt9enable_ifIXsrSt6__and_IJSt6__not_ISt7is_sameINSt9remove_cvIT_E4typeES1_EES6_ISt7is_voidINSt14remove_pointerIS9_E4typeEEENS1_20__constructible_fromIS9_vEEEE5valueES1_E4typeERKS9_ _ZNSt10filesystem7__cxx114pathD1Ev 104
_ZNSt10filesystem12current_pathB5cxx11ERSt10error_code _ZNSt10filesystem7__cxx114pathC1Ev 16
_ZNSt10filesystem12current_pathB5cxx11ERSt10error_code getcwd 28
_ZNSt10filesystem12current_pathB5cxx11ERSt10error_code _ZNSt10filesystem7__cxx114path6assignIPcEERNSt9enable_ifIXsrSt6__and_IJSt6__not_ISt7is_sameINSt9remove_cvIT_E4typeES1_EES6_ISt7is_voidINSt14remove_pointerIS9_E4typeEEENS1_20__constructible_fromIS9_vEEEE5valueES1_E4typeERKS9_ 56
_ZNSt10filesystem12current_pathB5cxx11ERSt10error_code _ZNSt10error_code5clearEv 64
_ZNSt10filesystem12current_pathB5cxx11ERSt10error_code _ZNSt10unique_ptrIA_cN12_GLOBAL__N_117free_as_in_mallocEED1Ev 72
_ZNSt10filesystem12current_pathB5cxx11ERSt10error_code __errno_location 88
_ZNSt10filesystem12current_pathB5cxx11ERSt10error_code _ZNSt3_V216generic_categoryEv 96
_ZNSt10filesystem12current_pathB5cxx11ERSt10error_code _ZNSt10unique_ptrIA_cN12_GLOBAL__N_117free_as_in_mallocEED1Ev 116
_ZNSt10filesystem12current_pathB5cxx11ERSt10error_code _ZNSt10filesystem7__cxx114pathD1Ev 124
_ZNSt10filesystem12current_pathB5cxx11ERSt10error_code __cxa_end_cleanup 128
_ZNKSt10filesystem7__cxx114path8filenameEv _ZNSt10filesystem7__cxx114pathC1Ev 24
_ZNKSt10filesystem7__cxx114path8filenameEv _ZNSt10filesystem7__cxx114pathC1ERKS1_ 52
_ZNKSt10filesystem7__cxx114path8filenameEv _ZNKSt10filesystem7__cxx114path8iteratordeEv 112
_ZNSt10filesystem7__cxx114pathdVERKS1_ _ZNKSt10filesystem7__cxx114path18has_root_directoryEv 16
_ZNSt10filesystem7__cxx114pathdVERKS1_ _ZNSt10filesystem7__cxx114pathaSERKS1_ 36
_ZNSt10filesystem7__cxx114pathdVERKS1_ _ZNKSt10filesystem7__cxx114path12has_filenameEv 52
_ZNSt10filesystem7__cxx114pathdVERKS1_ _ZNSt7__cxx1112basic_stringIcSt11char_traitsIcESaIcEE9push_backEc 84
_ZNSt10filesystem7__cxx114pathdVERKS1_ _ZNSt7__cxx1112basic_stringIcSt11char_traitsIcESaIcEEpLERKS4_ 96
_ZNSt10filesystem7__cxx114pathdVERKS1_ _ZNSt10filesystem7__cxx114path14_M_split_cmptsEv 104
_ZNSt10filesystem7__cxx11dvERKNS0_4pathES3_ _ZNSt10filesystem7__cxx114pathC1ERKS1_ 12
_ZNSt10filesystem7__cxx11dvERKNS0_4pathES3_ _ZNSt10filesystem7__cxx114pathdVERKS1_ 24
_ZNSt10filesystem7__cxx11dvERKNS0_4pathES3_ _ZNSt10filesystem7__cxx114pathD1Ev 36
_ZNSt10filesystem7__cxx11dvERKNS0_4pathES3_ __cxa_end_cleanup 40
_ZNSt10filesystem8absoluteERKNS_7__cxx114pathERSt10error_code _ZNSt10filesystem7__cxx114pathC1Ev 20
_ZNSt10filesystem8absoluteERKNS_7__cxx114pathERSt10error_code _ZNSt3_V216generic_categoryEv 36
_ZNSt10filesystem8absoluteERKNS_7__cxx114pathERSt10error_code _ZNKSt10filesystem7__cxx114path18has_root_directoryEv 68
_ZNSt10filesystem8absoluteERKNS_7__cxx114pathERSt10error_code _ZNSt10error_code5clearEv 84
_ZNSt10filesystem8absoluteERKNS_7__cxx114pathERSt10error_code _ZNSt10filesystem7__cxx114pathaSERKS1_ 96
_ZNSt10filesystem8absoluteERKNS_7__cxx114pathERSt10error_code _ZNSt10filesystem12current_pathB5cxx11ERSt10error_code 116
_ZNSt10filesystem8absoluteERKNS_7__cxx114pathERSt10error_code _ZNSt10filesystem7__cxx114pathaSEOS1_ 128
_ZNSt10filesystem8absoluteERKNS_7__cxx114pathERSt10error_code _ZNSt10filesystem7__cxx114pathD1Ev 136
_ZNSt10filesystem8absoluteERKNS_7__cxx114pathERSt10error_code _ZNSt10filesystem7__cxx114pathdVERKS1_ 148
_ZNSt10filesystem8absoluteERKNS_7__cxx114pathERSt10error_code _ZNSt10filesystem7__cxx114pathD1Ev 160
_ZNSt10filesystem8absoluteERKNS_7__cxx114pathERSt10error_code __cxa_end_cleanup 164
_ZNSt10filesystem12read_symlinkERKNS_7__cxx114pathERSt10error_code _ZNSt10filesystem7__cxx114pathC1Ev 20
_ZNSt10filesystem12read_symlinkERKNS_7__cxx114pathERSt10error_code lstat64 32
_ZNSt10filesystem12read_symlinkERKNS_7__cxx114pathERSt10error_code __errno_location 44
_ZNSt10filesystem12read_symlinkERKNS_7__cxx114pathERSt10error_code _ZNSt3_V216generic_categoryEv 52
_ZNSt10filesystem12read_symlinkERKNS_7__cxx114pathERSt10error_code _ZNSt7__cxx1112basic_stringIcSt11char_traitsIcESaIcEE9_M_createERjj.isra.90 116
_ZNSt10filesystem12read_symlinkERKNS_7__cxx114pathERSt10error_code _ZNSt7__cxx1112basic_stringIcSt11char_traitsIcESaIcEE9_S_assignEPcjc 152
_ZNSt10filesystem12read_symlinkERKNS_7__cxx114pathERSt10error_code readlink 192
_ZNSt10filesystem12read_symlinkERKNS_7__cxx114pathERSt10error_code __errno_location 204
_ZNSt10filesystem12read_symlinkERKNS_7__cxx114pathERSt10error_code _ZNSt3_V216generic_categoryEv 212
_ZNSt10filesystem12read_symlinkERKNS_7__cxx114pathERSt10error_code _ZNSt7__cxx1112basic_stringIcSt11char_traitsIcESaIcEE10_M_disposeEv 228
_ZNSt10filesystem12read_symlinkERKNS_7__cxx114pathERSt10error_code _ZNSt3_V216generic_categoryEv 256
_ZNSt10filesystem12read_symlinkERKNS_7__cxx114pathERSt10error_code _ZNSt7__cxx1112basic_stringIcSt11char_traitsIcESaIcEE6resizeEjc 284
_ZNSt10filesystem12read_symlinkERKNS_7__cxx114pathERSt10error_code _ZNSt7__cxx1112basic_stringIcSt11char_traitsIcESaIcEE6resizeEjc 304
_ZNSt10filesystem12read_symlinkERKNS_7__cxx114pathERSt10error_code _ZNSt7__cxx1112basic_stringIcSt11char_traitsIcESaIcEE12_M_constructIPKcEEvT_S8_St20forward_iterator_tag 340
_ZNSt10filesystem12read_symlinkERKNS_7__cxx114pathERSt10error_code _ZNSt10filesystem7__cxx114path14_M_split_cmptsEv 372
_ZNSt10filesystem12read_symlinkERKNS_7__cxx114pathERSt10error_code _ZNSt10filesystem7__cxx114pathaSEOS1_ 384
_ZNSt10filesystem12read_symlinkERKNS_7__cxx114pathERSt10error_code _ZNSt10filesystem7__cxx114pathD1Ev 392
_ZNSt10filesystem12read_symlinkERKNS_7__cxx114pathERSt10error_code _ZNSt10error_code5clearEv 400
_ZNSt10filesystem12read_symlinkERKNS_7__cxx114pathERSt10error_code _ZNSt6vectorINSt10filesystem7__cxx114path5_CmptESaIS3_EED1Ev 412
_ZNSt10filesystem12read_symlinkERKNS_7__cxx114pathERSt10error_code _ZNSt7__cxx1112basic_stringIcSt11char_traitsIcESaIcEE10_M_disposeEv 420
_ZNSt10filesystem12read_symlinkERKNS_7__cxx114pathERSt10error_code _ZNSt7__cxx1112basic_stringIcSt11char_traitsIcESaIcEE10_M_disposeEv 428
_ZNSt10filesystem12read_symlinkERKNS_7__cxx114pathERSt10error_code _ZNSt10filesystem7__cxx114pathD1Ev 436
_ZNSt10filesystem12read_symlinkERKNS_7__cxx114pathERSt10error_code __cxa_end_cleanup 440
_ZNSt10filesystem12copy_symlinkERKNS_7__cxx114pathES3_RSt10error_code _ZNSt10filesystem12read_symlinkERKNS_7__cxx114pathERSt10error_code 28
_ZNSt10filesystem12copy_symlinkERKNS_7__cxx114pathES3_RSt10error_code _ZNSt10filesystem7__cxx114pathD1Ev 48
_ZNSt10filesystem12copy_symlinkERKNS_7__cxx114pathES3_RSt10error_code _ZNSt10filesystem14create_symlinkERKNS_7__cxx114pathES3_RSt10error_code 72
_ZNSt10filesystem4copyERKNS_7__cxx114pathES3_NS_12copy_optionsERSt10error_code,_ZNSt10filesystem4copyERKNS_7__cxx114pathES3_NS_12copy_optionsERSt10error_code.localalias.155 lstat64 44
_ZNSt10filesystem4copyERKNS_7__cxx114pathES3_NS_12copy_optionsERSt10error_code,_ZNSt10filesystem4copyERKNS_7__cxx114pathES3_NS_12copy_optionsERSt10error_code.localalias.155 __errno_location 64
_ZNSt10filesystem4copyERKNS_7__cxx114pathES3_NS_12copy_optionsERSt10error_code,_ZNSt10filesystem4copyERKNS_7__cxx114pathES3_NS_12copy_optionsERSt10error_code.localalias.155 _ZNSt3_V216generic_categoryEv 72
_ZNSt10filesystem4copyERKNS_7__cxx114pathES3_NS_12copy_optionsERSt10error_code,_ZNSt10filesystem4copyERKNS_7__cxx114pathES3_NS_12copy_optionsERSt10error_code.localalias.155 stat64 92
_ZNSt10filesystem4copyERKNS_7__cxx114pathES3_NS_12copy_optionsERSt10error_code,_ZNSt10filesystem4copyERKNS_7__cxx114pathES3_NS_12copy_optionsERSt10error_code.localalias.155 lstat64 124
_ZNSt10filesystem4copyERKNS_7__cxx114pathES3_NS_12copy_optionsERSt10error_code,_ZNSt10filesystem4copyERKNS_7__cxx114pathES3_NS_12copy_optionsERSt10error_code.localalias.155 __errno_location 144
_ZNSt10filesystem4copyERKNS_7__cxx114pathES3_NS_12copy_optionsERSt10error_code,_ZNSt10filesystem4copyERKNS_7__cxx114pathES3_NS_12copy_optionsERSt10error_code.localalias.155 _ZNSt3_V216generic_categoryEv 168
_ZNSt10filesystem4copyERKNS_7__cxx114pathES3_NS_12copy_optionsERSt10error_code,_ZNSt10filesystem4copyERKNS_7__cxx114pathES3_NS_12copy_optionsERSt10error_code.localalias.155 stat64 184
_ZNSt10filesystem4copyERKNS_7__cxx114pathES3_NS_12copy_optionsERSt10error_code,_ZNSt10filesystem4copyERKNS_7__cxx114pathES3_NS_12copy_optionsERSt10error_code.localalias.155 _ZNSt10filesystem16make_file_statusERK4stat 204
_ZNSt10filesystem4copyERKNS_7__cxx114pathES3_NS_12copy_optionsERSt10error_code,_ZNSt10filesystem4copyERKNS_7__cxx114pathES3_NS_12copy_optionsERSt10error_code.localalias.155 _ZNSt10filesystem16make_file_statusERK4stat 224
_ZNSt10filesystem4copyERKNS_7__cxx114pathES3_NS_12copy_optionsERSt10error_code,_ZNSt10filesystem4copyERKNS_7__cxx114pathES3_NS_12copy_optionsERSt10error_code.localalias.155 _ZNSt10filesystem6existsENS_11file_statusE.isra.25 236
_ZNSt10filesystem4copyERKNS_7__cxx114pathES3_NS_12copy_optionsERSt10error_code,_ZNSt10filesystem4copyERKNS_7__cxx114pathES3_NS_12copy_optionsERSt10error_code.localalias.155 _ZNSt10filesystem8is_otherENS_11file_statusE.isra.26 252
_ZNSt10filesystem4copyERKNS_7__cxx114pathES3_NS_12copy_optionsERSt10error_code,_ZNSt10filesystem4copyERKNS_7__cxx114pathES3_NS_12copy_optionsERSt10error_code.localalias.155 _ZNSt10filesystem8is_otherENS_11file_statusE.isra.26 268
_ZNSt10filesystem4copyERKNS_7__cxx114pathES3_NS_12copy_optionsERSt10error_code,_ZNSt10filesystem4copyERKNS_7__cxx114pathES3_NS_12copy_optionsERSt10error_code.localalias.155 _ZNSt3_V216generic_categoryEv 324
_ZNSt10filesystem4copyERKNS_7__cxx114pathES3_NS_12copy_optionsERSt10error_code,_ZNSt10filesystem4copyERKNS_7__cxx114pathES3_NS_12copy_optionsERSt10error_code.localalias.155 _ZNSt10filesystem8is_otherENS_11file_statusE.isra.26 344
_ZNSt10filesystem4copyERKNS_7__cxx114pathES3_NS_12copy_optionsERSt10error_code,_ZNSt10filesystem4copyERKNS_7__cxx114pathES3_NS_12copy_optionsERSt10error_code.localalias.155 _ZNSt10filesystem8is_otherENS_11file_statusE.isra.26 360
_ZNSt10filesystem4copyERKNS_7__cxx114pathES3_NS_12copy_optionsERSt10error_code,_ZNSt10filesystem4copyERKNS_7__cxx114pathES3_NS_12copy_optionsERSt10error_code.localalias.155 _ZNSt3_V216generic_categoryEv 392
_ZNSt10filesystem4copyERKNS_7__cxx114pathES3_NS_12copy_optionsERSt10error_code,_ZNSt10filesystem4copyERKNS_7__cxx114pathES3_NS_12copy_optionsERSt10error_code.localalias.155 _ZNSt3_V216generic_categoryEv 404
_ZNSt10filesystem4copyERKNS_7__cxx114pathES3_NS_12copy_optionsERSt10error_code,_ZNSt10filesystem4copyERKNS_7__cxx114pathES3_NS_12copy_optionsERSt10error_code.localalias.155 _ZNSt10error_code5clearEv 436
_ZNSt10filesystem4copyERKNS_7__cxx114pathES3_NS_12copy_optionsERSt10error_code,_ZNSt10filesystem4copyERKNS_7__cxx114pathES3_NS_12copy_optionsERSt10error_code.localalias.155 _ZNSt3_V216generic_categoryEv 460
_ZNSt10filesystem4copyERKNS_7__cxx114pathES3_NS_12copy_optionsERSt10error_code,_ZNSt10filesystem4copyERKNS_7__cxx114pathES3_NS_12copy_optionsERSt10error_code.localalias.155 _ZNSt10filesystem12copy_symlinkERKNS_7__cxx114pathES3_RSt10error_code 484
_ZNSt10filesystem4copyERKNS_7__cxx114pathES3_NS_12copy_optionsERSt10error_code,_ZNSt10filesystem4copyERKNS_7__cxx114pathES3_NS_12copy_optionsERSt10error_code.localalias.155 _ZNSt10filesystem14create_symlinkERKNS_7__cxx114pathES3_RSt10error_code 528
_ZNSt10filesystem4copyERKNS_7__cxx114pathES3_NS_12copy_optionsERSt10error_code,_ZNSt10filesystem4copyERKNS_7__cxx114pathES3_NS_12copy_optionsERSt10error_code.localalias.155 _ZNSt10filesystem16create_hard_linkERKNS_7__cxx114pathES3_RSt10error_code 556
_ZNSt10filesystem4copyERKNS_7__cxx114pathES3_NS_12copy_optionsERSt10error_code,_ZNSt10filesystem4copyERKNS_7__cxx114pathES3_NS_12copy_optionsERSt10error_code.localalias.155 _ZNKSt10filesystem7__cxx114path8filenameEv 592
_ZNSt10filesystem4copyERKNS_7__cxx114pathES3_NS_12copy_optionsERSt10error_code,_ZNSt10filesystem4copyERKNS_7__cxx114pathES3_NS_12copy_optionsERSt10error_code.localalias.155 _ZNSt10filesystem7__cxx11dvERKNS0_4pathES3_ 608
_ZNSt10filesystem4copyERKNS_7__cxx114pathES3_NS_12copy_optionsERSt10error_code,_ZNSt10filesystem4copyERKNS_7__cxx114pathES3_NS_12copy_optionsERSt10error_code.localalias.155 _ZNSt10filesystem17copy_file_optionsENS_12copy_optionsE 616
_ZNSt10filesystem4copyERKNS_7__cxx114pathES3_NS_12copy_optionsERSt10error_code,_ZNSt10filesystem4copyERKNS_7__cxx114pathES3_NS_12copy_optionsERSt10error_code.localalias.155 _ZNSt10filesystem12do_copy_fileEPKcS1_NS_26copy_options_existing_fileEP4statS4_RSt10error_code 668
_ZNSt10filesystem4copyERKNS_7__cxx114pathES3_NS_12copy_optionsERSt10error_code,_ZNSt10filesystem4copyERKNS_7__cxx114pathES3_NS_12copy_optionsERSt10error_code.localalias.155 _ZNSt10filesystem7__cxx114pathD1Ev 676
_ZNSt10filesystem4copyERKNS_7__cxx114pathES3_NS_12copy_optionsERSt10error_code,_ZNSt10filesystem4copyERKNS_7__cxx114pathES3_NS_12copy_optionsERSt10error_code.localalias.155 _ZNSt10filesystem7__cxx114pathD1Ev 684
_ZNSt10filesystem4copyERKNS_7__cxx114pathES3_NS_12copy_optionsERSt10error_code,_ZNSt10filesystem4copyERKNS_7__cxx114pathES3_NS_12copy_optionsERSt10error_code.localalias.155 _ZNSt10filesystem17copy_file_optionsENS_12copy_optionsE 716
_ZNSt10filesystem4copyERKNS_7__cxx114pathES3_NS_12copy_optionsERSt10error_code,_ZNSt10filesystem4copyERKNS_7__cxx114pathES3_NS_12copy_optionsERSt10error_code.localalias.155 _ZNSt10filesystem12do_copy_fileEPKcS1_NS_26copy_options_existing_fileEP4statS4_RSt10error_code 764
_ZNSt10filesystem4copyERKNS_7__cxx114pathES3_NS_12copy_optionsERSt10error_code,_ZNSt10filesystem4copyERKNS_7__cxx114pathES3_NS_12copy_optionsERSt10error_code.localalias.155 _ZNSt10filesystem16create_directoryERKNS_7__cxx114pathES3_RSt10error_code 844
_ZNSt10filesystem4copyERKNS_7__cxx114pathES3_NS_12copy_optionsERSt10error_code,_ZNSt10filesystem4copyERKNS_7__cxx114pathES3_NS_12copy_optionsERSt10error_code.localalias.155 _ZNSt10filesystem7__cxx1118directory_iteratorC1ERKNS0_4pathENS_17directory_optionsEPSt10error_code 892
_ZNSt10filesystem4copyERKNS_7__cxx114pathES3_NS_12copy_optionsERSt10error_code,_ZNSt10filesystem4copyERKNS_7__cxx114pathES3_NS_12copy_optionsERSt10error_code.localalias.155 _ZNSt12__shared_ptrINSt10filesystem7__cxx114_DirELN9__gnu_cxx12_Lock_policyE2EEC2ERKS5_ 904
_ZNSt10filesystem4copyERKNS_7__cxx114pathES3_NS_12copy_optionsERSt10error_code,_ZNSt10filesystem4copyERKNS_7__cxx114pathES3_NS_12copy_optionsERSt10error_code.localalias.155 _ZNSt14__shared_countILN9__gnu_cxx12_Lock_policyE2EED1Ev 948
_ZNSt10filesystem4copyERKNS_7__cxx114pathES3_NS_12copy_optionsERSt10error_code,_ZNSt10filesystem4copyERKNS_7__cxx114pathES3_NS_12copy_optionsERSt10error_code.localalias.155 _ZNSt12__shared_ptrINSt10filesystem7__cxx114_DirELN9__gnu_cxx12_Lock_policyE2EEC2ERKS5_ 960
_ZNSt10filesystem4copyERKNS_7__cxx114pathES3_NS_12copy_optionsERSt10error_code,_ZNSt10filesystem4copyERKNS_7__cxx114pathES3_NS_12copy_optionsERSt10error_code.localalias.155 _ZNSt14__shared_countILN9__gnu_cxx12_Lock_policyE2EED1Ev 984
_ZNSt10filesystem4copyERKNS_7__cxx114pathES3_NS_12copy_optionsERSt10error_code,_ZNSt10filesystem4copyERKNS_7__cxx114pathES3_NS_12copy_optionsERSt10error_code.localalias.155 _ZNSt10filesystem7__cxx11neERKNS0_18directory_iteratorES3_ 996
_ZNSt10filesystem4copyERKNS_7__cxx114pathES3_NS_12copy_optionsERSt10error_code,_ZNSt10filesystem4copyERKNS_7__cxx114pathES3_NS_12copy_optionsERSt10error_code.localalias.155 _ZNKSt10filesystem7__cxx1118directory_iteratordeEv 1012
_ZNSt10filesystem4copyERKNS_7__cxx114pathES3_NS_12copy_optionsERSt10error_code,_ZNSt10filesystem4copyERKNS_7__cxx114pathES3_NS_12copy_optionsERSt10error_code.localalias.155 _ZNKSt10filesystem7__cxx114path8filenameEv 1028
_ZNSt10filesystem4copyERKNS_7__cxx114pathES3_NS_12copy_optionsERSt10error_code,_ZNSt10filesystem4copyERKNS_7__cxx114pathES3_NS_12copy_optionsERSt10error_code.localalias.155 _ZNSt10filesystem7__cxx11dvERKNS0_4pathES3_ 1044
_ZNSt10filesystem4copyERKNS_7__cxx114pathES3_NS_12copy_optionsERSt10error_code,_ZNSt10filesystem4copyERKNS_7__cxx114pathES3_NS_12copy_optionsERSt10error_code.localalias.155 _ZNSt10filesystem7__cxx114pathD1Ev 1072
_ZNSt10filesystem4copyERKNS_7__cxx114pathES3_NS_12copy_optionsERSt10error_code,_ZNSt10filesystem4copyERKNS_7__cxx114pathES3_NS_12copy_optionsERSt10error_code.localalias.155 _ZNSt10filesystem7__cxx114pathD1Ev 1080
_ZNSt10filesystem4copyERKNS_7__cxx114pathES3_NS_12copy_optionsERSt10error_code,_ZNSt10filesystem4copyERKNS_7__cxx114pathES3_NS_12copy_optionsERSt10error_code.localalias.155 _ZNSt10filesystem7__cxx1118directory_iteratorppEv 1088
_ZNSt10filesystem4copyERKNS_7__cxx114pathES3_NS_12copy_optionsERSt10error_code,_ZNSt10filesystem4copyERKNS_7__cxx114pathES3_NS_12copy_optionsERSt10error_code.localalias.155 _ZNSt14__shared_countILN9__gnu_cxx12_Lock_policyE2EED1Ev 1100
_ZNSt10filesystem4copyERKNS_7__cxx114pathES3_NS_12copy_optionsERSt10error_code,_ZNSt10filesystem4copyERKNS_7__cxx114pathES3_NS_12copy_optionsERSt10error_code.localalias.155 _ZNSt14__shared_countILN9__gnu_cxx12_Lock_policyE2EED1Ev 1108
_ZNSt10filesystem4copyERKNS_7__cxx114pathES3_NS_12copy_optionsERSt10error_code,_ZNSt10filesystem4copyERKNS_7__cxx114pathES3_NS_12copy_optionsERSt10error_code.localalias.155 _ZNSt14__shared_countILN9__gnu_cxx12_Lock_policyE2EED1Ev 1116
_ZNSt10filesystem4copyERKNS_7__cxx114pathES3_NS_12copy_optionsERSt10error_code,_ZNSt10filesystem4copyERKNS_7__cxx114pathES3_NS_12copy_optionsERSt10error_code.localalias.155 _ZNSt10filesystem7__cxx114pathD1Ev 1128
_ZNSt10filesystem4copyERKNS_7__cxx114pathES3_NS_12copy_optionsERSt10error_code,_ZNSt10filesystem4copyERKNS_7__cxx114pathES3_NS_12copy_optionsERSt10error_code.localalias.155 __cxa_end_cleanup 1132
_ZNSt10filesystem4copyERKNS_7__cxx114pathES3_NS_12copy_optionsERSt10error_code,_ZNSt10filesystem4copyERKNS_7__cxx114pathES3_NS_12copy_optionsERSt10error_code.localalias.155 _ZNSt10filesystem7__cxx114pathD1Ev 1140
_ZNSt10filesystem4copyERKNS_7__cxx114pathES3_NS_12copy_optionsERSt10error_code,_ZNSt10filesystem4copyERKNS_7__cxx114pathES3_NS_12copy_optionsERSt10error_code.localalias.155 _ZNSt10filesystem7__cxx114pathD1Ev 1148
_ZNSt10filesystem4copyERKNS_7__cxx114pathES3_NS_12copy_optionsERSt10error_code,_ZNSt10filesystem4copyERKNS_7__cxx114pathES3_NS_12copy_optionsERSt10error_code.localalias.155 _ZNSt14__shared_countILN9__gnu_cxx12_Lock_policyE2EED1Ev 1156
_ZNSt10filesystem4copyERKNS_7__cxx114pathES3_NS_12copy_optionsERSt10error_code,_ZNSt10filesystem4copyERKNS_7__cxx114pathES3_NS_12copy_optionsERSt10error_code.localalias.155 _ZNSt14__shared_countILN9__gnu_cxx12_Lock_policyE2EED1Ev 1164
_ZNSt10filesystem4copyERKNS_7__cxx114pathES3_NS_12copy_optionsERSt10error_code,_ZNSt10filesystem4copyERKNS_7__cxx114pathES3_NS_12copy_optionsERSt10error_code.localalias.155 _ZNSt14__shared_countILN9__gnu_cxx12_Lock_policyE2EED1Ev 1172
_ZNSt10filesystem12current_pathB5cxx11Ev _ZNSt10error_codeC1Ev 20
_ZNSt10filesystem12current_pathB5cxx11Ev _ZNSt10filesystem12current_pathB5cxx11ERSt10error_code 32
_ZNSt10filesystem12current_pathB5cxx11Ev __cxa_allocate_exception 64
_ZNSt10filesystem12current_pathB5cxx11Ev _ZNSt7__cxx1112basic_stringIcSt11char_traitsIcESaIcEEC2IS3_EEPKcRKS3_.constprop.160 84
_ZNSt10filesystem12current_pathB5cxx11Ev _ZNSt10filesystem7__cxx1116filesystem_errorC1ERKNSt7__cxx1112basic_stringIcSt11char_traitsIcESaIcEEESt10error_code 100
_ZNSt10filesystem12current_pathB5cxx11Ev _ZNSt7__cxx1112basic_stringIcSt11char_traitsIcESaIcEE10_M_disposeEv 108
_ZNSt10filesystem12current_pathB5cxx11Ev __cxa_throw 148
_ZNSt10filesystem12current_pathB5cxx11Ev _ZNSt7__cxx1112basic_stringIcSt11char_traitsIcESaIcEE10_M_disposeEv 160
_ZNSt10filesystem12current_pathB5cxx11Ev __cxa_free_exception 168
_ZNSt10filesystem12current_pathB5cxx11Ev _ZNSt10filesystem7__cxx114pathD1Ev 176
_ZNSt10filesystem12current_pathB5cxx11Ev __cxa_end_cleanup 180
_ZNSt10filesystem12current_pathB5cxx11Ev .LC14 204
_ZNSt10filesystem12current_pathB5cxx11Ev _ZNSt10filesystem7__cxx1116filesystem_errorD1Ev 208
_ZNSt10filesystem12current_pathB5cxx11Ev _ZTINSt10filesystem7__cxx1116filesystem_errorE 212
_ZNSt10filesystem12current_pathERKNS_7__cxx114pathE _ZNSt10error_codeC1Ev 20
_ZNSt10filesystem12current_pathERKNS_7__cxx114pathE _ZNSt10filesystem12current_pathERKNS_7__cxx114pathERSt10error_code 32
_ZNSt10filesystem12current_pathERKNS_7__cxx114pathE __cxa_allocate_exception 64
_ZNSt10filesystem12current_pathERKNS_7__cxx114pathE _ZNSt7__cxx1112basic_stringIcSt11char_traitsIcESaIcEEC2IS3_EEPKcRKS3_.constprop.160 84
_ZNSt10filesystem12current_pathERKNS_7__cxx114pathE _ZNSt10filesystem7__cxx1116filesystem_errorC1ERKNSt7__cxx1112basic_stringIcSt11char_traitsIcESaIcEEESt10error_code 100
_ZNSt10filesystem12current_pathERKNS_7__cxx114pathE _ZNSt7__cxx1112basic_stringIcSt11char_traitsIcESaIcEE10_M_disposeEv 108
_ZNSt10filesystem12current_pathERKNS_7__cxx114pathE __cxa_throw 148
_ZNSt10filesystem12current_pathERKNS_7__cxx114pathE _ZNSt7__cxx1112basic_stringIcSt11char_traitsIcESaIcEE10_M_disposeEv 156
_ZNSt10filesystem12current_pathERKNS_7__cxx114pathE __cxa_free_exception 164
_ZNSt10filesystem12current_pathERKNS_7__cxx114pathE __cxa_end_cleanup 168
_ZNSt10filesystem12current_pathERKNS_7__cxx114pathE .LC15 188
_ZNSt10filesystem12current_pathERKNS_7__cxx114pathE _ZNSt10filesystem7__cxx1116filesystem_errorD1Ev 192
_ZNSt10filesystem12current_pathERKNS_7__cxx114pathE _ZTINSt10filesystem7__cxx1116filesystem_errorE 196
_ZNSt10filesystem19temp_directory_pathB5cxx11Ev _ZNSt10error_codeC1Ev 20
_ZNSt10filesystem19temp_directory_pathB5cxx11Ev _ZNSt10filesystem19temp_directory_pathB5cxx11ERSt10error_code 32
_ZNSt10filesystem19temp_directory_pathB5cxx11Ev __cxa_allocate_exception 64
_ZNSt10filesystem19temp_directory_pathB5cxx11Ev _ZNSt7__cxx1112basic_stringIcSt11char_traitsIcESaIcEEC2IS3_EEPKcRKS3_.constprop.160 84
_ZNSt10filesystem19temp_directory_pathB5cxx11Ev _ZNSt10filesystem7__cxx1116filesystem_errorC1ERKNSt7__cxx1112basic_stringIcSt11char_traitsIcESaIcEEESt10error_code 100
_ZNSt10filesystem19temp_directory_pathB5cxx11Ev _ZNSt7__cxx1112basic_stringIcSt11char_traitsIcESaIcEE10_M_disposeEv 108
_ZNSt10filesystem19temp_directory_pathB5cxx11Ev __cxa_throw 148
_ZNSt10filesystem19temp_directory_pathB5cxx11Ev _ZNSt7__cxx1112basic_stringIcSt11char_traitsIcESaIcEE10_M_disposeEv 160
_ZNSt10filesystem19temp_directory_pathB5cxx11Ev __cxa_free_exception 168
_ZNSt10filesystem19temp_directory_pathB5cxx11Ev _ZNSt10filesystem7__cxx114pathD1Ev 176
_ZNSt10filesystem19temp_directory_pathB5cxx11Ev __cxa_end_cleanup 180
_ZNSt10filesystem19temp_directory_pathB5cxx11Ev .LC16 204
_ZNSt10filesystem19temp_directory_pathB5cxx11Ev _ZNSt10filesystem7__cxx1116filesystem_errorD1Ev 208
_ZNSt10filesystem19temp_directory_pathB5cxx11Ev _ZTINSt10filesystem7__cxx1116filesystem_errorE 212
_ZNSt10filesystem16create_directoryERKNS_7__cxx114pathE _ZNSt10error_codeC1Ev 20
_ZNSt10filesystem16create_directoryERKNS_7__cxx114pathE _ZNSt10filesystem16create_directoryERKNS_7__cxx114pathERSt10error_code 32
_ZNSt10filesystem16create_directoryERKNS_7__cxx114pathE __cxa_allocate_exception 64
_ZNSt10filesystem16create_directoryERKNS_7__cxx114pathE _ZNSt7__cxx1112basic_stringIcSt11char_traitsIcESaIcEEC2IS3_EEPKcRKS3_.constprop.160 84
_ZNSt10filesystem16create_directoryERKNS_7__cxx114pathE _ZNSt10filesystem7__cxx1116filesystem_errorC1ERKNSt7__cxx1112basic_stringIcSt11char_traitsIcESaIcEEERKNS0_4pathESt10error_code 112
_ZNSt10filesystem16create_directoryERKNS_7__cxx114pathE _ZNSt7__cxx1112basic_stringIcSt11char_traitsIcESaIcEE10_M_disposeEv 120
_ZNSt10filesystem16create_directoryERKNS_7__cxx114pathE __cxa_throw 160
_ZNSt10filesystem16create_directoryERKNS_7__cxx114pathE _ZNSt7__cxx1112basic_stringIcSt11char_traitsIcESaIcEE10_M_disposeEv 168
_ZNSt10filesystem16create_directoryERKNS_7__cxx114pathE __cxa_free_exception 176
_ZNSt10filesystem16create_directoryERKNS_7__cxx114pathE __cxa_end_cleanup 180
_ZNSt10filesystem16create_directoryERKNS_7__cxx114pathE .LC17 200
_ZNSt10filesystem16create_directoryERKNS_7__cxx114pathE _ZNSt10filesystem7__cxx1116filesystem_errorD1Ev 204
_ZNSt10filesystem16create_directoryERKNS_7__cxx114pathE _ZTINSt10filesystem7__cxx1116filesystem_errorE 208
_ZNSt10filesystem16create_directoryERKNS_7__cxx114pathES3_ _ZNSt10error_codeC1Ev 24
_ZNSt10filesystem16create_directoryERKNS_7__cxx114pathES3_ _ZNSt10filesystem16create_directoryERKNS_7__cxx114pathES3_RSt10error_code 44
_ZNSt10filesystem16create_directoryERKNS_7__cxx114pathES3_ __cxa_allocate_exception 72
_ZNSt10filesystem16create_directoryERKNS_7__cxx114pathES3_ _ZNSt7__cxx1112basic_stringIcSt11char_traitsIcESaIcEEC2IS3_EEPKcRKS3_.constprop.160 92
_ZNSt10filesystem16create_directoryERKNS_7__cxx114pathES3_ _ZNSt10filesystem7__cxx1116filesystem_errorC1ERKNSt7__cxx1112basic_stringIcSt11char_traitsIcESaIcEEERKNS0_4pathESt10error_code 120
_ZNSt10filesystem16create_directoryERKNS_7__cxx114pathES3_ _ZNSt7__cxx1112basic_stringIcSt11char_traitsIcESaIcEE10_M_disposeEv 128
_ZNSt10filesystem16create_directoryERKNS_7__cxx114pathES3_ __cxa_throw 168
_ZNSt10filesystem16create_directoryERKNS_7__cxx114pathES3_ _ZNSt7__cxx1112basic_stringIcSt11char_traitsIcESaIcEE10_M_disposeEv 176
_ZNSt10filesystem16create_directoryERKNS_7__cxx114pathES3_ __cxa_free_exception 184
_ZNSt10filesystem16create_directoryERKNS_7__cxx114pathES3_ __cxa_end_cleanup 188
_ZNSt10filesystem16create_directoryERKNS_7__cxx114pathES3_ .LC17 208
_ZNSt10filesystem16create_directoryERKNS_7__cxx114pathES3_ _ZNSt10filesystem7__cxx1116filesystem_errorD1Ev 212
_ZNSt10filesystem16create_directoryERKNS_7__cxx114pathES3_ _ZTINSt10filesystem7__cxx1116filesystem_errorE 216
_ZNSt10filesystem9file_sizeERKNS_7__cxx114pathE _ZNSt10error_codeC1Ev 20
_ZNSt10filesystem9file_sizeERKNS_7__cxx114pathE _ZNSt10filesystem9file_sizeERKNS_7__cxx114pathERSt10error_code 32
_ZNSt10filesystem9file_sizeERKNS_7__cxx114pathE __cxa_allocate_exception 64
_ZNSt10filesystem9file_sizeERKNS_7__cxx114pathE _ZNSt7__cxx1112basic_stringIcSt11char_traitsIcESaIcEEC2IS3_EEPKcRKS3_.constprop.160 84
_ZNSt10filesystem9file_sizeERKNS_7__cxx114pathE _ZNSt10filesystem7__cxx1116filesystem_errorC1ERKNSt7__cxx1112basic_stringIcSt11char_traitsIcESaIcEEERKNS0_4pathESt10error_code 112
_ZNSt10filesystem9file_sizeERKNS_7__cxx114pathE _ZNSt7__cxx1112basic_stringIcSt11char_traitsIcESaIcEE10_M_disposeEv 120
_ZNSt10filesystem9file_sizeERKNS_7__cxx114pathE __cxa_throw 160
_ZNSt10filesystem9file_sizeERKNS_7__cxx114pathE _ZNSt7__cxx1112basic_stringIcSt11char_traitsIcESaIcEE10_M_disposeEv 168
_ZNSt10filesystem9file_sizeERKNS_7__cxx114pathE __cxa_free_exception 176
_ZNSt10filesystem9file_sizeERKNS_7__cxx114pathE __cxa_end_cleanup 180
_ZNSt10filesystem9file_sizeERKNS_7__cxx114pathE .LC18 200
_ZNSt10filesystem9file_sizeERKNS_7__cxx114pathE _ZNSt10filesystem7__cxx1116filesystem_errorD1Ev 204
_ZNSt10filesystem9file_sizeERKNS_7__cxx114pathE _ZTINSt10filesystem7__cxx1116filesystem_errorE 208
_ZNSt10filesystem15hard_link_countERKNS_7__cxx114pathE _ZNSt10error_codeC1Ev 20
_ZNSt10filesystem15hard_link_countERKNS_7__cxx114pathE _ZNSt10filesystem15hard_link_countERKNS_7__cxx114pathERSt10error_code 32
_ZNSt10filesystem15hard_link_countERKNS_7__cxx114pathE __cxa_allocate_exception 64
_ZNSt10filesystem15hard_link_countERKNS_7__cxx114pathE _ZNSt7__cxx1112basic_stringIcSt11char_traitsIcESaIcEEC2IS3_EEPKcRKS3_.constprop.160 84
_ZNSt10filesystem15hard_link_countERKNS_7__cxx114pathE _ZNSt10filesystem7__cxx1116filesystem_errorC1ERKNSt7__cxx1112basic_stringIcSt11char_traitsIcESaIcEEERKNS0_4pathESt10error_code 112
_ZNSt10filesystem15hard_link_countERKNS_7__cxx114pathE _ZNSt7__cxx1112basic_stringIcSt11char_traitsIcESaIcEE10_M_disposeEv 120
_ZNSt10filesystem15hard_link_countERKNS_7__cxx114pathE __cxa_throw 160
_ZNSt10filesystem15hard_link_countERKNS_7__cxx114pathE _ZNSt7__cxx1112basic_stringIcSt11char_traitsIcESaIcEE10_M_disposeEv 168
_ZNSt10filesystem15hard_link_countERKNS_7__cxx114pathE __cxa_free_exception 176
_ZNSt10filesystem15hard_link_countERKNS_7__cxx114pathE __cxa_end_cleanup 180
_ZNSt10filesystem15hard_link_countERKNS_7__cxx114pathE .LC19 200
_ZNSt10filesystem15hard_link_countERKNS_7__cxx114pathE _ZNSt10filesystem7__cxx1116filesystem_errorD1Ev 204
_ZNSt10filesystem15hard_link_countERKNS_7__cxx114pathE _ZTINSt10filesystem7__cxx1116filesystem_errorE 208
_ZNSt10filesystem8is_emptyERKNS_7__cxx114pathE _ZNSt10error_codeC1Ev 20
_ZNSt10filesystem8is_emptyERKNS_7__cxx114pathE _ZNSt10filesystem8is_emptyERKNS_7__cxx114pathERSt10error_code 32
_ZNSt10filesystem8is_emptyERKNS_7__cxx114pathE __cxa_allocate_exception 64
_ZNSt10filesystem8is_emptyERKNS_7__cxx114pathE _ZNSt7__cxx1112basic_stringIcSt11char_traitsIcESaIcEEC2IS3_EEPKcRKS3_.constprop.160 84
_ZNSt10filesystem8is_emptyERKNS_7__cxx114pathE _ZNSt10filesystem7__cxx1116filesystem_errorC1ERKNSt7__cxx1112basic_stringIcSt11char_traitsIcESaIcEEERKNS0_4pathESt10error_code 112
_ZNSt10filesystem8is_emptyERKNS_7__cxx114pathE _ZNSt7__cxx1112basic_stringIcSt11char_traitsIcESaIcEE10_M_disposeEv 120
_ZNSt10filesystem8is_emptyERKNS_7__cxx114pathE __cxa_throw 160
_ZNSt10filesystem8is_emptyERKNS_7__cxx114pathE _ZNSt7__cxx1112basic_stringIcSt11char_traitsIcESaIcEE10_M_disposeEv 168
_ZNSt10filesystem8is_emptyERKNS_7__cxx114pathE __cxa_free_exception 176
_ZNSt10filesystem8is_emptyERKNS_7__cxx114pathE __cxa_end_cleanup 180
_ZNSt10filesystem8is_emptyERKNS_7__cxx114pathE .LC20 200
_ZNSt10filesystem8is_emptyERKNS_7__cxx114pathE _ZNSt10filesystem7__cxx1116filesystem_errorD1Ev 204
_ZNSt10filesystem8is_emptyERKNS_7__cxx114pathE _ZTINSt10filesystem7__cxx1116filesystem_errorE 208
_ZNSt10filesystem15last_write_timeERKNS_7__cxx114pathE _ZNSt10error_codeC1Ev 24
_ZNSt10filesystem15last_write_timeERKNS_7__cxx114pathE _ZNSt10filesystem15last_write_timeERKNS_7__cxx114pathERSt10error_code 44
_ZNSt10filesystem15last_write_timeERKNS_7__cxx114pathE __cxa_allocate_exception 72
_ZNSt10filesystem15last_write_timeERKNS_7__cxx114pathE _ZNSt7__cxx1112basic_stringIcSt11char_traitsIcESaIcEEC2IS3_EEPKcRKS3_.constprop.160 92
_ZNSt10filesystem15last_write_timeERKNS_7__cxx114pathE _ZNSt10filesystem7__cxx1116filesystem_errorC1ERKNSt7__cxx1112basic_stringIcSt11char_traitsIcESaIcEEERKNS0_4pathESt10error_code 120
_ZNSt10filesystem15last_write_timeERKNS_7__cxx114pathE _ZNSt7__cxx1112basic_stringIcSt11char_traitsIcESaIcEE10_M_disposeEv 128
_ZNSt10filesystem15last_write_timeERKNS_7__cxx114pathE __cxa_throw 168
_ZNSt10filesystem15last_write_timeERKNS_7__cxx114pathE _ZNSt7__cxx1112basic_stringIcSt11char_traitsIcESaIcEE10_M_disposeEv 176
_ZNSt10filesystem15last_write_timeERKNS_7__cxx114pathE __cxa_free_exception 184
_ZNSt10filesystem15last_write_timeERKNS_7__cxx114pathE __cxa_end_cleanup 188
_ZNSt10filesystem15last_write_timeERKNS_7__cxx114pathE .LC21 212
_ZNSt10filesystem15last_write_timeERKNS_7__cxx114pathE _ZNSt10filesystem7__cxx1116filesystem_errorD1Ev 216
_ZNSt10filesystem15last_write_timeERKNS_7__cxx114pathE _ZTINSt10filesystem7__cxx1116filesystem_errorE 220
_ZNSt10filesystem15last_write_timeERKNS_7__cxx114pathENSt6chrono10time_pointINS4_3_V212system_clockENS4_8durationIxSt5ratioILx1ELx1000000000EEEEEE _ZNSt10error_codeC1Ev 32
_ZNSt10filesystem15last_write_timeERKNS_7__cxx114pathENSt6chrono10time_pointINS4_3_V212system_clockENS4_8durationIxSt5ratioILx1ELx1000000000EEEEEE _ZNSt10filesystem15last_write_timeERKNS_7__cxx114pathENSt6chrono10time_pointINS4_3_V212system_clockENS4_8durationIxSt5ratioILx1ELx1000000000EEEEEERSt10error_code 52
_ZNSt10filesystem15last_write_timeERKNS_7__cxx114pathENSt6chrono10time_pointINS4_3_V212system_clockENS4_8durationIxSt5ratioILx1ELx1000000000EEEEEE __cxa_allocate_exception 80
_ZNSt10filesystem15last_write_timeERKNS_7__cxx114pathENSt6chrono10time_pointINS4_3_V212system_clockENS4_8durationIxSt5ratioILx1ELx1000000000EEEEEE _ZNSt7__cxx1112basic_stringIcSt11char_traitsIcESaIcEEC2IS3_EEPKcRKS3_.constprop.160 100
_ZNSt10filesystem15last_write_timeERKNS_7__cxx114pathENSt6chrono10time_pointINS4_3_V212system_clockENS4_8durationIxSt5ratioILx1ELx1000000000EEEEEE _ZNSt10filesystem7__cxx1116filesystem_errorC1ERKNSt7__cxx1112basic_stringIcSt11char_traitsIcESaIcEEERKNS0_4pathESt10error_code 128
_ZNSt10filesystem15last_write_timeERKNS_7__cxx114pathENSt6chrono10time_pointINS4_3_V212system_clockENS4_8durationIxSt5ratioILx1ELx1000000000EEEEEE _ZNSt7__cxx1112basic_stringIcSt11char_traitsIcESaIcEE10_M_disposeEv 136
_ZNSt10filesystem15last_write_timeERKNS_7__cxx114pathENSt6chrono10time_pointINS4_3_V212system_clockENS4_8durationIxSt5ratioILx1ELx1000000000EEEEEE __cxa_throw 176
_ZNSt10filesystem15last_write_timeERKNS_7__cxx114pathENSt6chrono10time_pointINS4_3_V212system_clockENS4_8durationIxSt5ratioILx1ELx1000000000EEEEEE _ZNSt7__cxx1112basic_stringIcSt11char_traitsIcESaIcEE10_M_disposeEv 184
_ZNSt10filesystem15last_write_timeERKNS_7__cxx114pathENSt6chrono10time_pointINS4_3_V212system_clockENS4_8durationIxSt5ratioILx1ELx1000000000EEEEEE __cxa_free_exception 192
_ZNSt10filesystem15last_write_timeERKNS_7__cxx114pathENSt6chrono10time_pointINS4_3_V212system_clockENS4_8durationIxSt5ratioILx1ELx1000000000EEEEEE __cxa_end_cleanup 196
_ZNSt10filesystem15last_write_timeERKNS_7__cxx114pathENSt6chrono10time_pointINS4_3_V212system_clockENS4_8durationIxSt5ratioILx1ELx1000000000EEEEEE .LC22 216
_ZNSt10filesystem15last_write_timeERKNS_7__cxx114pathENSt6chrono10time_pointINS4_3_V212system_clockENS4_8durationIxSt5ratioILx1ELx1000000000EEEEEE _ZNSt10filesystem7__cxx1116filesystem_errorD1Ev 220
_ZNSt10filesystem15last_write_timeERKNS_7__cxx114pathENSt6chrono10time_pointINS4_3_V212system_clockENS4_8durationIxSt5ratioILx1ELx1000000000EEEEEE _ZTINSt10filesystem7__cxx1116filesystem_errorE 224
_ZNSt10filesystem11permissionsERKNS_7__cxx114pathENS_5permsENS_12perm_optionsE _ZNSt10error_codeC1Ev 32
_ZNSt10filesystem11permissionsERKNS_7__cxx114pathENS_5permsENS_12perm_optionsE _ZNSt10filesystem11permissionsERKNS_7__cxx114pathENS_5permsENS_12perm_optionsERSt10error_code 52
_ZNSt10filesystem11permissionsERKNS_7__cxx114pathENS_5permsENS_12perm_optionsE __cxa_allocate_exception 80
_ZNSt10filesystem11permissionsERKNS_7__cxx114pathENS_5permsENS_12perm_optionsE _ZNSt7__cxx1112basic_stringIcSt11char_traitsIcESaIcEEC2IS3_EEPKcRKS3_.constprop.160 100
_ZNSt10filesystem11permissionsERKNS_7__cxx114pathENS_5permsENS_12perm_optionsE _ZNSt10filesystem7__cxx1116filesystem_errorC1ERKNSt7__cxx1112basic_stringIcSt11char_traitsIcESaIcEEERKNS0_4pathESt10error_code 128
_ZNSt10filesystem11permissionsERKNS_7__cxx114pathENS_5permsENS_12perm_optionsE _ZNSt7__cxx1112basic_stringIcSt11char_traitsIcESaIcEE10_M_disposeEv 136
_ZNSt10filesystem11permissionsERKNS_7__cxx114pathENS_5permsENS_12perm_optionsE __cxa_throw 176
_ZNSt10filesystem11permissionsERKNS_7__cxx114pathENS_5permsENS_12perm_optionsE _ZNSt7__cxx1112basic_stringIcSt11char_traitsIcESaIcEE10_M_disposeEv 184
_ZNSt10filesystem11permissionsERKNS_7__cxx114pathENS_5permsENS_12perm_optionsE __cxa_free_exception 192
_ZNSt10filesystem11permissionsERKNS_7__cxx114pathENS_5permsENS_12perm_optionsE __cxa_end_cleanup 196
_ZNSt10filesystem11permissionsERKNS_7__cxx114pathENS_5permsENS_12perm_optionsE .LC23 216
_ZNSt10filesystem11permissionsERKNS_7__cxx114pathENS_5permsENS_12perm_optionsE _ZNSt10filesystem7__cxx1116filesystem_errorD1Ev 220
_ZNSt10filesystem11permissionsERKNS_7__cxx114pathENS_5permsENS_12perm_optionsE _ZTINSt10filesystem7__cxx1116filesystem_errorE 224
_ZNSt10filesystem12read_symlinkERKNS_7__cxx114pathE _ZNSt10error_codeC1Ev 24
_ZNSt10filesystem12read_symlinkERKNS_7__cxx114pathE _ZNSt10filesystem12read_symlinkERKNS_7__cxx114pathERSt10error_code 44
_ZNSt10filesystem12read_symlinkERKNS_7__cxx114pathE __cxa_allocate_exception 72
_ZNSt10filesystem12read_symlinkERKNS_7__cxx114pathE _ZNSt7__cxx1112basic_stringIcSt11char_traitsIcESaIcEEC2IS3_EEPKcRKS3_.constprop.160 92
_ZNSt10filesystem12read_symlinkERKNS_7__cxx114pathE _ZNSt10filesystem7__cxx1116filesystem_errorC1ERKNSt7__cxx1112basic_stringIcSt11char_traitsIcESaIcEEERKNS0_4pathESt10error_code 120
_ZNSt10filesystem12read_symlinkERKNS_7__cxx114pathE _ZNSt7__cxx1112basic_stringIcSt11char_traitsIcESaIcEE10_M_disposeEv 128
_ZNSt10filesystem12read_symlinkERKNS_7__cxx114pathE __cxa_throw 168
_ZNSt10filesystem12read_symlinkERKNS_7__cxx114pathE _ZNSt7__cxx1112basic_stringIcSt11char_traitsIcESaIcEE10_M_disposeEv 180
_ZNSt10filesystem12read_symlinkERKNS_7__cxx114pathE __cxa_free_exception 188
_ZNSt10filesystem12read_symlinkERKNS_7__cxx114pathE _ZNSt10filesystem7__cxx114pathD1Ev 196
_ZNSt10filesystem12read_symlinkERKNS_7__cxx114pathE __cxa_end_cleanup 200
_ZNSt10filesystem12read_symlinkERKNS_7__cxx114pathE .LC24 224
_ZNSt10filesystem12read_symlinkERKNS_7__cxx114pathE _ZNSt10filesystem7__cxx1116filesystem_errorD1Ev 228
_ZNSt10filesystem12read_symlinkERKNS_7__cxx114pathE _ZTINSt10filesystem7__cxx1116filesystem_errorE 232
_ZNSt10filesystem6removeERKNS_7__cxx114pathE _ZNSt10error_codeC1Ev 20
_ZNSt10filesystem6removeERKNS_7__cxx114pathE _ZNSt10filesystem6removeERKNS_7__cxx114pathERSt10error_code 32
_ZNSt10filesystem6removeERKNS_7__cxx114pathE __cxa_allocate_exception 64
_ZNSt10filesystem6removeERKNS_7__cxx114pathE _ZNSt7__cxx1112basic_stringIcSt11char_traitsIcESaIcEEC2IS3_EEPKcRKS3_.constprop.160 84
_ZNSt10filesystem6removeERKNS_7__cxx114pathE _ZNSt10filesystem7__cxx1116filesystem_errorC1ERKNSt7__cxx1112basic_stringIcSt11char_traitsIcESaIcEEERKNS0_4pathESt10error_code 112
_ZNSt10filesystem6removeERKNS_7__cxx114pathE _ZNSt7__cxx1112basic_stringIcSt11char_traitsIcESaIcEE10_M_disposeEv 120
_ZNSt10filesystem6removeERKNS_7__cxx114pathE __cxa_throw 160
_ZNSt10filesystem6removeERKNS_7__cxx114pathE _ZNSt7__cxx1112basic_stringIcSt11char_traitsIcESaIcEE10_M_disposeEv 168
_ZNSt10filesystem6removeERKNS_7__cxx114pathE __cxa_free_exception 176
_ZNSt10filesystem6removeERKNS_7__cxx114pathE __cxa_end_cleanup 180
_ZNSt10filesystem6removeERKNS_7__cxx114pathE .LC25 200
_ZNSt10filesystem6removeERKNS_7__cxx114pathE _ZNSt10filesystem7__cxx1116filesystem_errorD1Ev 204
_ZNSt10filesystem6removeERKNS_7__cxx114pathE _ZTINSt10filesystem7__cxx1116filesystem_errorE 208
_ZNSt10filesystem10remove_allERKNS_7__cxx114pathE _ZNSt10error_codeC1Ev 20
_ZNSt10filesystem10remove_allERKNS_7__cxx114pathE _ZNSt10filesystem10remove_allERKNS_7__cxx114pathERSt10error_code 32
_ZNSt10filesystem10remove_allERKNS_7__cxx114pathE __cxa_allocate_exception 64
_ZNSt10filesystem10remove_allERKNS_7__cxx114pathE _ZNSt7__cxx1112basic_stringIcSt11char_traitsIcESaIcEEC2IS3_EEPKcRKS3_.constprop.160 84
_ZNSt10filesystem10remove_allERKNS_7__cxx114pathE _ZNSt10filesystem7__cxx1116filesystem_errorC1ERKNSt7__cxx1112basic_stringIcSt11char_traitsIcESaIcEEERKNS0_4pathESt10error_code 112
_ZNSt10filesystem10remove_allERKNS_7__cxx114pathE _ZNSt7__cxx1112basic_stringIcSt11char_traitsIcESaIcEE10_M_disposeEv 120
_ZNSt10filesystem10remove_allERKNS_7__cxx114pathE __cxa_throw 160
_ZNSt10filesystem10remove_allERKNS_7__cxx114pathE _ZNSt7__cxx1112basic_stringIcSt11char_traitsIcESaIcEE10_M_disposeEv 168
_ZNSt10filesystem10remove_allERKNS_7__cxx114pathE __cxa_free_exception 176
_ZNSt10filesystem10remove_allERKNS_7__cxx114pathE __cxa_end_cleanup 180
_ZNSt10filesystem10remove_allERKNS_7__cxx114pathE .LC26 200
_ZNSt10filesystem10remove_allERKNS_7__cxx114pathE _ZNSt10filesystem7__cxx1116filesystem_errorD1Ev 204
_ZNSt10filesystem10remove_allERKNS_7__cxx114pathE _ZTINSt10filesystem7__cxx1116filesystem_errorE 208
_ZNSt10filesystem11resize_fileERKNS_7__cxx114pathEy _ZNSt10error_codeC1Ev 32
_ZNSt10filesystem11resize_fileERKNS_7__cxx114pathEy _ZNSt10filesystem11resize_fileERKNS_7__cxx114pathEyRSt10error_code 52
_ZNSt10filesystem11resize_fileERKNS_7__cxx114pathEy __cxa_allocate_exception 80
_ZNSt10filesystem11resize_fileERKNS_7__cxx114pathEy _ZNSt7__cxx1112basic_stringIcSt11char_traitsIcESaIcEEC2IS3_EEPKcRKS3_.constprop.160 100
_ZNSt10filesystem11resize_fileERKNS_7__cxx114pathEy _ZNSt10filesystem7__cxx1116filesystem_errorC1ERKNSt7__cxx1112basic_stringIcSt11char_traitsIcESaIcEEERKNS0_4pathESt10error_code 128
_ZNSt10filesystem11resize_fileERKNS_7__cxx114pathEy _ZNSt7__cxx1112basic_stringIcSt11char_traitsIcESaIcEE10_M_disposeEv 136
_ZNSt10filesystem11resize_fileERKNS_7__cxx114pathEy __cxa_throw 176
_ZNSt10filesystem11resize_fileERKNS_7__cxx114pathEy _ZNSt7__cxx1112basic_stringIcSt11char_traitsIcESaIcEE10_M_disposeEv 184
_ZNSt10filesystem11resize_fileERKNS_7__cxx114pathEy __cxa_free_exception 192
_ZNSt10filesystem11resize_fileERKNS_7__cxx114pathEy __cxa_end_cleanup 196
_ZNSt10filesystem11resize_fileERKNS_7__cxx114pathEy .LC27 216
_ZNSt10filesystem11resize_fileERKNS_7__cxx114pathEy _ZNSt10filesystem7__cxx1116filesystem_errorD1Ev 220
_ZNSt10filesystem11resize_fileERKNS_7__cxx114pathEy _ZTINSt10filesystem7__cxx1116filesystem_errorE 224
_ZNSt10filesystem5spaceERKNS_7__cxx114pathE _ZNSt10error_codeC1Ev 24
_ZNSt10filesystem5spaceERKNS_7__cxx114pathE _ZNSt10filesystem5spaceERKNS_7__cxx114pathERSt10error_code 44
_ZNSt10filesystem5spaceERKNS_7__cxx114pathE __cxa_allocate_exception 72
_ZNSt10filesystem5spaceERKNS_7__cxx114pathE _ZNSt7__cxx1112basic_stringIcSt11char_traitsIcESaIcEEC2IS3_EEPKcRKS3_.constprop.160 92
_ZNSt10filesystem5spaceERKNS_7__cxx114pathE _ZNSt10filesystem7__cxx1116filesystem_errorC1ERKNSt7__cxx1112basic_stringIcSt11char_traitsIcESaIcEEERKNS0_4pathESt10error_code 120
_ZNSt10filesystem5spaceERKNS_7__cxx114pathE _ZNSt7__cxx1112basic_stringIcSt11char_traitsIcESaIcEE10_M_disposeEv 128
_ZNSt10filesystem5spaceERKNS_7__cxx114pathE __cxa_throw 168
_ZNSt10filesystem5spaceERKNS_7__cxx114pathE _ZNSt7__cxx1112basic_stringIcSt11char_traitsIcESaIcEE10_M_disposeEv 176
_ZNSt10filesystem5spaceERKNS_7__cxx114pathE __cxa_free_exception 184
_ZNSt10filesystem5spaceERKNS_7__cxx114pathE __cxa_end_cleanup 188
_ZNSt10filesystem5spaceERKNS_7__cxx114pathE .LC28 212
_ZNSt10filesystem5spaceERKNS_7__cxx114pathE _ZNSt10filesystem7__cxx1116filesystem_errorD1Ev 216
_ZNSt10filesystem5spaceERKNS_7__cxx114pathE _ZTINSt10filesystem7__cxx1116filesystem_errorE 220
_ZNSt10filesystem6statusERKNS_7__cxx114pathE _ZNSt10error_codeC1Ev 24
_ZNSt10filesystem6statusERKNS_7__cxx114pathE _ZNSt10filesystem6statusERKNS_7__cxx114pathERSt10error_code 44
_ZNSt10filesystem6statusERKNS_7__cxx114pathE __cxa_allocate_exception 72
_ZNSt10filesystem6statusERKNS_7__cxx114pathE _ZNSt7__cxx1112basic_stringIcSt11char_traitsIcESaIcEEC2IS3_EEPKcRKS3_.constprop.160 92
_ZNSt10filesystem6statusERKNS_7__cxx114pathE _ZNSt10filesystem7__cxx1116filesystem_errorC1ERKNSt7__cxx1112basic_stringIcSt11char_traitsIcESaIcEEERKNS0_4pathESt10error_code 120
_ZNSt10filesystem6statusERKNS_7__cxx114pathE _ZNSt7__cxx1112basic_stringIcSt11char_traitsIcESaIcEE10_M_disposeEv 128
_ZNSt10filesystem6statusERKNS_7__cxx114pathE __cxa_throw 168
_ZNSt10filesystem6statusERKNS_7__cxx114pathE _ZNSt7__cxx1112basic_stringIcSt11char_traitsIcESaIcEE10_M_disposeEv 176
_ZNSt10filesystem6statusERKNS_7__cxx114pathE __cxa_free_exception 184
_ZNSt10filesystem6statusERKNS_7__cxx114pathE __cxa_end_cleanup 188
_ZNSt10filesystem6statusERKNS_7__cxx114pathE .LC29 212
_ZNSt10filesystem6statusERKNS_7__cxx114pathE _ZNSt10filesystem7__cxx1116filesystem_errorD1Ev 216
_ZNSt10filesystem6statusERKNS_7__cxx114pathE _ZTINSt10filesystem7__cxx1116filesystem_errorE 220
_ZNSt10filesystem14symlink_statusERKNS_7__cxx114pathE _ZNSt10error_codeC1Ev 24
_ZNSt10filesystem14symlink_statusERKNS_7__cxx114pathE _ZNSt10filesystem14symlink_statusERKNS_7__cxx114pathERSt10error_code 44
_ZNSt10filesystem14symlink_statusERKNS_7__cxx114pathE __cxa_allocate_exception 72
_ZNSt10filesystem14symlink_statusERKNS_7__cxx114pathE _ZNSt7__cxx1112basic_stringIcSt11char_traitsIcESaIcEEC2IS3_EEPKcRKS3_.constprop.160 92
_ZNSt10filesystem14symlink_statusERKNS_7__cxx114pathE _ZNSt10filesystem7__cxx1116filesystem_errorC1ERKNSt7__cxx1112basic_stringIcSt11char_traitsIcESaIcEEERKNS0_4pathESt10error_code 120
_ZNSt10filesystem14symlink_statusERKNS_7__cxx114pathE _ZNSt7__cxx1112basic_stringIcSt11char_traitsIcESaIcEE10_M_disposeEv 128
_ZNSt10filesystem14symlink_statusERKNS_7__cxx114pathE __cxa_throw 168
_ZNSt10filesystem14symlink_statusERKNS_7__cxx114pathE _ZNSt7__cxx1112basic_stringIcSt11char_traitsIcESaIcEE10_M_disposeEv 176
_ZNSt10filesystem14symlink_statusERKNS_7__cxx114pathE __cxa_free_exception 184
_ZNSt10filesystem14symlink_statusERKNS_7__cxx114pathE __cxa_end_cleanup 188
_ZNSt10filesystem14symlink_statusERKNS_7__cxx114pathE .LC30 212
_ZNSt10filesystem14symlink_statusERKNS_7__cxx114pathE _ZNSt10filesystem7__cxx1116filesystem_errorD1Ev 216
_ZNSt10filesystem14symlink_statusERKNS_7__cxx114pathE _ZTINSt10filesystem7__cxx1116filesystem_errorE 220
_ZNSt10filesystem8absoluteERKNS_7__cxx114pathE __cxa_allocate_exception 40
_ZNSt10filesystem8absoluteERKNS_7__cxx114pathE _ZNSt7__cxx1112basic_stringIcSt11char_traitsIcESaIcEEC2IS3_EEPKcRKS3_.constprop.160 60
_ZNSt10filesystem8absoluteERKNS_7__cxx114pathE _ZNSt3_V216generic_categoryEv 64
_ZNSt10filesystem8absoluteERKNS_7__cxx114pathE _ZNSt10filesystem7__cxx1116filesystem_errorC1ERKNSt7__cxx1112basic_stringIcSt11char_traitsIcESaIcEEERKNS0_4pathESt10error_code 88
_ZNSt10filesystem8absoluteERKNS_7__cxx114pathE _ZNSt7__cxx1112basic_stringIcSt11char_traitsIcESaIcEE10_M_disposeEv 96
_ZNSt10filesystem8absoluteERKNS_7__cxx114pathE __cxa_throw 136
_ZNSt10filesystem8absoluteERKNS_7__cxx114pathE _ZNSt10filesystem12current_pathB5cxx11Ev 148
_ZNSt10filesystem8absoluteERKNS_7__cxx114pathE _ZNSt10filesystem7__cxx11dvERKNS0_4pathES3_ 164
_ZNSt10filesystem8absoluteERKNS_7__cxx114pathE _ZNSt7__cxx1112basic_stringIcSt11char_traitsIcESaIcEE10_M_disposeEv 176
_ZNSt10filesystem8absoluteERKNS_7__cxx114pathE __cxa_free_exception 184
_ZNSt10filesystem8absoluteERKNS_7__cxx114pathE __cxa_end_cleanup 188
_ZNSt10filesystem8absoluteERKNS_7__cxx114pathE _ZNSt10filesystem7__cxx114pathD1Ev 200
_ZNSt10filesystem8absoluteERKNS_7__cxx114pathE _ZNSt10filesystem7__cxx114pathD1Ev 212
_ZNSt10filesystem8absoluteERKNS_7__cxx114pathE .LC31 232
_ZNSt10filesystem8absoluteERKNS_7__cxx114pathE _ZNSt10filesystem7__cxx1116filesystem_errorD1Ev 236
_ZNSt10filesystem8absoluteERKNS_7__cxx114pathE _ZTINSt10filesystem7__cxx1116filesystem_errorE 240
_ZNSt10filesystem7__cxx1116filesystem_errorC1ERKNSt7__cxx1112basic_stringIcSt11char_traitsIcESaIcEEERKNS0_4pathESC_St10error_code,_ZNSt10filesystem7__cxx1116filesystem_errorC2ERKNSt7__cxx1112basic_stringIcSt11char_traitsIcESaIcEEERKNS0_4pathESC_St10error_code _ZNSt12system_errorC2ESt10error_codeRKNSt7__cxx1112basic_stringIcSt11char_traitsIcESaIcEEE 32
_ZNSt10filesystem7__cxx1116filesystem_errorC1ERKNSt7__cxx1112basic_stringIcSt11char_traitsIcESaIcEEERKNS0_4pathESC_St10error_code,_ZNSt10filesystem7__cxx1116filesystem_errorC2ERKNSt7__cxx1112basic_stringIcSt11char_traitsIcESaIcEEERKNS0_4pathESC_St10error_code _ZNSt10filesystem7__cxx114pathC1ERKS1_ 68
_ZNSt10filesystem7__cxx1116filesystem_errorC1ERKNSt7__cxx1112basic_stringIcSt11char_traitsIcESaIcEEERKNS0_4pathESC_St10error_code,_ZNSt10filesystem7__cxx1116filesystem_errorC2ERKNSt7__cxx1112basic_stringIcSt11char_traitsIcESaIcEEERKNS0_4pathESC_St10error_code _ZNSt10filesystem7__cxx114pathC1ERKS1_ 84
_ZNSt10filesystem7__cxx1116filesystem_errorC1ERKNSt7__cxx1112basic_stringIcSt11char_traitsIcESaIcEEERKNS0_4pathESC_St10error_code,_ZNSt10filesystem7__cxx1116filesystem_errorC2ERKNSt7__cxx1112basic_stringIcSt11char_traitsIcESaIcEEERKNS0_4pathESC_St10error_code _ZNSt10filesystem7__cxx1116filesystem_error11_M_gen_whatEv 96
_ZNSt10filesystem7__cxx1116filesystem_errorC1ERKNSt7__cxx1112basic_stringIcSt11char_traitsIcESaIcEEERKNS0_4pathESC_St10error_code,_ZNSt10filesystem7__cxx1116filesystem_errorC2ERKNSt7__cxx1112basic_stringIcSt11char_traitsIcESaIcEEERKNS0_4pathESC_St10error_code _ZNSt10filesystem7__cxx114pathD1Ev 108
_ZNSt10filesystem7__cxx1116filesystem_errorC1ERKNSt7__cxx1112basic_stringIcSt11char_traitsIcESaIcEEERKNS0_4pathESC_St10error_code,_ZNSt10filesystem7__cxx1116filesystem_errorC2ERKNSt7__cxx1112basic_stringIcSt11char_traitsIcESaIcEEERKNS0_4pathESC_St10error_code _ZNSt10filesystem7__cxx114pathD1Ev 116
_ZNSt10filesystem7__cxx1116filesystem_errorC1ERKNSt7__cxx1112basic_stringIcSt11char_traitsIcESaIcEEERKNS0_4pathESC_St10error_code,_ZNSt10filesystem7__cxx1116filesystem_errorC2ERKNSt7__cxx1112basic_stringIcSt11char_traitsIcESaIcEEERKNS0_4pathESC_St10error_code _ZNSt12system_errorD2Ev 124
_ZNSt10filesystem7__cxx1116filesystem_errorC1ERKNSt7__cxx1112basic_stringIcSt11char_traitsIcESaIcEEERKNS0_4pathESC_St10error_code,_ZNSt10filesystem7__cxx1116filesystem_errorC2ERKNSt7__cxx1112basic_stringIcSt11char_traitsIcESaIcEEERKNS0_4pathESC_St10error_code __cxa_end_cleanup 128
_ZNSt10filesystem7__cxx1116filesystem_errorC1ERKNSt7__cxx1112basic_stringIcSt11char_traitsIcESaIcEEERKNS0_4pathESC_St10error_code,_ZNSt10filesystem7__cxx1116filesystem_errorC2ERKNSt7__cxx1112basic_stringIcSt11char_traitsIcESaIcEEERKNS0_4pathESC_St10error_code _ZTVNSt10filesystem7__cxx1116filesystem_errorE 152
_ZNSt10filesystem9copy_fileERKNS_7__cxx114pathES3_NS_12copy_optionsE _ZNSt10error_codeC1Ev 32
_ZNSt10filesystem9copy_fileERKNS_7__cxx114pathES3_NS_12copy_optionsE _ZNSt10filesystem9copy_fileERKNS_7__cxx114pathES3_NS_12copy_optionsERSt10error_code 52
_ZNSt10filesystem9copy_fileERKNS_7__cxx114pathES3_NS_12copy_optionsE __cxa_allocate_exception 80
_ZNSt10filesystem9copy_fileERKNS_7__cxx114pathES3_NS_12copy_optionsE _ZNSt7__cxx1112basic_stringIcSt11char_traitsIcESaIcEEC2IS3_EEPKcRKS3_.constprop.160 100
_ZNSt10filesystem9copy_fileERKNS_7__cxx114pathES3_NS_12copy_optionsE _ZNSt10filesystem7__cxx1116filesystem_errorC1ERKNSt7__cxx1112basic_stringIcSt11char_traitsIcESaIcEEERKNS0_4pathESC_St10error_code 128
_ZNSt10filesystem9copy_fileERKNS_7__cxx114pathES3_NS_12copy_optionsE _ZNSt7__cxx1112basic_stringIcSt11char_traitsIcESaIcEE10_M_disposeEv 136
_ZNSt10filesystem9copy_fileERKNS_7__cxx114pathES3_NS_12copy_optionsE __cxa_throw 176
_ZNSt10filesystem9copy_fileERKNS_7__cxx114pathES3_NS_12copy_optionsE _ZNSt7__cxx1112basic_stringIcSt11char_traitsIcESaIcEE10_M_disposeEv 184
_ZNSt10filesystem9copy_fileERKNS_7__cxx114pathES3_NS_12copy_optionsE __cxa_free_exception 192
_ZNSt10filesystem9copy_fileERKNS_7__cxx114pathES3_NS_12copy_optionsE __cxa_end_cleanup 196
_ZNSt10filesystem9copy_fileERKNS_7__cxx114pathES3_NS_12copy_optionsE .LC32 216
_ZNSt10filesystem9copy_fileERKNS_7__cxx114pathES3_NS_12copy_optionsE _ZNSt10filesystem7__cxx1116filesystem_errorD1Ev 220
_ZNSt10filesystem9copy_fileERKNS_7__cxx114pathES3_NS_12copy_optionsE _ZTINSt10filesystem7__cxx1116filesystem_errorE 224
_ZNSt10filesystem12copy_symlinkERKNS_7__cxx114pathES3_ _ZNSt10error_codeC1Ev 24
_ZNSt10filesystem12copy_symlinkERKNS_7__cxx114pathES3_ _ZNSt10filesystem12copy_symlinkERKNS_7__cxx114pathES3_RSt10error_code 44
_ZNSt10filesystem12copy_symlinkERKNS_7__cxx114pathES3_ __cxa_allocate_exception 72
_ZNSt10filesystem12copy_symlinkERKNS_7__cxx114pathES3_ _ZNSt7__cxx1112basic_stringIcSt11char_traitsIcESaIcEEC2IS3_EEPKcRKS3_.constprop.160 92
_ZNSt10filesystem12copy_symlinkERKNS_7__cxx114pathES3_ _ZNSt10filesystem7__cxx1116filesystem_errorC1ERKNSt7__cxx1112basic_stringIcSt11char_traitsIcESaIcEEERKNS0_4pathESC_St10error_code 120
_ZNSt10filesystem12copy_symlinkERKNS_7__cxx114pathES3_ _ZNSt7__cxx1112basic_stringIcSt11char_traitsIcESaIcEE10_M_disposeEv 128
_ZNSt10filesystem12copy_symlinkERKNS_7__cxx114pathES3_ __cxa_throw 168
_ZNSt10filesystem12copy_symlinkERKNS_7__cxx114pathES3_ _ZNSt7__cxx1112basic_stringIcSt11char_traitsIcESaIcEE10_M_disposeEv 176
_ZNSt10filesystem12copy_symlinkERKNS_7__cxx114pathES3_ __cxa_free_exception 184
_ZNSt10filesystem12copy_symlinkERKNS_7__cxx114pathES3_ __cxa_end_cleanup 188
_ZNSt10filesystem12copy_symlinkERKNS_7__cxx114pathES3_ .LC33 208
_ZNSt10filesystem12copy_symlinkERKNS_7__cxx114pathES3_ _ZNSt10filesystem7__cxx1116filesystem_errorD1Ev 212
_ZNSt10filesystem12copy_symlinkERKNS_7__cxx114pathES3_ _ZTINSt10filesystem7__cxx1116filesystem_errorE 216
_ZNSt10filesystem24create_directory_symlinkERKNS_7__cxx114pathES3_ _ZNSt10error_codeC1Ev 24
_ZNSt10filesystem24create_directory_symlinkERKNS_7__cxx114pathES3_ _ZNSt10filesystem24create_directory_symlinkERKNS_7__cxx114pathES3_RSt10error_code 44
_ZNSt10filesystem24create_directory_symlinkERKNS_7__cxx114pathES3_ __cxa_allocate_exception 72
_ZNSt10filesystem24create_directory_symlinkERKNS_7__cxx114pathES3_ _ZNSt7__cxx1112basic_stringIcSt11char_traitsIcESaIcEEC2IS3_EEPKcRKS3_.constprop.160 92
_ZNSt10filesystem24create_directory_symlinkERKNS_7__cxx114pathES3_ _ZNSt10filesystem7__cxx1116filesystem_errorC1ERKNSt7__cxx1112basic_stringIcSt11char_traitsIcESaIcEEERKNS0_4pathESC_St10error_code 120
_ZNSt10filesystem24create_directory_symlinkERKNS_7__cxx114pathES3_ _ZNSt7__cxx1112basic_stringIcSt11char_traitsIcESaIcEE10_M_disposeEv 128
_ZNSt10filesystem24create_directory_symlinkERKNS_7__cxx114pathES3_ __cxa_throw 168
_ZNSt10filesystem24create_directory_symlinkERKNS_7__cxx114pathES3_ _ZNSt7__cxx1112basic_stringIcSt11char_traitsIcESaIcEE10_M_disposeEv 176
_ZNSt10filesystem24create_directory_symlinkERKNS_7__cxx114pathES3_ __cxa_free_exception 184
_ZNSt10filesystem24create_directory_symlinkERKNS_7__cxx114pathES3_ __cxa_end_cleanup 188
_ZNSt10filesystem24create_directory_symlinkERKNS_7__cxx114pathES3_ .LC34 208
_ZNSt10filesystem24create_directory_symlinkERKNS_7__cxx114pathES3_ _ZNSt10filesystem7__cxx1116filesystem_errorD1Ev 212
_ZNSt10filesystem24create_directory_symlinkERKNS_7__cxx114pathES3_ _ZTINSt10filesystem7__cxx1116filesystem_errorE 216
_ZNSt10filesystem16create_hard_linkERKNS_7__cxx114pathES3_ _ZNSt10error_codeC1Ev 24
_ZNSt10filesystem16create_hard_linkERKNS_7__cxx114pathES3_ _ZNSt10filesystem16create_hard_linkERKNS_7__cxx114pathES3_RSt10error_code 44
_ZNSt10filesystem16create_hard_linkERKNS_7__cxx114pathES3_ __cxa_allocate_exception 72
_ZNSt10filesystem16create_hard_linkERKNS_7__cxx114pathES3_ _ZNSt7__cxx1112basic_stringIcSt11char_traitsIcESaIcEEC2IS3_EEPKcRKS3_.constprop.160 92
_ZNSt10filesystem16create_hard_linkERKNS_7__cxx114pathES3_ _ZNSt10filesystem7__cxx1116filesystem_errorC1ERKNSt7__cxx1112basic_stringIcSt11char_traitsIcESaIcEEERKNS0_4pathESC_St10error_code 120
_ZNSt10filesystem16create_hard_linkERKNS_7__cxx114pathES3_ _ZNSt7__cxx1112basic_stringIcSt11char_traitsIcESaIcEE10_M_disposeEv 128
_ZNSt10filesystem16create_hard_linkERKNS_7__cxx114pathES3_ __cxa_throw 168
_ZNSt10filesystem16create_hard_linkERKNS_7__cxx114pathES3_ _ZNSt7__cxx1112basic_stringIcSt11char_traitsIcESaIcEE10_M_disposeEv 176
_ZNSt10filesystem16create_hard_linkERKNS_7__cxx114pathES3_ __cxa_free_exception 184
_ZNSt10filesystem16create_hard_linkERKNS_7__cxx114pathES3_ __cxa_end_cleanup 188
_ZNSt10filesystem16create_hard_linkERKNS_7__cxx114pathES3_ .LC35 208
_ZNSt10filesystem16create_hard_linkERKNS_7__cxx114pathES3_ _ZNSt10filesystem7__cxx1116filesystem_errorD1Ev 212
_ZNSt10filesystem16create_hard_linkERKNS_7__cxx114pathES3_ _ZTINSt10filesystem7__cxx1116filesystem_errorE 216
_ZNSt10filesystem14create_symlinkERKNS_7__cxx114pathES3_ _ZNSt10error_codeC1Ev 24
_ZNSt10filesystem14create_symlinkERKNS_7__cxx114pathES3_ _ZNSt10filesystem14create_symlinkERKNS_7__cxx114pathES3_RSt10error_code 44
_ZNSt10filesystem14create_symlinkERKNS_7__cxx114pathES3_ __cxa_allocate_exception 72
_ZNSt10filesystem14create_symlinkERKNS_7__cxx114pathES3_ _ZNSt7__cxx1112basic_stringIcSt11char_traitsIcESaIcEEC2IS3_EEPKcRKS3_.constprop.160 92
_ZNSt10filesystem14create_symlinkERKNS_7__cxx114pathES3_ _ZNSt10filesystem7__cxx1116filesystem_errorC1ERKNSt7__cxx1112basic_stringIcSt11char_traitsIcESaIcEEERKNS0_4pathESC_St10error_code 120
_ZNSt10filesystem14create_symlinkERKNS_7__cxx114pathES3_ _ZNSt7__cxx1112basic_stringIcSt11char_traitsIcESaIcEE10_M_disposeEv 128
_ZNSt10filesystem14create_symlinkERKNS_7__cxx114pathES3_ __cxa_throw 168
_ZNSt10filesystem14create_symlinkERKNS_7__cxx114pathES3_ _ZNSt7__cxx1112basic_stringIcSt11char_traitsIcESaIcEE10_M_disposeEv 176
_ZNSt10filesystem14create_symlinkERKNS_7__cxx114pathES3_ __cxa_free_exception 184
_ZNSt10filesystem14create_symlinkERKNS_7__cxx114pathES3_ __cxa_end_cleanup 188
_ZNSt10filesystem14create_symlinkERKNS_7__cxx114pathES3_ .LC36 208
_ZNSt10filesystem14create_symlinkERKNS_7__cxx114pathES3_ _ZNSt10filesystem7__cxx1116filesystem_errorD1Ev 212
_ZNSt10filesystem14create_symlinkERKNS_7__cxx114pathES3_ _ZTINSt10filesystem7__cxx1116filesystem_errorE 216
_ZNSt10filesystem10equivalentERKNS_7__cxx114pathES3_ _ZNSt10error_codeC1Ev 24
_ZNSt10filesystem10equivalentERKNS_7__cxx114pathES3_ _ZNSt10filesystem10equivalentERKNS_7__cxx114pathES3_RSt10error_code 44
_ZNSt10filesystem10equivalentERKNS_7__cxx114pathES3_ __cxa_allocate_exception 72
_ZNSt10filesystem10equivalentERKNS_7__cxx114pathES3_ _ZNSt7__cxx1112basic_stringIcSt11char_traitsIcESaIcEEC2IS3_EEPKcRKS3_.constprop.160 92
_ZNSt10filesystem10equivalentERKNS_7__cxx114pathES3_ _ZNSt10filesystem7__cxx1116filesystem_errorC1ERKNSt7__cxx1112basic_stringIcSt11char_traitsIcESaIcEEERKNS0_4pathESC_St10error_code 120
_ZNSt10filesystem10equivalentERKNS_7__cxx114pathES3_ _ZNSt7__cxx1112basic_stringIcSt11char_traitsIcESaIcEE10_M_disposeEv 128
_ZNSt10filesystem10equivalentERKNS_7__cxx114pathES3_ __cxa_throw 168
_ZNSt10filesystem10equivalentERKNS_7__cxx114pathES3_ _ZNSt7__cxx1112basic_stringIcSt11char_traitsIcESaIcEE10_M_disposeEv 176
_ZNSt10filesystem10equivalentERKNS_7__cxx114pathES3_ __cxa_free_exception 184
_ZNSt10filesystem10equivalentERKNS_7__cxx114pathES3_ __cxa_end_cleanup 188
_ZNSt10filesystem10equivalentERKNS_7__cxx114pathES3_ .LC37 208
_ZNSt10filesystem10equivalentERKNS_7__cxx114pathES3_ _ZNSt10filesystem7__cxx1116filesystem_errorD1Ev 212
_ZNSt10filesystem10equivalentERKNS_7__cxx114pathES3_ _ZTINSt10filesystem7__cxx1116filesystem_errorE 216
_ZNSt10filesystem6renameERKNS_7__cxx114pathES3_ _ZNSt10error_codeC1Ev 24
_ZNSt10filesystem6renameERKNS_7__cxx114pathES3_ _ZNSt10filesystem6renameERKNS_7__cxx114pathES3_RSt10error_code 44
_ZNSt10filesystem6renameERKNS_7__cxx114pathES3_ __cxa_allocate_exception 72
_ZNSt10filesystem6renameERKNS_7__cxx114pathES3_ _ZNSt7__cxx1112basic_stringIcSt11char_traitsIcESaIcEEC2IS3_EEPKcRKS3_.constprop.160 92
_ZNSt10filesystem6renameERKNS_7__cxx114pathES3_ _ZNSt10filesystem7__cxx1116filesystem_errorC1ERKNSt7__cxx1112basic_stringIcSt11char_traitsIcESaIcEEERKNS0_4pathESC_St10error_code 120
_ZNSt10filesystem6renameERKNS_7__cxx114pathES3_ _ZNSt7__cxx1112basic_stringIcSt11char_traitsIcESaIcEE10_M_disposeEv 128
_ZNSt10filesystem6renameERKNS_7__cxx114pathES3_ __cxa_throw 168
_ZNSt10filesystem6renameERKNS_7__cxx114pathES3_ _ZNSt7__cxx1112basic_stringIcSt11char_traitsIcESaIcEE10_M_disposeEv 176
_ZNSt10filesystem6renameERKNS_7__cxx114pathES3_ __cxa_free_exception 184
_ZNSt10filesystem6renameERKNS_7__cxx114pathES3_ __cxa_end_cleanup 188
_ZNSt10filesystem6renameERKNS_7__cxx114pathES3_ .LC38 208
_ZNSt10filesystem6renameERKNS_7__cxx114pathES3_ _ZNSt10filesystem7__cxx1116filesystem_errorD1Ev 212
_ZNSt10filesystem6renameERKNS_7__cxx114pathES3_ _ZTINSt10filesystem7__cxx1116filesystem_errorE 216
_ZNSt10filesystem4copyERKNS_7__cxx114pathES3_NS_12copy_optionsE _ZNSt10error_codeC1Ev 32
_ZNSt10filesystem4copyERKNS_7__cxx114pathES3_NS_12copy_optionsE _ZNSt10filesystem4copyERKNS_7__cxx114pathES3_NS_12copy_optionsERSt10error_code 52
_ZNSt10filesystem4copyERKNS_7__cxx114pathES3_NS_12copy_optionsE __cxa_allocate_exception 80
_ZNSt10filesystem4copyERKNS_7__cxx114pathES3_NS_12copy_optionsE _ZNSt7__cxx1112basic_stringIcSt11char_traitsIcESaIcEEC2IS3_EEPKcRKS3_.constprop.160 100
_ZNSt10filesystem4copyERKNS_7__cxx114pathES3_NS_12copy_optionsE _ZNSt10filesystem7__cxx1116filesystem_errorC1ERKNSt7__cxx1112basic_stringIcSt11char_traitsIcESaIcEEERKNS0_4pathESC_St10error_code 128
_ZNSt10filesystem4copyERKNS_7__cxx114pathES3_NS_12copy_optionsE _ZNSt7__cxx1112basic_stringIcSt11char_traitsIcESaIcEE10_M_disposeEv 136
_ZNSt10filesystem4copyERKNS_7__cxx114pathES3_NS_12copy_optionsE __cxa_throw 176
_ZNSt10filesystem4copyERKNS_7__cxx114pathES3_NS_12copy_optionsE _ZNSt7__cxx1112basic_stringIcSt11char_traitsIcESaIcEE10_M_disposeEv 184
_ZNSt10filesystem4copyERKNS_7__cxx114pathES3_NS_12copy_optionsE __cxa_free_exception 192
_ZNSt10filesystem4copyERKNS_7__cxx114pathES3_NS_12copy_optionsE __cxa_end_cleanup 196
_ZNSt10filesystem4copyERKNS_7__cxx114pathES3_NS_12copy_optionsE .LC39 216
_ZNSt10filesystem4copyERKNS_7__cxx114pathES3_NS_12copy_optionsE _ZNSt10filesystem7__cxx1116filesystem_errorD1Ev 220
_ZNSt10filesystem4copyERKNS_7__cxx114pathES3_NS_12copy_optionsE _ZTINSt10filesystem7__cxx1116filesystem_errorE 224
_ZNSt5dequeINSt10filesystem7__cxx114pathESaIS2_EE17_M_reallocate_mapEjb memmove 180
_ZNSt5dequeINSt10filesystem7__cxx114pathESaIS2_EE17_M_reallocate_mapEjb _ZSt17__throw_bad_allocv 212
_ZNSt5dequeINSt10filesystem7__cxx114pathESaIS2_EE17_M_reallocate_mapEjb _Znwj 228
_ZNSt5dequeINSt10filesystem7__cxx114pathESaIS2_EE17_M_reallocate_mapEjb memmove 284
_ZNSt5dequeINSt10filesystem7__cxx114pathESaIS2_EE17_M_reallocate_mapEjb _ZdlPv 292
_ZNSt5dequeINSt10filesystem7__cxx114pathESaIS2_EE22_M_reserve_map_at_backEj _ZNSt5dequeINSt10filesystem7__cxx114pathESaIS2_EE17_M_reallocate_mapEjb 44
_ZNSt5dequeINSt10filesystem7__cxx114pathESaIS2_EE24_M_new_elements_at_frontEj _ZStmiINSt10filesystem7__cxx114pathERS2_PS2_ENSt15_Deque_iteratorIT_T0_T1_E15difference_typeERKS9_SC_ 20
_ZNSt5dequeINSt10filesystem7__cxx114pathESaIS2_EE24_M_new_elements_at_frontEj _ZSt20__throw_length_errorPKc 56
_ZNSt5dequeINSt10filesystem7__cxx114pathESaIS2_EE24_M_new_elements_at_frontEj _ZNSt5dequeINSt10filesystem7__cxx114pathESaIS2_EE17_M_reallocate_mapEjb 108
_ZNSt5dequeINSt10filesystem7__cxx114pathESaIS2_EE24_M_new_elements_at_frontEj _Znwj 140
_ZNSt5dequeINSt10filesystem7__cxx114pathESaIS2_EE24_M_new_elements_at_frontEj __cxa_begin_catch 164
_ZNSt5dequeINSt10filesystem7__cxx114pathESaIS2_EE24_M_new_elements_at_frontEj _ZdlPv 192
_ZNSt5dequeINSt10filesystem7__cxx114pathESaIS2_EE24_M_new_elements_at_frontEj __cxa_rethrow 200
_ZNSt5dequeINSt10filesystem7__cxx114pathESaIS2_EE24_M_new_elements_at_frontEj __cxa_end_catch 204
_ZNSt5dequeINSt10filesystem7__cxx114pathESaIS2_EE24_M_new_elements_at_frontEj __cxa_end_cleanup 208
_ZNSt5dequeINSt10filesystem7__cxx114pathESaIS2_EE24_M_new_elements_at_frontEj .LC40 212
_ZNKSt15_Deque_iteratorINSt10filesystem7__cxx114pathERS2_PS2_EmiEi _ZNSt15_Deque_iteratorINSt10filesystem7__cxx114pathERS2_PS2_EC1ERKS5_ 20
_ZNKSt15_Deque_iteratorINSt10filesystem7__cxx114pathERS2_PS2_EmiEi _ZNSt15_Deque_iteratorINSt10filesystem7__cxx114pathERS2_PS2_EpLEi 32
_ZNKSt15_Deque_iteratorINSt10filesystem7__cxx114pathERS2_PS2_EmiEi _ZNSt15_Deque_iteratorINSt10filesystem7__cxx114pathERS2_PS2_EC1ERKS5_ 44
_ZNSt5dequeINSt10filesystem7__cxx114pathESaIS2_EE28_M_reserve_elements_at_frontEj _ZNSt5dequeINSt10filesystem7__cxx114pathESaIS2_EE24_M_new_elements_at_frontEj 56
_ZNSt5dequeINSt10filesystem7__cxx114pathESaIS2_EE28_M_reserve_elements_at_frontEj _ZNKSt15_Deque_iteratorINSt10filesystem7__cxx114pathERS2_PS2_EmiEi 72
_ZNSt5dequeINSt10filesystem7__cxx114pathESaIS2_EE23_M_new_elements_at_backEj _ZStmiINSt10filesystem7__cxx114pathERS2_PS2_ENSt15_Deque_iteratorIT_T0_T1_E15difference_typeERKS9_SC_ 20
_ZNSt5dequeINSt10filesystem7__cxx114pathESaIS2_EE23_M_new_elements_at_backEj _ZSt20__throw_length_errorPKc 56
_ZNSt5dequeINSt10filesystem7__cxx114pathESaIS2_EE23_M_new_elements_at_backEj _ZNSt5dequeINSt10filesystem7__cxx114pathESaIS2_EE22_M_reserve_map_at_backEj 88
_ZNSt5dequeINSt10filesystem7__cxx114pathESaIS2_EE23_M_new_elements_at_backEj _Znwj 108
_ZNSt5dequeINSt10filesystem7__cxx114pathESaIS2_EE23_M_new_elements_at_backEj __cxa_begin_catch 128
_ZNSt5dequeINSt10filesystem7__cxx114pathESaIS2_EE23_M_new_elements_at_backEj _ZdlPv 152
_ZNSt5dequeINSt10filesystem7__cxx114pathESaIS2_EE23_M_new_elements_at_backEj __cxa_rethrow 160
_ZNSt5dequeINSt10filesystem7__cxx114pathESaIS2_EE23_M_new_elements_at_backEj __cxa_end_catch 164
_ZNSt5dequeINSt10filesystem7__cxx114pathESaIS2_EE23_M_new_elements_at_backEj __cxa_end_cleanup 168
_ZNSt5dequeINSt10filesystem7__cxx114pathESaIS2_EE23_M_new_elements_at_backEj .LC41 172
_ZNSt5dequeINSt10filesystem7__cxx114pathESaIS2_EE27_M_reserve_elements_at_backEj _ZNSt5dequeINSt10filesystem7__cxx114pathESaIS2_EE23_M_new_elements_at_backEj 60
_ZNSt5dequeINSt10filesystem7__cxx114pathESaIS2_EE27_M_reserve_elements_at_backEj _ZNKSt15_Deque_iteratorINSt10filesystem7__cxx114pathERS2_PS2_EplEi 76
_ZNSt12_Destroy_auxILb0EE9__destroyIPNSt10filesystem7__cxx114pathEEEvT_S6_ _ZNSt10filesystem7__cxx114pathD1Ev 28
_ZNSt5dequeINSt10filesystem7__cxx114pathESaIS2_EED1Ev,_ZNSt5dequeINSt10filesystem7__cxx114pathESaIS2_EED2Ev _ZNSt15_Deque_iteratorINSt10filesystem7__cxx114pathERS2_PS2_EC1ERKS5_ 28
_ZNSt5dequeINSt10filesystem7__cxx114pathESaIS2_EED1Ev,_ZNSt5dequeINSt10filesystem7__cxx114pathESaIS2_EED2Ev _ZNSt15_Deque_iteratorINSt10filesystem7__cxx114pathERS2_PS2_EC1ERKS5_ 40
_ZNSt5dequeINSt10filesystem7__cxx114pathESaIS2_EED1Ev,_ZNSt5dequeINSt10filesystem7__cxx114pathESaIS2_EED2Ev _ZNSt15_Deque_iteratorINSt10filesystem7__cxx114pathERS2_PS2_EC1ERKS5_ 52
_ZNSt5dequeINSt10filesystem7__cxx114pathESaIS2_EED1Ev,_ZNSt5dequeINSt10filesystem7__cxx114pathESaIS2_EED2Ev _ZNSt15_Deque_iteratorINSt10filesystem7__cxx114pathERS2_PS2_EC1ERKS5_ 64
_ZNSt5dequeINSt10filesystem7__cxx114pathESaIS2_EED1Ev,_ZNSt5dequeINSt10filesystem7__cxx114pathESaIS2_EED2Ev _ZNSt12_Destroy_auxILb0EE9__destroyIPNSt10filesystem7__cxx114pathEEEvT_S6_ 96
_ZNSt5dequeINSt10filesystem7__cxx114pathESaIS2_EED1Ev,_ZNSt5dequeINSt10filesystem7__cxx114pathESaIS2_EED2Ev _ZNSt12_Destroy_auxILb0EE9__destroyIPNSt10filesystem7__cxx114pathEEEvT_S6_ 128
_ZNSt5dequeINSt10filesystem7__cxx114pathESaIS2_EED1Ev,_ZNSt5dequeINSt10filesystem7__cxx114pathESaIS2_EED2Ev _ZNSt12_Destroy_auxILb0EE9__destroyIPNSt10filesystem7__cxx114pathEEEvT_S6_ 140
_ZNSt5dequeINSt10filesystem7__cxx114pathESaIS2_EED1Ev,_ZNSt5dequeINSt10filesystem7__cxx114pathESaIS2_EED2Ev _ZNSt11_Deque_baseINSt10filesystem7__cxx114pathESaIS2_EED2Ev 148
_ZNSt10filesystem18create_directoriesERKNS_7__cxx114pathERSt10error_code _ZNSt3_V216generic_categoryEv 24
_ZNSt10filesystem18create_directoriesERKNS_7__cxx114pathERSt10error_code _ZNSt10filesystem14symlink_statusERKNS_7__cxx114pathERSt10error_code 72
_ZNSt10filesystem18create_directoriesERKNS_7__cxx114pathERSt10error_code _ZNSt10filesystem6existsENS_11file_statusE.isra.25 116
_ZNSt10filesystem18create_directoriesERKNS_7__cxx114pathERSt10error_code _ZNSt3_V216generic_categoryEv 136
_ZNSt10filesystem18create_directoriesERKNS_7__cxx114pathERSt10error_code _ZNSt11_Deque_baseINSt10filesystem7__cxx114pathESaIS2_EEC2Ev 160
_ZNSt10filesystem18create_directoriesERKNS_7__cxx114pathERSt10error_code _ZNSt10filesystem7__cxx114pathC1ERKS1_ 172
_ZNSt10filesystem18create_directoriesERKNS_7__cxx114pathERSt10error_code _ZNKSt10filesystem7__cxx114path17has_relative_pathEv 180
_ZNSt10filesystem18create_directoriesERKNS_7__cxx114pathERSt10error_code _ZNKSt10filesystem7__cxx114path12has_filenameEv 200
_ZNSt10filesystem18create_directoriesERKNS_7__cxx114pathERSt10error_code _ZNKSt10filesystem7__cxx114path11parent_pathEv 220
_ZNSt10filesystem18create_directoriesERKNS_7__cxx114pathERSt10error_code _ZNSt10filesystem7__cxx114pathaSEOS1_.part.111 232
_ZNSt10filesystem18create_directoriesERKNS_7__cxx114pathERSt10error_code _ZNSt10filesystem7__cxx114pathD1Ev 240
_ZNSt10filesystem18create_directoriesERKNS_7__cxx114pathERSt10error_code _ZNKSt10filesystem7__cxx114path8filenameEv 272
_ZNSt10filesystem18create_directoriesERKNS_7__cxx114pathERSt10error_code _ZNSt10filesystem7__cxx114pathC1EOS1_ 356
_ZNSt10filesystem18create_directoriesERKNS_7__cxx114pathERSt10error_code _ZNSt5dequeINSt10filesystem7__cxx114pathESaIS2_EE4backEv 376
_ZNSt10filesystem18create_directoriesERKNS_7__cxx114pathERSt10error_code _ZStmiINSt10filesystem7__cxx114pathERS2_PS2_ENSt15_Deque_iteratorIT_T0_T1_E15difference_typeERKS9_SC_ 388
_ZNSt10filesystem18create_directoriesERKNS_7__cxx114pathERSt10error_code _ZNSt3_V216generic_categoryEv 400
_ZNSt10filesystem18create_directoriesERKNS_7__cxx114pathERSt10error_code _ZNSt10filesystem7__cxx114pathD1Ev 420
_ZNSt10filesystem18create_directoriesERKNS_7__cxx114pathERSt10error_code _ZNSt10filesystem7__cxx114pathD1Ev 432
_ZNSt10filesystem18create_directoriesERKNS_7__cxx114pathERSt10error_code _ZNSt5dequeINSt10filesystem7__cxx114pathESaIS2_EED1Ev 440
_ZNSt10filesystem18create_directoriesERKNS_7__cxx114pathERSt10error_code _ZNSt5dequeINSt10filesystem7__cxx114pathESaIS2_EE22_M_reserve_map_at_backEj 456
_ZNSt10filesystem18create_directoriesERKNS_7__cxx114pathERSt10error_code _Znwj 468
_ZNSt10filesystem18create_directoriesERKNS_7__cxx114pathERSt10error_code _ZNSt10filesystem7__cxx114pathC1EOS1_ 484
_ZNSt10filesystem18create_directoriesERKNS_7__cxx114pathERSt10error_code _ZNKSt10filesystem7__cxx114path11parent_pathEv 528
_ZNSt10filesystem18create_directoriesERKNS_7__cxx114pathERSt10error_code _ZNSt10filesystem7__cxx114pathaSEOS1_.part.111 540
_ZNSt10filesystem18create_directoriesERKNS_7__cxx114pathERSt10error_code _ZNSt10filesystem7__cxx114pathD1Ev 548
_ZNSt10filesystem18create_directoriesERKNS_7__cxx114pathERSt10error_code _ZNSt10filesystem6statusERKNS_7__cxx114pathERSt10error_code 576
_ZNSt10filesystem18create_directoriesERKNS_7__cxx114pathERSt10error_code _ZNSt10filesystem6existsENS_11file_statusE.isra.25 588
_ZNSt10filesystem18create_directoriesERKNS_7__cxx114pathERSt10error_code _ZNSt3_V216generic_categoryEv 620
_ZNSt10filesystem18create_directoriesERKNS_7__cxx114pathERSt10error_code _ZNSt5dequeINSt10filesystem7__cxx114pathESaIS2_EE4backEv 640
_ZNSt10filesystem18create_directoriesERKNS_7__cxx114pathERSt10error_code _ZNKSt10filesystem7__cxx114path11parent_pathEv 652
_ZNSt10filesystem18create_directoriesERKNS_7__cxx114pathERSt10error_code _ZNSt10filesystem7__cxx114pathaSEOS1_.part.111 664
_ZNSt10filesystem18create_directoriesERKNS_7__cxx114pathERSt10error_code _ZNSt10filesystem7__cxx114pathD1Ev 680
_ZNSt10filesystem18create_directoriesERKNS_7__cxx114pathERSt10error_code _ZNSt5dequeINSt10filesystem7__cxx114pathESaIS2_EE4backEv 688
_ZNSt10filesystem18create_directoriesERKNS_7__cxx114pathERSt10error_code _ZNSt10filesystem16create_directoryERKNS_7__cxx114pathERSt10error_code 696
_ZNSt10filesystem18create_directoriesERKNS_7__cxx114pathERSt10error_code _ZdlPv 736
_ZNSt10filesystem18create_directoriesERKNS_7__cxx114pathERSt10error_code _ZNSt10filesystem7__cxx114pathD1Ev 776
_ZNSt10filesystem18create_directoriesERKNS_7__cxx114pathERSt10error_code _ZNSt10filesystem7__cxx114pathD1Ev 816
_ZNSt10filesystem18create_directoriesERKNS_7__cxx114pathERSt10error_code _ZNSt10filesystem7__cxx114pathD1Ev 824
_ZNSt10filesystem18create_directoriesERKNS_7__cxx114pathERSt10error_code _ZNSt5dequeINSt10filesystem7__cxx114pathESaIS2_EED1Ev 832
_ZNSt10filesystem18create_directoriesERKNS_7__cxx114pathERSt10error_code __cxa_end_cleanup 836
_ZNSt10filesystem18create_directoriesERKNS_7__cxx114pathERSt10error_code _ZNSt10filesystem7__cxx114pathD1Ev 852
_ZNSt10filesystem18create_directoriesERKNS_7__cxx114pathE _ZNSt10error_codeC1Ev 20
_ZNSt10filesystem18create_directoriesERKNS_7__cxx114pathE _ZNSt10filesystem18create_directoriesERKNS_7__cxx114pathERSt10error_code 32
_ZNSt10filesystem18create_directoriesERKNS_7__cxx114pathE __cxa_allocate_exception 64
_ZNSt10filesystem18create_directoriesERKNS_7__cxx114pathE _ZNSt7__cxx1112basic_stringIcSt11char_traitsIcESaIcEEC2IS3_EEPKcRKS3_.constprop.160 84
_ZNSt10filesystem18create_directoriesERKNS_7__cxx114pathE _ZNSt10filesystem7__cxx1116filesystem_errorC1ERKNSt7__cxx1112basic_stringIcSt11char_traitsIcESaIcEEERKNS0_4pathESt10error_code 112
_ZNSt10filesystem18create_directoriesERKNS_7__cxx114pathE _ZNSt7__cxx1112basic_stringIcSt11char_traitsIcESaIcEE10_M_disposeEv 120
_ZNSt10filesystem18create_directoriesERKNS_7__cxx114pathE __cxa_throw 160
_ZNSt10filesystem18create_directoriesERKNS_7__cxx114pathE _ZNSt7__cxx1112basic_stringIcSt11char_traitsIcESaIcEE10_M_disposeEv 168
_ZNSt10filesystem18create_directoriesERKNS_7__cxx114pathE __cxa_free_exception 176
_ZNSt10filesystem18create_directoriesERKNS_7__cxx114pathE __cxa_end_cleanup 180
_ZNSt10filesystem18create_directoriesERKNS_7__cxx114pathE .LC42 200
_ZNSt10filesystem18create_directoriesERKNS_7__cxx114pathE _ZNSt10filesystem7__cxx1116filesystem_errorD1Ev 204
_ZNSt10filesystem18create_directoriesERKNS_7__cxx114pathE _ZTINSt10filesystem7__cxx1116filesystem_errorE 208
_ZSt4copyINSt10filesystem7__cxx114path8iteratorESt15_Deque_iteratorIS2_RS2_PS2_EET0_T_S9_S8_ _ZNSt15_Deque_iteratorINSt10filesystem7__cxx114pathERS2_PS2_EC1ERKS5_ 72
_ZSt4copyINSt10filesystem7__cxx114path8iteratorESt15_Deque_iteratorIS2_RS2_PS2_EET0_T_S9_S8_ _ZNSt15_Deque_iteratorINSt10filesystem7__cxx114pathERS2_PS2_EC1ERKS5_ 144
_ZSt4copyINSt10filesystem7__cxx114path8iteratorESt15_Deque_iteratorIS2_RS2_PS2_EET0_T_S9_S8_ _ZNSt15_Deque_iteratorINSt10filesystem7__cxx114pathERS2_PS2_EC1ERKS5_ 160
_ZSt4copyINSt10filesystem7__cxx114path8iteratorESt15_Deque_iteratorIS2_RS2_PS2_EET0_T_S9_S8_ _ZNSt15_Deque_iteratorINSt10filesystem7__cxx114pathERS2_PS2_EC1ERKS5_ 200
_ZSt4copyINSt10filesystem7__cxx114path8iteratorESt15_Deque_iteratorIS2_RS2_PS2_EET0_T_S9_S8_ _ZNSt10filesystem7__cxx11neERKNS0_4path8iteratorES4_ 232
_ZSt4copyINSt10filesystem7__cxx114path8iteratorESt15_Deque_iteratorIS2_RS2_PS2_EET0_T_S9_S8_ _ZNKSt10filesystem7__cxx114path8iteratordeEv 248
_ZSt4copyINSt10filesystem7__cxx114path8iteratorESt15_Deque_iteratorIS2_RS2_PS2_EET0_T_S9_S8_ _ZNSt10filesystem7__cxx114pathaSERKS1_ 260
_ZSt4copyINSt10filesystem7__cxx114path8iteratorESt15_Deque_iteratorIS2_RS2_PS2_EET0_T_S9_S8_ _ZNSt15_Deque_iteratorINSt10filesystem7__cxx114pathERS2_PS2_EppEv 268
_ZSt4copyINSt10filesystem7__cxx114path8iteratorESt15_Deque_iteratorIS2_RS2_PS2_EET0_T_S9_S8_ _ZNSt10filesystem7__cxx114path8iteratorppEv 276
_ZSt4copyINSt10filesystem7__cxx114path8iteratorESt15_Deque_iteratorIS2_RS2_PS2_EET0_T_S9_S8_ _ZNSt15_Deque_iteratorINSt10filesystem7__cxx114pathERS2_PS2_EC1ERKS5_ 292
_ZSt22__uninitialized_move_aISt15_Deque_iteratorINSt10filesystem7__cxx114pathERS3_PS3_ES6_SaIS3_EET0_T_S9_S8_RT1_ _ZNSt15_Deque_iteratorINSt10filesystem7__cxx114pathERS2_PS2_EC1ERKS5_ 36
_ZSt22__uninitialized_move_aISt15_Deque_iteratorINSt10filesystem7__cxx114pathERS3_PS3_ES6_SaIS3_EET0_T_S9_S8_RT1_ _ZNSt15_Deque_iteratorINSt10filesystem7__cxx114pathERS2_PS2_EC1ERKS5_ 48
_ZSt22__uninitialized_move_aISt15_Deque_iteratorINSt10filesystem7__cxx114pathERS3_PS3_ES6_SaIS3_EET0_T_S9_S8_RT1_ _ZNSt15_Deque_iteratorINSt10filesystem7__cxx114pathERS2_PS2_EC1ERKS5_ 64
_ZSt22__uninitialized_move_aISt15_Deque_iteratorINSt10filesystem7__cxx114pathERS3_PS3_ES6_SaIS3_EET0_T_S9_S8_RT1_ _ZNSt15_Deque_iteratorINSt10filesystem7__cxx114pathERS2_PS2_EC1ERKS5_ 76
_ZSt22__uninitialized_move_aISt15_Deque_iteratorINSt10filesystem7__cxx114pathERS3_PS3_ES6_SaIS3_EET0_T_S9_S8_RT1_ _ZNSt15_Deque_iteratorINSt10filesystem7__cxx114pathERS2_PS2_EC1ERKS5_ 96
_ZSt22__uninitialized_move_aISt15_Deque_iteratorINSt10filesystem7__cxx114pathERS3_PS3_ES6_SaIS3_EET0_T_S9_S8_RT1_ _ZNSt15_Deque_iteratorINSt10filesystem7__cxx114pathERS2_PS2_EC1ERKS5_ 108
_ZSt22__uninitialized_move_aISt15_Deque_iteratorINSt10filesystem7__cxx114pathERS3_PS3_ES6_SaIS3_EET0_T_S9_S8_RT1_ _ZNSt15_Deque_iteratorINSt10filesystem7__cxx114pathERS2_PS2_EC1ERKS5_ 120
_ZSt22__uninitialized_move_aISt15_Deque_iteratorINSt10filesystem7__cxx114pathERS3_PS3_ES6_SaIS3_EET0_T_S9_S8_RT1_ _ZNSt15_Deque_iteratorINSt10filesystem7__cxx114pathERS2_PS2_EC1ERKS5_ 140
_ZSt22__uninitialized_move_aISt15_Deque_iteratorINSt10filesystem7__cxx114pathERS3_PS3_ES6_SaIS3_EET0_T_S9_S8_RT1_ _ZNSt15_Deque_iteratorINSt10filesystem7__cxx114pathERS2_PS2_EC1ERKS5_ 156
_ZSt22__uninitialized_move_aISt15_Deque_iteratorINSt10filesystem7__cxx114pathERS3_PS3_ES6_SaIS3_EET0_T_S9_S8_RT1_ _ZNSt15_Deque_iteratorINSt10filesystem7__cxx114pathERS2_PS2_EC1ERKS5_ 172
_ZSt22__uninitialized_move_aISt15_Deque_iteratorINSt10filesystem7__cxx114pathERS3_PS3_ES6_SaIS3_EET0_T_S9_S8_RT1_ _ZNSt15_Deque_iteratorINSt10filesystem7__cxx114pathERS2_PS2_EC1ERKS5_ 188
_ZSt22__uninitialized_move_aISt15_Deque_iteratorINSt10filesystem7__cxx114pathERS3_PS3_ES6_SaIS3_EET0_T_S9_S8_RT1_ _ZNSt15_Deque_iteratorINSt10filesystem7__cxx114pathERS2_PS2_EC1ERKS5_ 200
_ZSt22__uninitialized_move_aISt15_Deque_iteratorINSt10filesystem7__cxx114pathERS3_PS3_ES6_SaIS3_EET0_T_S9_S8_RT1_ _ZNSt15_Deque_iteratorINSt10filesystem7__cxx114pathERS2_PS2_EC1ERKS5_ 216
_ZSt22__uninitialized_move_aISt15_Deque_iteratorINSt10filesystem7__cxx114pathERS3_PS3_ES6_SaIS3_EET0_T_S9_S8_RT1_ _ZNSt15_Deque_iteratorINSt10filesystem7__cxx114pathERS2_PS2_EC1ERKS5_ 232
_ZSt22__uninitialized_move_aISt15_Deque_iteratorINSt10filesystem7__cxx114pathERS3_PS3_ES6_SaIS3_EET0_T_S9_S8_RT1_ _ZNSt15_Deque_iteratorINSt10filesystem7__cxx114pathERS2_PS2_EC1ERKS5_ 244
_ZSt22__uninitialized_move_aISt15_Deque_iteratorINSt10filesystem7__cxx114pathERS3_PS3_ES6_SaIS3_EET0_T_S9_S8_RT1_ _ZNSt15_Deque_iteratorINSt10filesystem7__cxx114pathERS2_PS2_EC1ERKS5_ 256
_ZSt22__uninitialized_move_aISt15_Deque_iteratorINSt10filesystem7__cxx114pathERS3_PS3_ES6_SaIS3_EET0_T_S9_S8_RT1_ _ZNSt10filesystem7__cxx114pathC1EOS1_ 284
_ZSt22__uninitialized_move_aISt15_Deque_iteratorINSt10filesystem7__cxx114pathERS3_PS3_ES6_SaIS3_EET0_T_S9_S8_RT1_ _ZNSt15_Deque_iteratorINSt10filesystem7__cxx114pathERS2_PS2_EppEv 292
_ZSt22__uninitialized_move_aISt15_Deque_iteratorINSt10filesystem7__cxx114pathERS3_PS3_ES6_SaIS3_EET0_T_S9_S8_RT1_ _ZNSt15_Deque_iteratorINSt10filesystem7__cxx114pathERS2_PS2_EppEv 300
_ZSt8_DestroyISt15_Deque_iteratorINSt10filesystem7__cxx114pathERS3_PS3_EEvT_S7_ _ZNSt15_Deque_iteratorINSt10filesystem7__cxx114pathERS2_PS2_EC1ERKS5_ 24
_ZSt8_DestroyISt15_Deque_iteratorINSt10filesystem7__cxx114pathERS3_PS3_EEvT_S7_ _ZNSt15_Deque_iteratorINSt10filesystem7__cxx114pathERS2_PS2_EC1ERKS5_ 36
_ZSt8_DestroyISt15_Deque_iteratorINSt10filesystem7__cxx114pathERS3_PS3_EEvT_S7_ _ZNSt10filesystem7__cxx114pathD1Ev 56
_ZSt8_DestroyISt15_Deque_iteratorINSt10filesystem7__cxx114pathERS3_PS3_EEvT_S7_ _ZNSt15_Deque_iteratorINSt10filesystem7__cxx114pathERS2_PS2_EppEv 64
_ZSt22__uninitialized_copy_aINSt10filesystem7__cxx114path8iteratorESt15_Deque_iteratorIS2_RS2_PS2_ES2_ET0_T_S9_S8_RSaIT1_E.isra.150 _ZNSt15_Deque_iteratorINSt10filesystem7__cxx114pathERS2_PS2_EC1ERKS5_ 40
_ZSt22__uninitialized_copy_aINSt10filesystem7__cxx114path8iteratorESt15_Deque_iteratorIS2_RS2_PS2_ES2_ET0_T_S9_S8_RSaIT1_E.isra.150 _ZNSt15_Deque_iteratorINSt10filesystem7__cxx114pathERS2_PS2_EC1ERKS5_ 80
_ZSt22__uninitialized_copy_aINSt10filesystem7__cxx114path8iteratorESt15_Deque_iteratorIS2_RS2_PS2_ES2_ET0_T_S9_S8_RSaIT1_E.isra.150 _ZNSt15_Deque_iteratorINSt10filesystem7__cxx114pathERS2_PS2_EC1ERKS5_ 112
_ZSt22__uninitialized_copy_aINSt10filesystem7__cxx114path8iteratorESt15_Deque_iteratorIS2_RS2_PS2_ES2_ET0_T_S9_S8_RSaIT1_E.isra.150 _ZNSt10filesystem7__cxx11neERKNS0_4path8iteratorES4_ 124
_ZSt22__uninitialized_copy_aINSt10filesystem7__cxx114path8iteratorESt15_Deque_iteratorIS2_RS2_PS2_ES2_ET0_T_S9_S8_RSaIT1_E.isra.150 _ZNKSt10filesystem7__cxx114path8iteratordeEv 140
_ZSt22__uninitialized_copy_aINSt10filesystem7__cxx114path8iteratorESt15_Deque_iteratorIS2_RS2_PS2_ES2_ET0_T_S9_S8_RSaIT1_E.isra.150 _ZNSt10filesystem7__cxx114pathC1ERKS1_ 152
_ZSt22__uninitialized_copy_aINSt10filesystem7__cxx114path8iteratorESt15_Deque_iteratorIS2_RS2_PS2_ES2_ET0_T_S9_S8_RSaIT1_E.isra.150 _ZNSt10filesystem7__cxx114path8iteratorppEv 160
_ZSt22__uninitialized_copy_aINSt10filesystem7__cxx114path8iteratorESt15_Deque_iteratorIS2_RS2_PS2_ES2_ET0_T_S9_S8_RSaIT1_E.isra.150 _ZNSt15_Deque_iteratorINSt10filesystem7__cxx114pathERS2_PS2_EppEv 168
_ZSt22__uninitialized_copy_aINSt10filesystem7__cxx114path8iteratorESt15_Deque_iteratorIS2_RS2_PS2_ES2_ET0_T_S9_S8_RSaIT1_E.isra.150 __cxa_begin_catch 184
_ZSt22__uninitialized_copy_aINSt10filesystem7__cxx114path8iteratorESt15_Deque_iteratorIS2_RS2_PS2_ES2_ET0_T_S9_S8_RSaIT1_E.isra.150 _ZNSt15_Deque_iteratorINSt10filesystem7__cxx114pathERS2_PS2_EC1ERKS5_ 196
_ZSt22__uninitialized_copy_aINSt10filesystem7__cxx114path8iteratorESt15_Deque_iteratorIS2_RS2_PS2_ES2_ET0_T_S9_S8_RSaIT1_E.isra.150 _ZNSt15_Deque_iteratorINSt10filesystem7__cxx114pathERS2_PS2_EC1ERKS5_ 208
_ZSt22__uninitialized_copy_aINSt10filesystem7__cxx114path8iteratorESt15_Deque_iteratorIS2_RS2_PS2_ES2_ET0_T_S9_S8_RSaIT1_E.isra.150 _ZSt8_DestroyISt15_Deque_iteratorINSt10filesystem7__cxx114pathERS3_PS3_EEvT_S7_ 220
_ZSt22__uninitialized_copy_aINSt10filesystem7__cxx114path8iteratorESt15_Deque_iteratorIS2_RS2_PS2_ES2_ET0_T_S9_S8_RSaIT1_E.isra.150 __cxa_rethrow 224
_ZSt22__uninitialized_copy_aINSt10filesystem7__cxx114path8iteratorESt15_Deque_iteratorIS2_RS2_PS2_ES2_ET0_T_S9_S8_RSaIT1_E.isra.150 __cxa_end_catch 228
_ZSt22__uninitialized_copy_aINSt10filesystem7__cxx114path8iteratorESt15_Deque_iteratorIS2_RS2_PS2_ES2_ET0_T_S9_S8_RSaIT1_E.isra.150 __cxa_end_cleanup 232
_ZSt13move_backwardINSt10filesystem7__cxx114pathEESt15_Deque_iteratorIT_RS4_PS4_ES7_S7_S7_ _ZNSt15_Deque_iteratorINSt10filesystem7__cxx114pathERS2_PS2_EC1ERKS5_ 64
_ZSt13move_backwardINSt10filesystem7__cxx114pathEESt15_Deque_iteratorIT_RS4_PS4_ES7_S7_S7_ _ZStmiINSt10filesystem7__cxx114pathERKS2_PS3_ENSt15_Deque_iteratorIT_T0_T1_E15difference_typeERKSA_SD_ 124
_ZSt13move_backwardINSt10filesystem7__cxx114pathEESt15_Deque_iteratorIT_RS4_PS4_ES7_S7_S7_ _ZNSt10filesystem7__cxx114pathaSEOS1_ 284
_ZSt13move_backwardINSt10filesystem7__cxx114pathEESt15_Deque_iteratorIT_RS4_PS4_ES7_S7_S7_ _ZNSt15_Deque_iteratorINSt10filesystem7__cxx114pathERKS2_PS3_EpLEi 316
_ZSt13move_backwardINSt10filesystem7__cxx114pathEESt15_Deque_iteratorIT_RS4_PS4_ES7_S7_S7_ _ZNSt15_Deque_iteratorINSt10filesystem7__cxx114pathERS2_PS2_EpLEi 328
_ZSt13move_backwardINSt10filesystem7__cxx114pathEESt15_Deque_iteratorIT_RS4_PS4_ES7_S7_S7_ _ZNSt15_Deque_iteratorINSt10filesystem7__cxx114pathERS2_PS2_EC1ERKS5_ 344
_ZSt4moveINSt10filesystem7__cxx114pathEESt15_Deque_iteratorIT_RS4_PS4_ES7_S7_S7_ _ZNSt15_Deque_iteratorINSt10filesystem7__cxx114pathERS2_PS2_EC1ERKS5_ 64
_ZSt4moveINSt10filesystem7__cxx114pathEESt15_Deque_iteratorIT_RS4_PS4_ES7_S7_S7_ _ZStmiINSt10filesystem7__cxx114pathERKS2_PS3_ENSt15_Deque_iteratorIT_T0_T1_E15difference_typeERKSA_SD_ 124
_ZSt4moveINSt10filesystem7__cxx114pathEESt15_Deque_iteratorIT_RS4_PS4_ES7_S7_S7_ _ZNSt10filesystem7__cxx114pathaSEOS1_ 224
_ZSt4moveINSt10filesystem7__cxx114pathEESt15_Deque_iteratorIT_RS4_PS4_ES7_S7_S7_ _ZNSt15_Deque_iteratorINSt10filesystem7__cxx114pathERKS2_PS3_EpLEi 256
_ZSt4moveINSt10filesystem7__cxx114pathEESt15_Deque_iteratorIT_RS4_PS4_ES7_S7_S7_ _ZNSt15_Deque_iteratorINSt10filesystem7__cxx114pathERS2_PS2_EpLEi 268
_ZSt4moveINSt10filesystem7__cxx114pathEESt15_Deque_iteratorIT_RS4_PS4_ES7_S7_S7_ _ZNSt15_Deque_iteratorINSt10filesystem7__cxx114pathERS2_PS2_EC1ERKS5_ 288
_ZNSt5dequeINSt10filesystem7__cxx114pathESaIS2_EE13_M_insert_auxINS2_8iteratorEEEvSt15_Deque_iteratorIS2_RS2_PS2_ET_SB_j _ZStmiINSt10filesystem7__cxx114pathERS2_PS2_ENSt15_Deque_iteratorIT_T0_T1_E15difference_typeERKS9_SC_ 52
_ZNSt5dequeINSt10filesystem7__cxx114pathESaIS2_EE13_M_insert_auxINS2_8iteratorEEEvSt15_Deque_iteratorIS2_RS2_PS2_ET_SB_j _ZStmiINSt10filesystem7__cxx114pathERS2_PS2_ENSt15_Deque_iteratorIT_T0_T1_E15difference_typeERKS9_SC_ 68
_ZNSt5dequeINSt10filesystem7__cxx114pathESaIS2_EE13_M_insert_auxINS2_8iteratorEEEvSt15_Deque_iteratorIS2_RS2_PS2_ET_SB_j _ZNSt5dequeINSt10filesystem7__cxx114pathESaIS2_EE28_M_reserve_elements_at_frontEj 112
_ZNSt5dequeINSt10filesystem7__cxx114pathESaIS2_EE13_M_insert_auxINS2_8iteratorEEEvSt15_Deque_iteratorIS2_RS2_PS2_ET_SB_j _ZNSt15_Deque_iteratorINSt10filesystem7__cxx114pathERS2_PS2_EC1ERKS5_ 132
_ZNSt5dequeINSt10filesystem7__cxx114pathESaIS2_EE13_M_insert_auxINS2_8iteratorEEEvSt15_Deque_iteratorIS2_RS2_PS2_ET_SB_j _ZNKSt15_Deque_iteratorINSt10filesystem7__cxx114pathERS2_PS2_EplEi 148
_ZNSt5dequeINSt10filesystem7__cxx114pathESaIS2_EE13_M_insert_auxINS2_8iteratorEEEvSt15_Deque_iteratorIS2_RS2_PS2_ET_SB_j _ZNKSt15_Deque_iteratorINSt10filesystem7__cxx114pathERS2_PS2_EplEi 192
_ZNSt5dequeINSt10filesystem7__cxx114pathESaIS2_EE13_M_insert_auxINS2_8iteratorEEEvSt15_Deque_iteratorIS2_RS2_PS2_ET_SB_j _ZNSt15_Deque_iteratorINSt10filesystem7__cxx114pathERS2_PS2_EC1ERKS5_ 204
_ZNSt5dequeINSt10filesystem7__cxx114pathESaIS2_EE13_M_insert_auxINS2_8iteratorEEEvSt15_Deque_iteratorIS2_RS2_PS2_ET_SB_j _ZNSt15_Deque_iteratorINSt10filesystem7__cxx114pathERS2_PS2_EC1ERKS5_ 216
_ZNSt5dequeINSt10filesystem7__cxx114pathESaIS2_EE13_M_insert_auxINS2_8iteratorEEEvSt15_Deque_iteratorIS2_RS2_PS2_ET_SB_j _ZNSt15_Deque_iteratorINSt10filesystem7__cxx114pathERS2_PS2_EC1ERKS5_ 228
_ZNSt5dequeINSt10filesystem7__cxx114pathESaIS2_EE13_M_insert_auxINS2_8iteratorEEEvSt15_Deque_iteratorIS2_RS2_PS2_ET_SB_j _ZSt22__uninitialized_move_aISt15_Deque_iteratorINSt10filesystem7__cxx114pathERS3_PS3_ES6_SaIS3_EET0_T_S9_S8_RT1_ 252
_ZNSt5dequeINSt10filesystem7__cxx114pathESaIS2_EE13_M_insert_auxINS2_8iteratorEEEvSt15_Deque_iteratorIS2_RS2_PS2_ET_SB_j _ZNSt15_Deque_iteratorINSt10filesystem7__cxx114pathERS2_PS2_EC1ERKS5_ 276
_ZNSt5dequeINSt10filesystem7__cxx114pathESaIS2_EE13_M_insert_auxINS2_8iteratorEEEvSt15_Deque_iteratorIS2_RS2_PS2_ET_SB_j _ZNSt15_Deque_iteratorINSt10filesystem7__cxx114pathERS2_PS2_EC1ERKS5_ 288
_ZNSt5dequeINSt10filesystem7__cxx114pathESaIS2_EE13_M_insert_auxINS2_8iteratorEEEvSt15_Deque_iteratorIS2_RS2_PS2_ET_SB_j _ZNSt15_Deque_iteratorINSt10filesystem7__cxx114pathERS2_PS2_EC1ERKS5_ 300
_ZNSt5dequeINSt10filesystem7__cxx114pathESaIS2_EE13_M_insert_auxINS2_8iteratorEEEvSt15_Deque_iteratorIS2_RS2_PS2_ET_SB_j _ZSt4moveINSt10filesystem7__cxx114pathEESt15_Deque_iteratorIT_RS4_PS4_ES7_S7_S7_ 320
_ZNSt5dequeINSt10filesystem7__cxx114pathESaIS2_EE13_M_insert_auxINS2_8iteratorEEEvSt15_Deque_iteratorIS2_RS2_PS2_ET_SB_j _ZNKSt15_Deque_iteratorINSt10filesystem7__cxx114pathERS2_PS2_EmiEi 336
_ZNSt5dequeINSt10filesystem7__cxx114pathESaIS2_EE13_M_insert_auxINS2_8iteratorEEEvSt15_Deque_iteratorIS2_RS2_PS2_ET_SB_j _ZSt4copyINSt10filesystem7__cxx114path8iteratorESt15_Deque_iteratorIS2_RS2_PS2_EET0_T_S9_S8_ 368
_ZNSt5dequeINSt10filesystem7__cxx114pathESaIS2_EE13_M_insert_auxINS2_8iteratorEEEvSt15_Deque_iteratorIS2_RS2_PS2_ET_SB_j _ZSt9__advanceINSt10filesystem7__cxx114path8iteratorEiEvRT_T0_St26bidirectional_iterator_tag.isra.97 412
_ZNSt5dequeINSt10filesystem7__cxx114pathESaIS2_EE13_M_insert_auxINS2_8iteratorEEEvSt15_Deque_iteratorIS2_RS2_PS2_ET_SB_j _ZNSt15_Deque_iteratorINSt10filesystem7__cxx114pathERS2_PS2_EC1ERKS5_ 424
_ZNSt5dequeINSt10filesystem7__cxx114pathESaIS2_EE13_M_insert_auxINS2_8iteratorEEEvSt15_Deque_iteratorIS2_RS2_PS2_ET_SB_j _ZNSt15_Deque_iteratorINSt10filesystem7__cxx114pathERS2_PS2_EC1ERKS5_ 440
_ZNSt5dequeINSt10filesystem7__cxx114pathESaIS2_EE13_M_insert_auxINS2_8iteratorEEEvSt15_Deque_iteratorIS2_RS2_PS2_ET_SB_j _ZNSt15_Deque_iteratorINSt10filesystem7__cxx114pathERS2_PS2_EC1ERKS5_ 452
_ZNSt5dequeINSt10filesystem7__cxx114pathESaIS2_EE13_M_insert_auxINS2_8iteratorEEEvSt15_Deque_iteratorIS2_RS2_PS2_ET_SB_j _ZNSt15_Deque_iteratorINSt10filesystem7__cxx114pathERS2_PS2_EC1ERKS5_ 496
_ZNSt5dequeINSt10filesystem7__cxx114pathESaIS2_EE13_M_insert_auxINS2_8iteratorEEEvSt15_Deque_iteratorIS2_RS2_PS2_ET_SB_j _ZNSt15_Deque_iteratorINSt10filesystem7__cxx114pathERS2_PS2_EC1ERKS5_ 512
_ZNSt5dequeINSt10filesystem7__cxx114pathESaIS2_EE13_M_insert_auxINS2_8iteratorEEEvSt15_Deque_iteratorIS2_RS2_PS2_ET_SB_j _ZNSt15_Deque_iteratorINSt10filesystem7__cxx114pathERS2_PS2_EC1ERKS5_ 524
_ZNSt5dequeINSt10filesystem7__cxx114pathESaIS2_EE13_M_insert_auxINS2_8iteratorEEEvSt15_Deque_iteratorIS2_RS2_PS2_ET_SB_j _ZSt22__uninitialized_move_aISt15_Deque_iteratorINSt10filesystem7__cxx114pathERS3_PS3_ES6_SaIS3_EET0_T_S9_S8_RT1_ 548
_ZNSt5dequeINSt10filesystem7__cxx114pathESaIS2_EE13_M_insert_auxINS2_8iteratorEEEvSt15_Deque_iteratorIS2_RS2_PS2_ET_SB_j _ZNSt15_Deque_iteratorINSt10filesystem7__cxx114pathERS2_PS2_EC1ERKS5_ 560
_ZNSt5dequeINSt10filesystem7__cxx114pathESaIS2_EE13_M_insert_auxINS2_8iteratorEEEvSt15_Deque_iteratorIS2_RS2_PS2_ET_SB_j _ZSt22__uninitialized_copy_aINSt10filesystem7__cxx114path8iteratorESt15_Deque_iteratorIS2_RS2_PS2_ES2_ET0_T_S9_S8_RSaIT1_E.isra.150 588
_ZNSt5dequeINSt10filesystem7__cxx114pathESaIS2_EE13_M_insert_auxINS2_8iteratorEEEvSt15_Deque_iteratorIS2_RS2_PS2_ET_SB_j _ZNSt15_Deque_iteratorINSt10filesystem7__cxx114pathERS2_PS2_EC1ERKS5_ 612
_ZNSt5dequeINSt10filesystem7__cxx114pathESaIS2_EE13_M_insert_auxINS2_8iteratorEEEvSt15_Deque_iteratorIS2_RS2_PS2_ET_SB_j __cxa_begin_catch 644
_ZNSt5dequeINSt10filesystem7__cxx114pathESaIS2_EE13_M_insert_auxINS2_8iteratorEEEvSt15_Deque_iteratorIS2_RS2_PS2_ET_SB_j _ZNSt15_Deque_iteratorINSt10filesystem7__cxx114pathERS2_PS2_EC1ERKS5_ 660
_ZNSt5dequeINSt10filesystem7__cxx114pathESaIS2_EE13_M_insert_auxINS2_8iteratorEEEvSt15_Deque_iteratorIS2_RS2_PS2_ET_SB_j _ZNSt15_Deque_iteratorINSt10filesystem7__cxx114pathERS2_PS2_EC1ERKS5_ 672
_ZNSt5dequeINSt10filesystem7__cxx114pathESaIS2_EE13_M_insert_auxINS2_8iteratorEEEvSt15_Deque_iteratorIS2_RS2_PS2_ET_SB_j _ZNSt15_Deque_iteratorINSt10filesystem7__cxx114pathERS2_PS2_EC1ERKS5_ 684
_ZNSt5dequeINSt10filesystem7__cxx114pathESaIS2_EE13_M_insert_auxINS2_8iteratorEEEvSt15_Deque_iteratorIS2_RS2_PS2_ET_SB_j _ZNSt15_Deque_iteratorINSt10filesystem7__cxx114pathERS2_PS2_EC1ERKS5_ 696
_ZNSt5dequeINSt10filesystem7__cxx114pathESaIS2_EE13_M_insert_auxINS2_8iteratorEEEvSt15_Deque_iteratorIS2_RS2_PS2_ET_SB_j _ZSt8_DestroyISt15_Deque_iteratorINSt10filesystem7__cxx114pathERS3_PS3_EEvT_S7_ 708
_ZNSt5dequeINSt10filesystem7__cxx114pathESaIS2_EE13_M_insert_auxINS2_8iteratorEEEvSt15_Deque_iteratorIS2_RS2_PS2_ET_SB_j __cxa_rethrow 712
_ZNSt5dequeINSt10filesystem7__cxx114pathESaIS2_EE13_M_insert_auxINS2_8iteratorEEEvSt15_Deque_iteratorIS2_RS2_PS2_ET_SB_j __cxa_end_catch 720
_ZNSt5dequeINSt10filesystem7__cxx114pathESaIS2_EE13_M_insert_auxINS2_8iteratorEEEvSt15_Deque_iteratorIS2_RS2_PS2_ET_SB_j __cxa_begin_catch 728
_ZNSt5dequeINSt10filesystem7__cxx114pathESaIS2_EE13_M_insert_auxINS2_8iteratorEEEvSt15_Deque_iteratorIS2_RS2_PS2_ET_SB_j _ZNSt11_Deque_baseINSt10filesystem7__cxx114pathESaIS2_EE16_M_destroy_nodesEPPS2_S6_.isra.117 740
_ZNSt5dequeINSt10filesystem7__cxx114pathESaIS2_EE13_M_insert_auxINS2_8iteratorEEEvSt15_Deque_iteratorIS2_RS2_PS2_ET_SB_j __cxa_rethrow 744
_ZNSt5dequeINSt10filesystem7__cxx114pathESaIS2_EE13_M_insert_auxINS2_8iteratorEEEvSt15_Deque_iteratorIS2_RS2_PS2_ET_SB_j __cxa_end_catch 748
_ZNSt5dequeINSt10filesystem7__cxx114pathESaIS2_EE13_M_insert_auxINS2_8iteratorEEEvSt15_Deque_iteratorIS2_RS2_PS2_ET_SB_j __cxa_end_cleanup 752
_ZNSt5dequeINSt10filesystem7__cxx114pathESaIS2_EE13_M_insert_auxINS2_8iteratorEEEvSt15_Deque_iteratorIS2_RS2_PS2_ET_SB_j _ZNSt5dequeINSt10filesystem7__cxx114pathESaIS2_EE27_M_reserve_elements_at_backEj 780
_ZNSt5dequeINSt10filesystem7__cxx114pathESaIS2_EE13_M_insert_auxINS2_8iteratorEEEvSt15_Deque_iteratorIS2_RS2_PS2_ET_SB_j _ZNSt15_Deque_iteratorINSt10filesystem7__cxx114pathERS2_PS2_EC1ERKS5_ 804
_ZNSt5dequeINSt10filesystem7__cxx114pathESaIS2_EE13_M_insert_auxINS2_8iteratorEEEvSt15_Deque_iteratorIS2_RS2_PS2_ET_SB_j _ZNKSt15_Deque_iteratorINSt10filesystem7__cxx114pathERS2_PS2_EmiEi 820
_ZNSt5dequeINSt10filesystem7__cxx114pathESaIS2_EE13_M_insert_auxINS2_8iteratorEEEvSt15_Deque_iteratorIS2_RS2_PS2_ET_SB_j _ZNKSt15_Deque_iteratorINSt10filesystem7__cxx114pathERS2_PS2_EmiEi 864
_ZNSt5dequeINSt10filesystem7__cxx114pathESaIS2_EE13_M_insert_auxINS2_8iteratorEEEvSt15_Deque_iteratorIS2_RS2_PS2_ET_SB_j _ZNSt15_Deque_iteratorINSt10filesystem7__cxx114pathERS2_PS2_EC1ERKS5_ 876
_ZNSt5dequeINSt10filesystem7__cxx114pathESaIS2_EE13_M_insert_auxINS2_8iteratorEEEvSt15_Deque_iteratorIS2_RS2_PS2_ET_SB_j _ZNSt15_Deque_iteratorINSt10filesystem7__cxx114pathERS2_PS2_EC1ERKS5_ 888
_ZNSt5dequeINSt10filesystem7__cxx114pathESaIS2_EE13_M_insert_auxINS2_8iteratorEEEvSt15_Deque_iteratorIS2_RS2_PS2_ET_SB_j _ZNSt15_Deque_iteratorINSt10filesystem7__cxx114pathERS2_PS2_EC1ERKS5_ 900
_ZNSt5dequeINSt10filesystem7__cxx114pathESaIS2_EE13_M_insert_auxINS2_8iteratorEEEvSt15_Deque_iteratorIS2_RS2_PS2_ET_SB_j _ZSt22__uninitialized_move_aISt15_Deque_iteratorINSt10filesystem7__cxx114pathERS3_PS3_ES6_SaIS3_EET0_T_S9_S8_RT1_ 924
_ZNSt5dequeINSt10filesystem7__cxx114pathESaIS2_EE13_M_insert_auxINS2_8iteratorEEEvSt15_Deque_iteratorIS2_RS2_PS2_ET_SB_j _ZNSt15_Deque_iteratorINSt10filesystem7__cxx114pathERS2_PS2_EC1ERKS5_ 944
_ZNSt5dequeINSt10filesystem7__cxx114pathESaIS2_EE13_M_insert_auxINS2_8iteratorEEEvSt15_Deque_iteratorIS2_RS2_PS2_ET_SB_j _ZNSt15_Deque_iteratorINSt10filesystem7__cxx114pathERS2_PS2_EC1ERKS5_ 956
_ZNSt5dequeINSt10filesystem7__cxx114pathESaIS2_EE13_M_insert_auxINS2_8iteratorEEEvSt15_Deque_iteratorIS2_RS2_PS2_ET_SB_j _ZNSt15_Deque_iteratorINSt10filesystem7__cxx114pathERS2_PS2_EC1ERKS5_ 968
_ZNSt5dequeINSt10filesystem7__cxx114pathESaIS2_EE13_M_insert_auxINS2_8iteratorEEEvSt15_Deque_iteratorIS2_RS2_PS2_ET_SB_j _ZSt13move_backwardINSt10filesystem7__cxx114pathEESt15_Deque_iteratorIT_RS4_PS4_ES7_S7_S7_ 988
_ZNSt5dequeINSt10filesystem7__cxx114pathESaIS2_EE13_M_insert_auxINS2_8iteratorEEEvSt15_Deque_iteratorIS2_RS2_PS2_ET_SB_j _ZNSt15_Deque_iteratorINSt10filesystem7__cxx114pathERS2_PS2_EC1ERKS5_ 1000
_ZNSt5dequeINSt10filesystem7__cxx114pathESaIS2_EE13_M_insert_auxINS2_8iteratorEEEvSt15_Deque_iteratorIS2_RS2_PS2_ET_SB_j _ZSt4copyINSt10filesystem7__cxx114path8iteratorESt15_Deque_iteratorIS2_RS2_PS2_EET0_T_S9_S8_ 1032
_ZNSt5dequeINSt10filesystem7__cxx114pathESaIS2_EE13_M_insert_auxINS2_8iteratorEEEvSt15_Deque_iteratorIS2_RS2_PS2_ET_SB_j _ZSt9__advanceINSt10filesystem7__cxx114path8iteratorEiEvRT_T0_St26bidirectional_iterator_tag.isra.97 1072
_ZNSt5dequeINSt10filesystem7__cxx114pathESaIS2_EE13_M_insert_auxINS2_8iteratorEEEvSt15_Deque_iteratorIS2_RS2_PS2_ET_SB_j _ZNSt15_Deque_iteratorINSt10filesystem7__cxx114pathERS2_PS2_EC1ERKS5_ 1084
_ZNSt5dequeINSt10filesystem7__cxx114pathESaIS2_EE13_M_insert_auxINS2_8iteratorEEEvSt15_Deque_iteratorIS2_RS2_PS2_ET_SB_j _ZNSt15_Deque_iteratorINSt10filesystem7__cxx114pathERS2_PS2_EC1ERKS5_ 1096
_ZNSt5dequeINSt10filesystem7__cxx114pathESaIS2_EE13_M_insert_auxINS2_8iteratorEEEvSt15_Deque_iteratorIS2_RS2_PS2_ET_SB_j _ZNSt15_Deque_iteratorINSt10filesystem7__cxx114pathERS2_PS2_EC1ERKS5_ 1108
_ZNSt5dequeINSt10filesystem7__cxx114pathESaIS2_EE13_M_insert_auxINS2_8iteratorEEEvSt15_Deque_iteratorIS2_RS2_PS2_ET_SB_j _ZNSt15_Deque_iteratorINSt10filesystem7__cxx114pathERS2_PS2_EC1ERKS5_ 1152
_ZNSt5dequeINSt10filesystem7__cxx114pathESaIS2_EE13_M_insert_auxINS2_8iteratorEEEvSt15_Deque_iteratorIS2_RS2_PS2_ET_SB_j _ZSt22__uninitialized_copy_aINSt10filesystem7__cxx114path8iteratorESt15_Deque_iteratorIS2_RS2_PS2_ES2_ET0_T_S9_S8_RSaIT1_E.isra.150 1176
_ZNSt5dequeINSt10filesystem7__cxx114pathESaIS2_EE13_M_insert_auxINS2_8iteratorEEEvSt15_Deque_iteratorIS2_RS2_PS2_ET_SB_j _ZNSt15_Deque_iteratorINSt10filesystem7__cxx114pathERS2_PS2_EC1ERKS5_ 1196
_ZNSt5dequeINSt10filesystem7__cxx114pathESaIS2_EE13_M_insert_auxINS2_8iteratorEEEvSt15_Deque_iteratorIS2_RS2_PS2_ET_SB_j _ZNSt15_Deque_iteratorINSt10filesystem7__cxx114pathERS2_PS2_EC1ERKS5_ 1208
_ZNSt5dequeINSt10filesystem7__cxx114pathESaIS2_EE13_M_insert_auxINS2_8iteratorEEEvSt15_Deque_iteratorIS2_RS2_PS2_ET_SB_j _ZNSt15_Deque_iteratorINSt10filesystem7__cxx114pathERS2_PS2_EC1ERKS5_ 1220
_ZNSt5dequeINSt10filesystem7__cxx114pathESaIS2_EE13_M_insert_auxINS2_8iteratorEEEvSt15_Deque_iteratorIS2_RS2_PS2_ET_SB_j _ZSt22__uninitialized_move_aISt15_Deque_iteratorINSt10filesystem7__cxx114pathERS3_PS3_ES6_SaIS3_EET0_T_S9_S8_RT1_ 1244
_ZNSt5dequeINSt10filesystem7__cxx114pathESaIS2_EE13_M_insert_auxINS2_8iteratorEEEvSt15_Deque_iteratorIS2_RS2_PS2_ET_SB_j _ZNSt15_Deque_iteratorINSt10filesystem7__cxx114pathERS2_PS2_EC1ERKS5_ 1268
_ZNSt5dequeINSt10filesystem7__cxx114pathESaIS2_EE13_M_insert_auxINS2_8iteratorEEEvSt15_Deque_iteratorIS2_RS2_PS2_ET_SB_j __cxa_begin_catch 1308
_ZNSt5dequeINSt10filesystem7__cxx114pathESaIS2_EE13_M_insert_auxINS2_8iteratorEEEvSt15_Deque_iteratorIS2_RS2_PS2_ET_SB_j _ZNSt11_Deque_baseINSt10filesystem7__cxx114pathESaIS2_EE16_M_destroy_nodesEPPS2_S6_.isra.117 1328
_ZNSt5dequeINSt10filesystem7__cxx114pathESaIS2_EE13_M_insert_auxINS2_8iteratorEEEvSt15_Deque_iteratorIS2_RS2_PS2_ET_SB_j __cxa_rethrow 1332
_ZNSt5dequeINSt10filesystem7__cxx114pathESaIS2_EE13_M_insert_auxINS2_8iteratorEEEvSt15_Deque_iteratorIS2_RS2_PS2_ET_SB_j __cxa_end_catch 1336
_ZNSt5dequeINSt10filesystem7__cxx114pathESaIS2_EE19_M_range_insert_auxINS2_8iteratorEEEvSt15_Deque_iteratorIS2_RS2_PS2_ET_SB_St20forward_iterator_tag _ZNSt10filesystem7__cxx11neERKNS0_4path8iteratorES4_ 92
_ZNSt5dequeINSt10filesystem7__cxx114pathESaIS2_EE19_M_range_insert_auxINS2_8iteratorEEEvSt15_Deque_iteratorIS2_RS2_PS2_ET_SB_St20forward_iterator_tag _ZNSt10filesystem7__cxx114path8iteratorppEv 112
_ZNSt5dequeINSt10filesystem7__cxx114pathESaIS2_EE19_M_range_insert_auxINS2_8iteratorEEEvSt15_Deque_iteratorIS2_RS2_PS2_ET_SB_St20forward_iterator_tag _ZNSt5dequeINSt10filesystem7__cxx114pathESaIS2_EE28_M_reserve_elements_at_frontEj 148
_ZNSt5dequeINSt10filesystem7__cxx114pathESaIS2_EE19_M_range_insert_auxINS2_8iteratorEEEvSt15_Deque_iteratorIS2_RS2_PS2_ET_SB_St20forward_iterator_tag _ZNSt15_Deque_iteratorINSt10filesystem7__cxx114pathERS2_PS2_EC1ERKS5_ 160
_ZNSt5dequeINSt10filesystem7__cxx114pathESaIS2_EE19_M_range_insert_auxINS2_8iteratorEEEvSt15_Deque_iteratorIS2_RS2_PS2_ET_SB_St20forward_iterator_tag _ZSt22__uninitialized_copy_aINSt10filesystem7__cxx114path8iteratorESt15_Deque_iteratorIS2_RS2_PS2_ES2_ET0_T_S9_S8_RSaIT1_E.isra.150 184
_ZNSt5dequeINSt10filesystem7__cxx114pathESaIS2_EE19_M_range_insert_auxINS2_8iteratorEEEvSt15_Deque_iteratorIS2_RS2_PS2_ET_SB_St20forward_iterator_tag _ZNSt5dequeINSt10filesystem7__cxx114pathESaIS2_EE27_M_reserve_elements_at_backEj 244
_ZNSt5dequeINSt10filesystem7__cxx114pathESaIS2_EE19_M_range_insert_auxINS2_8iteratorEEEvSt15_Deque_iteratorIS2_RS2_PS2_ET_SB_St20forward_iterator_tag _ZNSt15_Deque_iteratorINSt10filesystem7__cxx114pathERS2_PS2_EC1ERKS5_ 256
_ZNSt5dequeINSt10filesystem7__cxx114pathESaIS2_EE19_M_range_insert_auxINS2_8iteratorEEEvSt15_Deque_iteratorIS2_RS2_PS2_ET_SB_St20forward_iterator_tag _ZSt22__uninitialized_copy_aINSt10filesystem7__cxx114path8iteratorESt15_Deque_iteratorIS2_RS2_PS2_ES2_ET0_T_S9_S8_RSaIT1_E.isra.150 280
_ZNSt5dequeINSt10filesystem7__cxx114pathESaIS2_EE19_M_range_insert_auxINS2_8iteratorEEEvSt15_Deque_iteratorIS2_RS2_PS2_ET_SB_St20forward_iterator_tag _ZNSt15_Deque_iteratorINSt10filesystem7__cxx114pathERS2_PS2_EC1ERKS5_ 304
_ZNSt5dequeINSt10filesystem7__cxx114pathESaIS2_EE19_M_range_insert_auxINS2_8iteratorEEEvSt15_Deque_iteratorIS2_RS2_PS2_ET_SB_St20forward_iterator_tag _ZNSt5dequeINSt10filesystem7__cxx114pathESaIS2_EE13_M_insert_auxINS2_8iteratorEEEvSt15_Deque_iteratorIS2_RS2_PS2_ET_SB_j 340
_ZNSt5dequeINSt10filesystem7__cxx114pathESaIS2_EE19_M_range_insert_auxINS2_8iteratorEEEvSt15_Deque_iteratorIS2_RS2_PS2_ET_SB_St20forward_iterator_tag __cxa_begin_catch 348
_ZNSt5dequeINSt10filesystem7__cxx114pathESaIS2_EE19_M_range_insert_auxINS2_8iteratorEEEvSt15_Deque_iteratorIS2_RS2_PS2_ET_SB_St20forward_iterator_tag _ZNSt11_Deque_baseINSt10filesystem7__cxx114pathESaIS2_EE16_M_destroy_nodesEPPS2_S6_.isra.117 360
_ZNSt5dequeINSt10filesystem7__cxx114pathESaIS2_EE19_M_range_insert_auxINS2_8iteratorEEEvSt15_Deque_iteratorIS2_RS2_PS2_ET_SB_St20forward_iterator_tag __cxa_rethrow 364
_ZNSt5dequeINSt10filesystem7__cxx114pathESaIS2_EE19_M_range_insert_auxINS2_8iteratorEEEvSt15_Deque_iteratorIS2_RS2_PS2_ET_SB_St20forward_iterator_tag __cxa_end_catch 368
_ZNSt5dequeINSt10filesystem7__cxx114pathESaIS2_EE19_M_range_insert_auxINS2_8iteratorEEEvSt15_Deque_iteratorIS2_RS2_PS2_ET_SB_St20forward_iterator_tag __cxa_end_cleanup 372
_ZNSt5dequeINSt10filesystem7__cxx114pathESaIS2_EE19_M_range_insert_auxINS2_8iteratorEEEvSt15_Deque_iteratorIS2_RS2_PS2_ET_SB_St20forward_iterator_tag __cxa_begin_catch 376
_ZNSt5dequeINSt10filesystem7__cxx114pathESaIS2_EE19_M_range_insert_auxINS2_8iteratorEEEvSt15_Deque_iteratorIS2_RS2_PS2_ET_SB_St20forward_iterator_tag _ZNSt11_Deque_baseINSt10filesystem7__cxx114pathESaIS2_EE16_M_destroy_nodesEPPS2_S6_.isra.117 396
_ZNSt5dequeINSt10filesystem7__cxx114pathESaIS2_EE19_M_range_insert_auxINS2_8iteratorEEEvSt15_Deque_iteratorIS2_RS2_PS2_ET_SB_St20forward_iterator_tag __cxa_rethrow 400
_ZNSt5dequeINSt10filesystem7__cxx114pathESaIS2_EE19_M_range_insert_auxINS2_8iteratorEEEvSt15_Deque_iteratorIS2_RS2_PS2_ET_SB_St20forward_iterator_tag __cxa_end_catch 404
_ZNSt10filesystem9canonicalERKNS_7__cxx114pathERSt10error_code _ZNSt10filesystem7__cxx114pathC1Ev 24
_ZNSt10filesystem9canonicalERKNS_7__cxx114pathERSt10error_code _ZNSt10filesystem8absoluteERKNS_7__cxx114pathERSt10error_code 40
_ZNSt10filesystem9canonicalERKNS_7__cxx114pathERSt10error_code realpath 64
_ZNSt10filesystem9canonicalERKNS_7__cxx114pathERSt10error_code _ZNSt10filesystem7__cxx114path6assignIPcEERNSt9enable_ifIXsrSt6__and_IJSt6__not_ISt7is_sameINSt9remove_cvIT_E4typeES1_EES6_ISt7is_voidINSt14remove_pointerIS9_E4typeEEENS1_20__constructible_fromIS9_vEEEE5valueES1_E4typeERKS9_ 100
_ZNSt10filesystem9canonicalERKNS_7__cxx114pathERSt10error_code _ZNSt10error_code5clearEv 108
_ZNSt10filesystem9canonicalERKNS_7__cxx114pathERSt10error_code _ZNSt10unique_ptrIA_cN12_GLOBAL__N_117free_as_in_mallocEED1Ev 116
_ZNSt10filesystem9canonicalERKNS_7__cxx114pathERSt10error_code _ZNSt10filesystem7__cxx114pathD1Ev 124
_ZNSt10filesystem9canonicalERKNS_7__cxx114pathERSt10error_code __errno_location 140
_ZNSt10filesystem9canonicalERKNS_7__cxx114pathERSt10error_code _ZNSt3_V216generic_categoryEv 156
_ZNSt10filesystem9canonicalERKNS_7__cxx114pathERSt10error_code _ZNSt10filesystem6existsERKNS_7__cxx114pathERSt10error_code 180
_ZNSt10filesystem9canonicalERKNS_7__cxx114pathERSt10error_code _ZNSt3_V216generic_categoryEv 204
_ZNSt10filesystem9canonicalERKNS_7__cxx114pathERSt10error_code _ZNKSt10filesystem7__cxx114path9root_pathEv 232
_ZNSt10filesystem9canonicalERKNS_7__cxx114pathERSt10error_code _ZNSt10filesystem7__cxx114pathaSEOS1_ 244
_ZNSt10filesystem9canonicalERKNS_7__cxx114pathERSt10error_code _ZNSt10filesystem7__cxx114pathD1Ev 256
_ZNSt10filesystem9canonicalERKNS_7__cxx114pathERSt10error_code _ZNSt11_Deque_baseINSt10filesystem7__cxx114pathESaIS2_EEC2Ev 264
_ZNSt10filesystem9canonicalERKNS_7__cxx114pathERSt10error_code _ZNKSt10filesystem7__cxx114path13relative_pathEv 280
_ZNSt10filesystem9canonicalERKNS_7__cxx114pathERSt10error_code _ZNSt10filesystem7__cxx11neERKNS0_4path8iteratorES4_ 348
_ZNSt10filesystem9canonicalERKNS_7__cxx114pathERSt10error_code _ZNKSt10filesystem7__cxx114path8iteratordeEv 364
_ZNSt10filesystem9canonicalERKNS_7__cxx114pathERSt10error_code _ZNSt10filesystem7__cxx114pathC1ERKS1_ 396
_ZNSt10filesystem9canonicalERKNS_7__cxx114pathERSt10error_code _ZNSt10filesystem7__cxx114path8iteratorppEv 464
_ZNSt10filesystem9canonicalERKNS_7__cxx114pathERSt10error_code _ZNSt5dequeINSt10filesystem7__cxx114pathESaIS2_EE22_M_reserve_map_at_backEj 480
_ZNSt10filesystem9canonicalERKNS_7__cxx114pathERSt10error_code _Znwj 496
_ZNSt10filesystem9canonicalERKNS_7__cxx114pathERSt10error_code _ZNSt10filesystem7__cxx114pathC1ERKS1_ 516
_ZNSt10filesystem9canonicalERKNS_7__cxx114pathERSt10error_code __cxa_begin_catch 552
_ZNSt10filesystem9canonicalERKNS_7__cxx114pathERSt10error_code _ZdlPv 564
_ZNSt10filesystem9canonicalERKNS_7__cxx114pathERSt10error_code __cxa_rethrow 568
_ZNSt10filesystem9canonicalERKNS_7__cxx114pathERSt10error_code __cxa_end_catch 572
_ZNSt10filesystem9canonicalERKNS_7__cxx114pathERSt10error_code _ZNSt10filesystem7__cxx114pathD1Ev 580
_ZNSt10filesystem9canonicalERKNS_7__cxx114pathERSt10error_code _ZNSt5dequeINSt10filesystem7__cxx114pathESaIS2_EED1Ev 588
_ZNSt10filesystem9canonicalERKNS_7__cxx114pathERSt10error_code _ZNSt10unique_ptrIA_cN12_GLOBAL__N_117free_as_in_mallocEED1Ev 596
_ZNSt10filesystem9canonicalERKNS_7__cxx114pathERSt10error_code _ZNSt10filesystem7__cxx114pathD1Ev 604
_ZNSt10filesystem9canonicalERKNS_7__cxx114pathERSt10error_code _ZNSt10filesystem7__cxx114pathD1Ev 612
_ZNSt10filesystem9canonicalERKNS_7__cxx114pathERSt10error_code __cxa_end_cleanup 616
_ZNSt10filesystem9canonicalERKNS_7__cxx114pathERSt10error_code _ZNSt10filesystem7__cxx114pathD1Ev 628
_ZNSt10filesystem9canonicalERKNS_7__cxx114pathERSt10error_code _ZNSt10filesystem7__cxx114path5clearEv 672
_ZNSt10filesystem9canonicalERKNS_7__cxx114pathERSt10error_code _ZNSt5dequeINSt10filesystem7__cxx114pathESaIS2_EED1Ev 680
_ZNSt10filesystem9canonicalERKNS_7__cxx114pathERSt10error_code _ZNSt15_Deque_iteratorINSt10filesystem7__cxx114pathERS2_PS2_EC1ERKS5_ 700
_ZNSt10filesystem9canonicalERKNS_7__cxx114pathERSt10error_code _ZNSt10filesystem7__cxx114pathC1EOS1_ 712
_ZNSt10filesystem9canonicalERKNS_7__cxx114pathERSt10error_code _ZNSt10filesystem7__cxx114pathD1Ev 736
_ZNSt10filesystem9canonicalERKNS_7__cxx114pathERSt10error_code _ZNSt10filesystem7__cxx114pathD1Ev 768
_ZNSt10filesystem9canonicalERKNS_7__cxx114pathERSt10error_code _ZNSt10filesystem7__cxx114pathD1Ev 776
_ZNSt10filesystem9canonicalERKNS_7__cxx114pathERSt10error_code _ZdlPv 784
_ZNSt10filesystem9canonicalERKNS_7__cxx114pathERSt10error_code _ZNSt10filesystem6existsERKNS_7__cxx114pathERSt10error_code 836
_ZNSt10filesystem9canonicalERKNS_7__cxx114pathERSt10error_code _ZNSt10filesystem6statusERKNS_7__cxx114pathERSt10error_code 892
_ZNSt10filesystem9canonicalERKNS_7__cxx114pathERSt10error_code _ZNSt3_V216generic_categoryEv 920
_ZNSt10filesystem9canonicalERKNS_7__cxx114pathERSt10error_code _ZNKSt10filesystem7__cxx114path11parent_pathEv 984
_ZNSt10filesystem9canonicalERKNS_7__cxx114pathERSt10error_code _ZNKSt10filesystem7__cxx114path9root_pathEv 1012
_ZNSt10filesystem9canonicalERKNS_7__cxx114pathERSt10error_code _ZNSt10filesystem7__cxx114pathaSEOS1_ 1024
_ZNSt10filesystem9canonicalERKNS_7__cxx114pathERSt10error_code _ZNSt10filesystem7__cxx114pathD1Ev 1032
_ZNSt10filesystem9canonicalERKNS_7__cxx114pathERSt10error_code _ZNSt10filesystem7__cxx114pathD1Ev 1040
_ZNSt10filesystem9canonicalERKNS_7__cxx114pathERSt10error_code _ZNSt10filesystem7__cxx114path4swapERS1_ 1056
_ZNSt10filesystem9canonicalERKNS_7__cxx114pathERSt10error_code _ZNSt10filesystem7__cxx114pathdVERKS1_ 1072
_ZNSt10filesystem9canonicalERKNS_7__cxx114pathERSt10error_code _ZNSt10filesystem14symlink_statusERKNS_7__cxx114pathERSt10error_code 1092
_ZNSt10filesystem9canonicalERKNS_7__cxx114pathERSt10error_code _ZNSt10filesystem12read_symlinkERKNS_7__cxx114pathERSt10error_code 1124
_ZNSt10filesystem9canonicalERKNS_7__cxx114pathERSt10error_code _ZNSt3_V216generic_categoryEv 1156
_ZNSt10filesystem9canonicalERKNS_7__cxx114pathERSt10error_code _ZNKSt10filesystem7__cxx114path18has_root_directoryEv 1184
_ZNSt10filesystem9canonicalERKNS_7__cxx114pathERSt10error_code _ZNKSt10filesystem7__cxx114path9root_pathEv 1208
_ZNSt10filesystem9canonicalERKNS_7__cxx114pathERSt10error_code _ZNSt10filesystem7__cxx114pathaSEOS1_ 1220
_ZNSt10filesystem9canonicalERKNS_7__cxx114pathERSt10error_code _ZNSt10filesystem7__cxx114pathD1Ev 1232
_ZNSt10filesystem9canonicalERKNS_7__cxx114pathERSt10error_code _ZNKSt10filesystem7__cxx114path13relative_pathEv 1244
_ZNSt10filesystem9canonicalERKNS_7__cxx114pathERSt10error_code _ZNSt10filesystem7__cxx114pathaSEOS1_.part.111 1256
_ZNSt10filesystem9canonicalERKNS_7__cxx114pathERSt10error_code _ZNSt10filesystem7__cxx114pathD1Ev 1264
_ZNSt10filesystem9canonicalERKNS_7__cxx114pathERSt10error_code _ZNSt15_Deque_iteratorINSt10filesystem7__cxx114pathERS2_PS2_EC1ERKS5_ 1276
_ZNSt10filesystem9canonicalERKNS_7__cxx114pathERSt10error_code _ZStmiINSt10filesystem7__cxx114pathERKS2_PS3_ENSt15_Deque_iteratorIT_T0_T1_E15difference_typeERKSA_SD_ 1384
_ZNSt10filesystem9canonicalERKNS_7__cxx114pathERSt10error_code _ZNSt15_Deque_iteratorINSt10filesystem7__cxx114pathERS2_PS2_EC1ERKS5_ 1468
_ZNSt10filesystem9canonicalERKNS_7__cxx114pathERSt10error_code _ZNSt5dequeINSt10filesystem7__cxx114pathESaIS2_EE19_M_range_insert_auxINS2_8iteratorEEEvSt15_Deque_iteratorIS2_RS2_PS2_ET_SB_St20forward_iterator_tag 1516
_ZNSt10filesystem9canonicalERKNS_7__cxx114pathERSt10error_code _ZNKSt10filesystem7__cxx114path11parent_pathEv 1532
_ZNSt10filesystem9canonicalERKNS_7__cxx114pathERSt10error_code _ZNSt10filesystem7__cxx114pathaSEOS1_ 1544
_ZNSt10filesystem9canonicalERKNS_7__cxx114pathERSt10error_code _ZNSt15_Deque_iteratorINSt10filesystem7__cxx114pathERS2_PS2_EC1ERKS5_ 1592
_ZNSt10filesystem9canonicalERKNS_7__cxx114pathERSt10error_code _ZNKSt15_Deque_iteratorINSt10filesystem7__cxx114pathERS2_PS2_EplEi 1608
_ZNSt10filesystem9canonicalERKNS_7__cxx114pathERSt10error_code _ZNSt10filesystem7__cxx114pathD1Ev 1624
_ZNSt10filesystem9canonicalERKNS_7__cxx114pathE _ZNSt10error_codeC1Ev 24
_ZNSt10filesystem9canonicalERKNS_7__cxx114pathE _ZNSt10filesystem9canonicalERKNS_7__cxx114pathERSt10error_code 44
_ZNSt10filesystem9canonicalERKNS_7__cxx114pathE __cxa_allocate_exception 72
_ZNSt10filesystem9canonicalERKNS_7__cxx114pathE _ZNSt7__cxx1112basic_stringIcSt11char_traitsIcESaIcEEC2IS3_EEPKcRKS3_.constprop.160 92
_ZNSt10filesystem9canonicalERKNS_7__cxx114pathE _ZNSt10filesystem7__cxx1116filesystem_errorC1ERKNSt7__cxx1112basic_stringIcSt11char_traitsIcESaIcEEERKNS0_4pathESt10error_code 120
_ZNSt10filesystem9canonicalERKNS_7__cxx114pathE _ZNSt7__cxx1112basic_stringIcSt11char_traitsIcESaIcEE10_M_disposeEv 128
_ZNSt10filesystem9canonicalERKNS_7__cxx114pathE __cxa_throw 168
_ZNSt10filesystem9canonicalERKNS_7__cxx114pathE _ZNSt7__cxx1112basic_stringIcSt11char_traitsIcESaIcEE10_M_disposeEv 180
_ZNSt10filesystem9canonicalERKNS_7__cxx114pathE __cxa_free_exception 188
_ZNSt10filesystem9canonicalERKNS_7__cxx114pathE _ZNSt10filesystem7__cxx114pathD1Ev 196
_ZNSt10filesystem9canonicalERKNS_7__cxx114pathE __cxa_end_cleanup 200
_ZNSt10filesystem9canonicalERKNS_7__cxx114pathE .LC43 224
_ZNSt10filesystem9canonicalERKNS_7__cxx114pathE _ZNSt10filesystem7__cxx1116filesystem_errorD1Ev 228
_ZNSt10filesystem9canonicalERKNS_7__cxx114pathE _ZTINSt10filesystem7__cxx1116filesystem_errorE 232
_ZNSt10filesystem16weakly_canonicalERKNS_7__cxx114pathE _ZNSt10filesystem7__cxx114pathC1Ev 24
_ZNSt10filesystem16weakly_canonicalERKNS_7__cxx114pathE _ZNSt10filesystem6statusERKNS_7__cxx114pathE 36
_ZNSt10filesystem16weakly_canonicalERKNS_7__cxx114pathE _ZNSt10filesystem6existsENS_11file_statusE.isra.25 44
_ZNSt10filesystem16weakly_canonicalERKNS_7__cxx114pathE _ZNSt10filesystem9canonicalERKNS_7__cxx114pathE 64
_ZNSt10filesystem16weakly_canonicalERKNS_7__cxx114pathE _ZNSt10filesystem7__cxx114pathC1Ev 80
_ZNSt10filesystem16weakly_canonicalERKNS_7__cxx114pathE _ZNSt10filesystem7__cxx11neERKNS0_4path8iteratorES4_ 148
_ZNSt10filesystem16weakly_canonicalERKNS_7__cxx114pathE _ZNKSt10filesystem7__cxx114path8iteratordeEv 164
_ZNSt10filesystem16weakly_canonicalERKNS_7__cxx114pathE _ZNSt10filesystem7__cxx11dvERKNS0_4pathES3_ 180
_ZNSt10filesystem16weakly_canonicalERKNS_7__cxx114pathE _ZNSt10filesystem7__cxx114pathaSEOS1_.part.111 236
_ZNSt10filesystem16weakly_canonicalERKNS_7__cxx114pathE _ZNSt10filesystem7__cxx114pathD1Ev 244
_ZNSt10filesystem16weakly_canonicalERKNS_7__cxx114pathE _ZNSt10filesystem6statusERKNS_7__cxx114pathE 256
_ZNSt10filesystem16weakly_canonicalERKNS_7__cxx114pathE _ZNSt10filesystem6existsENS_11file_statusE.isra.25 264
_ZNSt10filesystem16weakly_canonicalERKNS_7__cxx114pathE _ZNSt10filesystem7__cxx114path4swapERS1_ 284
_ZNSt10filesystem16weakly_canonicalERKNS_7__cxx114pathE _ZNSt10filesystem7__cxx114path8iteratorppEv 292
_ZNSt10filesystem16weakly_canonicalERKNS_7__cxx114pathE _ZNSt10filesystem9canonicalERKNS_7__cxx114pathE 324
_ZNSt10filesystem16weakly_canonicalERKNS_7__cxx114pathE _ZNSt10filesystem7__cxx114pathaSEOS1_.part.111 336
_ZNSt10filesystem16weakly_canonicalERKNS_7__cxx114pathE _ZNSt10filesystem7__cxx114pathD1Ev 344
_ZNSt10filesystem16weakly_canonicalERKNS_7__cxx114pathE _ZNSt10filesystem7__cxx11neERKNS0_4path8iteratorES4_ 360
_ZNSt10filesystem16weakly_canonicalERKNS_7__cxx114pathE _ZNSt10filesystem7__cxx114path8iteratorppEv 384
_ZNSt10filesystem16weakly_canonicalERKNS_7__cxx114pathE _ZNKSt10filesystem7__cxx114path8iteratordeEv 392
_ZNSt10filesystem16weakly_canonicalERKNS_7__cxx114pathE _ZNSt10filesystem7__cxx114pathdVERKS1_ 404
_ZNSt10filesystem16weakly_canonicalERKNS_7__cxx114pathE _ZNKSt10filesystem7__cxx114path16lexically_normalEv 420
_ZNSt10filesystem16weakly_canonicalERKNS_7__cxx114pathE _ZNSt10filesystem7__cxx114pathD1Ev 428
_ZNSt10filesystem16weakly_canonicalERKNS_7__cxx114pathE _ZNSt10filesystem7__cxx114pathD1Ev 436
_ZNSt10filesystem16weakly_canonicalERKNS_7__cxx114pathE _ZNSt10filesystem7__cxx114pathD1Ev 456
_ZNSt10filesystem16weakly_canonicalERKNS_7__cxx114pathE _ZNSt10filesystem7__cxx114pathD1Ev 464
_ZNSt10filesystem16weakly_canonicalERKNS_7__cxx114pathE __cxa_end_cleanup 468
_ZNSt10filesystem9proximateERKNS_7__cxx114pathES3_ _ZNSt10filesystem16weakly_canonicalERKNS_7__cxx114pathE 28
_ZNSt10filesystem9proximateERKNS_7__cxx114pathES3_ _ZNSt10filesystem16weakly_canonicalERKNS_7__cxx114pathE 40
_ZNSt10filesystem9proximateERKNS_7__cxx114pathES3_ _ZNKSt10filesystem7__cxx114path19lexically_proximateERKS1_ 56
_ZNSt10filesystem9proximateERKNS_7__cxx114pathES3_ _ZNSt10filesystem7__cxx114pathD1Ev 68
_ZNSt10filesystem9proximateERKNS_7__cxx114pathES3_ _ZNSt10filesystem7__cxx114pathD1Ev 76
_ZNSt10filesystem9proximateERKNS_7__cxx114pathES3_ __cxa_end_cleanup 80
