__absvsi2 abort 28
__absvdi2 abort 36
__addvsi3 abort 44
__addvdi3 abort 72
__subvsi3 abort 44
__subvdi3 abort 72
__mulvsi3 abort 36
__mulvdi3 abort 120
__negvsi2 abort 48
__negvdi2 abort 56
__powitf2 _savefpr_28 20
__powitf2 __gcc_qdiv 128
__powitf2 _restfpr_28_x 156
__powitf2 __gcc_qmul 176
__powitf2 __gcc_qmul 212
__multc3 _savefpr_14 16
__multc3 __gcc_qmul 80
__multc3 __gcc_qmul 108
__multc3 __gcc_qmul 136
__multc3 __gcc_qmul 164
__multc3 __gcc_qsub 192
__multc3 __gcc_qadd 220
__multc3 __gcc_qsub 288
__multc3 __gcc_qsub 320
__multc3 __gcc_qsub 692
__multc3 __gcc_qsub 724
__multc3 __gcc_qmul 1088
__multc3 __gcc_qmul 1116
__multc3 __gcc_qsub 1136
__multc3 __gcc_qmul 1152
__multc3 __gcc_qmul 1180
__multc3 __gcc_qmul 1208
__multc3 __gcc_qadd 1228
__multc3 __gcc_qmul 1240
__multc3 _restfpr_14_x 1300
__multc3 __gcc_qsub 1360
__multc3 __gcc_qsub 1412
__multc3 __gcc_qsub 1464
__multc3 __gcc_qsub 1516
__divtc3 _savefpr_18 24
__divtc3 __gcc_qdiv 152
__divtc3 __gcc_qmul 180
__divtc3 __gcc_qadd 192
__divtc3 __gcc_qmul 220
__divtc3 __gcc_qadd 232
__divtc3 __gcc_qdiv 244
__divtc3 __gcc_qmul 272
__divtc3 __gcc_qsub 284
__divtc3 __gcc_qdiv 296
__divtc3 __gcc_qmul 476
__divtc3 __gcc_qmul 504
__divtc3 _restfpr_18_x 580
__divtc3 __gcc_qdiv 600
__divtc3 __gcc_qmul 628
__divtc3 __gcc_qadd 640
__divtc3 __gcc_qmul 668
__divtc3 __gcc_qadd 680
__divtc3 __gcc_qdiv 692
__divtc3 __gcc_qmul 720
__divtc3 __gcc_qsub 760
__divtc3 __gcc_qsub 844
__divtc3 __gcc_qsub 896
__divtc3 __gcc_qsub 932
__divtc3 __gcc_qsub 1032
__divtc3 __gcc_qmul 1144
__divtc3 __gcc_qmul 1172
__divtc3 __gcc_qadd 1192
__divtc3 __gcc_qmul 1208
__divtc3 __gcc_qmul 1236
__divtc3 __gcc_qmul 1264
__divtc3 __gcc_qsub 1284
__divtc3 __gcc_qsub 1348
__divtc3 __gcc_qsub 1424
__divtc3 __gcc_qsub 1492
__divtc3 __gcc_qsub 1592
__divtc3 __gcc_qmul 1704
__divtc3 __gcc_qmul 1732
__divtc3 __gcc_qadd 1752
__divtc3 __gcc_qmul 1764
__divtc3 __gcc_qmul 1792
__divtc3 __gcc_qmul 1820
__fixsfdi __fixunssfdi 64
__fixsfdi __fixunssfdi 72
__fixdfdi __fixunsdfdi 64
__fixdfdi __fixunsdfdi 72
__fixtfdi __fixunstfdi 84
__fixtfdi __fixunstfdi 96
__fixunstfdi __gcc_qmul 96
__fixunstfdi __floatunditf 180
__fixunstfdi __gcc_qsub 204
__fixunstfdi _restfpr_30_x 328
__fixunstfdi __gcc_qsub 332
__fixunstfdi __gcc_qsub 376
__fixunstfdi __gcc_qsub 492
__floatditf _savefpr_28 20
__floatditf __gcc_qmul 104
__floatditf __gcc_qadd 160
__floatditf __gcc_qadd 172
__floatditf _restfpr_28_x 184
__floatunditf __gcc_qadd 108
__floatunditf __gcc_qmul 120
__floatunditf __gcc_qadd 184
__floatunditf __gcc_qadd 196
__floatunditf _restfpr_30_x 208
__eprintf fprintf 60
__eprintf fflush 68
__eprintf abort 72
__gcc_qsub __gcc_qadd 8
__trampoline_setup abort 112
__eabi __init 68
stack_split_initialize_thread __stack_split_initialize 36
stack_split_initialize_thread __morestack_segments 66
stack_split_initialize_thread __morestack_segments 68
stack_split_initialize_thread __tls_get_addr 68
stack_split_initialize_thread pthread_setspecific 84
stack_split_initialize_thread __morestack_fail 104
stack_split_initialize_thread free 120
create_key pthread_key_create 40
create_key __morestack_fail 64
free_segments __morestack_release_segments 4
__wrap_pthread_create pthread_once 60
__wrap_pthread_create __morestack_fail 84
__wrap_pthread_create malloc 92
__wrap_pthread_create __real_pthread_create 156
__wrap_pthread_create _restgpr_27_x 168
__addkf3 __ashldi3 584
__addkf3 __lshrdi3 608
__addkf3 __ashldi3 636
__addkf3 __lshrdi3 668
__addkf3 __lshrdi3 704
__addkf3 __ashldi3 744
__addkf3 __ashldi3 1016
__addkf3 __lshrdi3 1040
__addkf3 __ashldi3 1064
__addkf3 __lshrdi3 1096
__addkf3 __lshrdi3 1172
__addkf3 __ashldi3 1212
__addkf3 __ashldi3 2228
__addkf3 __lshrdi3 2252
__addkf3 __ashldi3 2280
__addkf3 __lshrdi3 2312
__addkf3 __lshrdi3 2364
__addkf3 __ashldi3 2404
__addkf3 __ashldi3 2732
__addkf3 __lshrdi3 2756
__addkf3 __ashldi3 2780
__addkf3 __lshrdi3 2812
__addkf3 __lshrdi3 2900
__addkf3 __ashldi3 2940
__addkf3 __ashldi3 3632
__addkf3 __lshrdi3 3656
__addkf3 __ashldi3 3680
__addkf3 __ashldi3 3752
__addkf3 __lshrdi3 3776
__addkf3 __ashldi3 3800
__addkf3 __lshrdi3 3828
__addkf3 __ashldi3 3912
__addkf3 __lshrdi3 3944
__addkf3 __ashldi3 3984
__addkf3 __sfp_handle_exceptions 4520
__addkf3 _restgpr_14_x 4540
__subkf3 __ashldi3 548
__subkf3 __lshrdi3 572
__subkf3 __ashldi3 600
__subkf3 __lshrdi3 632
__subkf3 __lshrdi3 700
__subkf3 __ashldi3 740
__subkf3 __ashldi3 1012
__subkf3 __lshrdi3 1036
__subkf3 __ashldi3 1060
__subkf3 __lshrdi3 1092
__subkf3 __lshrdi3 1212
__subkf3 __ashldi3 1252
__subkf3 __ashldi3 2284
__subkf3 __lshrdi3 2308
__subkf3 __ashldi3 2336
__subkf3 __lshrdi3 2368
__subkf3 __lshrdi3 2448
__subkf3 __ashldi3 2488
__subkf3 __ashldi3 2760
__subkf3 __lshrdi3 2784
__subkf3 __ashldi3 2808
__subkf3 __lshrdi3 2840
__subkf3 __lshrdi3 2968
__subkf3 __ashldi3 3008
__subkf3 __ashldi3 3700
__subkf3 __lshrdi3 3724
__subkf3 __ashldi3 3748
__subkf3 __ashldi3 3820
__subkf3 __lshrdi3 3844
__subkf3 __ashldi3 3868
__subkf3 __lshrdi3 3896
__subkf3 __ashldi3 3980
__subkf3 __lshrdi3 4012
__subkf3 __ashldi3 4052
__subkf3 __sfp_handle_exceptions 4636
__subkf3 _restgpr_14_x 4656
__mulkf3 __ashldi3 312
__mulkf3 __lshrdi3 336
__mulkf3 __ashldi3 360
__mulkf3 __ashldi3 432
__mulkf3 __ucmpdi2 692
__mulkf3 __ashldi3 896
__mulkf3 __lshrdi3 920
__mulkf3 __ashldi3 944
__mulkf3 __ashldi3 1020
__mulkf3 __sfp_handle_exceptions 2224
__mulkf3 _restgpr_14_x 2252
__mulkf3 __ashldi3 2600
__mulkf3 __lshrdi3 2624
__mulkf3 __ashldi3 2652
__mulkf3 __lshrdi3 2684
__mulkf3 __lshrdi3 2796
__mulkf3 __ashldi3 2840
__divkf3 __ashldi3 312
__divkf3 __lshrdi3 336
__divkf3 __ashldi3 360
__divkf3 __ashldi3 432
__divkf3 __ucmpdi2 672
__divkf3 __ashldi3 876
__divkf3 __lshrdi3 900
__divkf3 __ashldi3 924
__divkf3 __ashldi3 1008
__divkf3 __udivdi3 1284
__divkf3 __umoddi3 1340
__divkf3 __udivdi3 1480
__divkf3 __umoddi3 1540
__divkf3 __udivdi3 2176
__divkf3 __umoddi3 2224
__divkf3 __udivdi3 2360
__divkf3 __umoddi3 2416
__divkf3 __sfp_handle_exceptions 3108
__divkf3 _restgpr_14_x 3136
__divkf3 __ashldi3 3616
__divkf3 __lshrdi3 3640
__divkf3 __ashldi3 3664
__divkf3 __lshrdi3 3696
__divkf3 __lshrdi3 3820
__divkf3 __ashldi3 3864
__unordkf2 _restgpr_24_x 176
__unordkf2 __sfp_handle_exceptions 260
__eqkf2,__nekf2 _restgpr_20_x 308
__eqkf2,__nekf2 __sfp_handle_exceptions 316
__gekf2,__gtkf2 __sfp_handle_exceptions 180
__gekf2,__gtkf2 _restgpr_20_x 328
__lekf2,__ltkf2 __sfp_handle_exceptions 180
__lekf2,__ltkf2 _restgpr_20_x 328
__extendsfkf2 __ashldi3 116
__extendsfkf2 __sfp_handle_exceptions 220
__extendsfkf2 _restgpr_29_x 240
__extenddfkf2 __lshrdi3 172
__extenddfkf2 __ashldi3 196
__extenddfkf2 __ashldi3 228
__extenddfkf2 __sfp_handle_exceptions 344
__extenddfkf2 _restgpr_25_x 364
__trunckfsf2 __ashldi3 308
__trunckfsf2 __lshrdi3 344
__trunckfsf2 __sfp_handle_exceptions 556
__trunckfsf2 _restgpr_24_x 572
__trunckfdf2 __lshrdi3 344
__trunckfdf2 __ashldi3 372
__trunckfdf2 __ashldi3 404
__trunckfdf2 __sfp_handle_exceptions 624
__trunckfdf2 _restgpr_21_x 644
__trunckfdf2 __lshrdi3 660
__trunckfdf2 __ashldi3 704
__fixkfsi __sfp_handle_exceptions 128
__fixkfsi _restgpr_26_x 148
__fixkfsi __ashldi3 248
__fixkfsi __lshrdi3 272
__fixkfdi _restgpr_20_x 140
__fixkfdi __sfp_handle_exceptions 252
__fixkfdi __ashldi3 308
__fixkfdi __lshrdi3 336
__fixkfdi __ashldi3 360
__fixkfdi __ashldi3 428
__fixkfdi __lshrdi3 464
__fixunskfsi __lshrdi3 172
__fixunskfsi __ashldi3 192
__fixunskfsi __sfp_handle_exceptions 216
__fixunskfsi _restgpr_25_x 228
__fixunskfdi _restgpr_21_x 124
__fixunskfdi __ashldi3 208
__fixunskfdi __lshrdi3 236
__fixunskfdi __ashldi3 260
__fixunskfdi __sfp_handle_exceptions 284
__fixunskfdi __ashldi3 324
__fixunskfdi __lshrdi3 360
__floatsikf __ashldi3 52
__floatsikf _restgpr_29_x 108
__floatdikf __lshrdi3 124
__floatdikf __ashldi3 148
__floatdikf _restgpr_24_x 208
__floatdikf __ashldi3 224
__floatunsikf __ashldi3 40
__floatunsikf _restgpr_31_x 96
__floatundikf __lshrdi3 104
__floatundikf __ashldi3 128
__floatundikf _restgpr_25_x 184
__floatundikf __ashldi3 204
__extendkftf2 __trunckfdf2 48
__extendkftf2 __extenddfkf2 88
__extendkftf2 __subkf3 100
__extendkftf2 __trunckfdf2 104
__extendkftf2 _restfpr_31_x 156
__trunctfkf2 __extenddfkf2 56
__trunctfkf2 __extenddfkf2 108
__trunctfkf2 __addkf3 120
__trunctfkf2 _restfpr_30_x 148
__mulkc3 _savevr_20 20
__mulkc3 __mulkf3 60
__mulkc3 __mulkf3 76
__mulkc3 __mulkf3 92
__mulkc3 __mulkf3 108
__mulkc3 __subkf3 124
__mulkc3 __addkf3 140
__mulkc3 __unordkf2 156
__mulkc3 __unordkf2 176
__mulkc3 __unordkf2 224
__mulkc3 __lekf2 248
__mulkc3 __unordkf2 296
__mulkc3 __lekf2 332
__mulkc3 __unordkf2 356
__mulkc3 __lekf2 376
__mulkc3 __floatsikf 392
__mulkc3 __unordkf2 416
__mulkc3 __lekf2 440
__mulkc3 __floatsikf 456
__mulkc3 __unordkf2 476
__mulkc3 __unordkf2 508
__mulkc3 __unordkf2 568
__mulkc3 __lekf2 592
__mulkc3 __unordkf2 640
__mulkc3 __lekf2 676
__mulkc3 __unordkf2 700
__mulkc3 __lekf2 720
__mulkc3 __floatsikf 736
__mulkc3 __unordkf2 760
__mulkc3 __lekf2 784
__mulkc3 __floatsikf 800
__mulkc3 __unordkf2 820
__mulkc3 __unordkf2 852
__mulkc3 __mulkf3 884
__mulkc3 __mulkf3 900
__mulkc3 __subkf3 912
__mulkc3 __mulkf3 924
__mulkc3 __mulkf3 940
__mulkc3 __mulkf3 956
__mulkc3 __addkf3 968
__mulkc3 __mulkf3 976
__mulkc3 _restvr_20 996
__mulkc3 _restgpr_28_x 1004
__mulkc3 __unordkf2 1056
__mulkc3 __lekf2 1076
__mulkc3 __unordkf2 1120
__mulkc3 __lekf2 1140
__mulkc3 __unordkf2 1184
__mulkc3 __lekf2 1204
__mulkc3 __unordkf2 1248
__mulkc3 __lekf2 1268
__mulkc3 __unordkf2 1288
__mulkc3 __unordkf2 1320
__mulkc3 __unordkf2 1352
__mulkc3 __unordkf2 1384
__divkc3 _savevr_21 24
__divkc3 __lekf2 100
__divkc3 __divkf3 120
__divkc3 __mulkf3 136
__divkc3 __addkf3 144
__divkc3 __mulkf3 160
__divkc3 __addkf3 168
__divkc3 __divkf3 176
__divkc3 __mulkf3 192
__divkc3 __subkf3 200
__divkc3 __divkf3 208
__divkc3 __unordkf2 224
__divkc3 __unordkf2 244
__divkc3 __eqkf2 264
__divkc3 __eqkf2 284
__divkc3 __unordkf2 304
__divkc3 __unordkf2 324
__divkc3 __mulkf3 360
__divkc3 __mulkf3 376
__divkc3 _restvr_21 396
__divkc3 _restgpr_29_x 404
__divkc3 __divkf3 416
__divkc3 __mulkf3 432
__divkc3 __addkf3 440
__divkc3 __mulkf3 456
__divkc3 __addkf3 464
__divkc3 __divkf3 472
__divkc3 __mulkf3 488
__divkc3 __unordkf2 540
__divkc3 __lekf2 560
__divkc3 __unordkf2 604
__divkc3 __lekf2 624
__divkc3 __unordkf2 648
__divkc3 __gekf2 668
__divkc3 __unordkf2 688
__divkc3 __gekf2 708
__divkc3 __unordkf2 728
__divkc3 __lekf2 752
__divkc3 __floatsikf 772
__divkc3 __unordkf2 812
__divkc3 __lekf2 836
__divkc3 __floatsikf 852
__divkc3 __mulkf3 872
__divkc3 __mulkf3 888
__divkc3 __addkf3 900
__divkc3 __mulkf3 912
__divkc3 __mulkf3 928
__divkc3 __mulkf3 944
__divkc3 __subkf3 956
__divkc3 __unordkf2 980
__divkc3 __lekf2 1000
__divkc3 __unordkf2 1024
__divkc3 __lekf2 1044
__divkc3 __unordkf2 1068
__divkc3 __gekf2 1088
__divkc3 __unordkf2 1128
__divkc3 __gekf2 1148
__divkc3 __unordkf2 1168
__divkc3 __lekf2 1192
__divkc3 __floatsikf 1208
__divkc3 __unordkf2 1232
__divkc3 __lekf2 1256
__divkc3 __floatsikf 1272
__divkc3 __mulkf3 1292
__divkc3 __mulkf3 1308
__divkc3 __addkf3 1320
__divkc3 __mulkf3 1328
__divkc3 __mulkf3 1344
__divkc3 __mulkf3 1360
__divkc3 __subkf3 1372
__powikf2 _savevr_30 24
__powikf2 __divkf3 108
__powikf2 _restvr_30 124
__powikf2 _restgpr_29_x 132
__powikf2 __mulkf3 144
__powikf2 __mulkf3 168
read_encoded_value abort 88
read_encoded_value _Unwind_GetDataRelBase 116
read_encoded_value _Unwind_GetTextRelBase 124
read_encoded_value _restgpr_26_x 164
read_encoded_value _Unwind_GetRegionStart 168
execute_cfa_program _restgpr_14_x 144
execute_cfa_program memcpy 628
execute_cfa_program memcpy 680
execute_cfa_program abort 1280
uw_frame_state_for memset 36
uw_frame_state_for _restgpr_23_x 72
uw_frame_state_for _Unwind_Find_FDE 96
uw_frame_state_for strlen 496
uw_frame_state_for abort 816
_Unwind_SetSpColumn abort 96
_Unwind_GetGR abort 40
uw_install_context_1 abort 116
uw_install_context_1 _Unwind_GetGR 204
uw_install_context_1 _restgpr_25_x 232
uw_install_context_1 memcpy 264
execute_stack_op _restgpr_18_x 112
execute_stack_op abort 216
execute_stack_op _Unwind_GetGR 656
execute_stack_op _Unwind_GetGR 888
uw_update_context_1 memcpy 56
uw_update_context_1 abort 144
uw_update_context_1 _Unwind_GetGR 156
uw_update_context_1 _restgpr_18_x 448
uw_update_context_1 _Unwind_GetGR 476
uw_init_context_1 memset 60
uw_init_context_1 abort 100
uw_init_context_1 pthread_once 148
uw_init_context_1 _restgpr_26_x 216
uw_update_context _restgpr_29_x 64
uw_update_context _Unwind_GetGR 72
_Unwind_RaiseException_Phase2 abort 112
_Unwind_RaiseException_Phase2 _restgpr_23_x 172
_Unwind_ForcedUnwind_Phase2 _restgpr_23_x 228
_Unwind_SetGR abort 40
_Unwind_FindEnclosingFunction _Unwind_Find_FDE 20
__frame_state_for memset 44
__frame_state_for _restgpr_29_x 212
_Unwind_RaiseException memcpy 144
_Unwind_RaiseException memcpy 308
_Unwind_ForcedUnwind memcpy 148
_Unwind_Resume memcpy 140
_Unwind_Resume abort 180
_Unwind_Resume_or_Rethrow _Unwind_RaiseException 112
_Unwind_Resume_or_Rethrow memcpy 280
_Unwind_Resume_or_Rethrow abort 308
_Unwind_Backtrace _savefpr_14 20
_Unwind_Backtrace _restfpr_14_x 168
frame_downheap _restgpr_24_x 56
frame_heapsort _restgpr_25_x 80
size_of_encoded_value abort 48
base_from_object abort 56
base_from_cb_data abort 56
read_encoded_value_with_base _restgpr_27_x 72
read_encoded_value_with_base abort 236
fde_single_encoding_compare _restgpr_26_x 128
get_cie_encoding strlen 28
get_cie_encoding _restgpr_28_x 104
linear_search_fdes _restgpr_21_x 220
_Unwind_IteratePhdrCallback _restgpr_25_x 220
_Unwind_IteratePhdrCallback abort 964
fde_mixed_encoding_compare _restgpr_27_x 148
classify_object_over_fdes _restgpr_21_x 124
add_fdes _restgpr_22_x 80
search_object malloc 308
search_object malloc 336
search_object abort 416
search_object _restgpr_18_x 476
search_object free 832
__register_frame_info_bases pthread_mutex_lock 104
__register_frame_info_bases pthread_mutex_unlock 180
__register_frame_info_bases _restgpr_28_x 188
__register_frame_info __register_frame_info_bases 8
__register_frame malloc 36
__register_frame __register_frame_info 64
__register_frame_info_table_bases pthread_mutex_lock 84
__register_frame_info_table_bases pthread_mutex_unlock 160
__register_frame_info_table_bases _restgpr_28_x 168
__register_frame_info_table __register_frame_info_table_bases 8
__register_frame_table malloc 24
__register_frame_table __register_frame_info_table 52
__deregister_frame_info_bases pthread_mutex_lock 72
__deregister_frame_info_bases pthread_mutex_unlock 120
__deregister_frame_info_bases abort 132
__deregister_frame_info_bases free 216
__deregister_frame_info_bases _restgpr_27_x 268
__deregister_frame_info __deregister_frame_info_bases 0
__deregister_frame __deregister_frame_info_bases 24
__deregister_frame free 40
_Unwind_Find_FDE pthread_mutex_lock 72
_Unwind_Find_FDE dl_iterate_phdr 192
_Unwind_Find_FDE pthread_mutex_unlock 320
_Unwind_Find_FDE _restgpr_25_x 416
__gcc_personality_v0 _restgpr_23_x 48
__gcc_personality_v0 _Unwind_GetLanguageSpecificData 64
__gcc_personality_v0 _Unwind_GetRegionStart 92
__gcc_personality_v0 _Unwind_GetIPInfo 220
__gcc_personality_v0 _Unwind_SetGR 436
__gcc_personality_v0 _Unwind_SetGR 452
__gcc_personality_v0 _Unwind_SetIP 464
emutls_init pthread_key_create 40
emutls_init abort 52
emutls_destroy free 72
emutls_destroy free 96
emutls_alloc malloc 40
emutls_alloc abort 52
emutls_alloc memcpy 84
emutls_alloc _restgpr_28_x 92
emutls_alloc malloc 104
emutls_alloc memset 148
__emutls_get_address _restgpr_25_x 76
__emutls_get_address pthread_once 120
__emutls_get_address pthread_mutex_lock 128
__emutls_get_address pthread_mutex_unlock 168
__emutls_get_address pthread_getspecific 176
__emutls_get_address calloc 200
__emutls_get_address abort 212
__emutls_get_address pthread_setspecific 228
__emutls_get_address realloc 304
__emutls_get_address memset 344
__gcov_merge_add _restgpr_29_x 36
__gcov_merge_add __gcov_read_counter 40
__gcov_merge_single abort 36
__gcov_merge_single __gcov_read_counter 40
__gcov_merge_single __gcov_read_counter 52
__gcov_merge_single __gcov_read_counter 64
__gcov_merge_single _restgpr_24_x 160
__gcov_merge_ior _restgpr_29_x 36
__gcov_merge_ior __gcov_read_counter 40
__gcov_merge_time_profile _restgpr_28_x 40
__gcov_merge_time_profile __gcov_read_counter 44
__gcov_merge_icall_topn _restgpr_18_x 72
__gcov_merge_icall_topn abort 76
__gcov_merge_icall_topn __gcov_read_counter 188
__gcov_merge_icall_topn __gcov_read_counter 200
__gcov_merge_icall_topn __gcov_read_counter 212
__gcov_merge_icall_topn __gcov_sort_n_vals 308
__gcov_indirect_call_profiler_v2 __gcov_indirect_call_callee 50
__gcov_indirect_call_profiler_v2 __gcov_indirect_call_callee 52
__gcov_indirect_call_profiler_v2 __tls_get_addr 52
__gcov_indirect_call_profiler_v2 __gcov_indirect_call_counters 70
__gcov_indirect_call_profiler_v2 __gcov_indirect_call_counters 72
__gcov_indirect_call_profiler_v2 __tls_get_addr 72
__gcov_indirect_call_profiler_v2 __gcov_indirect_call_callee 190
__gcov_indirect_call_profiler_v2 __gcov_indirect_call_callee 192
__gcov_indirect_call_profiler_v2 __tls_get_addr 192
__gcov_indirect_call_profiler_v2 _restgpr_27_x 208
__gcov_topn_value_profiler_body _restgpr_31_x 496
__gcov_indirect_call_topn_profiler __gcov_indirect_call_topn_callee 50
__gcov_indirect_call_topn_profiler __gcov_indirect_call_topn_callee 52
__gcov_indirect_call_topn_profiler __tls_get_addr 52
__gcov_indirect_call_topn_profiler __gcov_indirect_call_topn_counters 70
__gcov_indirect_call_topn_profiler __gcov_indirect_call_topn_counters 72
__gcov_indirect_call_topn_profiler __tls_get_addr 72
__gcov_indirect_call_topn_profiler _restgpr_27_x 124
__gcov_dump_int _restgpr_30_x 68
__gcov_dump_int __gcov_dump_one 84
__gcov_dump __gcov_dump_int 0
__gcov_flush pthread_mutex_lock 48
__gcov_flush __gcov_dump_int 52
__gcov_flush __gcov_reset_int 56
__gcov_flush pthread_mutex_unlock 92
__gcov_flush _restgpr_30_x 100
__gcov_fork __gcov_flush 32
__gcov_fork fork 36
__gcov_fork pthread_mutex_init 68
__gcov_fork _restgpr_30_x 80
__gcov_execl __gcov_flush 88
__gcov_execl execv 256
__gcov_execl _restgpr_29_x 264
__gcov_execlp __gcov_flush 88
__gcov_execlp execvp 256
__gcov_execlp _restgpr_29_x 264
__gcov_execle __gcov_flush 88
__gcov_execle execve 288
__gcov_execle _restgpr_29_x 296
__gcov_execv __gcov_flush 20
__gcov_execv execv 44
__gcov_execvp __gcov_flush 20
__gcov_execvp execvp 44
__gcov_execve __gcov_flush 24
__gcov_execve execve 52
__gcov_reset_int _restgpr_25_x 68
__gcov_reset_int memset 184
__gcov_reset __gcov_reset_int 0
gcov_write_block fwrite 56
gcov_write_block _restgpr_29_x 104
gcov_write_words _restgpr_29_x 108
gcov_read_words fread 140
gcov_read_words _restgpr_28_x 224
gcov_error getenv 152
gcov_error fopen64 168
gcov_error vfprintf 212
gcov_error _restgpr_29_x 220
free_fn_data free 56
free_fn_data _restgpr_26_x 72
free_fn_data free 108
gcov_histo_index _restgpr_31_x 64
gcov_histo_index __lshrdi3 72
__gcov_rewrite fseek 84
__gcov_open getpid 68
__gcov_open open64 132
__gcov_open fcntl64 164
__gcov_open __errno_location 176
__gcov_open fdopen 200
__gcov_open close 220
__gcov_open setbuf 244
__gcov_open _restgpr_28_x 256
__gcov_close fclose 80
__gcov_close _restgpr_30_x 112
__gcov_write_unsigned _restgpr_31_x 36
__gcov_write_counter _restgpr_29_x 44
__gcov_write_tag_length _restgpr_29_x 44
__gcov_write_summary __gcov_write_tag_length 148
__gcov_write_summary __gcov_write_unsigned 156
__gcov_write_summary __gcov_write_unsigned 164
__gcov_write_summary __gcov_write_unsigned 172
__gcov_write_summary __gcov_write_counter 184
__gcov_write_summary __gcov_write_counter 196
__gcov_write_summary __gcov_write_counter 208
__gcov_write_summary __gcov_write_unsigned 220
__gcov_write_summary __gcov_write_unsigned 252
__gcov_write_summary __gcov_write_counter 264
__gcov_write_summary __gcov_write_counter 276
__gcov_write_summary _restgpr_27_x 296
__gcov_read_summary __gcov_read_unsigned 48
__gcov_read_summary __gcov_read_unsigned 56
__gcov_read_summary __gcov_read_unsigned 64
__gcov_read_summary __gcov_read_counter 72
__gcov_read_summary __gcov_read_counter 84
__gcov_read_summary __gcov_read_counter 96
__gcov_read_summary memset 120
__gcov_read_summary __gcov_read_unsigned 124
__gcov_read_summary __popcountsi2 136
__gcov_read_summary _restgpr_24_x 184
__gcov_read_summary __gcov_read_unsigned 276
__gcov_read_summary __gcov_read_counter 288
__gcov_read_summary __gcov_read_counter 300
__gcov_seek fseek 68
__gcov_seek ftell 76
__gcov_seek _restgpr_29_x 92
gcov_do_dump memset 68
gcov_do_dump getenv 108
gcov_do_dump atoi 124
gcov_do_dump getenv 144
gcov_do_dump strlen 156
gcov_do_dump malloc 228
gcov_do_dump memcpy 252
gcov_do_dump strlen 324
gcov_do_dump strcpy 1044
gcov_do_dump __gcov_open 1052
gcov_do_dump abort 1204
gcov_do_dump __gcov_sort_n_vals 1216
gcov_do_dump access 1340
gcov_do_dump mkdir 1360
gcov_do_dump __errno_location 1372
gcov_do_dump fprintf 1428
gcov_do_dump free 1540
gcov_do_dump __gcov_open 1568
gcov_do_dump __gcov_read_unsigned 1592
gcov_do_dump __gcov_read_unsigned 1636
gcov_do_dump __gcov_read_unsigned 1656
gcov_do_dump __gcov_read_unsigned 1704
gcov_do_dump __gcov_read_unsigned 1716
gcov_do_dump __gcov_read_summary 1724
gcov_do_dump malloc 1764
gcov_do_dump memcpy 1788
gcov_do_dump memcpy 1872
gcov_do_dump __gcov_rewrite 1928
gcov_do_dump memset 1952
gcov_do_dump memcpy 2128
gcov_do_dump __gcov_write_tag_length 2164
gcov_do_dump __gcov_write_unsigned 2172
gcov_do_dump __gcov_seek 2188
gcov_do_dump __gcov_write_summary 2200
gcov_do_dump __gcov_write_unsigned 2252
gcov_do_dump __gcov_read_unsigned 2308
gcov_do_dump malloc 2376
gcov_do_dump __gcov_read_unsigned 2404
gcov_do_dump __gcov_read_unsigned 2412
gcov_do_dump __gcov_read_unsigned 2420
gcov_do_dump __gcov_read_unsigned 2444
gcov_do_dump __gcov_read_unsigned 2464
gcov_do_dump malloc 2480
gcov_do_dump __gcov_read_unsigned 2552
gcov_do_dump __gcov_read_counter 2584
gcov_do_dump __gcov_read_unsigned 2700
gcov_do_dump __gcov_read_unsigned 2716
gcov_do_dump __gcov_read_unsigned 2732
gcov_do_dump __gcov_read_unsigned 2768
gcov_do_dump __gcov_read_unsigned 2776
gcov_do_dump memset 2928
gcov_do_dump __divdi3 3176
gcov_do_dump __divdi3 3236
gcov_do_dump __gcov_write_summary 3656
gcov_do_dump free 3668
gcov_do_dump __gcov_write_tag_length 3724
gcov_do_dump __gcov_write_unsigned 3748
gcov_do_dump __gcov_write_unsigned 3756
gcov_do_dump __gcov_write_unsigned 3768
gcov_do_dump __gcov_write_tag_length 3796
gcov_do_dump __gcov_write_counter 3928
gcov_do_dump __gcov_close 3964
__gcov_dump_one _restgpr_31_x 68
__gcov_exit __gcov_dump_one 40
__gcov_exit fclose 112
__gcov_exit _restgpr_30_x 128
__gcov_init _restgpr_28_x 156
_ZL29plugin_pragma_user_expressionP10cpp_reader c_binding_oracle 3
_ZL20build_anonymous_node9tree_code _Z9make_node9tree_code 2
_ZL20build_anonymous_node9tree_code input_location 8
_ZL20build_anonymous_node9tree_code _Z10build_declj9tree_codeP9tree_nodeS1_ 26
_ZL27plugin_print_error_functionP18diagnostic_contextPKcP15diagnostic_info current_function_decl 3
_ZL27plugin_print_error_functionP18diagnostic_contextPKcP15diagnostic_info _Z24lhd_print_error_functionP18diagnostic_contextPKcP15diagnostic_info 52
_ZL26rewrite_decls_to_addressesPvS_ _Z11walk_tree_1PP9tree_nodePFS0_S1_PiPvES3_P8hash_setIS0_19default_hash_traitsIS0_EEPFS0_S1_S2_S5_S3_SA_E 30
_ZL25plugin_init_extra_pragmasPvS_ _Z17c_register_pragmaPKcS0_PFvP10cpp_readerE 20
_ZL25plugin_init_extra_pragmasPvS_ _Z17c_register_pragmaPKcS0_PFvP10cpp_readerE 40
_ZL25plugin_init_extra_pragmasPvS_ _Z17c_register_pragmaPKcS0_PFvP10cpp_readerE 64
_ZL24safe_lookup_builtin_typePKc _Z14get_identifierPKc 10
_ZL24safe_lookup_builtin_typePKc _Z23identifier_global_valueP9tree_node 18
_ZL24safe_lookup_builtin_typePKc _Z11fancy_abortPKciS0_ 75
_ZL21plugin_binding_oracle16c_oracle_requestP9tree_node _Z11fancy_abortPKciS0_ 62
_ZL21plugin_binding_oracle16c_oracle_requestP9tree_node _ZN10cc1_plugin10connection4sendEc 90
_ZL21plugin_binding_oracle16c_oracle_requestP9tree_node _ZN10cc1_plugin8marshallEPNS_10connectionEPKc 121
_ZL21plugin_binding_oracle16c_oracle_requestP9tree_node _ZN10cc1_plugin16marshall_intlikeEPNS_10connectionEy 138
_ZL21plugin_binding_oracle16c_oracle_requestP9tree_node _ZN10cc1_plugin16marshall_intlikeEPNS_10connectionEy 152
_ZL21plugin_binding_oracle16c_oracle_requestP9tree_node _ZN10cc1_plugin8marshallEPNS_10connectionEPKc 167
_ZL21plugin_binding_oracle16c_oracle_requestP9tree_node _ZN10cc1_plugin10connection7do_waitEb 184
_ZL21plugin_binding_oracle16c_oracle_requestP9tree_node _ZN10cc1_plugin18unmarshall_intlikeEPNS_10connectionEPy 201
_ZL21plugin_binding_oracle16c_oracle_requestP9tree_node _Z11fancy_abortPKciS0_ 250
_ZN10cc1_plugin10unmarshallEPNS_10connectionEP17gcc_c_symbol_kind _ZN10cc1_plugin18unmarshall_intlikeEPNS_10connectionEPy 14
_ZN10cc1_plugin10unmarshallEPNS_10connectionEP20gcc_c_oracle_request _ZN10cc1_plugin18unmarshall_intlikeEPNS_10connectionEPy 14
_ZN10cc1_plugin10unmarshallEPNS_10connectionEP14gcc_qualifiers _ZN10cc1_plugin18unmarshall_intlikeEPNS_10connectionEPy 14
_ZN14plugin_context4markEv _Z12ggc_set_markPKv 273
_ZN14plugin_context4markEv _Z12ggc_set_markPKv 295
_ZN14plugin_context4markEv _Z12ggc_set_markPKv 340
_ZL7gc_markPvS_ _ZN14plugin_context4markEv 13
_Z11plugin_bindPN10cc1_plugin10connectionEyi _Z6c_bindjP9tree_nodeb 22
_Z11plugin_bindPN10cc1_plugin10connectionEyi _Z24rest_of_decl_compilationP9tree_nodeii 34
_Z25plugin_build_pointer_typePN10cc1_plugin10connectionEy _Z18build_pointer_typeP9tree_node 4
_Z22plugin_build_add_fieldPN10cc1_plugin10connectionEyPKcymm _Z14get_identifierPKc 40
_Z22plugin_build_add_fieldPN10cc1_plugin10connectionEyPKcymm _Z10build_declj9tree_codeP9tree_nodeS1_ 61
_Z22plugin_build_add_fieldPN10cc1_plugin10connectionEyPKcymm global_trees 107
_Z22plugin_build_add_fieldPN10cc1_plugin10connectionEyPKcymm _Z13size_int_kind8poly_intILj1ElE14size_type_kind 159
_Z22plugin_build_add_fieldPN10cc1_plugin10connectionEyPKcymm _Z12pos_from_bitPP9tree_nodeS1_jS0_ 193
_Z22plugin_build_add_fieldPN10cc1_plugin10connectionEyPKcymm _Z13size_int_kind8poly_intILj1ElE14size_type_kind 206
_Z22plugin_build_add_fieldPN10cc1_plugin10connectionEyPKcymm _Z13size_int_kind8poly_intILj1ElE14size_type_kind 225
_Z22plugin_build_add_fieldPN10cc1_plugin10connectionEyPKcymm _Z29c_build_bitfield_integer_typemi 307
_Z22plugin_build_add_fieldPN10cc1_plugin10connectionEyPKcymm _Z16vector_type_modePK9tree_node 324
_Z22plugin_build_add_fieldPN10cc1_plugin10connectionEyPKcymm _Z11fancy_abortPKciS0_ 349
_Z29plugin_finish_record_or_unionPN10cc1_plugin10connectionEym _Z8nreverseP9tree_node 34
_Z29plugin_finish_record_or_unionPN10cc1_plugin10connectionEym global_trees 61
_Z29plugin_finish_record_or_unionPN10cc1_plugin10connectionEym _Z13size_int_kind8poly_intILj1ElE14size_type_kind 126
_Z29plugin_finish_record_or_unionPN10cc1_plugin10connectionEym _Z13size_int_kind8poly_intILj1ElE14size_type_kind 141
_Z29plugin_finish_record_or_unionPN10cc1_plugin10connectionEym _Z19compute_record_modeP9tree_node 154
_Z29plugin_finish_record_or_unionPN10cc1_plugin10connectionEym _Z22finish_bitfield_layoutP9tree_node 162
_Z29plugin_finish_record_or_unionPN10cc1_plugin10connectionEym _Z19compute_record_modeP9tree_node 365
_Z29plugin_finish_record_or_unionPN10cc1_plugin10connectionEym _Z11layout_typeP9tree_node 404
_Z29plugin_finish_record_or_unionPN10cc1_plugin10connectionEym _Z11fancy_abortPKciS0_ 429
_Z30plugin_build_add_enum_constantPN10cc1_plugin10connectionEyPKcm _Z13build_int_cstP9tree_node8poly_intILj1ElE 33
_Z30plugin_build_add_enum_constantPN10cc1_plugin10connectionEyPKcm _Z14get_identifierPKc 44
_Z30plugin_build_add_enum_constantPN10cc1_plugin10connectionEyPKcm _Z10build_declj9tree_codeP9tree_nodeS1_ 65
_Z30plugin_build_add_enum_constantPN10cc1_plugin10connectionEyPKcm c_binding_oracle 82
_Z30plugin_build_add_enum_constantPN10cc1_plugin10connectionEyPKcm c_binding_oracle 89
_Z30plugin_build_add_enum_constantPN10cc1_plugin10connectionEyPKcm _Z8pushdeclP9tree_node 98
_Z30plugin_build_add_enum_constantPN10cc1_plugin10connectionEyPKcm c_binding_oracle 119
_Z30plugin_build_add_enum_constantPN10cc1_plugin10connectionEyPKcm _Z9tree_consP9tree_nodeS0_S0_ 124
_Z30plugin_build_add_enum_constantPN10cc1_plugin10connectionEyPKcm _Z11fancy_abortPKciS0_ 167
_Z23plugin_finish_enum_typePN10cc1_plugin10connectionEy _Z22finish_enum_value_listP9tree_node 8
_Z23plugin_finish_enum_typePN10cc1_plugin10connectionEy _Z11finish_enumP9tree_node 16
_Z16plugin_char_typePN10cc1_plugin10connectionE integer_types 3
_Z20plugin_float_type_v0PN10cc1_plugin10connectionEm global_trees 3
_Z20plugin_float_type_v0PN10cc1_plugin10connectionEm global_trees 29
_Z20plugin_float_type_v0PN10cc1_plugin10connectionEm global_trees 51
_Z20plugin_float_type_v0PN10cc1_plugin10connectionEm global_trees 72
_Z17plugin_float_typePN10cc1_plugin10connectionEmPKc global_trees 67
_Z17plugin_float_typePN10cc1_plugin10connectionEmPKc global_trees 93
_Z17plugin_float_typePN10cc1_plugin10connectionEmPKc global_trees 115
_Z17plugin_float_typePN10cc1_plugin10connectionEmPKc global_trees 136
_Z17plugin_float_typePN10cc1_plugin10connectionEmPKc global_trees 147
_Z17plugin_float_typePN10cc1_plugin10connectionEmPKc _Z11fancy_abortPKciS0_ 170
_Z17plugin_float_typePN10cc1_plugin10connectionEmPKc _Z11fancy_abortPKciS0_ 190
_Z16plugin_void_typePN10cc1_plugin10connectionE global_trees 3
_Z16plugin_bool_typePN10cc1_plugin10connectionE global_trees 3
_Z27plugin_build_qualified_typePN10cc1_plugin10connectionEy14gcc_qualifiers _Z20build_qualified_typeP9tree_nodei 9
_Z12plugin_errorPN10cc1_plugin10connectionEPKc _Z5errorPKcz 12
_Z12plugin_errorPN10cc1_plugin10connectionEPKc global_trees 19
_ZL16address_rewriterPP9tree_nodePiPv tree_code_type 11
_ZL16address_rewriterPP9tree_nodePiPv _ZN10hash_tableI16decl_addr_hasher11xcallocatorE14find_with_hashERKP15decl_addr_valuej 92
_ZL16address_rewriterPP9tree_nodePiPv global_trees 107
_ZL16address_rewriterPP9tree_nodePiPv _Z18build_pointer_typeP9tree_node 125
_ZL16address_rewriterPP9tree_nodePiPv _Z15fold_build1_locj9tree_codeP9tree_nodeS1_ 144
_ZL16address_rewriterPP9tree_nodePiPv _Z15fold_build1_locj9tree_codeP9tree_nodeS1_ 166
_ZL16address_rewriterPP9tree_nodePiPv tree_contains_struct 220
_ZL16address_rewriterPP9tree_nodePiPv _Z19decl_assembler_nameP9tree_node 228
_ZL16address_rewriterPP9tree_nodePiPv _ZN10cc1_plugin10connection4sendEc 245
_ZL16address_rewriterPP9tree_nodePiPv _ZN10cc1_plugin8marshallEPNS_10connectionEPKc 262
_ZL16address_rewriterPP9tree_nodePiPv _ZN10cc1_plugin16marshall_intlikeEPNS_10connectionEy 279
_ZL16address_rewriterPP9tree_nodePiPv _ZN10cc1_plugin8marshallEPNS_10connectionEPKc 294
_ZL16address_rewriterPP9tree_nodePiPv _ZN10cc1_plugin10connection7do_waitEb 311
_ZL16address_rewriterPP9tree_nodePiPv _ZN10cc1_plugin18unmarshall_intlikeEPNS_10connectionEPy 332
_ZL16address_rewriterPP9tree_nodePiPv global_trees 366
_ZL16address_rewriterPP9tree_nodePiPv _Z18build_int_cst_typeP9tree_node8poly_intILj1ElE 371
_Z24plugin_build_record_typePN10cc1_plugin10connectionE prime_tab 77
_Z24plugin_build_record_typePN10cc1_plugin10connectionE prime_tab 83
_Z24plugin_build_record_typePN10cc1_plugin10connectionE prime_tab 90
_Z24plugin_build_record_typePN10cc1_plugin10connectionE prime_tab 96
_Z24plugin_build_record_typePN10cc1_plugin10connectionE _ZN10hash_tableI15nofree_ptr_hashI9tree_nodeE11xcallocatorE6expandEv 338
_Z23plugin_build_union_typePN10cc1_plugin10connectionE prime_tab 77
_Z23plugin_build_union_typePN10cc1_plugin10connectionE prime_tab 83
_Z23plugin_build_union_typePN10cc1_plugin10connectionE prime_tab 90
_Z23plugin_build_union_typePN10cc1_plugin10connectionE prime_tab 96
_Z23plugin_build_union_typePN10cc1_plugin10connectionE _ZN10hash_tableI15nofree_ptr_hashI9tree_nodeE11xcallocatorE6expandEv 338
_Z25plugin_build_complex_typePN10cc1_plugin10connectionEy _Z18build_complex_typeP9tree_nodeb 15
_Z25plugin_build_complex_typePN10cc1_plugin10connectionEy prime_tab 77
_Z25plugin_build_complex_typePN10cc1_plugin10connectionEy prime_tab 83
_Z25plugin_build_complex_typePN10cc1_plugin10connectionEy prime_tab 90
_Z25plugin_build_complex_typePN10cc1_plugin10connectionEy prime_tab 96
_Z25plugin_build_complex_typePN10cc1_plugin10connectionEy _ZN10hash_tableI15nofree_ptr_hashI9tree_nodeE11xcallocatorE6expandEv 338
_Z22plugin_build_enum_typePN10cc1_plugin10connectionEy global_trees 3
_Z22plugin_build_enum_typePN10cc1_plugin10connectionEy prime_tab 139
_Z22plugin_build_enum_typePN10cc1_plugin10connectionEy prime_tab 145
_Z22plugin_build_enum_typePN10cc1_plugin10connectionEy prime_tab 152
_Z22plugin_build_enum_typePN10cc1_plugin10connectionEy prime_tab 158
_Z22plugin_build_enum_typePN10cc1_plugin10connectionEy _ZN10hash_tableI15nofree_ptr_hashI9tree_nodeE11xcallocatorE6expandEv 402
_Z24plugin_build_vector_typePN10cc1_plugin10connectionEyi _Z17build_vector_typeP9tree_node8poly_intILj1ElE 16
_Z24plugin_build_vector_typePN10cc1_plugin10connectionEyi prime_tab 78
_Z24plugin_build_vector_typePN10cc1_plugin10connectionEyi prime_tab 84
_Z24plugin_build_vector_typePN10cc1_plugin10connectionEyi prime_tab 91
_Z24plugin_build_vector_typePN10cc1_plugin10connectionEyi prime_tab 97
_Z24plugin_build_vector_typePN10cc1_plugin10connectionEyi _ZN10hash_tableI15nofree_ptr_hashI9tree_nodeE11xcallocatorE6expandEv 338
_Z23plugin_build_array_typePN10cc1_plugin10connectionEyi _Z22build_array_type_neltsP9tree_node8poly_intILj1EmE 25
_Z23plugin_build_array_typePN10cc1_plugin10connectionEyi prime_tab 87
_Z23plugin_build_array_typePN10cc1_plugin10connectionEyi prime_tab 93
_Z23plugin_build_array_typePN10cc1_plugin10connectionEyi prime_tab 100
_Z23plugin_build_array_typePN10cc1_plugin10connectionEyi prime_tab 106
_Z23plugin_build_array_typePN10cc1_plugin10connectionEyi _ZN10hash_tableI15nofree_ptr_hashI9tree_nodeE11xcallocatorE6expandEv 354
_Z23plugin_build_array_typePN10cc1_plugin10connectionEyi _Z16build_array_typeP9tree_nodeS0_b 381
_ZL16plugin_int_checkPN10cc1_plugin10connectionEimP9tree_node prime_tab 142
_ZL16plugin_int_checkPN10cc1_plugin10connectionEimP9tree_node prime_tab 148
_ZL16plugin_int_checkPN10cc1_plugin10connectionEimP9tree_node prime_tab 154
_ZL16plugin_int_checkPN10cc1_plugin10connectionEimP9tree_node prime_tab 160
_ZL16plugin_int_checkPN10cc1_plugin10connectionEimP9tree_node _ZN10hash_tableI15nofree_ptr_hashI9tree_nodeE11xcallocatorE6expandEv 402
_ZL16plugin_int_checkPN10cc1_plugin10connectionEimP9tree_node global_trees 451
_ZL16plugin_int_checkPN10cc1_plugin10connectionEimP9tree_node _Z11fancy_abortPKciS0_ 472
_ZL16plugin_int_checkPN10cc1_plugin10connectionEimP9tree_node _Z11fancy_abortPKciS0_ 492
_ZL16plugin_int_checkPN10cc1_plugin10connectionEimP9tree_node _Z11fancy_abortPKciS0_ 512
_Z18plugin_int_type_v0PN10cc1_plugin10connectionEim _Z22c_common_type_for_sizeji 20
_Z15plugin_int_typePN10cc1_plugin10connectionEimPKc _Z11fancy_abortPKciS0_ 85
_Z15plugin_int_typePN10cc1_plugin10connectionEimPKc _Z18plugin_int_type_v0PN10cc1_plugin10connectionEim 65
_Z27plugin_build_vla_array_typePN10cc1_plugin10connectionEyPKc _Z14get_identifierPKc 14
_Z27plugin_build_vla_array_typePN10cc1_plugin10connectionEyPKc _Z11lookup_nameP9tree_node 22
_Z27plugin_build_vla_array_typePN10cc1_plugin10connectionEyPKc _Z13build_one_cstP9tree_node 34
_Z27plugin_build_vla_array_typePN10cc1_plugin10connectionEyPKc _Z15fold_build2_locj9tree_codeP9tree_nodeS1_S1_ 56
_Z27plugin_build_vla_array_typePN10cc1_plugin10connectionEyPKc _Z24compute_array_index_typeP9tree_nodeS0_i 71
_Z27plugin_build_vla_array_typePN10cc1_plugin10connectionEyPKc _Z22build_cplus_array_typeP9tree_nodeS0_ 82
_Z27plugin_build_vla_array_typePN10cc1_plugin10connectionEyPKc _ZN14plugin_context8preserveEP9tree_node 97
_Z26plugin_build_function_typePN10cc1_plugin10connectionEyPK14gcc_type_arrayi _Znam 56
_Z26plugin_build_function_typePN10cc1_plugin10connectionEyPK14gcc_type_arrayi _Z33build_varargs_function_type_arrayP9tree_nodeiPS0_ 121
_Z26plugin_build_function_typePN10cc1_plugin10connectionEyPK14gcc_type_arrayi _ZdaPv 132
_Z26plugin_build_function_typePN10cc1_plugin10connectionEyPK14gcc_type_arrayi _Z25build_function_type_arrayP9tree_nodeiPS0_ 167
_Z26plugin_build_function_typePN10cc1_plugin10connectionEyPK14gcc_type_arrayi _ZN14plugin_context8preserveEP9tree_node 151
_Z17plugin_build_declPN10cc1_plugin10connectionEPKc17gcc_c_symbol_kindyS3_yS3_j _Z14get_identifierPKc 33
_Z17plugin_build_declPN10cc1_plugin10connectionEPKc17gcc_c_symbol_kindyS3_yS3_j global_trees 66
_Z17plugin_build_declPN10cc1_plugin10connectionEPKc17gcc_c_symbol_kindyS3_yS3_j htab_hash_string 126
_Z17plugin_build_declPN10cc1_plugin10connectionEPKc17gcc_c_symbol_kindyS3_yS3_j _ZN10hash_tableI13string_hasher11xcallocatorE19find_slot_with_hashERKPKcj13insert_option 147
_Z17plugin_build_declPN10cc1_plugin10connectionEPKc17gcc_c_symbol_kindyS3_yS3_j line_table 171
_Z17plugin_build_declPN10cc1_plugin10connectionEPKc17gcc_c_symbol_kindyS3_yS3_j _Z11linemap_addP9line_maps9lc_reasonjPKcj 180
_Z17plugin_build_declPN10cc1_plugin10connectionEPKc17gcc_c_symbol_kindyS3_yS3_j line_table 191
_Z17plugin_build_declPN10cc1_plugin10connectionEPKc17gcc_c_symbol_kindyS3_yS3_j _Z18linemap_line_startP9line_mapsjj 198
_Z17plugin_build_declPN10cc1_plugin10connectionEPKc17gcc_c_symbol_kindyS3_yS3_j line_table 205
_Z17plugin_build_declPN10cc1_plugin10connectionEPKc17gcc_c_symbol_kindyS3_yS3_j _Z11linemap_addP9line_maps9lc_reasonjPKcj 226
_Z17plugin_build_declPN10cc1_plugin10connectionEPKc17gcc_c_symbol_kindyS3_yS3_j _Z10build_declj9tree_codeP9tree_nodeS1_ 244
_Z17plugin_build_declPN10cc1_plugin10connectionEPKc17gcc_c_symbol_kindyS3_yS3_j _Z14get_identifierPKc 290
_Z17plugin_build_declPN10cc1_plugin10connectionEPKc17gcc_c_symbol_kindyS3_yS3_j _Z11lookup_nameP9tree_node 298
_Z17plugin_build_declPN10cc1_plugin10connectionEPKc17gcc_c_symbol_kindyS3_yS3_j _ZN10hash_tableI16decl_addr_hasher11xcallocatorE19find_slot_with_hashERKP15decl_addr_valuej13insert_option 353
_Z17plugin_build_declPN10cc1_plugin10connectionEPKc17gcc_c_symbol_kindyS3_yS3_j xmalloc 376
_Z17plugin_build_declPN10cc1_plugin10connectionEPKc17gcc_c_symbol_kindyS3_yS3_j prime_tab 452
_Z17plugin_build_declPN10cc1_plugin10connectionEPKc17gcc_c_symbol_kindyS3_yS3_j prime_tab 458
_Z17plugin_build_declPN10cc1_plugin10connectionEPKc17gcc_c_symbol_kindyS3_yS3_j prime_tab 464
_Z17plugin_build_declPN10cc1_plugin10connectionEPKc17gcc_c_symbol_kindyS3_yS3_j prime_tab 470
_Z17plugin_build_declPN10cc1_plugin10connectionEPKc17gcc_c_symbol_kindyS3_yS3_j _Z11fancy_abortPKciS0_ 718
_Z17plugin_build_declPN10cc1_plugin10connectionEPKc17gcc_c_symbol_kindyS3_yS3_j _ZN10hash_tableI15nofree_ptr_hashI9tree_nodeE11xcallocatorE6expandEv 773
_Z17plugin_build_declPN10cc1_plugin10connectionEPKc17gcc_c_symbol_kindyS3_yS3_j global_trees 799
_Z17plugin_build_declPN10cc1_plugin10connectionEPKc17gcc_c_symbol_kindyS3_yS3_j _Z18build_int_cst_typeP9tree_node8poly_intILj1ElE 804
_Z17plugin_build_declPN10cc1_plugin10connectionEPKc17gcc_c_symbol_kindyS3_yS3_j global_trees 843
_Z17plugin_build_declPN10cc1_plugin10connectionEPKc17gcc_c_symbol_kindyS3_yS3_j xstrdup 868
_Z17plugin_build_declPN10cc1_plugin10connectionEPKc17gcc_c_symbol_kindyS3_yS3_j _Z11fancy_abortPKciS0_ 904
_Z21plugin_build_constantPN10cc1_plugin10connectionEyPKcmS3_j _Z13build_int_cstP9tree_node8poly_intILj1ElE 36
_Z21plugin_build_constantPN10cc1_plugin10connectionEyPKcmS3_j _Z20build_qualified_typeP9tree_nodei 58
_Z21plugin_build_constantPN10cc1_plugin10connectionEyPKcmS3_j _Z14get_identifierPKc 69
_Z21plugin_build_constantPN10cc1_plugin10connectionEyPKcmS3_j htab_hash_string 92
_Z21plugin_build_constantPN10cc1_plugin10connectionEyPKcmS3_j _ZN10hash_tableI13string_hasher11xcallocatorE19find_slot_with_hashERKPKcj13insert_option 114
_Z21plugin_build_constantPN10cc1_plugin10connectionEyPKcmS3_j line_table 136
_Z21plugin_build_constantPN10cc1_plugin10connectionEyPKcmS3_j _Z11linemap_addP9line_maps9lc_reasonjPKcj 148
_Z21plugin_build_constantPN10cc1_plugin10connectionEyPKcmS3_j line_table 155
_Z21plugin_build_constantPN10cc1_plugin10connectionEyPKcmS3_j _Z18linemap_line_startP9line_mapsjj 165
_Z21plugin_build_constantPN10cc1_plugin10connectionEyPKcmS3_j line_table 172
_Z21plugin_build_constantPN10cc1_plugin10connectionEyPKcmS3_j _Z11linemap_addP9line_maps9lc_reasonjPKcj 191
_Z21plugin_build_constantPN10cc1_plugin10connectionEyPKcmS3_j _Z10build_declj9tree_codeP9tree_nodeS1_ 209
_Z21plugin_build_constantPN10cc1_plugin10connectionEyPKcmS3_j _Z14cp_finish_declP9tree_nodeS0_bS0_i 244
_Z21plugin_build_constantPN10cc1_plugin10connectionEyPKcmS3_j cp_binding_oracle 251
_Z21plugin_build_constantPN10cc1_plugin10connectionEyPKcmS3_j cp_binding_oracle 263
_Z21plugin_build_constantPN10cc1_plugin10connectionEyPKcmS3_j _Z8pushdeclP9tree_nodeb 272
_Z21plugin_build_constantPN10cc1_plugin10connectionEyPKcmS3_j cp_binding_oracle 279
_Z21plugin_build_constantPN10cc1_plugin10connectionEyPKcmS3_j xstrdup 310
_Z14plugin_tagbindPN10cc1_plugin10connectionEPKcyS3_j _Z14get_identifierPKc 28
_Z14plugin_tagbindPN10cc1_plugin10connectionEPKcyS3_j htab_hash_string 51
_Z14plugin_tagbindPN10cc1_plugin10connectionEPKcyS3_j _ZN10hash_tableI13string_hasher11xcallocatorE19find_slot_with_hashERKPKcj13insert_option 73
_Z14plugin_tagbindPN10cc1_plugin10connectionEPKcyS3_j line_table 91
_Z14plugin_tagbindPN10cc1_plugin10connectionEPKcyS3_j _Z11linemap_addP9line_maps9lc_reasonjPKcj 103
_Z14plugin_tagbindPN10cc1_plugin10connectionEPKcyS3_j line_table 110
_Z14plugin_tagbindPN10cc1_plugin10connectionEPKcyS3_j _Z18linemap_line_startP9line_mapsjj 120
_Z14plugin_tagbindPN10cc1_plugin10connectionEPKcyS3_j line_table 127
_Z14plugin_tagbindPN10cc1_plugin10connectionEPKcyS3_j _Z11linemap_addP9line_maps9lc_reasonjPKcj 146
_Z14plugin_tagbindPN10cc1_plugin10connectionEPKcyS3_j _Z9c_pushtagjP9tree_nodeS0_ 159
_Z14plugin_tagbindPN10cc1_plugin10connectionEPKcyS3_j xstrdup 217
_ZN14plugin_contextC1Ei,_ZN14plugin_contextC2Ei _ZTVN10cc1_plugin10connectionE 10
_ZN14plugin_contextC1Ei,_ZN14plugin_contextC2Ei _ZN10cc1_plugin9callbacksC1Ev 29
_ZN14plugin_contextC1Ei,_ZN14plugin_contextC2Ei _ZTV14plugin_context 36
_ZN14plugin_contextC1Ei,_ZN14plugin_contextC2Ei _Z29hash_table_higher_prime_indexm 84
_ZN14plugin_contextC1Ei,_ZN14plugin_contextC2Ei prime_tab 104
_ZN14plugin_contextC1Ei,_ZN14plugin_contextC2Ei xcalloc 112
_ZN14plugin_contextC1Ei,_ZN14plugin_contextC2Ei _Z29hash_table_higher_prime_indexm 201
_ZN14plugin_contextC1Ei,_ZN14plugin_contextC2Ei prime_tab 221
_ZN14plugin_contextC1Ei,_ZN14plugin_contextC2Ei xcalloc 229
_ZN14plugin_contextC1Ei,_ZN14plugin_contextC2Ei _Z29hash_table_higher_prime_indexm 331
_ZN14plugin_contextC1Ei,_ZN14plugin_contextC2Ei prime_tab 351
_ZN14plugin_contextC1Ei,_ZN14plugin_contextC2Ei xcalloc 359
_ZN14plugin_contextC1Ei,_ZN14plugin_contextC2Ei _ZN10cc1_plugin10connectionD2Ev 423
_ZN14plugin_contextC1Ei,_ZN14plugin_contextC2Ei _Unwind_Resume 431
_ZN14plugin_contextC1Ei,_ZN14plugin_contextC2Ei _ZN10hash_tableI15nofree_ptr_hashI9tree_nodeE11xcallocatorED1Ev 443
_ZN14plugin_contextC1Ei,_ZN14plugin_contextC2Ei _ZN10hash_tableI16decl_addr_hasher11xcallocatorED1Ev 452
plugin_init __errno_location 91
plugin_init strtol 116
plugin_init _Znwm 161
plugin_init _ZN14plugin_contextC2Ei 175
plugin_init _ZN10cc1_plugin10connection7requireEc 195
plugin_init input_location 209
plugin_init _Z11fatal_errorjPKcz 221
plugin_init input_location 238
plugin_init _Z11fatal_errorjPKcz 250
plugin_init _ZN10cc1_plugin18unmarshall_intlikeEPNS_10connectionEPy 269
plugin_init register_callback 306
plugin_init register_callback 327
plugin_init register_callback 348
plugin_init _ZN10cc1_plugin8callbackIiPKcXadL_Z21plugin_push_namespacePNS_10connectionES2_EEEENS_6statusES4_ 360
plugin_init lang_hooks 372
plugin_init _ZN10cc1_plugin9callbacks12add_callbackEPKcPFNS_6statusEPNS_10connectionEE 385
plugin_init _ZN10cc1_plugin8callbackIiyXadL_Z17plugin_push_classPNS_10connectionEyEEEENS_6statusES2_ 397
plugin_init _ZN10cc1_plugin9callbacks12add_callbackEPKcPFNS_6statusEPNS_10connectionEE 411
plugin_init _ZN10cc1_plugin8callbackIiyXadL_Z20plugin_push_functionPNS_10connectionEyEEEENS_6statusES2_ 423
plugin_init _ZN10cc1_plugin9callbacks12add_callbackEPKcPFNS_6statusEPNS_10connectionEE 437
plugin_init _ZN10cc1_plugin8callbackIiyyXadL_Z22plugin_reactivate_declPNS_10connectionEyyEEEENS_6statusES2_ 449
plugin_init _ZN10cc1_plugin9callbacks12add_callbackEPKcPFNS_6statusEPNS_10connectionEE 463
plugin_init _ZN10cc1_plugin8callbackIiXadL_Z24plugin_pop_binding_levelPNS_10connectionEEEEENS_6statusES2_ 475
plugin_init _ZN10cc1_plugin9callbacks12add_callbackEPKcPFNS_6statusEPNS_10connectionEE 489
plugin_init _ZN10cc1_plugin8callbackIyXadL_Z37plugin_get_current_binding_level_declPNS_10connectionEEEEENS_6statusES2_ 501
plugin_init _ZN10cc1_plugin9callbacks12add_callbackEPKcPFNS_6statusEPNS_10connectionEE 515
plugin_init _ZN10cc1_plugin8callbackIiXadL_Z28plugin_make_namespace_inlinePNS_10connectionEEEEENS_6statusES2_ 527
plugin_init _ZN10cc1_plugin9callbacks12add_callbackEPKcPFNS_6statusEPNS_10connectionEE 541
plugin_init _ZN10cc1_plugin8callbackIiyXadL_Z26plugin_add_using_namespacePNS_10connectionEyEEEENS_6statusES2_ 553
plugin_init _ZN10cc1_plugin9callbacks12add_callbackEPKcPFNS_6statusEPNS_10connectionEE 567
plugin_init _ZN10cc1_plugin8callbackIiPKcyXadL_Z26plugin_add_namespace_aliasPNS_10connectionES2_yEEEENS_6statusES4_ 579
plugin_init _ZN10cc1_plugin9callbacks12add_callbackEPKcPFNS_6statusEPNS_10connectionEE 593
plugin_init _ZN10cc1_plugin8callbackIi18gcc_cp_symbol_kindyXadL_Z21plugin_add_using_declPNS_10connectionES1_yEEEENS_6statusES3_ 605
plugin_init _ZN10cc1_plugin9callbacks12add_callbackEPKcPFNS_6statusEPNS_10connectionEE 619
plugin_init _ZN10cc1_plugin8callbackIyPKc18gcc_cp_symbol_kindyS2_yS2_jXadL_Z17plugin_build_declPNS_10connectionES2_S3_yS2_yS2_jEEEENS_6statusES5_ 631
plugin_init _ZN10cc1_plugin9callbacks12add_callbackEPKcPFNS_6statusEPNS_10connectionEE 645
plugin_init _ZN10cc1_plugin8callbackIyPKcyyXadL_Z25plugin_define_cdtor_clonePNS_10connectionES2_yyEEEENS_6statusES4_ 657
plugin_init _ZN10cc1_plugin9callbacks12add_callbackEPKcPFNS_6statusEPNS_10connectionEE 671
plugin_init _ZN10cc1_plugin8callbackIyyXadL_Z20plugin_get_decl_typePNS_10connectionEyEEEENS_6statusES2_ 683
plugin_init _ZN10cc1_plugin9callbacks12add_callbackEPKcPFNS_6statusEPNS_10connectionEE 697
plugin_init _ZN10cc1_plugin8callbackIyyXadL_Z20plugin_get_type_declPNS_10connectionEyEEEENS_6statusES2_ 709
plugin_init _ZN10cc1_plugin9callbacks12add_callbackEPKcPFNS_6statusEPNS_10connectionEE 723
plugin_init _ZN10cc1_plugin8callbackIiyyXadL_Z17plugin_add_friendPNS_10connectionEyyEEEENS_6statusES2_ 735
plugin_init _ZN10cc1_plugin9callbacks12add_callbackEPKcPFNS_6statusEPNS_10connectionEE 749
plugin_init _ZN10cc1_plugin8callbackIyyXadL_Z25plugin_build_pointer_typePNS_10connectionEyEEEENS_6statusES2_ 761
plugin_init _ZN10cc1_plugin9callbacks12add_callbackEPKcPFNS_6statusEPNS_10connectionEE 775
plugin_init _ZN10cc1_plugin8callbackIyy21gcc_cp_ref_qualifiersXadL_Z27plugin_build_reference_typePNS_10connectionEyS1_EEEENS_6statusES3_ 787
plugin_init _ZN10cc1_plugin9callbacks12add_callbackEPKcPFNS_6statusEPNS_10connectionEE 801
plugin_init _ZN10cc1_plugin8callbackIyyyXadL_Z35plugin_build_pointer_to_member_typePNS_10connectionEyyEEEENS_6statusES2_ 813
plugin_init _ZN10cc1_plugin9callbacks12add_callbackEPKcPFNS_6statusEPNS_10connectionEE 827
plugin_init _ZN10cc1_plugin8callbackIiXadL_Z26plugin_start_template_declPNS_10connectionEEEEENS_6statusES2_ 839
plugin_init _ZN10cc1_plugin9callbacks12add_callbackEPKcPFNS_6statusEPNS_10connectionEE 853
plugin_init _ZN10cc1_plugin8callbackIyPKciyS2_jXadL_Z36plugin_build_type_template_parameterPNS_10connectionES2_iyS2_jEEEENS_6statusES4_ 865
plugin_init _ZN10cc1_plugin9callbacks12add_callbackEPKcPFNS_6statusEPNS_10connectionEE 879
plugin_init _ZN10cc1_plugin8callbackIyPKciyS2_jXadL_Z40plugin_build_template_template_parameterPNS_10connectionES2_iyS2_jEEEENS_6statusES4_ 891
plugin_init _ZN10cc1_plugin9callbacks12add_callbackEPKcPFNS_6statusEPNS_10connectionEE 905
plugin_init _ZN10cc1_plugin8callbackIyyPKcyS2_jXadL_Z37plugin_build_value_template_parameterPNS_10connectionEyS2_yS2_jEEEENS_6statusES4_ 917
plugin_init _ZN10cc1_plugin9callbacks12add_callbackEPKcPFNS_6statusEPNS_10connectionEE 931
plugin_init _ZN10cc1_plugin8callbackIyyPKcPK20gcc_cp_template_argsXadL_Z31plugin_build_dependent_typenamePNS_10connectionEyS2_S5_EEEENS_6statusES7_ 943
plugin_init _ZN10cc1_plugin9callbacks12add_callbackEPKcPFNS_6statusEPNS_10connectionEE 957
plugin_init _ZN10cc1_plugin8callbackIyyPKcXadL_Z37plugin_build_dependent_class_templatePNS_10connectionEyS2_EEEENS_6statusES4_ 969
plugin_init _ZN10cc1_plugin9callbacks12add_callbackEPKcPFNS_6statusEPNS_10connectionEE 983
plugin_init _ZN10cc1_plugin8callbackIyyPK20gcc_cp_template_argsXadL_Z39plugin_build_dependent_type_template_idPNS_10connectionEyS3_EEEENS_6statusES5_ 995
plugin_init _ZN10cc1_plugin9callbacks12add_callbackEPKcPFNS_6statusEPNS_10connectionEE 1009
plugin_init _ZN10cc1_plugin8callbackIyy18gcc_cp_symbol_kindPKcyPK20gcc_cp_template_argsXadL_Z27plugin_build_dependent_exprPNS_10connectionEyS1_S3_yS6_EEEENS_6statusES8_ 1021
plugin_init _ZN10cc1_plugin9callbacks12add_callbackEPKcPFNS_6statusEPNS_10connectionEE 1035
plugin_init _ZN10cc1_plugin8callbackIyymXadL_Z25plugin_build_literal_exprPNS_10connectionEymEEEENS_6statusES2_ 1047
plugin_init _ZN10cc1_plugin9callbacks12add_callbackEPKcPFNS_6statusEPNS_10connectionEE 1061
plugin_init _ZN10cc1_plugin8callbackIyyiXadL_Z22plugin_build_decl_exprPNS_10connectionEyiEEEENS_6statusES2_ 1073
plugin_init _ZN10cc1_plugin9callbacks12add_callbackEPKcPFNS_6statusEPNS_10connectionEE 1087
plugin_init _ZN10cc1_plugin8callbackIyPKcyXadL_Z23plugin_build_unary_exprPNS_10connectionES2_yEEEENS_6statusES4_ 1099
plugin_init _ZN10cc1_plugin9callbacks12add_callbackEPKcPFNS_6statusEPNS_10connectionEE 1113
plugin_init _ZN10cc1_plugin8callbackIyPKcyyXadL_Z24plugin_build_binary_exprPNS_10connectionES2_yyEEEENS_6statusES4_ 1125
plugin_init _ZN10cc1_plugin9callbacks12add_callbackEPKcPFNS_6statusEPNS_10connectionEE 1139
plugin_init _ZN10cc1_plugin8callbackIyPKcyyyXadL_Z25plugin_build_ternary_exprPNS_10connectionES2_yyyEEEENS_6statusES4_ 1151
plugin_init _ZN10cc1_plugin9callbacks12add_callbackEPKcPFNS_6statusEPNS_10connectionEE 1165
plugin_init _ZN10cc1_plugin8callbackIyPKcyXadL_Z28plugin_build_unary_type_exprPNS_10connectionES2_yEEEENS_6statusES4_ 1177
plugin_init _ZN10cc1_plugin9callbacks12add_callbackEPKcPFNS_6statusEPNS_10connectionEE 1191
plugin_init _ZN10cc1_plugin8callbackIyPKcyyXadL_Z22plugin_build_cast_exprPNS_10connectionES2_yyEEEENS_6statusES4_ 1203
plugin_init _ZN10cc1_plugin9callbacks12add_callbackEPKcPFNS_6statusEPNS_10connectionEE 1217
plugin_init _ZN10cc1_plugin8callbackIyPKcyPK20gcc_cp_function_argsXadL_Z33plugin_build_expression_list_exprPNS_10connectionES2_yS5_EEEENS_6statusES7_ 1229
plugin_init _ZN10cc1_plugin9callbacks12add_callbackEPKcPFNS_6statusEPNS_10connectionEE 1243
plugin_init _ZN10cc1_plugin8callbackIyPKcPK20gcc_cp_function_argsyS5_XadL_Z21plugin_build_new_exprPNS_10connectionES2_S5_yS5_EEEENS_6statusES7_ 1255
plugin_init _ZN10cc1_plugin9callbacks12add_callbackEPKcPFNS_6statusEPNS_10connectionEE 1269
plugin_init _ZN10cc1_plugin8callbackIyyiPK20gcc_cp_function_argsXadL_Z22plugin_build_call_exprPNS_10connectionEyiS3_EEEENS_6statusES5_ 1281
plugin_init _ZN10cc1_plugin9callbacks12add_callbackEPKcPFNS_6statusEPNS_10connectionEE 1295
plugin_init _ZN10cc1_plugin8callbackIyyXadL_Z20plugin_get_expr_typePNS_10connectionEyEEEENS_6statusES2_ 1307
plugin_init _ZN10cc1_plugin9callbacks12add_callbackEPKcPFNS_6statusEPNS_10connectionEE 1321
plugin_init _ZN10cc1_plugin8callbackIyyPK20gcc_cp_template_argsyPKcjXadL_Z45plugin_build_function_template_specializationPNS_10connectionEyS3_yS5_jEEEENS_6statusES7_ 1333
plugin_init _ZN10cc1_plugin9callbacks12add_callbackEPKcPFNS_6statusEPNS_10connectionEE 1347
plugin_init _ZN10cc1_plugin8callbackIyyPK20gcc_cp_template_argsPKcjXadL_Z42plugin_build_class_template_specializationPNS_10connectionEyS3_S5_jEEEENS_6statusES7_ 1359
plugin_init _ZN10cc1_plugin9callbacks12add_callbackEPKcPFNS_6statusEPNS_10connectionEE 1373
plugin_init _ZN10cc1_plugin8callbackIyyPK15gcc_vbase_arrayPKcjXadL_Z23plugin_start_class_typePNS_10connectionEyS3_S5_jEEEENS_6statusES7_ 1385
plugin_init _ZN10cc1_plugin9callbacks12add_callbackEPKcPFNS_6statusEPNS_10connectionEE 1399
plugin_init _ZN10cc1_plugin8callbackIyiy18gcc_cp_symbol_kindPKcjXadL_Z31plugin_start_closure_class_typePNS_10connectionEiyS1_S3_jEEEENS_6statusES5_ 1411
plugin_init _ZN10cc1_plugin9callbacks12add_callbackEPKcPFNS_6statusEPNS_10connectionEE 1425
plugin_init _ZN10cc1_plugin8callbackIyPKcy18gcc_cp_symbol_kindmmXadL_Z18plugin_build_fieldPNS_10connectionES2_yS3_mmEEEENS_6statusES5_ 1437
plugin_init _ZN10cc1_plugin9callbacks12add_callbackEPKcPFNS_6statusEPNS_10connectionEE 1451
plugin_init _ZN10cc1_plugin8callbackIimXadL_Z24plugin_finish_class_typePNS_10connectionEmEEEENS_6statusES2_ 1463
plugin_init _ZN10cc1_plugin9callbacks12add_callbackEPKcPFNS_6statusEPNS_10connectionEE 1477
plugin_init _ZN10cc1_plugin8callbackIyPKcy18gcc_cp_symbol_kindS2_jXadL_Z22plugin_start_enum_typePNS_10connectionES2_yS3_S2_jEEEENS_6statusES5_ 1489
plugin_init _ZN10cc1_plugin9callbacks12add_callbackEPKcPFNS_6statusEPNS_10connectionEE 1503
plugin_init _ZN10cc1_plugin8callbackIyyPKcmXadL_Z26plugin_build_enum_constantPNS_10connectionEyS2_mEEEENS_6statusES4_ 1515
plugin_init _ZN10cc1_plugin9callbacks12add_callbackEPKcPFNS_6statusEPNS_10connectionEE 1529
plugin_init _ZN10cc1_plugin8callbackIiyXadL_Z23plugin_finish_enum_typePNS_10connectionEyEEEENS_6statusES2_ 1541
plugin_init _ZN10cc1_plugin9callbacks12add_callbackEPKcPFNS_6statusEPNS_10connectionEE 1555
plugin_init _ZN10cc1_plugin8callbackIyyPK14gcc_type_arrayiXadL_Z26plugin_build_function_typePNS_10connectionEyS3_iEEEENS_6statusES5_ 1567
plugin_init _ZN10cc1_plugin9callbacks12add_callbackEPKcPFNS_6statusEPNS_10connectionEE 1581
plugin_init _ZN10cc1_plugin8callbackIyyPK14gcc_type_arrayXadL_Z35plugin_build_exception_spec_variantPNS_10connectionEyS3_EEEENS_6statusES5_ 1593
plugin_init _ZN10cc1_plugin9callbacks12add_callbackEPKcPFNS_6statusEPNS_10connectionEE 1607
plugin_init _ZN10cc1_plugin8callbackIyyy17gcc_cp_qualifiers21gcc_cp_ref_qualifiersXadL_Z24plugin_build_method_typePNS_10connectionEyyS1_S2_EEEENS_6statusES4_ 1619
plugin_init _ZN10cc1_plugin9callbacks12add_callbackEPKcPFNS_6statusEPNS_10connectionEE 1633
plugin_init _ZN10cc1_plugin8callbackIyyiXadL_Z34plugin_get_function_parameter_declPNS_10connectionEyiEEEENS_6statusES2_ 1645
plugin_init _ZN10cc1_plugin9callbacks12add_callbackEPKcPFNS_6statusEPNS_10connectionEE 1659
plugin_init _ZN10cc1_plugin8callbackIyyXadL_Z24plugin_build_lambda_exprPNS_10connectionEyEEEENS_6statusES2_ 1671
plugin_init _ZN10cc1_plugin9callbacks12add_callbackEPKcPFNS_6statusEPNS_10connectionEE 1685
plugin_init _ZN10cc1_plugin8callbackIyimPKcXadL_Z19plugin_get_int_typePNS_10connectionEimS2_EEEENS_6statusES4_ 1697
plugin_init _ZN10cc1_plugin9callbacks12add_callbackEPKcPFNS_6statusEPNS_10connectionEE 1711
plugin_init _ZN10cc1_plugin8callbackIyXadL_Z20plugin_get_char_typePNS_10connectionEEEEENS_6statusES2_ 1723
plugin_init _ZN10cc1_plugin9callbacks12add_callbackEPKcPFNS_6statusEPNS_10connectionEE 1737
plugin_init _ZN10cc1_plugin8callbackIymPKcXadL_Z21plugin_get_float_typePNS_10connectionEmS2_EEEENS_6statusES4_ 1749
plugin_init _ZN10cc1_plugin9callbacks12add_callbackEPKcPFNS_6statusEPNS_10connectionEE 1763
plugin_init _ZN10cc1_plugin8callbackIyXadL_Z20plugin_get_void_typePNS_10connectionEEEEENS_6statusES2_ 1775
plugin_init _ZN10cc1_plugin9callbacks12add_callbackEPKcPFNS_6statusEPNS_10connectionEE 1789
plugin_init _ZN10cc1_plugin8callbackIyXadL_Z20plugin_get_bool_typePNS_10connectionEEEEENS_6statusES2_ 1801
plugin_init _ZN10cc1_plugin9callbacks12add_callbackEPKcPFNS_6statusEPNS_10connectionEE 1815
plugin_init _ZN10cc1_plugin8callbackIyXadL_Z23plugin_get_nullptr_typePNS_10connectionEEEEENS_6statusES2_ 1827
plugin_init _ZN10cc1_plugin9callbacks12add_callbackEPKcPFNS_6statusEPNS_10connectionEE 1841
plugin_init _ZN10cc1_plugin8callbackIyXadL_Z27plugin_get_nullptr_constantPNS_10connectionEEEEENS_6statusES2_ 1853
plugin_init _ZN10cc1_plugin9callbacks12add_callbackEPKcPFNS_6statusEPNS_10connectionEE 1867
plugin_init _ZN10cc1_plugin8callbackIyyiXadL_Z23plugin_build_array_typePNS_10connectionEyiEEEENS_6statusES2_ 1879
plugin_init _ZN10cc1_plugin9callbacks12add_callbackEPKcPFNS_6statusEPNS_10connectionEE 1893
plugin_init _ZN10cc1_plugin8callbackIyyyXadL_Z33plugin_build_dependent_array_typePNS_10connectionEyyEEEENS_6statusES2_ 1905
plugin_init _ZN10cc1_plugin9callbacks12add_callbackEPKcPFNS_6statusEPNS_10connectionEE 1919
plugin_init _ZN10cc1_plugin8callbackIyyPKcXadL_Z27plugin_build_vla_array_typePNS_10connectionEyS2_EEEENS_6statusES4_ 1931
plugin_init _ZN10cc1_plugin9callbacks12add_callbackEPKcPFNS_6statusEPNS_10connectionEE 1945
plugin_init _ZN10cc1_plugin8callbackIyy17gcc_cp_qualifiersXadL_Z27plugin_build_qualified_typePNS_10connectionEyS1_EEEENS_6statusES3_ 1957
plugin_init _ZN10cc1_plugin9callbacks12add_callbackEPKcPFNS_6statusEPNS_10connectionEE 1971
plugin_init _ZN10cc1_plugin8callbackIyyXadL_Z25plugin_build_complex_typePNS_10connectionEyEEEENS_6statusES2_ 1983
plugin_init _ZN10cc1_plugin9callbacks12add_callbackEPKcPFNS_6statusEPNS_10connectionEE 1997
plugin_init _ZN10cc1_plugin8callbackIyyiXadL_Z24plugin_build_vector_typePNS_10connectionEyiEEEENS_6statusES2_ 2009
plugin_init _ZN10cc1_plugin9callbacks12add_callbackEPKcPFNS_6statusEPNS_10connectionEE 2023
plugin_init _ZN10cc1_plugin8callbackIiyPKcmS2_jXadL_Z21plugin_build_constantPNS_10connectionEyS2_mS2_jEEEENS_6statusES4_ 2035
plugin_init _ZN10cc1_plugin9callbacks12add_callbackEPKcPFNS_6statusEPNS_10connectionEE 2049
plugin_init _ZN10cc1_plugin8callbackIyPKcXadL_Z12plugin_errorPNS_10connectionES2_EEEENS_6statusES4_ 2061
plugin_init _ZN10cc1_plugin9callbacks12add_callbackEPKcPFNS_6statusEPNS_10connectionEE 2075
plugin_init _ZN10cc1_plugin8callbackIiyPKcS2_jXadL_Z24plugin_add_static_assertPNS_10connectionEyS2_S2_jEEEENS_6statusES4_ 2087
plugin_init _ZN10cc1_plugin9callbacks12add_callbackEPKcPFNS_6statusEPNS_10connectionEE 2101
plugin_init input_location 2124
plugin_init _Z11fatal_errorjPKcz 2136
plugin_init input_location 2146
plugin_init _Z11fatal_errorjPKcz 2158
plugin_init _ZdlPv 2169
plugin_init _Unwind_Resume 2177
_ZN21mem_alloc_descriptionI9mem_usageE25release_instance_overheadEPvmb.part.73 _Z11fancy_abortPKciS0_ 17
_ZN10cc1_plugin8callbackIyPKcXadL_Z12plugin_errorPNS_10connectionES2_EEEENS_6statusES4_ _ZN10cc1_plugin16unmarshall_checkEPNS_10connectionEy 23
_ZN10cc1_plugin8callbackIyPKcXadL_Z12plugin_errorPNS_10connectionES2_EEEENS_6statusES4_ _ZdaPv 43
_ZN10cc1_plugin8callbackIyPKcXadL_Z12plugin_errorPNS_10connectionES2_EEEENS_6statusES4_ _ZN10cc1_plugin10unmarshallEPNS_10connectionEPPc 71
_ZN10cc1_plugin8callbackIyPKcXadL_Z12plugin_errorPNS_10connectionES2_EEEENS_6statusES4_ _Z5errorPKcz 91
_ZN10cc1_plugin8callbackIyPKcXadL_Z12plugin_errorPNS_10connectionES2_EEEENS_6statusES4_ global_trees 106
_ZN10cc1_plugin8callbackIyPKcXadL_Z12plugin_errorPNS_10connectionES2_EEEENS_6statusES4_ _ZN10cc1_plugin10connection4sendEc 111
_ZN10cc1_plugin8callbackIyPKcXadL_Z12plugin_errorPNS_10connectionES2_EEEENS_6statusES4_ _ZN10cc1_plugin16marshall_intlikeEPNS_10connectionEy 126
_ZN10cc1_plugin8callbackIyPKcXadL_Z12plugin_errorPNS_10connectionES2_EEEENS_6statusES4_ _ZdaPv 147
_ZN10cc1_plugin8callbackIyPKcXadL_Z12plugin_errorPNS_10connectionES2_EEEENS_6statusES4_ _Unwind_Resume 155
_ZN10cc1_plugin8callbackIyyXadL_Z25plugin_build_pointer_typePNS_10connectionEyEEEENS_6statusES2_ _ZN10cc1_plugin16unmarshall_checkEPNS_10connectionEy 15
_ZN10cc1_plugin8callbackIyyXadL_Z25plugin_build_pointer_typePNS_10connectionEyEEEENS_6statusES2_ _ZN10cc1_plugin18unmarshall_intlikeEPNS_10connectionEPy 41
_ZN10cc1_plugin8callbackIyyXadL_Z25plugin_build_pointer_typePNS_10connectionEyEEEENS_6statusES2_ _Z18build_pointer_typeP9tree_node 55
_ZN10cc1_plugin8callbackIyyXadL_Z25plugin_build_pointer_typePNS_10connectionEyEEEENS_6statusES2_ _ZN10cc1_plugin10connection4sendEc 71
_ZN10cc1_plugin8callbackIyyXadL_Z25plugin_build_pointer_typePNS_10connectionEyEEEENS_6statusES2_ _ZN10cc1_plugin16marshall_intlikeEPNS_10connectionEy 86
_ZN10cc1_plugin8callbackIymXadL_Z20plugin_float_type_v0PNS_10connectionEmEEEENS_6statusES2_ _ZN10cc1_plugin16unmarshall_checkEPNS_10connectionEy 15
_ZN10cc1_plugin8callbackIymXadL_Z20plugin_float_type_v0PNS_10connectionEmEEEENS_6statusES2_ _ZN10cc1_plugin18unmarshall_intlikeEPNS_10connectionEPy 41
_ZN10cc1_plugin8callbackIymXadL_Z20plugin_float_type_v0PNS_10connectionEmEEEENS_6statusES2_ global_trees 52
_ZN10cc1_plugin8callbackIymXadL_Z20plugin_float_type_v0PNS_10connectionEmEEEENS_6statusES2_ global_trees 83
_ZN10cc1_plugin8callbackIymXadL_Z20plugin_float_type_v0PNS_10connectionEmEEEENS_6statusES2_ global_trees 105
_ZN10cc1_plugin8callbackIymXadL_Z20plugin_float_type_v0PNS_10connectionEmEEEENS_6statusES2_ global_trees 126
_ZN10cc1_plugin8callbackIymXadL_Z20plugin_float_type_v0PNS_10connectionEmEEEENS_6statusES2_ _ZN10cc1_plugin10connection4sendEc 142
_ZN10cc1_plugin8callbackIymXadL_Z20plugin_float_type_v0PNS_10connectionEmEEEENS_6statusES2_ _ZN10cc1_plugin16marshall_intlikeEPNS_10connectionEy 157
_ZN10cc1_plugin8callbackIyXadL_Z16plugin_char_typePNS_10connectionEEEEENS_6statusES2_ _ZN10cc1_plugin16unmarshall_checkEPNS_10connectionEy 12
_ZN10cc1_plugin8callbackIyXadL_Z16plugin_char_typePNS_10connectionEEEEENS_6statusES2_ integer_types 43
_ZN10cc1_plugin8callbackIyXadL_Z16plugin_char_typePNS_10connectionEEEEENS_6statusES2_ _ZN10cc1_plugin10connection4sendEc 48
_ZN10cc1_plugin8callbackIyXadL_Z16plugin_char_typePNS_10connectionEEEEENS_6statusES2_ _ZN10cc1_plugin16marshall_intlikeEPNS_10connectionEy 69
_ZN10cc1_plugin8callbackIyXadL_Z16plugin_bool_typePNS_10connectionEEEEENS_6statusES2_ _ZN10cc1_plugin16unmarshall_checkEPNS_10connectionEy 12
_ZN10cc1_plugin8callbackIyXadL_Z16plugin_bool_typePNS_10connectionEEEEENS_6statusES2_ global_trees 43
_ZN10cc1_plugin8callbackIyXadL_Z16plugin_bool_typePNS_10connectionEEEEENS_6statusES2_ _ZN10cc1_plugin10connection4sendEc 48
_ZN10cc1_plugin8callbackIyXadL_Z16plugin_bool_typePNS_10connectionEEEEENS_6statusES2_ _ZN10cc1_plugin16marshall_intlikeEPNS_10connectionEy 69
_ZN10cc1_plugin8callbackIyXadL_Z16plugin_void_typePNS_10connectionEEEEENS_6statusES2_ _ZN10cc1_plugin16unmarshall_checkEPNS_10connectionEy 12
_ZN10cc1_plugin8callbackIyXadL_Z16plugin_void_typePNS_10connectionEEEEENS_6statusES2_ global_trees 43
_ZN10cc1_plugin8callbackIyXadL_Z16plugin_void_typePNS_10connectionEEEEENS_6statusES2_ _ZN10cc1_plugin10connection4sendEc 48
_ZN10cc1_plugin8callbackIyXadL_Z16plugin_void_typePNS_10connectionEEEEENS_6statusES2_ _ZN10cc1_plugin16marshall_intlikeEPNS_10connectionEy 69
_ZN10cc1_plugin8callbackIiyiXadL_Z11plugin_bindPNS_10connectionEyiEEEENS_6statusES2_ _ZN10cc1_plugin16unmarshall_checkEPNS_10connectionEy 15
_ZN10cc1_plugin8callbackIiyiXadL_Z11plugin_bindPNS_10connectionEyiEEEENS_6statusES2_ _ZN10cc1_plugin18unmarshall_intlikeEPNS_10connectionEPy 41
_ZN10cc1_plugin8callbackIiyiXadL_Z11plugin_bindPNS_10connectionEyiEEEENS_6statusES2_ _ZN10cc1_plugin18unmarshall_intlikeEPNS_10connectionEPy 63
_ZN10cc1_plugin8callbackIiyiXadL_Z11plugin_bindPNS_10connectionEyiEEEENS_6statusES2_ _Z11plugin_bindPN10cc1_plugin10connectionEyi 82
_ZN10cc1_plugin8callbackIiyiXadL_Z11plugin_bindPNS_10connectionEyiEEEENS_6statusES2_ _ZN10cc1_plugin10connection4sendEc 97
_ZN10cc1_plugin8callbackIiyiXadL_Z11plugin_bindPNS_10connectionEyiEEEENS_6statusES2_ _ZN10cc1_plugin16marshall_intlikeEPNS_10connectionEy 112
_ZN10cc1_plugin8callbackIiyPKcymmXadL_Z22plugin_build_add_fieldPNS_10connectionEyS2_ymmEEEENS_6statusES4_ _ZN10cc1_plugin16unmarshall_checkEPNS_10connectionEy 29
_ZN10cc1_plugin8callbackIiyPKcymmXadL_Z22plugin_build_add_fieldPNS_10connectionEyS2_ymmEEEENS_6statusES4_ _ZdaPv 49
_ZN10cc1_plugin8callbackIiyPKcymmXadL_Z22plugin_build_add_fieldPNS_10connectionEyS2_ymmEEEENS_6statusES4_ _ZN10cc1_plugin18unmarshall_intlikeEPNS_10connectionEPy 81
_ZN10cc1_plugin8callbackIiyPKcymmXadL_Z22plugin_build_add_fieldPNS_10connectionEyS2_ymmEEEENS_6statusES4_ _ZN10cc1_plugin10unmarshallEPNS_10connectionEPPc 103
_ZN10cc1_plugin8callbackIiyPKcymmXadL_Z22plugin_build_add_fieldPNS_10connectionEyS2_ymmEEEENS_6statusES4_ _ZN10cc1_plugin18unmarshall_intlikeEPNS_10connectionEPy 120
_ZN10cc1_plugin8callbackIiyPKcymmXadL_Z22plugin_build_add_fieldPNS_10connectionEyS2_ymmEEEENS_6statusES4_ _ZN10cc1_plugin18unmarshall_intlikeEPNS_10connectionEPy 144
_ZN10cc1_plugin8callbackIiyPKcymmXadL_Z22plugin_build_add_fieldPNS_10connectionEyS2_ymmEEEENS_6statusES4_ _ZN10cc1_plugin18unmarshall_intlikeEPNS_10connectionEPy 168
_ZN10cc1_plugin8callbackIiyPKcymmXadL_Z22plugin_build_add_fieldPNS_10connectionEyS2_ymmEEEENS_6statusES4_ _Z22plugin_build_add_fieldPN10cc1_plugin10connectionEyPKcymm 204
_ZN10cc1_plugin8callbackIiyPKcymmXadL_Z22plugin_build_add_fieldPNS_10connectionEyS2_ymmEEEENS_6statusES4_ _ZN10cc1_plugin10connection4sendEc 219
_ZN10cc1_plugin8callbackIiyPKcymmXadL_Z22plugin_build_add_fieldPNS_10connectionEyS2_ymmEEEENS_6statusES4_ _ZN10cc1_plugin16marshall_intlikeEPNS_10connectionEy 238
_ZN10cc1_plugin8callbackIiyPKcymmXadL_Z22plugin_build_add_fieldPNS_10connectionEyS2_ymmEEEENS_6statusES4_ _ZdaPv 262
_ZN10cc1_plugin8callbackIiyPKcymmXadL_Z22plugin_build_add_fieldPNS_10connectionEyS2_ymmEEEENS_6statusES4_ _Unwind_Resume 270
_ZN10cc1_plugin8callbackIiymXadL_Z29plugin_finish_record_or_unionPNS_10connectionEymEEEENS_6statusES2_ _ZN10cc1_plugin16unmarshall_checkEPNS_10connectionEy 15
_ZN10cc1_plugin8callbackIiymXadL_Z29plugin_finish_record_or_unionPNS_10connectionEymEEEENS_6statusES2_ _ZN10cc1_plugin18unmarshall_intlikeEPNS_10connectionEPy 41
_ZN10cc1_plugin8callbackIiymXadL_Z29plugin_finish_record_or_unionPNS_10connectionEymEEEENS_6statusES2_ _ZN10cc1_plugin18unmarshall_intlikeEPNS_10connectionEPy 63
_ZN10cc1_plugin8callbackIiymXadL_Z29plugin_finish_record_or_unionPNS_10connectionEymEEEENS_6statusES2_ _Z29plugin_finish_record_or_unionPN10cc1_plugin10connectionEym 83
_ZN10cc1_plugin8callbackIiymXadL_Z29plugin_finish_record_or_unionPNS_10connectionEymEEEENS_6statusES2_ _ZN10cc1_plugin10connection4sendEc 98
_ZN10cc1_plugin8callbackIiymXadL_Z29plugin_finish_record_or_unionPNS_10connectionEymEEEENS_6statusES2_ _ZN10cc1_plugin16marshall_intlikeEPNS_10connectionEy 113
_ZN10cc1_plugin8callbackIiyPKcmXadL_Z30plugin_build_add_enum_constantPNS_10connectionEyS2_mEEEENS_6statusES4_ _ZN10cc1_plugin16unmarshall_checkEPNS_10connectionEy 25
_ZN10cc1_plugin8callbackIiyPKcmXadL_Z30plugin_build_add_enum_constantPNS_10connectionEyS2_mEEEENS_6statusES4_ _ZdaPv 45
_ZN10cc1_plugin8callbackIiyPKcmXadL_Z30plugin_build_add_enum_constantPNS_10connectionEyS2_mEEEENS_6statusES4_ _ZN10cc1_plugin18unmarshall_intlikeEPNS_10connectionEPy 73
_ZN10cc1_plugin8callbackIiyPKcmXadL_Z30plugin_build_add_enum_constantPNS_10connectionEyS2_mEEEENS_6statusES4_ _ZN10cc1_plugin10unmarshallEPNS_10connectionEPPc 95
_ZN10cc1_plugin8callbackIiyPKcmXadL_Z30plugin_build_add_enum_constantPNS_10connectionEyS2_mEEEENS_6statusES4_ _ZN10cc1_plugin18unmarshall_intlikeEPNS_10connectionEPy 112
_ZN10cc1_plugin8callbackIiyPKcmXadL_Z30plugin_build_add_enum_constantPNS_10connectionEyS2_mEEEENS_6statusES4_ _Z30plugin_build_add_enum_constantPN10cc1_plugin10connectionEyPKcm 138
_ZN10cc1_plugin8callbackIiyPKcmXadL_Z30plugin_build_add_enum_constantPNS_10connectionEyS2_mEEEENS_6statusES4_ _ZN10cc1_plugin10connection4sendEc 153
_ZN10cc1_plugin8callbackIiyPKcmXadL_Z30plugin_build_add_enum_constantPNS_10connectionEyS2_mEEEENS_6statusES4_ _ZN10cc1_plugin16marshall_intlikeEPNS_10connectionEy 168
_ZN10cc1_plugin8callbackIiyPKcmXadL_Z30plugin_build_add_enum_constantPNS_10connectionEyS2_mEEEENS_6statusES4_ _ZdaPv 192
_ZN10cc1_plugin8callbackIiyPKcmXadL_Z30plugin_build_add_enum_constantPNS_10connectionEyS2_mEEEENS_6statusES4_ _Unwind_Resume 200
_ZN10cc1_plugin8callbackIiyXadL_Z23plugin_finish_enum_typePNS_10connectionEyEEEENS_6statusES2_ _ZN10cc1_plugin16unmarshall_checkEPNS_10connectionEy 15
_ZN10cc1_plugin8callbackIiyXadL_Z23plugin_finish_enum_typePNS_10connectionEyEEEENS_6statusES2_ _ZN10cc1_plugin18unmarshall_intlikeEPNS_10connectionEPy 41
_ZN10cc1_plugin8callbackIiyXadL_Z23plugin_finish_enum_typePNS_10connectionEyEEEENS_6statusES2_ _Z22finish_enum_value_listP9tree_node 58
_ZN10cc1_plugin8callbackIiyXadL_Z23plugin_finish_enum_typePNS_10connectionEyEEEENS_6statusES2_ _Z11finish_enumP9tree_node 66
_ZN10cc1_plugin8callbackIiyXadL_Z23plugin_finish_enum_typePNS_10connectionEyEEEENS_6statusES2_ _ZN10cc1_plugin10connection4sendEc 79
_ZN10cc1_plugin8callbackIiyXadL_Z23plugin_finish_enum_typePNS_10connectionEyEEEENS_6statusES2_ _ZN10cc1_plugin16marshall_intlikeEPNS_10connectionEy 96
_ZN10cc1_plugin8callbackIymPKcXadL_Z17plugin_float_typePNS_10connectionEmS2_EEEENS_6statusES4_ _ZN10cc1_plugin16unmarshall_checkEPNS_10connectionEy 23
_ZN10cc1_plugin8callbackIymPKcXadL_Z17plugin_float_typePNS_10connectionEmS2_EEEENS_6statusES4_ _ZdaPv 43
_ZN10cc1_plugin8callbackIymPKcXadL_Z17plugin_float_typePNS_10connectionEmS2_EEEENS_6statusES4_ _ZN10cc1_plugin18unmarshall_intlikeEPNS_10connectionEPy 73
_ZN10cc1_plugin8callbackIymPKcXadL_Z17plugin_float_typePNS_10connectionEmS2_EEEENS_6statusES4_ _ZN10cc1_plugin10unmarshallEPNS_10connectionEPPc 95
_ZN10cc1_plugin8callbackIymPKcXadL_Z17plugin_float_typePNS_10connectionEmS2_EEEENS_6statusES4_ _Z17plugin_float_typePN10cc1_plugin10connectionEmPKc 114
_ZN10cc1_plugin8callbackIymPKcXadL_Z17plugin_float_typePNS_10connectionEmS2_EEEENS_6statusES4_ _ZN10cc1_plugin10connection4sendEc 130
_ZN10cc1_plugin8callbackIymPKcXadL_Z17plugin_float_typePNS_10connectionEmS2_EEEENS_6statusES4_ _ZN10cc1_plugin16marshall_intlikeEPNS_10connectionEy 145
_ZN10cc1_plugin8callbackIymPKcXadL_Z17plugin_float_typePNS_10connectionEmS2_EEEENS_6statusES4_ _ZdaPv 166
_ZN10cc1_plugin8callbackIymPKcXadL_Z17plugin_float_typePNS_10connectionEmS2_EEEENS_6statusES4_ _Unwind_Resume 174
_ZN10cc1_plugin8callbackIyy14gcc_qualifiersXadL_Z27plugin_build_qualified_typePNS_10connectionEyS1_EEEENS_6statusES3_ _ZN10cc1_plugin16unmarshall_checkEPNS_10connectionEy 15
_ZN10cc1_plugin8callbackIyy14gcc_qualifiersXadL_Z27plugin_build_qualified_typePNS_10connectionEyS1_EEEENS_6statusES3_ _ZN10cc1_plugin18unmarshall_intlikeEPNS_10connectionEPy 41
_ZN10cc1_plugin8callbackIyy14gcc_qualifiersXadL_Z27plugin_build_qualified_typePNS_10connectionEyS1_EEEENS_6statusES3_ _ZN10cc1_plugin18unmarshall_intlikeEPNS_10connectionEPy 63
_ZN10cc1_plugin8callbackIyy14gcc_qualifiersXadL_Z27plugin_build_qualified_typePNS_10connectionEyS1_EEEENS_6statusES3_ _Z27plugin_build_qualified_typePN10cc1_plugin10connectionEy14gcc_qualifiers 82
_ZN10cc1_plugin8callbackIyy14gcc_qualifiersXadL_Z27plugin_build_qualified_typePNS_10connectionEyS1_EEEENS_6statusES3_ _ZN10cc1_plugin10connection4sendEc 98
_ZN10cc1_plugin8callbackIyy14gcc_qualifiersXadL_Z27plugin_build_qualified_typePNS_10connectionEyS1_EEEENS_6statusES3_ _ZN10cc1_plugin16marshall_intlikeEPNS_10connectionEy 113
_ZN10hash_tableI16decl_addr_hasher11xcallocatorE14find_with_hashERKP15decl_addr_valuej prime_tab 32
_ZN10hash_tableI16decl_addr_hasher11xcallocatorE14find_with_hashERKP15decl_addr_valuej prime_tab 39
_ZN10hash_tableI16decl_addr_hasher11xcallocatorE14find_with_hashERKP15decl_addr_valuej prime_tab 46
_ZN10hash_tableI16decl_addr_hasher11xcallocatorE14find_with_hashERKP15decl_addr_valuej prime_tab 125
_ZN10hash_tableIN8hash_mapIPKv14mem_usage_pairI9mem_usageE21simple_hashmap_traitsI19default_hash_traitsIS2_ES5_EE10hash_entryE11xcallocatorE14find_with_hashERKS2_j prime_tab 30
_ZN10hash_tableIN8hash_mapIPKv14mem_usage_pairI9mem_usageE21simple_hashmap_traitsI19default_hash_traitsIS2_ES5_EE10hash_entryE11xcallocatorE14find_with_hashERKS2_j prime_tab 37
_ZN10hash_tableIN8hash_mapIPKv14mem_usage_pairI9mem_usageE21simple_hashmap_traitsI19default_hash_traitsIS2_ES5_EE10hash_entryE11xcallocatorE14find_with_hashERKS2_j prime_tab 44
_ZN10hash_tableIN8hash_mapIPKv14mem_usage_pairI9mem_usageE21simple_hashmap_traitsI19default_hash_traitsIS2_ES5_EE10hash_entryE11xcallocatorE14find_with_hashERKS2_j prime_tab 120
_ZN10hash_tableIN8hash_mapIN21mem_alloc_descriptionI9mem_usageE17mem_location_hashEPS2_21simple_hashmap_traitsI19default_hash_traitsIS4_ES5_EE10hash_entryE11xcallocatorE14find_with_hashERKP12mem_locationj prime_tab 34
_ZN10hash_tableIN8hash_mapIN21mem_alloc_descriptionI9mem_usageE17mem_location_hashEPS2_21simple_hashmap_traitsI19default_hash_traitsIS4_ES5_EE10hash_entryE11xcallocatorE14find_with_hashERKP12mem_locationj prime_tab 41
_ZN10hash_tableIN8hash_mapIN21mem_alloc_descriptionI9mem_usageE17mem_location_hashEPS2_21simple_hashmap_traitsI19default_hash_traitsIS4_ES5_EE10hash_entryE11xcallocatorE14find_with_hashERKP12mem_locationj prime_tab 48
_ZN10hash_tableIN8hash_mapIN21mem_alloc_descriptionI9mem_usageE17mem_location_hashEPS2_21simple_hashmap_traitsI19default_hash_traitsIS4_ES5_EE10hash_entryE11xcallocatorE14find_with_hashERKP12mem_locationj prime_tab 139
_ZN10hash_tableIN8hash_mapIPKv14mem_usage_pairI9mem_usageE21simple_hashmap_traitsI19default_hash_traitsIS2_ES5_EE10hash_entryE11xcallocatorE6expandEv xcalloc 112
_ZN10hash_tableIN8hash_mapIPKv14mem_usage_pairI9mem_usageE21simple_hashmap_traitsI19default_hash_traitsIS2_ES5_EE10hash_entryE11xcallocatorE6expandEv prime_tab 240
_ZN10hash_tableIN8hash_mapIPKv14mem_usage_pairI9mem_usageE21simple_hashmap_traitsI19default_hash_traitsIS2_ES5_EE10hash_entryE11xcallocatorE6expandEv prime_tab 250
_ZN10hash_tableIN8hash_mapIPKv14mem_usage_pairI9mem_usageE21simple_hashmap_traitsI19default_hash_traitsIS2_ES5_EE10hash_entryE11xcallocatorE6expandEv _Z8ggc_freePv 440
_ZN10hash_tableIN8hash_mapIPKv14mem_usage_pairI9mem_usageE21simple_hashmap_traitsI19default_hash_traitsIS2_ES5_EE10hash_entryE11xcallocatorE6expandEv _Z26ggc_internal_cleared_allocmPFvPvEmm 488
_ZN10hash_tableIN8hash_mapIPKv14mem_usage_pairI9mem_usageE21simple_hashmap_traitsI19default_hash_traitsIS2_ES5_EE10hash_entryE11xcallocatorE6expandEv _Z11fancy_abortPKciS0_ 525
_ZN10hash_tableIN8hash_mapIPKv14mem_usage_pairI9mem_usageE21simple_hashmap_traitsI19default_hash_traitsIS2_ES5_EE10hash_entryE11xcallocatorE6expandEv _Z29hash_table_higher_prime_indexm 553
_ZN10hash_tableIN8hash_mapIPKv14mem_usage_pairI9mem_usageE21simple_hashmap_traitsI19default_hash_traitsIS2_ES5_EE10hash_entryE11xcallocatorE6expandEv prime_tab 574
_ZN10hash_tableIN8hash_mapIPKv14mem_usage_pairI9mem_usageE21simple_hashmap_traitsI19default_hash_traitsIS2_ES5_EE10hash_entryE11xcallocatorE6expandEv hash_table_usage 587
_ZN10hash_tableIN8hash_mapIPKv14mem_usage_pairI9mem_usageE21simple_hashmap_traitsI19default_hash_traitsIS2_ES5_EE10hash_entryE11xcallocatorE6expandEv _ZN10hash_tableIN8hash_mapIPKv14mem_usage_pairI9mem_usageE21simple_hashmap_traitsI19default_hash_traitsIS2_ES5_EE10hash_entryE11xcallocatorE14find_with_hashERKS2_j 623
_ZN10hash_tableIN8hash_mapIPKv14mem_usage_pairI9mem_usageE21simple_hashmap_traitsI19default_hash_traitsIS2_ES5_EE10hash_entryE11xcallocatorE6expandEv free 681
_ZN10hash_tableIN8hash_mapIPKv14mem_usage_pairI9mem_usageE21simple_hashmap_traitsI19default_hash_traitsIS2_ES5_EE10hash_entryE11xcallocatorE6expandEv hash_table_usage 709
_ZN10hash_tableIN8hash_mapIPKv14mem_usage_pairI9mem_usageE21simple_hashmap_traitsI19default_hash_traitsIS2_ES5_EE10hash_entryE11xcallocatorE6expandEv _ZN21mem_alloc_descriptionI9mem_usageE25release_instance_overheadEPvmb 719
_ZN10hash_tableIN8hash_mapIPKv14mem_usage_pairI9mem_usageE21simple_hashmap_traitsI19default_hash_traitsIS2_ES5_EE10hash_entryE11xcallocatorE19find_slot_with_hashERKS2_j13insert_option prime_tab 43
_ZN10hash_tableIN8hash_mapIPKv14mem_usage_pairI9mem_usageE21simple_hashmap_traitsI19default_hash_traitsIS2_ES5_EE10hash_entryE11xcallocatorE19find_slot_with_hashERKS2_j13insert_option prime_tab 49
_ZN10hash_tableIN8hash_mapIPKv14mem_usage_pairI9mem_usageE21simple_hashmap_traitsI19default_hash_traitsIS2_ES5_EE10hash_entryE11xcallocatorE19find_slot_with_hashERKS2_j13insert_option prime_tab 56
_ZN10hash_tableIN8hash_mapIPKv14mem_usage_pairI9mem_usageE21simple_hashmap_traitsI19default_hash_traitsIS2_ES5_EE10hash_entryE11xcallocatorE19find_slot_with_hashERKS2_j13insert_option prime_tab 62
_ZN10hash_tableIN8hash_mapIPKv14mem_usage_pairI9mem_usageE21simple_hashmap_traitsI19default_hash_traitsIS2_ES5_EE10hash_entryE11xcallocatorE19find_slot_with_hashERKS2_j13insert_option _ZN10hash_tableIN8hash_mapIPKv14mem_usage_pairI9mem_usageE21simple_hashmap_traitsI19default_hash_traitsIS2_ES5_EE10hash_entryE11xcallocatorE6expandEv 334
_ZN10hash_tableI15nofree_ptr_hashI9tree_nodeE11xcallocatorED1Ev,_ZN10hash_tableI15nofree_ptr_hashI9tree_nodeE11xcallocatorED2Ev free 51
_ZN10hash_tableI15nofree_ptr_hashI9tree_nodeE11xcallocatorED1Ev,_ZN10hash_tableI15nofree_ptr_hashI9tree_nodeE11xcallocatorED2Ev _Z8ggc_freePv 81
_ZN10hash_tableI15nofree_ptr_hashI9tree_nodeE11xcallocatorED1Ev,_ZN10hash_tableI15nofree_ptr_hashI9tree_nodeE11xcallocatorED2Ev hash_table_usage 101
_ZN10hash_tableI15nofree_ptr_hashI9tree_nodeE11xcallocatorED1Ev,_ZN10hash_tableI15nofree_ptr_hashI9tree_nodeE11xcallocatorED2Ev _ZN10hash_tableIN8hash_mapIPKv14mem_usage_pairI9mem_usageE21simple_hashmap_traitsI19default_hash_traitsIS2_ES5_EE10hash_entryE11xcallocatorE14find_with_hashERKS2_j 131
_ZN10hash_tableI15nofree_ptr_hashI9tree_nodeE11xcallocatorED1Ev,_ZN10hash_tableI15nofree_ptr_hashI9tree_nodeE11xcallocatorED2Ev hash_table_usage 177
_ZN10hash_tableI15nofree_ptr_hashI9tree_nodeE11xcallocatorED1Ev,_ZN10hash_tableI15nofree_ptr_hashI9tree_nodeE11xcallocatorED2Ev _ZN10hash_tableIN8hash_mapIPKv14mem_usage_pairI9mem_usageE21simple_hashmap_traitsI19default_hash_traitsIS2_ES5_EE10hash_entryE11xcallocatorE19find_slot_with_hashERKS2_j13insert_option 185
_ZN10hash_tableI16decl_addr_hasher11xcallocatorED1Ev,_ZN10hash_tableI16decl_addr_hasher11xcallocatorED2Ev free 46
_ZN10hash_tableI16decl_addr_hasher11xcallocatorED1Ev,_ZN10hash_tableI16decl_addr_hasher11xcallocatorED2Ev free 78
_ZN10hash_tableI16decl_addr_hasher11xcallocatorED1Ev,_ZN10hash_tableI16decl_addr_hasher11xcallocatorED2Ev _Z8ggc_freePv 97
_ZN10hash_tableI16decl_addr_hasher11xcallocatorED1Ev,_ZN10hash_tableI16decl_addr_hasher11xcallocatorED2Ev hash_table_usage 135
_ZN10hash_tableI16decl_addr_hasher11xcallocatorED1Ev,_ZN10hash_tableI16decl_addr_hasher11xcallocatorED2Ev _ZN21mem_alloc_descriptionI9mem_usageE25release_instance_overheadEPvmb 140
_ZN14plugin_contextD1Ev,_ZN14plugin_contextD2Ev _ZTV14plugin_context 23
_ZN14plugin_contextD1Ev,_ZN14plugin_contextD2Ev free 63
_ZN14plugin_contextD1Ev,_ZN14plugin_contextD2Ev _ZN10hash_tableI15nofree_ptr_hashI9tree_nodeE11xcallocatorED1Ev 81
_ZN14plugin_contextD1Ev,_ZN14plugin_contextD2Ev _ZN10hash_tableI16decl_addr_hasher11xcallocatorED1Ev 90
_ZN14plugin_contextD1Ev,_ZN14plugin_contextD2Ev _ZN10cc1_plugin10connectionD2Ev 98
_ZN14plugin_contextD1Ev,_ZN14plugin_contextD2Ev _Z8ggc_freePv 121
_ZN14plugin_contextD1Ev,_ZN14plugin_contextD2Ev hash_table_usage 148
_ZN14plugin_contextD1Ev,_ZN14plugin_contextD2Ev _ZN10hash_tableIN8hash_mapIPKv14mem_usage_pairI9mem_usageE21simple_hashmap_traitsI19default_hash_traitsIS2_ES5_EE10hash_entryE11xcallocatorE14find_with_hashERKS2_j 181
_ZN14plugin_contextD1Ev,_ZN14plugin_contextD2Ev hash_table_usage 209
_ZN14plugin_contextD1Ev,_ZN14plugin_contextD2Ev _ZN10hash_tableIN8hash_mapIPKv14mem_usage_pairI9mem_usageE21simple_hashmap_traitsI19default_hash_traitsIS2_ES5_EE10hash_entryE11xcallocatorE19find_slot_with_hashERKS2_j13insert_option 235
_ZN14plugin_contextD1Ev,_ZN14plugin_contextD2Ev _ZN10hash_tableI15nofree_ptr_hashI9tree_nodeE11xcallocatorED1Ev 291
_ZN14plugin_contextD1Ev,_ZN14plugin_contextD2Ev _ZN10hash_tableI16decl_addr_hasher11xcallocatorED1Ev 300
_ZN14plugin_contextD1Ev,_ZN14plugin_contextD2Ev _ZN10cc1_plugin10connectionD2Ev 308
_ZN14plugin_contextD1Ev,_ZN14plugin_contextD2Ev _Unwind_Resume 316
_ZN14plugin_contextD0Ev _ZTV14plugin_context 19
_ZN14plugin_contextD0Ev free 55
_ZN14plugin_contextD0Ev _ZN10hash_tableI15nofree_ptr_hashI9tree_nodeE11xcallocatorED1Ev 73
_ZN14plugin_contextD0Ev _ZN10hash_tableI16decl_addr_hasher11xcallocatorED1Ev 82
_ZN14plugin_contextD0Ev _ZN10cc1_plugin10connectionD2Ev 90
_ZN14plugin_contextD0Ev _Z8ggc_freePv 113
_ZN14plugin_contextD0Ev hash_table_usage 143
_ZN14plugin_contextD0Ev _ZN21mem_alloc_descriptionI9mem_usageE25release_instance_overheadEPvmb 156
_ZN14plugin_contextD0Ev _ZN10hash_tableI15nofree_ptr_hashI9tree_nodeE11xcallocatorED1Ev 182
_ZN14plugin_contextD0Ev _ZN10hash_tableI16decl_addr_hasher11xcallocatorED1Ev 191
_ZN14plugin_contextD0Ev _ZN10cc1_plugin10connectionD2Ev 199
_ZN14plugin_contextD0Ev _Unwind_Resume 207
_ZN14plugin_contextD0Ev _ZdlPv 104
_ZN10hash_tableI16decl_addr_hasher11xcallocatorE6expandEv xcalloc 107
_ZN10hash_tableI16decl_addr_hasher11xcallocatorE6expandEv prime_tab 227
_ZN10hash_tableI16decl_addr_hasher11xcallocatorE6expandEv prime_tab 234
_ZN10hash_tableI16decl_addr_hasher11xcallocatorE6expandEv _Z8ggc_freePv 409
_ZN10hash_tableI16decl_addr_hasher11xcallocatorE6expandEv _Z26ggc_internal_cleared_allocmPFvPvEmm 455
_ZN10hash_tableI16decl_addr_hasher11xcallocatorE6expandEv _Z11fancy_abortPKciS0_ 484
_ZN10hash_tableI16decl_addr_hasher11xcallocatorE6expandEv _Z29hash_table_higher_prime_indexm 513
_ZN10hash_tableI16decl_addr_hasher11xcallocatorE6expandEv prime_tab 534
_ZN10hash_tableI16decl_addr_hasher11xcallocatorE6expandEv hash_table_usage 547
_ZN10hash_tableI16decl_addr_hasher11xcallocatorE6expandEv _ZN10hash_tableIN8hash_mapIPKv14mem_usage_pairI9mem_usageE21simple_hashmap_traitsI19default_hash_traitsIS2_ES5_EE10hash_entryE11xcallocatorE14find_with_hashERKS2_j 582
_ZN10hash_tableI16decl_addr_hasher11xcallocatorE6expandEv free 641
_ZN10hash_tableI16decl_addr_hasher11xcallocatorE6expandEv hash_table_usage 669
_ZN10hash_tableI16decl_addr_hasher11xcallocatorE6expandEv _ZN21mem_alloc_descriptionI9mem_usageE25release_instance_overheadEPvmb 679
_ZN10hash_tableI16decl_addr_hasher11xcallocatorE19find_slot_with_hashERKP15decl_addr_valuej13insert_option prime_tab 45
_ZN10hash_tableI16decl_addr_hasher11xcallocatorE19find_slot_with_hashERKP15decl_addr_valuej13insert_option prime_tab 51
_ZN10hash_tableI16decl_addr_hasher11xcallocatorE19find_slot_with_hashERKP15decl_addr_valuej13insert_option prime_tab 58
_ZN10hash_tableI16decl_addr_hasher11xcallocatorE19find_slot_with_hashERKP15decl_addr_valuej13insert_option prime_tab 64
_ZN10hash_tableI16decl_addr_hasher11xcallocatorE19find_slot_with_hashERKP15decl_addr_valuej13insert_option _ZN10hash_tableI16decl_addr_hasher11xcallocatorE6expandEv 350
_ZN10hash_tableI15nofree_ptr_hashI9tree_nodeE11xcallocatorE6expandEv xcalloc 107
_ZN10hash_tableI15nofree_ptr_hashI9tree_nodeE11xcallocatorE6expandEv prime_tab 224
_ZN10hash_tableI15nofree_ptr_hashI9tree_nodeE11xcallocatorE6expandEv prime_tab 234
_ZN10hash_tableI15nofree_ptr_hashI9tree_nodeE11xcallocatorE6expandEv _Z8ggc_freePv 409
_ZN10hash_tableI15nofree_ptr_hashI9tree_nodeE11xcallocatorE6expandEv _Z26ggc_internal_cleared_allocmPFvPvEmm 455
_ZN10hash_tableI15nofree_ptr_hashI9tree_nodeE11xcallocatorE6expandEv _Z11fancy_abortPKciS0_ 484
_ZN10hash_tableI15nofree_ptr_hashI9tree_nodeE11xcallocatorE6expandEv _Z29hash_table_higher_prime_indexm 513
_ZN10hash_tableI15nofree_ptr_hashI9tree_nodeE11xcallocatorE6expandEv prime_tab 534
_ZN10hash_tableI15nofree_ptr_hashI9tree_nodeE11xcallocatorE6expandEv hash_table_usage 547
_ZN10hash_tableI15nofree_ptr_hashI9tree_nodeE11xcallocatorE6expandEv _ZN10hash_tableIN8hash_mapIPKv14mem_usage_pairI9mem_usageE21simple_hashmap_traitsI19default_hash_traitsIS2_ES5_EE10hash_entryE11xcallocatorE14find_with_hashERKS2_j 582
_ZN10hash_tableI15nofree_ptr_hashI9tree_nodeE11xcallocatorE6expandEv free 641
_ZN10hash_tableI15nofree_ptr_hashI9tree_nodeE11xcallocatorE6expandEv hash_table_usage 669
_ZN10hash_tableI15nofree_ptr_hashI9tree_nodeE11xcallocatorE6expandEv _ZN21mem_alloc_descriptionI9mem_usageE25release_instance_overheadEPvmb 679
_ZN10cc1_plugin8callbackIyXadL_Z24plugin_build_record_typePNS_10connectionEEEEENS_6statusES2_ _ZN10cc1_plugin16unmarshall_checkEPNS_10connectionEy 12
_ZN10cc1_plugin8callbackIyXadL_Z24plugin_build_record_typePNS_10connectionEEEEENS_6statusES2_ _Z24plugin_build_record_typePN10cc1_plugin10connectionE 36
_ZN10cc1_plugin8callbackIyXadL_Z24plugin_build_record_typePNS_10connectionEEEEENS_6statusES2_ _ZN10cc1_plugin10connection4sendEc 52
_ZN10cc1_plugin8callbackIyXadL_Z24plugin_build_record_typePNS_10connectionEEEEENS_6statusES2_ _ZN10cc1_plugin16marshall_intlikeEPNS_10connectionEy 73
_ZN10cc1_plugin8callbackIyXadL_Z23plugin_build_union_typePNS_10connectionEEEEENS_6statusES2_ _ZN10cc1_plugin16unmarshall_checkEPNS_10connectionEy 12
_ZN10cc1_plugin8callbackIyXadL_Z23plugin_build_union_typePNS_10connectionEEEEENS_6statusES2_ _Z23plugin_build_union_typePN10cc1_plugin10connectionE 36
_ZN10cc1_plugin8callbackIyXadL_Z23plugin_build_union_typePNS_10connectionEEEEENS_6statusES2_ _ZN10cc1_plugin10connection4sendEc 52
_ZN10cc1_plugin8callbackIyXadL_Z23plugin_build_union_typePNS_10connectionEEEEENS_6statusES2_ _ZN10cc1_plugin16marshall_intlikeEPNS_10connectionEy 73
_ZN10cc1_plugin8callbackIyyXadL_Z25plugin_build_complex_typePNS_10connectionEyEEEENS_6statusES2_ _ZN10cc1_plugin16unmarshall_checkEPNS_10connectionEy 15
_ZN10cc1_plugin8callbackIyyXadL_Z25plugin_build_complex_typePNS_10connectionEyEEEENS_6statusES2_ _ZN10cc1_plugin18unmarshall_intlikeEPNS_10connectionEPy 41
_ZN10cc1_plugin8callbackIyyXadL_Z25plugin_build_complex_typePNS_10connectionEyEEEENS_6statusES2_ _Z25plugin_build_complex_typePN10cc1_plugin10connectionEy 58
_ZN10cc1_plugin8callbackIyyXadL_Z25plugin_build_complex_typePNS_10connectionEyEEEENS_6statusES2_ _ZN10cc1_plugin10connection4sendEc 74
_ZN10cc1_plugin8callbackIyyXadL_Z25plugin_build_complex_typePNS_10connectionEyEEEENS_6statusES2_ _ZN10cc1_plugin16marshall_intlikeEPNS_10connectionEy 89
_ZN10cc1_plugin8callbackIyyXadL_Z22plugin_build_enum_typePNS_10connectionEyEEEENS_6statusES2_ _ZN10cc1_plugin16unmarshall_checkEPNS_10connectionEy 15
_ZN10cc1_plugin8callbackIyyXadL_Z22plugin_build_enum_typePNS_10connectionEyEEEENS_6statusES2_ _ZN10cc1_plugin18unmarshall_intlikeEPNS_10connectionEPy 41
_ZN10cc1_plugin8callbackIyyXadL_Z22plugin_build_enum_typePNS_10connectionEyEEEENS_6statusES2_ _Z22plugin_build_enum_typePN10cc1_plugin10connectionEy 58
_ZN10cc1_plugin8callbackIyyXadL_Z22plugin_build_enum_typePNS_10connectionEyEEEENS_6statusES2_ _ZN10cc1_plugin10connection4sendEc 74
_ZN10cc1_plugin8callbackIyyXadL_Z22plugin_build_enum_typePNS_10connectionEyEEEENS_6statusES2_ _ZN10cc1_plugin16marshall_intlikeEPNS_10connectionEy 89
_ZN10cc1_plugin8callbackIyyiXadL_Z24plugin_build_vector_typePNS_10connectionEyiEEEENS_6statusES2_ _ZN10cc1_plugin16unmarshall_checkEPNS_10connectionEy 15
_ZN10cc1_plugin8callbackIyyiXadL_Z24plugin_build_vector_typePNS_10connectionEyiEEEENS_6statusES2_ _ZN10cc1_plugin18unmarshall_intlikeEPNS_10connectionEPy 41
_ZN10cc1_plugin8callbackIyyiXadL_Z24plugin_build_vector_typePNS_10connectionEyiEEEENS_6statusES2_ _ZN10cc1_plugin18unmarshall_intlikeEPNS_10connectionEPy 63
_ZN10cc1_plugin8callbackIyyiXadL_Z24plugin_build_vector_typePNS_10connectionEyiEEEENS_6statusES2_ _Z24plugin_build_vector_typePN10cc1_plugin10connectionEyi 82
_ZN10cc1_plugin8callbackIyyiXadL_Z24plugin_build_vector_typePNS_10connectionEyiEEEENS_6statusES2_ _ZN10cc1_plugin10connection4sendEc 98
_ZN10cc1_plugin8callbackIyyiXadL_Z24plugin_build_vector_typePNS_10connectionEyiEEEENS_6statusES2_ _ZN10cc1_plugin16marshall_intlikeEPNS_10connectionEy 113
_ZN10cc1_plugin8callbackIyyiXadL_Z23plugin_build_array_typePNS_10connectionEyiEEEENS_6statusES2_ _ZN10cc1_plugin16unmarshall_checkEPNS_10connectionEy 15
_ZN10cc1_plugin8callbackIyyiXadL_Z23plugin_build_array_typePNS_10connectionEyiEEEENS_6statusES2_ _ZN10cc1_plugin18unmarshall_intlikeEPNS_10connectionEPy 41
_ZN10cc1_plugin8callbackIyyiXadL_Z23plugin_build_array_typePNS_10connectionEyiEEEENS_6statusES2_ _ZN10cc1_plugin18unmarshall_intlikeEPNS_10connectionEPy 63
_ZN10cc1_plugin8callbackIyyiXadL_Z23plugin_build_array_typePNS_10connectionEyiEEEENS_6statusES2_ _Z23plugin_build_array_typePN10cc1_plugin10connectionEyi 82
_ZN10cc1_plugin8callbackIyyiXadL_Z23plugin_build_array_typePNS_10connectionEyiEEEENS_6statusES2_ _ZN10cc1_plugin10connection4sendEc 98
_ZN10cc1_plugin8callbackIyyiXadL_Z23plugin_build_array_typePNS_10connectionEyiEEEENS_6statusES2_ _ZN10cc1_plugin16marshall_intlikeEPNS_10connectionEy 113
_ZN10cc1_plugin8callbackIyimXadL_Z18plugin_int_type_v0PNS_10connectionEimEEEENS_6statusES2_ _ZN10cc1_plugin16unmarshall_checkEPNS_10connectionEy 15
_ZN10cc1_plugin8callbackIyimXadL_Z18plugin_int_type_v0PNS_10connectionEimEEEENS_6statusES2_ _ZN10cc1_plugin18unmarshall_intlikeEPNS_10connectionEPy 41
_ZN10cc1_plugin8callbackIyimXadL_Z18plugin_int_type_v0PNS_10connectionEimEEEENS_6statusES2_ _ZN10cc1_plugin18unmarshall_intlikeEPNS_10connectionEPy 63
_ZN10cc1_plugin8callbackIyimXadL_Z18plugin_int_type_v0PNS_10connectionEimEEEENS_6statusES2_ _Z18plugin_int_type_v0PN10cc1_plugin10connectionEim 82
_ZN10cc1_plugin8callbackIyimXadL_Z18plugin_int_type_v0PNS_10connectionEimEEEENS_6statusES2_ _ZN10cc1_plugin10connection4sendEc 98
_ZN10cc1_plugin8callbackIyimXadL_Z18plugin_int_type_v0PNS_10connectionEimEEEENS_6statusES2_ _ZN10cc1_plugin16marshall_intlikeEPNS_10connectionEy 113
_ZN10cc1_plugin8callbackIyimPKcXadL_Z15plugin_int_typePNS_10connectionEimS2_EEEENS_6statusES4_ _ZN10cc1_plugin16unmarshall_checkEPNS_10connectionEy 25
_ZN10cc1_plugin8callbackIyimPKcXadL_Z15plugin_int_typePNS_10connectionEimS2_EEEENS_6statusES4_ _ZdaPv 45
_ZN10cc1_plugin8callbackIyimPKcXadL_Z15plugin_int_typePNS_10connectionEimS2_EEEENS_6statusES4_ _ZN10cc1_plugin18unmarshall_intlikeEPNS_10connectionEPy 73
_ZN10cc1_plugin8callbackIyimPKcXadL_Z15plugin_int_typePNS_10connectionEimS2_EEEENS_6statusES4_ _ZN10cc1_plugin18unmarshall_intlikeEPNS_10connectionEPy 97
_ZN10cc1_plugin8callbackIyimPKcXadL_Z15plugin_int_typePNS_10connectionEimS2_EEEENS_6statusES4_ _ZN10cc1_plugin10unmarshallEPNS_10connectionEPPc 119
_ZN10cc1_plugin8callbackIyimPKcXadL_Z15plugin_int_typePNS_10connectionEimS2_EEEENS_6statusES4_ _Z15plugin_int_typePN10cc1_plugin10connectionEimPKc 141
_ZN10cc1_plugin8callbackIyimPKcXadL_Z15plugin_int_typePNS_10connectionEimS2_EEEENS_6statusES4_ _ZN10cc1_plugin10connection4sendEc 157
_ZN10cc1_plugin8callbackIyimPKcXadL_Z15plugin_int_typePNS_10connectionEimS2_EEEENS_6statusES4_ _ZN10cc1_plugin16marshall_intlikeEPNS_10connectionEy 176
_ZN10cc1_plugin8callbackIyimPKcXadL_Z15plugin_int_typePNS_10connectionEimS2_EEEENS_6statusES4_ _ZdaPv 200
_ZN10cc1_plugin8callbackIyimPKcXadL_Z15plugin_int_typePNS_10connectionEimS2_EEEENS_6statusES4_ _Unwind_Resume 208
_ZN10cc1_plugin8callbackIyyPKcXadL_Z27plugin_build_vla_array_typePNS_10connectionEyS2_EEEENS_6statusES4_ _ZN10cc1_plugin16unmarshall_checkEPNS_10connectionEy 23
_ZN10cc1_plugin8callbackIyyPKcXadL_Z27plugin_build_vla_array_typePNS_10connectionEyS2_EEEENS_6statusES4_ _ZdaPv 43
_ZN10cc1_plugin8callbackIyyPKcXadL_Z27plugin_build_vla_array_typePNS_10connectionEyS2_EEEENS_6statusES4_ _ZN10cc1_plugin18unmarshall_intlikeEPNS_10connectionEPy 73
_ZN10cc1_plugin8callbackIyyPKcXadL_Z27plugin_build_vla_array_typePNS_10connectionEyS2_EEEENS_6statusES4_ _ZN10cc1_plugin10unmarshallEPNS_10connectionEPPc 95
_ZN10cc1_plugin8callbackIyyPKcXadL_Z27plugin_build_vla_array_typePNS_10connectionEyS2_EEEENS_6statusES4_ _Z27plugin_build_vla_array_typePN10cc1_plugin10connectionEyPKc 114
_ZN10cc1_plugin8callbackIyyPKcXadL_Z27plugin_build_vla_array_typePNS_10connectionEyS2_EEEENS_6statusES4_ _ZN10cc1_plugin10connection4sendEc 130
_ZN10cc1_plugin8callbackIyyPKcXadL_Z27plugin_build_vla_array_typePNS_10connectionEyS2_EEEENS_6statusES4_ _ZN10cc1_plugin16marshall_intlikeEPNS_10connectionEy 145
_ZN10cc1_plugin8callbackIyyPKcXadL_Z27plugin_build_vla_array_typePNS_10connectionEyS2_EEEENS_6statusES4_ _ZdaPv 166
_ZN10cc1_plugin8callbackIyyPKcXadL_Z27plugin_build_vla_array_typePNS_10connectionEyS2_EEEENS_6statusES4_ _Unwind_Resume 174
_ZN10cc1_plugin8callbackIyyPK14gcc_type_arrayiXadL_Z26plugin_build_function_typePNS_10connectionEyS3_iEEEENS_6statusES5_ _ZN10cc1_plugin16unmarshall_checkEPNS_10connectionEy 30
_ZN10cc1_plugin8callbackIyyPK14gcc_type_arrayiXadL_Z26plugin_build_function_typePNS_10connectionEyS3_iEEEENS_6statusES5_ _ZN10cc1_plugin18unmarshall_intlikeEPNS_10connectionEPy 50
_ZN10cc1_plugin8callbackIyyPK14gcc_type_arrayiXadL_Z26plugin_build_function_typePNS_10connectionEyS3_iEEEENS_6statusES5_ _ZdaPv 79
_ZN10cc1_plugin8callbackIyyPK14gcc_type_arrayiXadL_Z26plugin_build_function_typePNS_10connectionEyS3_iEEEENS_6statusES5_ _ZdlPv 91
_ZN10cc1_plugin8callbackIyyPK14gcc_type_arrayiXadL_Z26plugin_build_function_typePNS_10connectionEyS3_iEEEENS_6statusES5_ _ZN10cc1_plugin10unmarshallEPNS_10connectionEPP14gcc_type_array 127
_ZN10cc1_plugin8callbackIyyPK14gcc_type_arrayiXadL_Z26plugin_build_function_typePNS_10connectionEyS3_iEEEENS_6statusES5_ _ZN10cc1_plugin18unmarshall_intlikeEPNS_10connectionEPy 153
_ZN10cc1_plugin8callbackIyyPK14gcc_type_arrayiXadL_Z26plugin_build_function_typePNS_10connectionEyS3_iEEEENS_6statusES5_ _Z26plugin_build_function_typePN10cc1_plugin10connectionEyPK14gcc_type_arrayi 178
_ZN10cc1_plugin8callbackIyyPK14gcc_type_arrayiXadL_Z26plugin_build_function_typePNS_10connectionEyS3_iEEEENS_6statusES5_ _ZN10cc1_plugin10connection4sendEc 194
_ZN10cc1_plugin8callbackIyyPK14gcc_type_arrayiXadL_Z26plugin_build_function_typePNS_10connectionEyS3_iEEEENS_6statusES5_ _ZN10cc1_plugin16marshall_intlikeEPNS_10connectionEy 209
_ZN10cc1_plugin8callbackIyyPK14gcc_type_arrayiXadL_Z26plugin_build_function_typePNS_10connectionEyS3_iEEEENS_6statusES5_ _ZN10cc1_plugin16argument_wrapperIPK14gcc_type_arrayED1Ev 227
_ZN10cc1_plugin8callbackIyyPK14gcc_type_arrayiXadL_Z26plugin_build_function_typePNS_10connectionEyS3_iEEEENS_6statusES5_ _Unwind_Resume 235
_ZN10hash_tableI13string_hasher11xcallocatorE6expandEv xcalloc 107
_ZN10hash_tableI13string_hasher11xcallocatorE6expandEv htab_hash_string 207
_ZN10hash_tableI13string_hasher11xcallocatorE6expandEv prime_tab 236
_ZN10hash_tableI13string_hasher11xcallocatorE6expandEv prime_tab 242
_ZN10hash_tableI13string_hasher11xcallocatorE6expandEv _Z8ggc_freePv 398
_ZN10hash_tableI13string_hasher11xcallocatorE6expandEv _Z26ggc_internal_cleared_allocmPFvPvEmm 447
_ZN10hash_tableI13string_hasher11xcallocatorE6expandEv _Z11fancy_abortPKciS0_ 476
_ZN10hash_tableI13string_hasher11xcallocatorE6expandEv _Z29hash_table_higher_prime_indexm 497
_ZN10hash_tableI13string_hasher11xcallocatorE6expandEv prime_tab 519
_ZN10hash_tableI13string_hasher11xcallocatorE6expandEv hash_table_usage 532
_ZN10hash_tableI13string_hasher11xcallocatorE6expandEv _ZN10hash_tableIN8hash_mapIPKv14mem_usage_pairI9mem_usageE21simple_hashmap_traitsI19default_hash_traitsIS2_ES5_EE10hash_entryE11xcallocatorE14find_with_hashERKS2_j 567
_ZN10hash_tableI13string_hasher11xcallocatorE6expandEv free 625
_ZN10hash_tableI13string_hasher11xcallocatorE6expandEv hash_table_usage 653
_ZN10hash_tableI13string_hasher11xcallocatorE6expandEv _ZN21mem_alloc_descriptionI9mem_usageE25release_instance_overheadEPvmb 663
_ZN10hash_tableI13string_hasher11xcallocatorE19find_slot_with_hashERKPKcj13insert_option prime_tab 66
_ZN10hash_tableI13string_hasher11xcallocatorE19find_slot_with_hashERKPKcj13insert_option prime_tab 72
_ZN10hash_tableI13string_hasher11xcallocatorE19find_slot_with_hashERKPKcj13insert_option prime_tab 79
_ZN10hash_tableI13string_hasher11xcallocatorE19find_slot_with_hashERKPKcj13insert_option prime_tab 85
_ZN10hash_tableI13string_hasher11xcallocatorE19find_slot_with_hashERKPKcj13insert_option strcmp 176
_ZN10hash_tableI13string_hasher11xcallocatorE19find_slot_with_hashERKPKcj13insert_option strcmp 281
_ZN10hash_tableI13string_hasher11xcallocatorE19find_slot_with_hashERKPKcj13insert_option _ZN10hash_tableI13string_hasher11xcallocatorE6expandEv 442
_ZN10cc1_plugin8callbackIyPKc17gcc_c_symbol_kindyS2_yS2_jXadL_Z17plugin_build_declPNS_10connectionES2_S3_yS2_yS2_jEEEENS_6statusES5_ _ZN10cc1_plugin16unmarshall_checkEPNS_10connectionEy 50
_ZN10cc1_plugin8callbackIyPKc17gcc_c_symbol_kindyS2_yS2_jXadL_Z17plugin_build_declPNS_10connectionES2_S3_yS2_yS2_jEEEENS_6statusES5_ _ZdaPv 71
_ZN10cc1_plugin8callbackIyPKc17gcc_c_symbol_kindyS2_yS2_jXadL_Z17plugin_build_declPNS_10connectionES2_S3_yS2_yS2_jEEEENS_6statusES5_ _ZdaPv 85
_ZN10cc1_plugin8callbackIyPKc17gcc_c_symbol_kindyS2_yS2_jXadL_Z17plugin_build_declPNS_10connectionES2_S3_yS2_yS2_jEEEENS_6statusES5_ _ZdaPv 99
_ZN10cc1_plugin8callbackIyPKc17gcc_c_symbol_kindyS2_yS2_jXadL_Z17plugin_build_declPNS_10connectionES2_S3_yS2_yS2_jEEEENS_6statusES5_ _ZN10cc1_plugin10unmarshallEPNS_10connectionEPPc 136
_ZN10cc1_plugin8callbackIyPKc17gcc_c_symbol_kindyS2_yS2_jXadL_Z17plugin_build_declPNS_10connectionES2_S3_yS2_yS2_jEEEENS_6statusES5_ _ZN10cc1_plugin18unmarshall_intlikeEPNS_10connectionEPy 152
_ZN10cc1_plugin8callbackIyPKc17gcc_c_symbol_kindyS2_yS2_jXadL_Z17plugin_build_declPNS_10connectionES2_S3_yS2_yS2_jEEEENS_6statusES5_ _ZN10cc1_plugin18unmarshall_intlikeEPNS_10connectionEPy 175
_ZN10cc1_plugin8callbackIyPKc17gcc_c_symbol_kindyS2_yS2_jXadL_Z17plugin_build_declPNS_10connectionES2_S3_yS2_yS2_jEEEENS_6statusES5_ _ZN10cc1_plugin10unmarshallEPNS_10connectionEPPc 198
_ZN10cc1_plugin8callbackIyPKc17gcc_c_symbol_kindyS2_yS2_jXadL_Z17plugin_build_declPNS_10connectionES2_S3_yS2_yS2_jEEEENS_6statusES5_ _ZN10cc1_plugin18unmarshall_intlikeEPNS_10connectionEPy 218
_ZN10cc1_plugin8callbackIyPKc17gcc_c_symbol_kindyS2_yS2_jXadL_Z17plugin_build_declPNS_10connectionES2_S3_yS2_yS2_jEEEENS_6statusES5_ _ZN10cc1_plugin10unmarshallEPNS_10connectionEPPc 245
_ZN10cc1_plugin8callbackIyPKc17gcc_c_symbol_kindyS2_yS2_jXadL_Z17plugin_build_declPNS_10connectionES2_S3_yS2_yS2_jEEEENS_6statusES5_ _ZN10cc1_plugin18unmarshall_intlikeEPNS_10connectionEPy 265
_ZN10cc1_plugin8callbackIyPKc17gcc_c_symbol_kindyS2_yS2_jXadL_Z17plugin_build_declPNS_10connectionES2_S3_yS2_yS2_jEEEENS_6statusES5_ _Z17plugin_build_declPN10cc1_plugin10connectionEPKc17gcc_c_symbol_kindyS3_yS3_j 309
_ZN10cc1_plugin8callbackIyPKc17gcc_c_symbol_kindyS2_yS2_jXadL_Z17plugin_build_declPNS_10connectionES2_S3_yS2_yS2_jEEEENS_6statusES5_ _ZN10cc1_plugin10connection4sendEc 327
_ZN10cc1_plugin8callbackIyPKc17gcc_c_symbol_kindyS2_yS2_jXadL_Z17plugin_build_declPNS_10connectionES2_S3_yS2_yS2_jEEEENS_6statusES5_ _ZN10cc1_plugin16marshall_intlikeEPNS_10connectionEy 346
_ZN10cc1_plugin8callbackIyPKc17gcc_c_symbol_kindyS2_yS2_jXadL_Z17plugin_build_declPNS_10connectionES2_S3_yS2_yS2_jEEEENS_6statusES5_ _ZdaPv 371
_ZN10cc1_plugin8callbackIyPKc17gcc_c_symbol_kindyS2_yS2_jXadL_Z17plugin_build_declPNS_10connectionES2_S3_yS2_yS2_jEEEENS_6statusES5_ _ZdaPv 385
_ZN10cc1_plugin8callbackIyPKc17gcc_c_symbol_kindyS2_yS2_jXadL_Z17plugin_build_declPNS_10connectionES2_S3_yS2_yS2_jEEEENS_6statusES5_ _ZdaPv 399
_ZN10cc1_plugin8callbackIyPKc17gcc_c_symbol_kindyS2_yS2_jXadL_Z17plugin_build_declPNS_10connectionES2_S3_yS2_yS2_jEEEENS_6statusES5_ _Unwind_Resume 407
_ZN10cc1_plugin8callbackIiyPKcmS2_jXadL_Z21plugin_build_constantPNS_10connectionEyS2_mS2_jEEEENS_6statusES4_ _ZN10cc1_plugin16unmarshall_checkEPNS_10connectionEy 36
_ZN10cc1_plugin8callbackIiyPKcmS2_jXadL_Z21plugin_build_constantPNS_10connectionEyS2_mS2_jEEEENS_6statusES4_ _ZdaPv 57
_ZN10cc1_plugin8callbackIiyPKcmS2_jXadL_Z21plugin_build_constantPNS_10connectionEyS2_mS2_jEEEENS_6statusES4_ _ZdaPv 71
_ZN10cc1_plugin8callbackIiyPKcmS2_jXadL_Z21plugin_build_constantPNS_10connectionEyS2_mS2_jEEEENS_6statusES4_ _ZN10cc1_plugin18unmarshall_intlikeEPNS_10connectionEPy 105
_ZN10cc1_plugin8callbackIiyPKcmS2_jXadL_Z21plugin_build_constantPNS_10connectionEyS2_mS2_jEEEENS_6statusES4_ _ZN10cc1_plugin10unmarshallEPNS_10connectionEPPc 127
_ZN10cc1_plugin8callbackIiyPKcmS2_jXadL_Z21plugin_build_constantPNS_10connectionEyS2_mS2_jEEEENS_6statusES4_ _ZN10cc1_plugin18unmarshall_intlikeEPNS_10connectionEPy 144
_ZN10cc1_plugin8callbackIiyPKcmS2_jXadL_Z21plugin_build_constantPNS_10connectionEyS2_mS2_jEEEENS_6statusES4_ _ZN10cc1_plugin10unmarshallEPNS_10connectionEPPc 168
_ZN10cc1_plugin8callbackIiyPKcmS2_jXadL_Z21plugin_build_constantPNS_10connectionEyS2_mS2_jEEEENS_6statusES4_ _ZN10cc1_plugin18unmarshall_intlikeEPNS_10connectionEPy 189
_ZN10cc1_plugin8callbackIiyPKcmS2_jXadL_Z21plugin_build_constantPNS_10connectionEyS2_mS2_jEEEENS_6statusES4_ _Z21plugin_build_constantPN10cc1_plugin10connectionEyPKcmS3_j 227
_ZN10cc1_plugin8callbackIiyPKcmS2_jXadL_Z21plugin_build_constantPNS_10connectionEyS2_mS2_jEEEENS_6statusES4_ _ZN10cc1_plugin10connection4sendEc 242
_ZN10cc1_plugin8callbackIiyPKcmS2_jXadL_Z21plugin_build_constantPNS_10connectionEyS2_mS2_jEEEENS_6statusES4_ _ZN10cc1_plugin16marshall_intlikeEPNS_10connectionEy 261
_ZN10cc1_plugin8callbackIiyPKcmS2_jXadL_Z21plugin_build_constantPNS_10connectionEyS2_mS2_jEEEENS_6statusES4_ _ZdaPv 286
_ZN10cc1_plugin8callbackIiyPKcmS2_jXadL_Z21plugin_build_constantPNS_10connectionEyS2_mS2_jEEEENS_6statusES4_ _ZdaPv 300
_ZN10cc1_plugin8callbackIiyPKcmS2_jXadL_Z21plugin_build_constantPNS_10connectionEyS2_mS2_jEEEENS_6statusES4_ _Unwind_Resume 308
_ZN10cc1_plugin8callbackIiPKcyS2_jXadL_Z14plugin_tagbindPNS_10connectionES2_yS2_jEEEENS_6statusES4_ _ZN10cc1_plugin16unmarshall_checkEPNS_10connectionEy 34
_ZN10cc1_plugin8callbackIiPKcyS2_jXadL_Z14plugin_tagbindPNS_10connectionES2_yS2_jEEEENS_6statusES4_ _ZdaPv 55
_ZN10cc1_plugin8callbackIiPKcyS2_jXadL_Z14plugin_tagbindPNS_10connectionES2_yS2_jEEEENS_6statusES4_ _ZdaPv 69
_ZN10cc1_plugin8callbackIiPKcyS2_jXadL_Z14plugin_tagbindPNS_10connectionES2_yS2_jEEEENS_6statusES4_ _ZN10cc1_plugin10unmarshallEPNS_10connectionEPPc 95
_ZN10cc1_plugin8callbackIiPKcyS2_jXadL_Z14plugin_tagbindPNS_10connectionES2_yS2_jEEEENS_6statusES4_ _ZN10cc1_plugin18unmarshall_intlikeEPNS_10connectionEPy 112
_ZN10cc1_plugin8callbackIiPKcyS2_jXadL_Z14plugin_tagbindPNS_10connectionES2_yS2_jEEEENS_6statusES4_ _ZN10cc1_plugin10unmarshallEPNS_10connectionEPPc 136
_ZN10cc1_plugin8callbackIiPKcyS2_jXadL_Z14plugin_tagbindPNS_10connectionES2_yS2_jEEEENS_6statusES4_ _ZN10cc1_plugin18unmarshall_intlikeEPNS_10connectionEPy 153
_ZN10cc1_plugin8callbackIiPKcyS2_jXadL_Z14plugin_tagbindPNS_10connectionES2_yS2_jEEEENS_6statusES4_ _Z14plugin_tagbindPN10cc1_plugin10connectionEPKcyS3_j 184
_ZN10cc1_plugin8callbackIiPKcyS2_jXadL_Z14plugin_tagbindPNS_10connectionES2_yS2_jEEEENS_6statusES4_ _ZN10cc1_plugin10connection4sendEc 199
_ZN10cc1_plugin8callbackIiPKcyS2_jXadL_Z14plugin_tagbindPNS_10connectionES2_yS2_jEEEENS_6statusES4_ _ZN10cc1_plugin16marshall_intlikeEPNS_10connectionEy 218
_ZN10cc1_plugin8callbackIiPKcyS2_jXadL_Z14plugin_tagbindPNS_10connectionES2_yS2_jEEEENS_6statusES4_ _ZdaPv 243
_ZN10cc1_plugin8callbackIiPKcyS2_jXadL_Z14plugin_tagbindPNS_10connectionES2_yS2_jEEEENS_6statusES4_ _ZdaPv 257
_ZN10cc1_plugin8callbackIiPKcyS2_jXadL_Z14plugin_tagbindPNS_10connectionES2_yS2_jEEEENS_6statusES4_ _Unwind_Resume 265
_ZN10hash_tableIN8hash_mapIN21mem_alloc_descriptionI9mem_usageE17mem_location_hashEPS2_21simple_hashmap_traitsI19default_hash_traitsIS4_ES5_EE10hash_entryE11xcallocatorE6expandEv xcalloc 102
_ZN10hash_tableIN8hash_mapIN21mem_alloc_descriptionI9mem_usageE17mem_location_hashEPS2_21simple_hashmap_traitsI19default_hash_traitsIS4_ES5_EE10hash_entryE11xcallocatorE6expandEv iterative_hash 227
_ZN10hash_tableIN8hash_mapIN21mem_alloc_descriptionI9mem_usageE17mem_location_hashEPS2_21simple_hashmap_traitsI19default_hash_traitsIS4_ES5_EE10hash_entryE11xcallocatorE6expandEv iterative_hash 253
_ZN10hash_tableIN8hash_mapIN21mem_alloc_descriptionI9mem_usageE17mem_location_hashEPS2_21simple_hashmap_traitsI19default_hash_traitsIS4_ES5_EE10hash_entryE11xcallocatorE6expandEv prime_tab 383
_ZN10hash_tableIN8hash_mapIN21mem_alloc_descriptionI9mem_usageE17mem_location_hashEPS2_21simple_hashmap_traitsI19default_hash_traitsIS4_ES5_EE10hash_entryE11xcallocatorE6expandEv prime_tab 390
_ZN10hash_tableIN8hash_mapIN21mem_alloc_descriptionI9mem_usageE17mem_location_hashEPS2_21simple_hashmap_traitsI19default_hash_traitsIS4_ES5_EE10hash_entryE11xcallocatorE6expandEv _Z8ggc_freePv 551
_ZN10hash_tableIN8hash_mapIN21mem_alloc_descriptionI9mem_usageE17mem_location_hashEPS2_21simple_hashmap_traitsI19default_hash_traitsIS4_ES5_EE10hash_entryE11xcallocatorE6expandEv _Z26ggc_internal_cleared_allocmPFvPvEmm 590
_ZN10hash_tableIN8hash_mapIN21mem_alloc_descriptionI9mem_usageE17mem_location_hashEPS2_21simple_hashmap_traitsI19default_hash_traitsIS4_ES5_EE10hash_entryE11xcallocatorE6expandEv _Z11fancy_abortPKciS0_ 619
_ZN10hash_tableIN8hash_mapIN21mem_alloc_descriptionI9mem_usageE17mem_location_hashEPS2_21simple_hashmap_traitsI19default_hash_traitsIS4_ES5_EE10hash_entryE11xcallocatorE6expandEv _Z29hash_table_higher_prime_indexm 641
_ZN10hash_tableIN8hash_mapIN21mem_alloc_descriptionI9mem_usageE17mem_location_hashEPS2_21simple_hashmap_traitsI19default_hash_traitsIS4_ES5_EE10hash_entryE11xcallocatorE6expandEv prime_tab 662
_ZN10hash_tableIN8hash_mapIN21mem_alloc_descriptionI9mem_usageE17mem_location_hashEPS2_21simple_hashmap_traitsI19default_hash_traitsIS4_ES5_EE10hash_entryE11xcallocatorE6expandEv hash_table_usage 675
_ZN10hash_tableIN8hash_mapIN21mem_alloc_descriptionI9mem_usageE17mem_location_hashEPS2_21simple_hashmap_traitsI19default_hash_traitsIS4_ES5_EE10hash_entryE11xcallocatorE6expandEv _ZN10hash_tableIN8hash_mapIPKv14mem_usage_pairI9mem_usageE21simple_hashmap_traitsI19default_hash_traitsIS2_ES5_EE10hash_entryE11xcallocatorE14find_with_hashERKS2_j 709
_ZN10hash_tableIN8hash_mapIN21mem_alloc_descriptionI9mem_usageE17mem_location_hashEPS2_21simple_hashmap_traitsI19default_hash_traitsIS4_ES5_EE10hash_entryE11xcallocatorE6expandEv free 769
_ZN10hash_tableIN8hash_mapIN21mem_alloc_descriptionI9mem_usageE17mem_location_hashEPS2_21simple_hashmap_traitsI19default_hash_traitsIS4_ES5_EE10hash_entryE11xcallocatorE6expandEv hash_table_usage 797
_ZN10hash_tableIN8hash_mapIN21mem_alloc_descriptionI9mem_usageE17mem_location_hashEPS2_21simple_hashmap_traitsI19default_hash_traitsIS4_ES5_EE10hash_entryE11xcallocatorE6expandEv _ZN21mem_alloc_descriptionI9mem_usageE25release_instance_overheadEPvmb 807
_ZN10hash_tableIN8hash_mapIN21mem_alloc_descriptionI9mem_usageE17mem_location_hashEPS2_21simple_hashmap_traitsI19default_hash_traitsIS4_ES5_EE10hash_entryE11xcallocatorE19find_slot_with_hashERKP12mem_locationj13insert_option prime_tab 52
_ZN10hash_tableIN8hash_mapIN21mem_alloc_descriptionI9mem_usageE17mem_location_hashEPS2_21simple_hashmap_traitsI19default_hash_traitsIS4_ES5_EE10hash_entryE11xcallocatorE19find_slot_with_hashERKP12mem_locationj13insert_option prime_tab 58
_ZN10hash_tableIN8hash_mapIN21mem_alloc_descriptionI9mem_usageE17mem_location_hashEPS2_21simple_hashmap_traitsI19default_hash_traitsIS4_ES5_EE10hash_entryE11xcallocatorE19find_slot_with_hashERKP12mem_locationj13insert_option prime_tab 65
_ZN10hash_tableIN8hash_mapIN21mem_alloc_descriptionI9mem_usageE17mem_location_hashEPS2_21simple_hashmap_traitsI19default_hash_traitsIS4_ES5_EE10hash_entryE11xcallocatorE19find_slot_with_hashERKP12mem_locationj13insert_option prime_tab 71
_ZN10hash_tableIN8hash_mapIN21mem_alloc_descriptionI9mem_usageE17mem_location_hashEPS2_21simple_hashmap_traitsI19default_hash_traitsIS4_ES5_EE10hash_entryE11xcallocatorE19find_slot_with_hashERKP12mem_locationj13insert_option _ZN10hash_tableIN8hash_mapIN21mem_alloc_descriptionI9mem_usageE17mem_location_hashEPS2_21simple_hashmap_traitsI19default_hash_traitsIS4_ES5_EE10hash_entryE11xcallocatorE6expandEv 385
_ZL9eq_methodPKvS0_ strcmp 11
_ZL11hash_methodPKv htab_hash_string 4
_ZN10cc1_plugin9callbacksC1Ev,_ZN10cc1_plugin9callbacksC2Ev free 3
_ZN10cc1_plugin9callbacksC1Ev,_ZN10cc1_plugin9callbacksC2Ev xcalloc 12
_ZN10cc1_plugin9callbacksC1Ev,_ZN10cc1_plugin9callbacksC2Ev htab_create_alloc 35
_ZN10cc1_plugin9callbacksD1Ev,_ZN10cc1_plugin9callbacksD2Ev htab_delete 4
_ZN10cc1_plugin9callbacks12add_callbackEPKcPFNS_6statusEPNS_10connectionEE htab_find_slot 26
_ZN10cc1_plugin9callbacks12add_callbackEPKcPFNS_6statusEPNS_10connectionEE xmalloc 39
_ZN10cc1_plugin9callbacks13find_callbackEPKc htab_find 15
_ZN10cc1_plugin10connectionD1Ev,_ZN10cc1_plugin10connectionD2Ev _ZTVN10cc1_plugin10connectionE 3
_ZN10cc1_plugin10connectionD1Ev,_ZN10cc1_plugin10connectionD2Ev _ZN10cc1_plugin9callbacksD1Ev 12
_ZN10cc1_plugin10connectionD0Ev _ZTVN10cc1_plugin10connectionE 7
_ZN10cc1_plugin10connectionD0Ev _ZN10cc1_plugin9callbacksD1Ev 16
_ZN10cc1_plugin10connectionD0Ev _ZdlPv 25
_ZN10cc1_plugin10connection4sendEc write 23
_ZN10cc1_plugin10connection4sendEPKvi write 11
_ZN10cc1_plugin10connection7requireEc read 21
_ZN10cc1_plugin10connection3getEPvi read 11
_ZN10cc1_plugin10connection7do_waitEb select 155
_ZN10cc1_plugin10connection7do_waitEb read 280
_ZN10cc1_plugin10connection7do_waitEb __errno_location 345
_ZN10cc1_plugin10connection7do_waitEb read 398
_ZN10cc1_plugin10connection7do_waitEb _ZN10cc1_plugin10connection5printEPKc 431
_ZN10cc1_plugin10connection7do_waitEb _ZN10cc1_plugin10unmarshallEPNS_10connectionEPPc 476
_ZN10cc1_plugin10connection7do_waitEb _ZN10cc1_plugin9callbacks13find_callbackEPKc 496
_ZN10cc1_plugin16marshall_intlikeEPNS_10connectionEy _ZN10cc1_plugin10connection4sendEc 19
_ZN10cc1_plugin16marshall_intlikeEPNS_10connectionEy _ZN10cc1_plugin10connection4sendEPKvi 41
_ZN10cc1_plugin18unmarshall_intlikeEPNS_10connectionEPy _ZN10cc1_plugin10connection7requireEc 18
_ZN10cc1_plugin18unmarshall_intlikeEPNS_10connectionEPy _ZN10cc1_plugin10connection3getEPvi 58
_ZN10cc1_plugin16unmarshall_checkEPNS_10connectionEy _ZN10cc1_plugin18unmarshall_intlikeEPNS_10connectionEPy 14
_ZN10cc1_plugin8marshallEPNS_10connectionEPKc _ZN10cc1_plugin10connection4sendEc 18
_ZN10cc1_plugin8marshallEPNS_10connectionEPKc strlen 35
_ZN10cc1_plugin8marshallEPNS_10connectionEPKc _ZN10cc1_plugin10connection4sendEPKvi 58
_ZN10cc1_plugin8marshallEPNS_10connectionEPKc _ZN10cc1_plugin10connection4sendEPKvi 77
_ZN10cc1_plugin8marshallEPNS_10connectionEPKc _ZN10cc1_plugin10connection4sendEPKvi 119
_ZN10cc1_plugin10unmarshallEPNS_10connectionEPPc _ZN10cc1_plugin10connection7requireEc 20
_ZN10cc1_plugin10unmarshallEPNS_10connectionEPPc _ZN10cc1_plugin10connection3getEPvi 62
_ZN10cc1_plugin10unmarshallEPNS_10connectionEPPc _ZSt7nothrow 86
_ZN10cc1_plugin10unmarshallEPNS_10connectionEPPc _ZnamRKSt9nothrow_t 91
_ZN10cc1_plugin10unmarshallEPNS_10connectionEPPc _ZN10cc1_plugin10connection3getEPvi 114
_ZN10cc1_plugin10unmarshallEPNS_10connectionEPPc _ZdaPv 130
_ZN10cc1_plugin20marshall_array_startEPNS_10connectionEcm _ZN10cc1_plugin10connection4sendEc 17
_ZN10cc1_plugin20marshall_array_startEPNS_10connectionEcm _ZN10cc1_plugin10connection4sendEPKvi 44
_ZN10cc1_plugin20marshall_array_elmtsEPNS_10connectionEmPv _ZN10cc1_plugin10connection4sendEPKvi 9
_ZN10cc1_plugin22unmarshall_array_startEPNS_10connectionEcPm _ZN10cc1_plugin10connection7requireEc 17
_ZN10cc1_plugin22unmarshall_array_startEPNS_10connectionEcPm _ZN10cc1_plugin10connection3getEPvi 46
_ZN10cc1_plugin22unmarshall_array_elmtsEPNS_10connectionEmPv _ZN10cc1_plugin10connection3getEPvi 9
_ZN10cc1_plugin8marshallEPNS_10connectionEPK14gcc_type_array _ZN10cc1_plugin20marshall_array_startEPNS_10connectionEcm 27
_ZN10cc1_plugin8marshallEPNS_10connectionEPK14gcc_type_array _ZN10cc1_plugin20marshall_array_startEPNS_10connectionEcm 77
_ZN10cc1_plugin8marshallEPNS_10connectionEPK14gcc_type_array _ZN10cc1_plugin10connection4sendEPKvi 55
_ZN10cc1_plugin10unmarshallEPNS_10connectionEPP14gcc_type_array _ZN10cc1_plugin22unmarshall_array_startEPNS_10connectionEcPm 26
_ZN10cc1_plugin10unmarshallEPNS_10connectionEPP14gcc_type_array _Znwm 56
_ZN10cc1_plugin10unmarshallEPNS_10connectionEPP14gcc_type_array _Znam 103
_ZN10cc1_plugin10unmarshallEPNS_10connectionEPP14gcc_type_array _ZN10cc1_plugin10connection3getEPvi 131
_ZN10cc1_plugin10unmarshallEPNS_10connectionEPP14gcc_type_array _ZdaPv 153
_ZN10cc1_plugin10unmarshallEPNS_10connectionEPP14gcc_type_array _ZdlPv 170
_ZL24at_fake_function_scope_pv cfun 7
_ZL24at_fake_function_scope_pv current_function_decl 19
_ZL24at_fake_function_scope_pv _Z13current_scopev 30
_ZL24at_fake_function_scope_pv current_function_decl 37
_ZL18push_fake_functionP9tree_node10scope_kind current_function_decl 12
_ZL18push_fake_functionP9tree_node10scope_kind _Z11begin_scope10scope_kindP9tree_node 19
_ZL18push_fake_functionP9tree_node10scope_kind function_depth 25
_ZL18push_fake_functionP9tree_node10scope_kind _Z11begin_scope10scope_kindP9tree_node 39
_ZL17get_current_scopev _Z20at_namespace_scope_pv 5
_ZL17get_current_scopev scope_chain 16
_ZL17get_current_scopev _Z16at_class_scope_pv 33
_ZL17get_current_scopev scope_chain 44
_ZL17get_current_scopev current_function_decl 76
_ZL17get_current_scopev _Z19at_function_scope_pv 89
_ZL17get_current_scopev _Z11fancy_abortPKciS0_ 113
_ZL15reactivate_declP9tree_nodeP16cp_binding_level cfun 37
_ZL15reactivate_declP9tree_nodeP16cp_binding_level _Z16at_class_scope_pv 86
_ZL15reactivate_declP9tree_nodeP16cp_binding_level cp_global_trees 126
_ZL15reactivate_declP9tree_nodeP16cp_binding_level cfun 161
_ZL15reactivate_declP9tree_nodeP16cp_binding_level _Z12push_bindingP9tree_nodeS0_P16cp_binding_level 355
_ZL15reactivate_declP9tree_nodeP16cp_binding_level _Z9tree_consP9tree_nodeS0_S0_ 413
_ZL15reactivate_declP9tree_nodeP16cp_binding_level _Z15build_tree_listP9tree_nodeS0_ 431
_ZL15reactivate_declP9tree_nodeP16cp_binding_level scope_chain 481
_ZL15reactivate_declP9tree_nodeP16cp_binding_level _Z11fancy_abortPKciS0_ 582
_ZL15reactivate_declP9tree_nodeP16cp_binding_level scope_chain 612
_ZL15reactivate_declP9tree_nodeP16cp_binding_level _Z9tree_consP9tree_nodeS0_S0_ 649
_ZL15reactivate_declP9tree_nodeP16cp_binding_level _Z16strip_using_declP9tree_node 700
_ZL15reactivate_declP9tree_nodeP16cp_binding_level _Z16strip_using_declP9tree_node 713
_ZL15reactivate_declP9tree_nodeP16cp_binding_level global_trees 749
_ZL15reactivate_declP9tree_nodeP16cp_binding_level _Z9comptypesP9tree_nodeS0_i 935
_ZL15reactivate_declP9tree_nodeP16cp_binding_level _Z9comptypesP9tree_nodeS0_i 1044
_ZL15reactivate_declP9tree_nodeP16cp_binding_level _Z19uses_template_parmsP9tree_node 1082
_ZL15reactivate_declP9tree_nodeP16cp_binding_level _Z19uses_template_parmsP9tree_node 1115
_ZL15reactivate_declP9tree_nodeP16cp_binding_level _Z11fancy_abortPKciS0_ 1165
_ZL15reactivate_declP9tree_nodeP16cp_binding_level _Z11fancy_abortPKciS0_ 1185
_ZL15reactivate_declP9tree_nodeP16cp_binding_level _Z11fancy_abortPKciS0_ 1205
_ZL15reactivate_declP9tree_nodeP16cp_binding_level scope_chain 1212
_ZL15reactivate_declP9tree_nodeP16cp_binding_level _Z16dependent_type_pP9tree_node 1280
_ZL15reactivate_declP9tree_nodeP16cp_binding_level _Z16dependent_type_pP9tree_node 1331
_ZL15reactivate_declP9tree_nodeP16cp_binding_level tree_code_type 1416
_ZL15reactivate_declP9tree_nodeP16cp_binding_level _Z15duplicate_declsP9tree_nodeS0_b 1437
_ZL8targlistPK20gcc_cp_template_args _Z13make_tree_veci 14
_ZL8targlistPK20gcc_cp_template_args _Z11fancy_abortPKciS0_ 132
_ZL9pop_scopev _Z19toplevel_bindings_pv 5
_ZL9pop_scopev scope_chain 16
_ZL9pop_scopev cp_global_trees 23
_ZL9pop_scopev _Z20at_namespace_scope_pv 38
_ZL9pop_scopev _Z16at_class_scope_pv 51
_ZL9pop_scopev _Z19at_function_scope_pv 77
_ZL9pop_scopev cfun 92
_ZL9pop_scopev _Z11leave_scopev 166
_ZL9pop_scopev cfun 173
_ZL9pop_scopev function_depth 179
_ZL9pop_scopev current_function_decl 222
_ZL9pop_scopev _Z11leave_scopev 237
_ZL9pop_scopev cfun 244
_ZL9pop_scopev current_function_decl 251
_ZL9pop_scopev current_function_decl 316
_ZL9pop_scopev scope_chain 379
_ZL9pop_scopev scope_chain 403
_ZL9pop_scopev scope_chain 427
_ZL9pop_scopev scope_chain 467
_ZL9pop_scopev _Z11fancy_abortPKciS0_ 504
_ZL9pop_scopev scope_chain 515
_ZL9pop_scopev _Z11fancy_abortPKciS0_ 547
_ZL9pop_scopev _Z11fancy_abortPKciS0_ 567
_ZL9pop_scopev _Z11fancy_abortPKciS0_ 587
_ZL9pop_scopev _Z13pop_namespacev 333
_ZL9pop_scopev _Z8popclassv 349
_ZL9pop_scopev _Z18pop_from_top_levelv 365
_ZL21plugin_binding_oracle17cp_oracle_requestP9tree_node _ZN10cc1_plugin10connection4sendEc 43
_ZL21plugin_binding_oracle17cp_oracle_requestP9tree_node _ZN10cc1_plugin8marshallEPNS_10connectionEPKc 73
_ZL21plugin_binding_oracle17cp_oracle_requestP9tree_node _ZN10cc1_plugin16marshall_intlikeEPNS_10connectionEy 90
_ZL21plugin_binding_oracle17cp_oracle_requestP9tree_node _ZN10cc1_plugin16marshall_intlikeEPNS_10connectionEy 104
_ZL21plugin_binding_oracle17cp_oracle_requestP9tree_node _ZN10cc1_plugin8marshallEPNS_10connectionEPKc 119
_ZL21plugin_binding_oracle17cp_oracle_requestP9tree_node _ZN10cc1_plugin10connection7do_waitEb 136
_ZL21plugin_binding_oracle17cp_oracle_requestP9tree_node _ZN10cc1_plugin18unmarshall_intlikeEPNS_10connectionEPy 153
_ZL21plugin_binding_oracle17cp_oracle_requestP9tree_node _Z11fancy_abortPKciS0_ 175
_ZL21plugin_binding_oracle17cp_oracle_requestP9tree_node _Z11fancy_abortPKciS0_ 195
_ZN10cc1_plugin10unmarshallEPNS_10connectionEP18gcc_cp_symbol_kind _ZN10cc1_plugin18unmarshall_intlikeEPNS_10connectionEPy 14
_ZN10cc1_plugin10unmarshallEPNS_10connectionEP21gcc_cp_oracle_request _ZN10cc1_plugin18unmarshall_intlikeEPNS_10connectionEPy 14
_ZN10cc1_plugin10unmarshallEPNS_10connectionEP17gcc_cp_qualifiers _ZN10cc1_plugin18unmarshall_intlikeEPNS_10connectionEPy 14
_ZN10cc1_plugin10unmarshallEPNS_10connectionEP21gcc_cp_ref_qualifiers _ZN10cc1_plugin18unmarshall_intlikeEPNS_10connectionEPy 14
_ZN10cc1_plugin8marshallEPNS_10connectionEPK15gcc_vbase_array _ZN10cc1_plugin20marshall_array_startEPNS_10connectionEcm 27
_ZN10cc1_plugin8marshallEPNS_10connectionEPK15gcc_vbase_array _ZN10cc1_plugin20marshall_array_elmtsEPNS_10connectionEmPv 51
_ZN10cc1_plugin8marshallEPNS_10connectionEPK15gcc_vbase_array _ZN10cc1_plugin20marshall_array_startEPNS_10connectionEcm 85
_ZN10cc1_plugin8marshallEPNS_10connectionEPK15gcc_vbase_array _ZN10cc1_plugin20marshall_array_elmtsEPNS_10connectionEmPv 132
_ZN10cc1_plugin10unmarshallEPNS_10connectionEPP15gcc_vbase_array _ZN10cc1_plugin22unmarshall_array_startEPNS_10connectionEcPm 28
_ZN10cc1_plugin10unmarshallEPNS_10connectionEPP15gcc_vbase_array _Znwm 65
_ZN10cc1_plugin10unmarshallEPNS_10connectionEPP15gcc_vbase_array _Znam 107
_ZN10cc1_plugin10unmarshallEPNS_10connectionEPP15gcc_vbase_array _ZN10cc1_plugin22unmarshall_array_elmtsEPNS_10connectionEmPv 136
_ZN10cc1_plugin10unmarshallEPNS_10connectionEPP15gcc_vbase_array _ZdaPv 159
_ZN10cc1_plugin10unmarshallEPNS_10connectionEPP15gcc_vbase_array _ZdlPv 175
_ZN10cc1_plugin10unmarshallEPNS_10connectionEPP15gcc_vbase_array _Znam 263
_ZN10cc1_plugin10unmarshallEPNS_10connectionEPP15gcc_vbase_array _ZN10cc1_plugin22unmarshall_array_elmtsEPNS_10connectionEmPv 292
_ZN10cc1_plugin10unmarshallEPNS_10connectionEPP15gcc_vbase_array _ZdaPv 319
_ZN10cc1_plugin8marshallEPNS_10connectionEPK20gcc_cp_template_args _ZN10cc1_plugin20marshall_array_startEPNS_10connectionEcm 27
_ZN10cc1_plugin8marshallEPNS_10connectionEPK20gcc_cp_template_args _ZN10cc1_plugin20marshall_array_elmtsEPNS_10connectionEmPv 46
_ZN10cc1_plugin8marshallEPNS_10connectionEPK20gcc_cp_template_args _ZN10cc1_plugin20marshall_array_startEPNS_10connectionEcm 77
_ZN10cc1_plugin8marshallEPNS_10connectionEPK20gcc_cp_template_args _ZN10cc1_plugin20marshall_array_elmtsEPNS_10connectionEmPv 116
_ZN10cc1_plugin10unmarshallEPNS_10connectionEPP20gcc_cp_template_args _ZN10cc1_plugin22unmarshall_array_startEPNS_10connectionEcPm 26
_ZN10cc1_plugin10unmarshallEPNS_10connectionEPP20gcc_cp_template_args _Znwm 48
_ZN10cc1_plugin10unmarshallEPNS_10connectionEPP20gcc_cp_template_args _Znam 63
_ZN10cc1_plugin10unmarshallEPNS_10connectionEPP20gcc_cp_template_args _ZN10cc1_plugin22unmarshall_array_elmtsEPNS_10connectionEmPv 84
_ZN10cc1_plugin10unmarshallEPNS_10connectionEPP20gcc_cp_template_args _ZdaPv 107
_ZN10cc1_plugin10unmarshallEPNS_10connectionEPP20gcc_cp_template_args _ZdlPv 123
_ZN10cc1_plugin10unmarshallEPNS_10connectionEPP20gcc_cp_template_args _Znam 214
_ZN10cc1_plugin10unmarshallEPNS_10connectionEPP20gcc_cp_template_args _ZN10cc1_plugin22unmarshall_array_elmtsEPNS_10connectionEmPv 243
_ZN10cc1_plugin10unmarshallEPNS_10connectionEPP20gcc_cp_template_args _ZdaPv 270
_ZN10cc1_plugin8marshallEPNS_10connectionEPK20gcc_cp_function_args _ZN10cc1_plugin20marshall_array_startEPNS_10connectionEcm 27
_ZN10cc1_plugin8marshallEPNS_10connectionEPK20gcc_cp_function_args _ZN10cc1_plugin20marshall_array_startEPNS_10connectionEcm 77
_ZN10cc1_plugin8marshallEPNS_10connectionEPK20gcc_cp_function_args _ZN10cc1_plugin20marshall_array_elmtsEPNS_10connectionEmPv 55
_ZN10cc1_plugin10unmarshallEPNS_10connectionEPP20gcc_cp_function_args _ZN10cc1_plugin22unmarshall_array_startEPNS_10connectionEcPm 26
_ZN10cc1_plugin10unmarshallEPNS_10connectionEPP20gcc_cp_function_args _Znwm 56
_ZN10cc1_plugin10unmarshallEPNS_10connectionEPP20gcc_cp_function_args _Znam 103
_ZN10cc1_plugin10unmarshallEPNS_10connectionEPP20gcc_cp_function_args _ZN10cc1_plugin22unmarshall_array_elmtsEPNS_10connectionEmPv 132
_ZN10cc1_plugin10unmarshallEPNS_10connectionEPP20gcc_cp_function_args _ZdaPv 155
_ZN10cc1_plugin10unmarshallEPNS_10connectionEPP20gcc_cp_function_args _ZdlPv 171
_Z21plugin_push_namespacePN10cc1_plugin10connectionEPKc _Z14get_identifierPKc 18
_Z21plugin_push_namespacePN10cc1_plugin10connectionEPKc _Z14push_namespaceP9tree_nodeb 28
_Z21plugin_push_namespacePN10cc1_plugin10connectionEPKc _Z17push_to_top_levelv 49
_Z17plugin_push_classPN10cc1_plugin10connectionEy _Z13current_scopev 26
_Z17plugin_push_classPN10cc1_plugin10connectionEy cp_global_trees 33
_Z17plugin_push_classPN10cc1_plugin10connectionEy _Z13current_scopev 40
_Z17plugin_push_classPN10cc1_plugin10connectionEy _Z9pushclassP9tree_node 53
_Z17plugin_push_classPN10cc1_plugin10connectionEy _Z13current_scopev 73
_Z17plugin_push_classPN10cc1_plugin10connectionEy _Z11fancy_abortPKciS0_ 99
_Z17plugin_push_classPN10cc1_plugin10connectionEy _Z11fancy_abortPKciS0_ 119
_Z20plugin_push_functionPN10cc1_plugin10connectionEy _Z13current_scopev 20
_Z20plugin_push_functionPN10cc1_plugin10connectionEy cp_global_trees 27
_Z20plugin_push_functionPN10cc1_plugin10connectionEy _Z13current_scopev 34
_Z20plugin_push_functionPN10cc1_plugin10connectionEy _Z13current_scopev 73
_Z20plugin_push_functionPN10cc1_plugin10connectionEy _Z11fancy_abortPKciS0_ 99
_Z20plugin_push_functionPN10cc1_plugin10connectionEy _Z11fancy_abortPKciS0_ 119
_Z22plugin_reactivate_declPN10cc1_plugin10connectionEyy cfun 58
_Z22plugin_reactivate_declPN10cc1_plugin10connectionEyy cp_global_trees 97
_Z22plugin_reactivate_declPN10cc1_plugin10connectionEyy scope_chain 155
_Z22plugin_reactivate_declPN10cc1_plugin10connectionEyy _Z16at_class_scope_pv 174
_Z22plugin_reactivate_declPN10cc1_plugin10connectionEyy cfun 190
_Z22plugin_reactivate_declPN10cc1_plugin10connectionEyy scope_chain 220
_Z22plugin_reactivate_declPN10cc1_plugin10connectionEyy _Z11fancy_abortPKciS0_ 249
_Z22plugin_reactivate_declPN10cc1_plugin10connectionEyy _Z11fancy_abortPKciS0_ 269
_Z22plugin_reactivate_declPN10cc1_plugin10connectionEyy _Z11fancy_abortPKciS0_ 289
_Z22plugin_reactivate_declPN10cc1_plugin10connectionEyy _Z11fancy_abortPKciS0_ 309
_Z26plugin_add_using_namespacePN10cc1_plugin10connectionEy _Z32finish_namespace_using_directiveP9tree_nodeS0_ 16
_Z26plugin_add_using_namespacePN10cc1_plugin10connectionEy _Z11fancy_abortPKciS0_ 46
_Z26plugin_add_namespace_aliasPN10cc1_plugin10connectionEPKcy _Z14get_identifierPKc 8
_Z26plugin_add_namespace_aliasPN10cc1_plugin10connectionEPKcy _Z18do_namespace_aliasP9tree_nodeS0_ 19
_Z21plugin_add_using_declPN10cc1_plugin10connectionE18gcc_cp_symbol_kindy _Z21template_parm_scope_pv 43
_Z21plugin_add_using_declPN10cc1_plugin10connectionE18gcc_cp_symbol_kindy _Z16at_class_scope_pv 56
_Z21plugin_add_using_declPN10cc1_plugin10connectionE18gcc_cp_symbol_kindy _Z20at_namespace_scope_pv 112
_Z21plugin_add_using_declPN10cc1_plugin10connectionE18gcc_cp_symbol_kindy _Z27finish_namespace_using_declP9tree_nodeS0_S0_ 134
_Z21plugin_add_using_declPN10cc1_plugin10connectionE18gcc_cp_symbol_kindy _Z19do_class_using_declP9tree_nodeS0_ 167
_Z21plugin_add_using_declPN10cc1_plugin10connectionE18gcc_cp_symbol_kindy tree_code_type 190
_Z21plugin_add_using_declPN10cc1_plugin10connectionE18gcc_cp_symbol_kindy scope_chain 229
_Z21plugin_add_using_declPN10cc1_plugin10connectionE18gcc_cp_symbol_kindy global_trees 236
_Z21plugin_add_using_declPN10cc1_plugin10connectionE18gcc_cp_symbol_kindy _Z25finish_member_declarationP9tree_node 248
_Z21plugin_add_using_declPN10cc1_plugin10connectionE18gcc_cp_symbol_kindy cp_global_trees 294
_Z21plugin_add_using_declPN10cc1_plugin10connectionE18gcc_cp_symbol_kindy scope_chain 311
_Z21plugin_add_using_declPN10cc1_plugin10connectionE18gcc_cp_symbol_kindy global_trees 318
_Z21plugin_add_using_declPN10cc1_plugin10connectionE18gcc_cp_symbol_kindy scope_chain 339
_Z21plugin_add_using_declPN10cc1_plugin10connectionE18gcc_cp_symbol_kindy global_trees 346
_Z21plugin_add_using_declPN10cc1_plugin10connectionE18gcc_cp_symbol_kindy _Z11fancy_abortPKciS0_ 386
_Z21plugin_add_using_declPN10cc1_plugin10connectionE18gcc_cp_symbol_kindy _Z11fancy_abortPKciS0_ 406
_Z21plugin_add_using_declPN10cc1_plugin10connectionE18gcc_cp_symbol_kindy _Z11fancy_abortPKciS0_ 426
_Z21plugin_add_using_declPN10cc1_plugin10connectionE18gcc_cp_symbol_kindy _Z11fancy_abortPKciS0_ 446
_Z21plugin_add_using_declPN10cc1_plugin10connectionE18gcc_cp_symbol_kindy _Z11fancy_abortPKciS0_ 466
_Z17plugin_add_friendPN10cc1_plugin10connectionEyy tree_code_type 24
_Z17plugin_add_friendPN10cc1_plugin10connectionEyy _Z10add_friendP9tree_nodeS0_b 45
_Z17plugin_add_friendPN10cc1_plugin10connectionEyy _Z17make_friend_classP9tree_nodeS0_b 74
_Z17plugin_add_friendPN10cc1_plugin10connectionEyy _Z16at_class_scope_pv 102
_Z17plugin_add_friendPN10cc1_plugin10connectionEyy scope_chain 118
_Z17plugin_add_friendPN10cc1_plugin10connectionEyy _Z11fancy_abortPKciS0_ 144
_Z17plugin_add_friendPN10cc1_plugin10connectionEyy _Z11fancy_abortPKciS0_ 164
_Z27plugin_build_reference_typePN10cc1_plugin10connectionEy21gcc_cp_ref_qualifiers _Z11fancy_abortPKciS0_ 38
_Z27plugin_build_reference_typePN10cc1_plugin10connectionEy21gcc_cp_ref_qualifiers _Z23cp_build_reference_typeP9tree_nodeb 51
_Z18plugin_build_fieldPN10cc1_plugin10connectionEPKcy18gcc_cp_symbol_kindmm scope_chain 32
_Z18plugin_build_fieldPN10cc1_plugin10connectionEPKcy18gcc_cp_symbol_kindmm _Z16at_class_scope_pv 41
_Z18plugin_build_fieldPN10cc1_plugin10connectionEPKcy18gcc_cp_symbol_kindmm _Z14get_identifierPKc 118
_Z18plugin_build_fieldPN10cc1_plugin10connectionEPKcy18gcc_cp_symbol_kindmm _Z10build_declj9tree_codeP9tree_nodeS1_ 139
_Z18plugin_build_fieldPN10cc1_plugin10connectionEPKcy18gcc_cp_symbol_kindmm tree_code_type 157
_Z18plugin_build_fieldPN10cc1_plugin10connectionEPKcy18gcc_cp_symbol_kindmm scope_chain 206
_Z18plugin_build_fieldPN10cc1_plugin10connectionEPKcy18gcc_cp_symbol_kindmm global_trees 213
_Z18plugin_build_fieldPN10cc1_plugin10connectionEPKcy18gcc_cp_symbol_kindmm scope_chain 227
_Z18plugin_build_fieldPN10cc1_plugin10connectionEPKcy18gcc_cp_symbol_kindmm global_trees 234
_Z18plugin_build_fieldPN10cc1_plugin10connectionEPKcy18gcc_cp_symbol_kindmm global_trees 287
_Z18plugin_build_fieldPN10cc1_plugin10connectionEPKcy18gcc_cp_symbol_kindmm _Z13size_int_kind8poly_intILj1ElE14size_type_kind 339
_Z18plugin_build_fieldPN10cc1_plugin10connectionEPKcy18gcc_cp_symbol_kindmm _Z12pos_from_bitPP9tree_nodeS1_jS0_ 373
_Z18plugin_build_fieldPN10cc1_plugin10connectionEPKcy18gcc_cp_symbol_kindmm _Z13size_int_kind8poly_intILj1ElE14size_type_kind 386
_Z18plugin_build_fieldPN10cc1_plugin10connectionEPKcy18gcc_cp_symbol_kindmm _Z13size_int_kind8poly_intILj1ElE14size_type_kind 405
_Z18plugin_build_fieldPN10cc1_plugin10connectionEPKcy18gcc_cp_symbol_kindmm _Z29c_build_bitfield_integer_typemi 491
_Z18plugin_build_fieldPN10cc1_plugin10connectionEPKcy18gcc_cp_symbol_kindmm scope_chain 519
_Z18plugin_build_fieldPN10cc1_plugin10connectionEPKcy18gcc_cp_symbol_kindmm global_trees 526
_Z18plugin_build_fieldPN10cc1_plugin10connectionEPKcy18gcc_cp_symbol_kindmm _Z16vector_type_modePK9tree_node 548
_Z18plugin_build_fieldPN10cc1_plugin10connectionEPKcy18gcc_cp_symbol_kindmm _Z11fancy_abortPKciS0_ 573
_Z18plugin_build_fieldPN10cc1_plugin10connectionEPKcy18gcc_cp_symbol_kindmm _Z11fancy_abortPKciS0_ 593
_Z18plugin_build_fieldPN10cc1_plugin10connectionEPKcy18gcc_cp_symbol_kindmm _Z11fancy_abortPKciS0_ 613
_Z18plugin_build_fieldPN10cc1_plugin10connectionEPKcy18gcc_cp_symbol_kindmm _Z11fancy_abortPKciS0_ 633
_Z18plugin_build_fieldPN10cc1_plugin10connectionEPKcy18gcc_cp_symbol_kindmm _Z11fancy_abortPKciS0_ 653
_Z24plugin_finish_class_typePN10cc1_plugin10connectionEm scope_chain 9
_Z24plugin_finish_class_typePN10cc1_plugin10connectionEm _Z13finish_structP9tree_nodeS0_ 38
_Z24plugin_finish_class_typePN10cc1_plugin10connectionEm _Z16compare_tree_intPK9tree_nodem 50
_Z24plugin_finish_class_typePN10cc1_plugin10connectionEm _Z11fancy_abortPKciS0_ 86
_Z24plugin_finish_class_typePN10cc1_plugin10connectionEm _Z11fancy_abortPKciS0_ 106
_Z26plugin_build_enum_constantPN10cc1_plugin10connectionEyPKcm _Z13build_int_cstP9tree_node8poly_intILj1ElE 23
_Z26plugin_build_enum_constantPN10cc1_plugin10connectionEyPKcm _Z14get_identifierPKc 34
_Z26plugin_build_enum_constantPN10cc1_plugin10connectionEyPKcm _Z16build_enumeratorP9tree_nodeS0_S0_S0_j 56
_Z26plugin_build_enum_constantPN10cc1_plugin10connectionEyPKcm _Z11fancy_abortPKciS0_ 92
_Z34plugin_get_function_parameter_declPN10cc1_plugin10connectionEyi _Z25skip_artificial_parms_forPK9tree_nodePS_ 29
_Z34plugin_get_function_parameter_declPN10cc1_plugin10connectionEyi _Z11fancy_abortPKciS0_ 107
_Z34plugin_get_function_parameter_declPN10cc1_plugin10connectionEyi _Z11fancy_abortPKciS0_ 127
_Z34plugin_get_function_parameter_declPN10cc1_plugin10connectionEyi _Z11fancy_abortPKciS0_ 147
_Z26plugin_start_template_declPN10cc1_plugin10connectionE _Z24begin_template_parm_listv 5
_Z26plugin_start_template_declPN10cc1_plugin10connectionE scope_chain 12
_Z20plugin_get_type_declPN10cc1_plugin10connectionEy _Z11fancy_abortPKciS0_ 28
_Z20plugin_get_decl_typePN10cc1_plugin10connectionEy _Z11fancy_abortPKciS0_ 28
_Z20plugin_get_char_typePN10cc1_plugin10connectionE integer_types 3
_Z21plugin_get_float_typePN10cc1_plugin10connectionEmPKc global_trees 67
_Z21plugin_get_float_typePN10cc1_plugin10connectionEmPKc global_trees 93
_Z21plugin_get_float_typePN10cc1_plugin10connectionEmPKc global_trees 115
_Z21plugin_get_float_typePN10cc1_plugin10connectionEmPKc global_trees 136
_Z21plugin_get_float_typePN10cc1_plugin10connectionEmPKc global_trees 147
_Z21plugin_get_float_typePN10cc1_plugin10connectionEmPKc _Z11fancy_abortPKciS0_ 170
_Z21plugin_get_float_typePN10cc1_plugin10connectionEmPKc _Z11fancy_abortPKciS0_ 190
_Z20plugin_get_void_typePN10cc1_plugin10connectionE global_trees 3
_Z20plugin_get_bool_typePN10cc1_plugin10connectionE global_trees 3
_Z23plugin_get_nullptr_typePN10cc1_plugin10connectionE cp_global_trees 3
_Z27plugin_get_nullptr_constantPN10cc1_plugin10connectionE cp_global_trees 3
_Z27plugin_build_qualified_typePN10cc1_plugin10connectionEy17gcc_cp_qualifiers _Z11fancy_abortPKciS0_ 48
_Z27plugin_build_qualified_typePN10cc1_plugin10connectionEy17gcc_cp_qualifiers _Z20build_qualified_typeP9tree_nodei 83
_Z27plugin_build_qualified_typePN10cc1_plugin10connectionEy17gcc_cp_qualifiers _Z20build_qualified_typeP9tree_nodei 104
_ZL33plugin_pragma_pop_user_expressionP10cpp_reader cp_binding_oracle 21
_ZL33plugin_pragma_pop_user_expressionP10cpp_reader _Z19at_function_scope_pv 33
_ZL33plugin_pragma_pop_user_expressionP10cpp_reader cfun 48
_ZL33plugin_pragma_pop_user_expressionP10cpp_reader cfun 88
_ZL33plugin_pragma_pop_user_expressionP10cpp_reader cfun 128
_ZL33plugin_pragma_pop_user_expressionP10cpp_reader current_function_decl 144
_ZL33plugin_pragma_pop_user_expressionP10cpp_reader _ZN10cc1_plugin4callIiEENS_6statusEPNS_10connectionEPKcPT_ 182
_ZL33plugin_pragma_pop_user_expressionP10cpp_reader cfun 189
_ZL33plugin_pragma_pop_user_expressionP10cpp_reader cp_binding_oracle 210
_ZL33plugin_pragma_pop_user_expressionP10cpp_reader _Z19at_function_scope_pv 219
_ZL33plugin_pragma_pop_user_expressionP10cpp_reader scope_chain 243
_ZL33plugin_pragma_pop_user_expressionP10cpp_reader scope_chain 259
_ZL33plugin_pragma_pop_user_expressionP10cpp_reader scope_chain 275
_ZL33plugin_pragma_pop_user_expressionP10cpp_reader cfun 291
_ZL33plugin_pragma_pop_user_expressionP10cpp_reader _Z11fancy_abortPKciS0_ 313
_ZL33plugin_pragma_pop_user_expressionP10cpp_reader _Z11fancy_abortPKciS0_ 333
_ZL33plugin_pragma_pop_user_expressionP10cpp_reader _Z11fancy_abortPKciS0_ 353
_ZL33plugin_pragma_pop_user_expressionP10cpp_reader _Z11fancy_abortPKciS0_ 373
_ZL34plugin_pragma_push_user_expressionP10cpp_reader cfun 38
_ZL34plugin_pragma_push_user_expressionP10cpp_reader cp_binding_oracle 91
_ZL34plugin_pragma_push_user_expressionP10cpp_reader cp_binding_oracle 105
_ZL34plugin_pragma_push_user_expressionP10cpp_reader _Z19at_function_scope_pv 114
_ZL34plugin_pragma_push_user_expressionP10cpp_reader _Z19at_function_scope_pv 127
_ZL34plugin_pragma_push_user_expressionP10cpp_reader cfun 142
_ZL34plugin_pragma_push_user_expressionP10cpp_reader _ZN10cc1_plugin4callIiEENS_6statusEPNS_10connectionEPKcPT_ 199
_ZL34plugin_pragma_push_user_expressionP10cpp_reader current_function_decl 219
_ZL34plugin_pragma_push_user_expressionP10cpp_reader scope_chain 226
_ZL34plugin_pragma_push_user_expressionP10cpp_reader cfun 233
_ZL34plugin_pragma_push_user_expressionP10cpp_reader scope_chain 277
_ZL34plugin_pragma_push_user_expressionP10cpp_reader cfun 301
_ZL34plugin_pragma_push_user_expressionP10cpp_reader _Z19at_function_scope_pv 312
_ZL34plugin_pragma_push_user_expressionP10cpp_reader cfun 327
_ZL34plugin_pragma_push_user_expressionP10cpp_reader _Z26get_identifier_with_lengthPKcm 391
_ZL34plugin_pragma_push_user_expressionP10cpp_reader _Z11lookup_nameP9tree_node 399
_ZL34plugin_pragma_push_user_expressionP10cpp_reader cfun 409
_ZL34plugin_pragma_push_user_expressionP10cpp_reader _Z21cp_build_indirect_refP9tree_node12ref_operatori 455
_ZL34plugin_pragma_push_user_expressionP10cpp_reader cfun 468
_ZL34plugin_pragma_push_user_expressionP10cpp_reader scope_chain 518
_ZL34plugin_pragma_push_user_expressionP10cpp_reader scope_chain 537
_ZL34plugin_pragma_push_user_expressionP10cpp_reader scope_chain 556
_ZL34plugin_pragma_push_user_expressionP10cpp_reader _Z19at_function_scope_pv 581
_ZL34plugin_pragma_push_user_expressionP10cpp_reader _Z11fancy_abortPKciS0_ 609
_ZL34plugin_pragma_push_user_expressionP10cpp_reader current_function_decl 619
_ZL34plugin_pragma_push_user_expressionP10cpp_reader _Z17set_global_friendP9tree_node 624
_ZL34plugin_pragma_push_user_expressionP10cpp_reader scope_chain 636
_ZL34plugin_pragma_push_user_expressionP10cpp_reader scope_chain 652
_ZL34plugin_pragma_push_user_expressionP10cpp_reader cfun 668
_ZL34plugin_pragma_push_user_expressionP10cpp_reader _Z19at_function_scope_pv 673
_ZL34plugin_pragma_push_user_expressionP10cpp_reader cfun 688
_ZL34plugin_pragma_push_user_expressionP10cpp_reader cfun 867
_ZL34plugin_pragma_push_user_expressionP10cpp_reader scope_chain 961
_ZL34plugin_pragma_push_user_expressionP10cpp_reader _Z11fancy_abortPKciS0_ 993
_ZL34plugin_pragma_push_user_expressionP10cpp_reader _Z11fancy_abortPKciS0_ 1013
_ZL34plugin_pragma_push_user_expressionP10cpp_reader _Z11fancy_abortPKciS0_ 1033
_ZL34plugin_pragma_push_user_expressionP10cpp_reader _Z11fancy_abortPKciS0_ 1053
_ZL34plugin_pragma_push_user_expressionP10cpp_reader _Z11fancy_abortPKciS0_ 1073
_ZL34plugin_pragma_push_user_expressionP10cpp_reader _Z11fancy_abortPKciS0_ 1093
_ZL34plugin_pragma_push_user_expressionP10cpp_reader _Z11fancy_abortPKciS0_ 1113
_ZL34plugin_pragma_push_user_expressionP10cpp_reader _Z11fancy_abortPKciS0_ 1133
_ZL34plugin_pragma_push_user_expressionP10cpp_reader _Z11fancy_abortPKciS0_ 1153
_ZL34plugin_pragma_push_user_expressionP10cpp_reader _Z11fancy_abortPKciS0_ 1173
_ZL34plugin_pragma_push_user_expressionP10cpp_reader _Z11fancy_abortPKciS0_ 1193
_ZL34plugin_pragma_push_user_expressionP10cpp_reader _Z11fancy_abortPKciS0_ 1213
_Z28plugin_make_namespace_inlinePN10cc1_plugin10connectionE scope_chain 9
_Z28plugin_make_namespace_inlinePN10cc1_plugin10connectionE _Z19toplevel_bindings_pv 18
_Z28plugin_make_namespace_inlinePN10cc1_plugin10connectionE cp_global_trees 33
_Z28plugin_make_namespace_inlinePN10cc1_plugin10connectionE _ZN5va_gc7reserveIP9tree_nodeS_EEvRP3vecIT_T0_8vl_embedEjb 164
_Z28plugin_make_namespace_inlinePN10cc1_plugin10connectionE _Z11fancy_abortPKciS0_ 209
_Z28plugin_make_namespace_inlinePN10cc1_plugin10connectionE _Z11fancy_abortPKciS0_ 229
_Z24plugin_add_static_assertPN10cc1_plugin10connectionEyPKcS3_j strlen 42
_Z24plugin_add_static_assertPN10cc1_plugin10connectionEyPKcS3_j _Z12build_stringiPKc 55
_Z24plugin_add_static_assertPN10cc1_plugin10connectionEyPKcS3_j c_global_trees 65
_Z24plugin_add_static_assertPN10cc1_plugin10connectionEyPKcS3_j _Z15fix_string_typeP9tree_node 77
_Z24plugin_add_static_assertPN10cc1_plugin10connectionEyPKcS3_j htab_hash_string 95
_Z24plugin_add_static_assertPN10cc1_plugin10connectionEyPKcS3_j _ZN10hash_tableI13string_hasher11xcallocatorE19find_slot_with_hashERKPKcj13insert_option 116
_Z24plugin_add_static_assertPN10cc1_plugin10connectionEyPKcS3_j line_table 134
_Z24plugin_add_static_assertPN10cc1_plugin10connectionEyPKcS3_j _Z11linemap_addP9line_maps9lc_reasonjPKcj 146
_Z24plugin_add_static_assertPN10cc1_plugin10connectionEyPKcS3_j line_table 153
_Z24plugin_add_static_assertPN10cc1_plugin10connectionEyPKcS3_j _Z18linemap_line_startP9line_mapsjj 163
_Z24plugin_add_static_assertPN10cc1_plugin10connectionEyPKcS3_j line_table 170
_Z24plugin_add_static_assertPN10cc1_plugin10connectionEyPKcS3_j _Z11linemap_addP9line_maps9lc_reasonjPKcj 189
_Z24plugin_add_static_assertPN10cc1_plugin10connectionEyPKcS3_j _Z16at_class_scope_pv 194
_Z24plugin_add_static_assertPN10cc1_plugin10connectionEyPKcS3_j _Z20finish_static_assertP9tree_nodeS0_jb 210
_Z24plugin_add_static_assertPN10cc1_plugin10connectionEyPKcS3_j xstrdup 262
_ZL19record_decl_addressP14plugin_context15decl_addr_value prime_tab 74
_ZL19record_decl_addressP14plugin_context15decl_addr_value prime_tab 80
_ZL19record_decl_addressP14plugin_context15decl_addr_value prime_tab 87
_ZL19record_decl_addressP14plugin_context15decl_addr_value prime_tab 93
_ZL19record_decl_addressP14plugin_context15decl_addr_value xmalloc 302
_ZL19record_decl_addressP14plugin_context15decl_addr_value _Z11fancy_abortPKciS0_ 357
_ZL19record_decl_addressP14plugin_context15decl_addr_value _ZN10hash_tableI16decl_addr_hasher11xcallocatorE6expandEv 373
_Z25plugin_define_cdtor_clonePN10cc1_plugin10connectionEPKcyy cp_global_trees 68
_Z25plugin_define_cdtor_clonePN10cc1_plugin10connectionEPKcyy _Z22decl_cloned_function_pPK9tree_nodeb 129
_Z25plugin_define_cdtor_clonePN10cc1_plugin10connectionEPKcyy _Z11fancy_abortPKciS0_ 173
_Z25plugin_define_cdtor_clonePN10cc1_plugin10connectionEPKcyy _Z11fancy_abortPKciS0_ 225
_Z25plugin_define_cdtor_clonePN10cc1_plugin10connectionEPKcyy cp_global_trees 235
_Z25plugin_define_cdtor_clonePN10cc1_plugin10connectionEPKcyy cp_global_trees 259
_Z25plugin_define_cdtor_clonePN10cc1_plugin10connectionEPKcyy cp_global_trees 266
_Z25plugin_define_cdtor_clonePN10cc1_plugin10connectionEPKcyy global_trees 283
_Z25plugin_define_cdtor_clonePN10cc1_plugin10connectionEPKcyy _Z18build_int_cst_typeP9tree_node8poly_intILj1ElE 291
_Z25plugin_define_cdtor_clonePN10cc1_plugin10connectionEPKcyy cp_global_trees 326
_Z25plugin_define_cdtor_clonePN10cc1_plugin10connectionEPKcyy cp_global_trees 333
_Z25plugin_define_cdtor_clonePN10cc1_plugin10connectionEPKcyy cp_global_trees 347
_Z25plugin_define_cdtor_clonePN10cc1_plugin10connectionEPKcyy cp_global_trees 354
_Z25plugin_define_cdtor_clonePN10cc1_plugin10connectionEPKcyy cp_global_trees 371
_Z25plugin_define_cdtor_clonePN10cc1_plugin10connectionEPKcyy cp_global_trees 378
_Z25plugin_define_cdtor_clonePN10cc1_plugin10connectionEPKcyy cp_global_trees 395
_Z25plugin_define_cdtor_clonePN10cc1_plugin10connectionEPKcyy cp_global_trees 402
_Z25plugin_define_cdtor_clonePN10cc1_plugin10connectionEPKcyy _Z11fancy_abortPKciS0_ 427
_Z17plugin_build_declPN10cc1_plugin10connectionEPKc18gcc_cp_symbol_kindyS3_yS3_j strchr 61
_Z17plugin_build_declPN10cc1_plugin10connectionEPKc18gcc_cp_symbol_kindyS3_yS3_j _Z21template_parm_scope_pv 129
_Z17plugin_build_declPN10cc1_plugin10connectionEPKc18gcc_cp_symbol_kindyS3_yS3_j scope_chain 143
_Z17plugin_build_declPN10cc1_plugin10connectionEPKc18gcc_cp_symbol_kindyS3_yS3_j _Z22end_template_parm_listP9tree_node 156
_Z17plugin_build_declPN10cc1_plugin10connectionEPKc18gcc_cp_symbol_kindyS3_yS3_j htab_hash_string 207
_Z17plugin_build_declPN10cc1_plugin10connectionEPKc18gcc_cp_symbol_kindyS3_yS3_j _ZN10hash_tableI13string_hasher11xcallocatorE19find_slot_with_hashERKPKcj13insert_option 233
_Z17plugin_build_declPN10cc1_plugin10connectionEPKc18gcc_cp_symbol_kindyS3_yS3_j line_table 263
_Z17plugin_build_declPN10cc1_plugin10connectionEPKc18gcc_cp_symbol_kindyS3_yS3_j _Z11linemap_addP9line_maps9lc_reasonjPKcj 272
_Z17plugin_build_declPN10cc1_plugin10connectionEPKc18gcc_cp_symbol_kindyS3_yS3_j line_table 286
_Z17plugin_build_declPN10cc1_plugin10connectionEPKc18gcc_cp_symbol_kindyS3_yS3_j _Z18linemap_line_startP9line_mapsjj 293
_Z17plugin_build_declPN10cc1_plugin10connectionEPKc18gcc_cp_symbol_kindyS3_yS3_j line_table 300
_Z17plugin_build_declPN10cc1_plugin10connectionEPKc18gcc_cp_symbol_kindyS3_yS3_j _Z11linemap_addP9line_maps9lc_reasonjPKcj 320
_Z17plugin_build_declPN10cc1_plugin10connectionEPKc18gcc_cp_symbol_kindyS3_yS3_j _Z16at_class_scope_pv 325
_Z17plugin_build_declPN10cc1_plugin10connectionEPKc18gcc_cp_symbol_kindyS3_yS3_j _Z14get_identifierPKc 383
_Z17plugin_build_declPN10cc1_plugin10connectionEPKc18gcc_cp_symbol_kindyS3_yS3_j _Z19build_lang_decl_locj9tree_codeP9tree_nodeS1_ 435
_Z17plugin_build_declPN10cc1_plugin10connectionEPKc18gcc_cp_symbol_kindyS3_yS3_j scope_chain 475
_Z17plugin_build_declPN10cc1_plugin10connectionEPKc18gcc_cp_symbol_kindyS3_yS3_j cp_global_trees 486
_Z17plugin_build_declPN10cc1_plugin10connectionEPKc18gcc_cp_symbol_kindyS3_yS3_j tree_code_type 515
_Z17plugin_build_declPN10cc1_plugin10connectionEPKc18gcc_cp_symbol_kindyS3_yS3_j scope_chain 568
_Z17plugin_build_declPN10cc1_plugin10connectionEPKc18gcc_cp_symbol_kindyS3_yS3_j global_trees 575
_Z17plugin_build_declPN10cc1_plugin10connectionEPKc18gcc_cp_symbol_kindyS3_yS3_j _Z14get_identifierPKc 669
_Z17plugin_build_declPN10cc1_plugin10connectionEPKc18gcc_cp_symbol_kindyS3_yS3_j _Z11lookup_nameP9tree_node 677
_Z17plugin_build_declPN10cc1_plugin10connectionEPKc18gcc_cp_symbol_kindyS3_yS3_j _Z30grok_special_member_propertiesP9tree_node 750
_Z17plugin_build_declPN10cc1_plugin10connectionEPKc18gcc_cp_symbol_kindyS3_yS3_j cp_binding_oracle 782
_Z17plugin_build_declPN10cc1_plugin10connectionEPKc18gcc_cp_symbol_kindyS3_yS3_j cp_binding_oracle 792
_Z17plugin_build_declPN10cc1_plugin10connectionEPKc18gcc_cp_symbol_kindyS3_yS3_j _Z18push_template_declP9tree_node 801
_Z17plugin_build_declPN10cc1_plugin10connectionEPKc18gcc_cp_symbol_kindyS3_yS3_j cp_binding_oracle 811
_Z17plugin_build_declPN10cc1_plugin10connectionEPKc18gcc_cp_symbol_kindyS3_yS3_j _Z17end_template_declv 825
_Z17plugin_build_declPN10cc1_plugin10connectionEPKc18gcc_cp_symbol_kindyS3_yS3_j _Z21template_parm_scope_pv 830
_Z17plugin_build_declPN10cc1_plugin10connectionEPKc18gcc_cp_symbol_kindyS3_yS3_j scope_chain 859
_Z17plugin_build_declPN10cc1_plugin10connectionEPKc18gcc_cp_symbol_kindyS3_yS3_j _Z19toplevel_bindings_pv 881
_Z17plugin_build_declPN10cc1_plugin10connectionEPKc18gcc_cp_symbol_kindyS3_yS3_j _Z24rest_of_decl_compilationP9tree_nodeii 894
_Z17plugin_build_declPN10cc1_plugin10connectionEPKc18gcc_cp_symbol_kindyS3_yS3_j _ZN14plugin_context8preserveEP9tree_node 907
_Z17plugin_build_declPN10cc1_plugin10connectionEPKc18gcc_cp_symbol_kindyS3_yS3_j _Z21template_parm_scope_pv 946
_Z17plugin_build_declPN10cc1_plugin10connectionEPKc18gcc_cp_symbol_kindyS3_yS3_j _Z11fancy_abortPKciS0_ 977
_Z17plugin_build_declPN10cc1_plugin10connectionEPKc18gcc_cp_symbol_kindyS3_yS3_j _Z21template_parm_scope_pv 993
_Z17plugin_build_declPN10cc1_plugin10connectionEPKc18gcc_cp_symbol_kindyS3_yS3_j _Z11fancy_abortPKciS0_ 1120
_Z17plugin_build_declPN10cc1_plugin10connectionEPKc18gcc_cp_symbol_kindyS3_yS3_j _Z25finish_member_declarationP9tree_node 1150
_Z17plugin_build_declPN10cc1_plugin10connectionEPKc18gcc_cp_symbol_kindyS3_yS3_j _Z10build_declj9tree_codeP9tree_nodeS1_ 1169
_Z17plugin_build_declPN10cc1_plugin10connectionEPKc18gcc_cp_symbol_kindyS3_yS3_j _Z20at_namespace_scope_pv 1207
_Z17plugin_build_declPN10cc1_plugin10connectionEPKc18gcc_cp_symbol_kindyS3_yS3_j _Z14get_identifierPKc 1276
_Z17plugin_build_declPN10cc1_plugin10connectionEPKc18gcc_cp_symbol_kindyS3_yS3_j _Z19build_lang_decl_locj9tree_codeP9tree_nodeS1_ 1334
_Z17plugin_build_declPN10cc1_plugin10connectionEPKc18gcc_cp_symbol_kindyS3_yS3_j global_trees 1384
_Z17plugin_build_declPN10cc1_plugin10connectionEPKc18gcc_cp_symbol_kindyS3_yS3_j global_trees 1403
_Z17plugin_build_declPN10cc1_plugin10connectionEPKc18gcc_cp_symbol_kindyS3_yS3_j _Z18cp_build_parm_declP9tree_nodeS0_S0_ 1419
_Z17plugin_build_declPN10cc1_plugin10connectionEPKc18gcc_cp_symbol_kindyS3_yS3_j _Z8nreverseP9tree_node 1454
_Z17plugin_build_declPN10cc1_plugin10connectionEPKc18gcc_cp_symbol_kindyS3_yS3_j ridpointers 1580
_Z17plugin_build_declPN10cc1_plugin10connectionEPKc18gcc_cp_symbol_kindyS3_yS3_j global_trees 1657
_Z17plugin_build_declPN10cc1_plugin10connectionEPKc18gcc_cp_symbol_kindyS3_yS3_j scope_chain 1715
_Z17plugin_build_declPN10cc1_plugin10connectionEPKc18gcc_cp_symbol_kindyS3_yS3_j global_trees 1722
_Z17plugin_build_declPN10cc1_plugin10connectionEPKc18gcc_cp_symbol_kindyS3_yS3_j scope_chain 1752
_Z17plugin_build_declPN10cc1_plugin10connectionEPKc18gcc_cp_symbol_kindyS3_yS3_j global_trees 1759
_Z17plugin_build_declPN10cc1_plugin10connectionEPKc18gcc_cp_symbol_kindyS3_yS3_j _Z14make_anon_namev 1793
_Z17plugin_build_declPN10cc1_plugin10connectionEPKc18gcc_cp_symbol_kindyS3_yS3_j _Z19at_function_scope_pv 1803
_Z17plugin_build_declPN10cc1_plugin10connectionEPKc18gcc_cp_symbol_kindyS3_yS3_j _Z15make_class_type9tree_code 1820
_Z17plugin_build_declPN10cc1_plugin10connectionEPKc18gcc_cp_symbol_kindyS3_yS3_j _Z10build_declj9tree_codeP9tree_nodeS1_ 1844
_Z17plugin_build_declPN10cc1_plugin10connectionEPKc18gcc_cp_symbol_kindyS3_yS3_j cp_binding_oracle 1923
_Z17plugin_build_declPN10cc1_plugin10connectionEPKc18gcc_cp_symbol_kindyS3_yS3_j cp_binding_oracle 1935
_Z17plugin_build_declPN10cc1_plugin10connectionEPKc18gcc_cp_symbol_kindyS3_yS3_j _Z8pushdeclP9tree_nodeb 1944
_Z17plugin_build_declPN10cc1_plugin10connectionEPKc18gcc_cp_symbol_kindyS3_yS3_j cp_binding_oracle 1951
_Z17plugin_build_declPN10cc1_plugin10connectionEPKc18gcc_cp_symbol_kindyS3_yS3_j ovl_op_mapping 2115
_Z17plugin_build_declPN10cc1_plugin10connectionEPKc18gcc_cp_symbol_kindyS3_yS3_j ovl_op_info 2154
_Z17plugin_build_declPN10cc1_plugin10connectionEPKc18gcc_cp_symbol_kindyS3_yS3_j _Z27finish_member_template_declP9tree_node 2180
_Z17plugin_build_declPN10cc1_plugin10connectionEPKc18gcc_cp_symbol_kindyS3_yS3_j _Z17end_template_declv 2188
_Z17plugin_build_declPN10cc1_plugin10connectionEPKc18gcc_cp_symbol_kindyS3_yS3_j _Z21template_parm_scope_pv 2193
_Z17plugin_build_declPN10cc1_plugin10connectionEPKc18gcc_cp_symbol_kindyS3_yS3_j _Z25finish_member_declarationP9tree_node 2209
_Z17plugin_build_declPN10cc1_plugin10connectionEPKc18gcc_cp_symbol_kindyS3_yS3_j _Z22maybe_retrofit_in_chrgP9tree_node 2228
_Z17plugin_build_declPN10cc1_plugin10connectionEPKc18gcc_cp_symbol_kindyS3_yS3_j ovl_op_mapping 2306
_Z17plugin_build_declPN10cc1_plugin10connectionEPKc18gcc_cp_symbol_kindyS3_yS3_j _Z11fancy_abortPKciS0_ 2386
_Z17plugin_build_declPN10cc1_plugin10connectionEPKc18gcc_cp_symbol_kindyS3_yS3_j cp_binding_oracle 2403
_Z17plugin_build_declPN10cc1_plugin10connectionEPKc18gcc_cp_symbol_kindyS3_yS3_j cp_binding_oracle 2421
_Z17plugin_build_declPN10cc1_plugin10connectionEPKc18gcc_cp_symbol_kindyS3_yS3_j _Z7pushtagP9tree_nodeS0_9tag_scope 2430
_Z17plugin_build_declPN10cc1_plugin10connectionEPKc18gcc_cp_symbol_kindyS3_yS3_j cp_binding_oracle 2437
_Z17plugin_build_declPN10cc1_plugin10connectionEPKc18gcc_cp_symbol_kindyS3_yS3_j _Z22current_decl_namespacev 2447
_Z17plugin_build_declPN10cc1_plugin10connectionEPKc18gcc_cp_symbol_kindyS3_yS3_j _Z22current_decl_namespacev 2561
_Z17plugin_build_declPN10cc1_plugin10connectionEPKc18gcc_cp_symbol_kindyS3_yS3_j cp_global_trees 2568
_Z17plugin_build_declPN10cc1_plugin10connectionEPKc18gcc_cp_symbol_kindyS3_yS3_j _Z22current_decl_namespacev 2575
_Z17plugin_build_declPN10cc1_plugin10connectionEPKc18gcc_cp_symbol_kindyS3_yS3_j _Z11fancy_abortPKciS0_ 2692
_Z17plugin_build_declPN10cc1_plugin10connectionEPKc18gcc_cp_symbol_kindyS3_yS3_j _Z19clone_function_declP9tree_nodeb 2725
_Z17plugin_build_declPN10cc1_plugin10connectionEPKc18gcc_cp_symbol_kindyS3_yS3_j scope_chain 2732
_Z17plugin_build_declPN10cc1_plugin10connectionEPKc18gcc_cp_symbol_kindyS3_yS3_j _Z8nreverseP9tree_node 2757
_Z17plugin_build_declPN10cc1_plugin10connectionEPKc18gcc_cp_symbol_kindyS3_yS3_j xstrdup 2790
_Z17plugin_build_declPN10cc1_plugin10connectionEPKc18gcc_cp_symbol_kindyS3_yS3_j tree_code_type 2871
_Z17plugin_build_declPN10cc1_plugin10connectionEPKc18gcc_cp_symbol_kindyS3_yS3_j _Z15anon_aggrname_pPK9tree_node 2883
_Z17plugin_build_declPN10cc1_plugin10connectionEPKc18gcc_cp_symbol_kindyS3_yS3_j _Z17name_unnamed_typeP9tree_nodeS0_ 2904
_Z17plugin_build_declPN10cc1_plugin10connectionEPKc18gcc_cp_symbol_kindyS3_yS3_j _Z11fancy_abortPKciS0_ 2945
_Z17plugin_build_declPN10cc1_plugin10connectionEPKc18gcc_cp_symbol_kindyS3_yS3_j cp_binding_oracle 2971
_Z17plugin_build_declPN10cc1_plugin10connectionEPKc18gcc_cp_symbol_kindyS3_yS3_j cp_binding_oracle 2989
_Z17plugin_build_declPN10cc1_plugin10connectionEPKc18gcc_cp_symbol_kindyS3_yS3_j _Z7pushtagP9tree_nodeS0_9tag_scope 2998
_Z17plugin_build_declPN10cc1_plugin10connectionEPKc18gcc_cp_symbol_kindyS3_yS3_j cp_binding_oracle 3005
_Z17plugin_build_declPN10cc1_plugin10connectionEPKc18gcc_cp_symbol_kindyS3_yS3_j _Z13cp_type_qualsPK9tree_node 3337
_Z17plugin_build_declPN10cc1_plugin10connectionEPKc18gcc_cp_symbol_kindyS3_yS3_j scope_chain 3344
_Z17plugin_build_declPN10cc1_plugin10connectionEPKc18gcc_cp_symbol_kindyS3_yS3_j _Z15build_this_parmP9tree_nodeS0_i 3358
_Z17plugin_build_declPN10cc1_plugin10connectionEPKc18gcc_cp_symbol_kindyS3_yS3_j global_trees 3420
_Z17plugin_build_declPN10cc1_plugin10connectionEPKc18gcc_cp_symbol_kindyS3_yS3_j _Z18build_int_cst_typeP9tree_node8poly_intILj1ElE 3425
_Z17plugin_build_declPN10cc1_plugin10connectionEPKc18gcc_cp_symbol_kindyS3_yS3_j xstrndup 3553
_Z17plugin_build_declPN10cc1_plugin10connectionEPKc18gcc_cp_symbol_kindyS3_yS3_j _Z22cp_literal_operator_idPKc 3564
_Z17plugin_build_declPN10cc1_plugin10connectionEPKc18gcc_cp_symbol_kindyS3_yS3_j free 3577
_Z17plugin_build_declPN10cc1_plugin10connectionEPKc18gcc_cp_symbol_kindyS3_yS3_j global_trees 3762
_Z17plugin_build_declPN10cc1_plugin10connectionEPKc18gcc_cp_symbol_kindyS3_yS3_j scope_chain 4295
_Z17plugin_build_declPN10cc1_plugin10connectionEPKc18gcc_cp_symbol_kindyS3_yS3_j _Z17make_conv_op_nameP9tree_node 5029
_Z17plugin_build_declPN10cc1_plugin10connectionEPKc18gcc_cp_symbol_kindyS3_yS3_j _Z22cp_literal_operator_idPKc 5104
_Z17plugin_build_declPN10cc1_plugin10connectionEPKc18gcc_cp_symbol_kindyS3_yS3_j _Z11fancy_abortPKciS0_ 5148
_Z17plugin_build_declPN10cc1_plugin10connectionEPKc18gcc_cp_symbol_kindyS3_yS3_j _Z11fancy_abortPKciS0_ 5168
_Z17plugin_build_declPN10cc1_plugin10connectionEPKc18gcc_cp_symbol_kindyS3_yS3_j _Z11fancy_abortPKciS0_ 5188
_Z17plugin_build_declPN10cc1_plugin10connectionEPKc18gcc_cp_symbol_kindyS3_yS3_j _Z11fancy_abortPKciS0_ 5213
_Z17plugin_build_declPN10cc1_plugin10connectionEPKc18gcc_cp_symbol_kindyS3_yS3_j _Z11fancy_abortPKciS0_ 5233
_Z17plugin_build_declPN10cc1_plugin10connectionEPKc18gcc_cp_symbol_kindyS3_yS3_j _Z11fancy_abortPKciS0_ 5253
_Z17plugin_build_declPN10cc1_plugin10connectionEPKc18gcc_cp_symbol_kindyS3_yS3_j _Z11fancy_abortPKciS0_ 5273
_Z17plugin_build_declPN10cc1_plugin10connectionEPKc18gcc_cp_symbol_kindyS3_yS3_j _Z11fancy_abortPKciS0_ 5293
_Z17plugin_build_declPN10cc1_plugin10connectionEPKc18gcc_cp_symbol_kindyS3_yS3_j _Z11fancy_abortPKciS0_ 5313
_Z17plugin_build_declPN10cc1_plugin10connectionEPKc18gcc_cp_symbol_kindyS3_yS3_j _Z11fancy_abortPKciS0_ 5333
_Z17plugin_build_declPN10cc1_plugin10connectionEPKc18gcc_cp_symbol_kindyS3_yS3_j _Z11fancy_abortPKciS0_ 5353
_Z17plugin_build_declPN10cc1_plugin10connectionEPKc18gcc_cp_symbol_kindyS3_yS3_j _Z11fancy_abortPKciS0_ 5373
_Z17plugin_build_declPN10cc1_plugin10connectionEPKc18gcc_cp_symbol_kindyS3_yS3_j _Z11fancy_abortPKciS0_ 5393
_Z17plugin_build_declPN10cc1_plugin10connectionEPKc18gcc_cp_symbol_kindyS3_yS3_j _Z11fancy_abortPKciS0_ 5413
_Z17plugin_build_declPN10cc1_plugin10connectionEPKc18gcc_cp_symbol_kindyS3_yS3_j _Z11fancy_abortPKciS0_ 5433
_Z17plugin_build_declPN10cc1_plugin10connectionEPKc18gcc_cp_symbol_kindyS3_yS3_j _Z11fancy_abortPKciS0_ 5453
_Z17plugin_build_declPN10cc1_plugin10connectionEPKc18gcc_cp_symbol_kindyS3_yS3_j _Z11fancy_abortPKciS0_ 5473
_Z17plugin_build_declPN10cc1_plugin10connectionEPKc18gcc_cp_symbol_kindyS3_yS3_j _Z11fancy_abortPKciS0_ 5493
_Z17plugin_build_declPN10cc1_plugin10connectionEPKc18gcc_cp_symbol_kindyS3_yS3_j _Z11fancy_abortPKciS0_ 5513
_Z17plugin_build_declPN10cc1_plugin10connectionEPKc18gcc_cp_symbol_kindyS3_yS3_j _Z11fancy_abortPKciS0_ 5533
_Z23plugin_start_class_typePN10cc1_plugin10connectionEyPK15gcc_vbase_arrayPKcj htab_hash_string 40
_Z23plugin_start_class_typePN10cc1_plugin10connectionEyPK15gcc_vbase_arrayPKcj _ZN10hash_tableI13string_hasher11xcallocatorE19find_slot_with_hashERKPKcj13insert_option 62
_Z23plugin_start_class_typePN10cc1_plugin10connectionEyPK15gcc_vbase_arrayPKcj line_table 84
_Z23plugin_start_class_typePN10cc1_plugin10connectionEyPK15gcc_vbase_arrayPKcj _Z11linemap_addP9line_maps9lc_reasonjPKcj 96
_Z23plugin_start_class_typePN10cc1_plugin10connectionEyPK15gcc_vbase_arrayPKcj line_table 103
_Z23plugin_start_class_typePN10cc1_plugin10connectionEyPK15gcc_vbase_arrayPKcj _Z18linemap_line_startP9line_mapsjj 112
_Z23plugin_start_class_typePN10cc1_plugin10connectionEyPK15gcc_vbase_arrayPKcj line_table 119
_Z23plugin_start_class_typePN10cc1_plugin10connectionEyPK15gcc_vbase_arrayPKcj _Z11linemap_addP9line_maps9lc_reasonjPKcj 138
_Z23plugin_start_class_typePN10cc1_plugin10connectionEyPK15gcc_vbase_arrayPKcj _Z11fancy_abortPKciS0_ 262
_Z23plugin_start_class_typePN10cc1_plugin10connectionEyPK15gcc_vbase_arrayPKcj ridpointers 275
_Z23plugin_start_class_typePN10cc1_plugin10connectionEyPK15gcc_vbase_arrayPKcj _Z21finish_base_specifierP9tree_nodeS0_b 303
_Z23plugin_start_class_typePN10cc1_plugin10connectionEyPK15gcc_vbase_arrayPKcj ridpointers 355
_Z23plugin_start_class_typePN10cc1_plugin10connectionEyPK15gcc_vbase_arrayPKcj ridpointers 371
_Z23plugin_start_class_typePN10cc1_plugin10connectionEyPK15gcc_vbase_arrayPKcj _Z8nreverseP9tree_node 390
_Z23plugin_start_class_typePN10cc1_plugin10connectionEyPK15gcc_vbase_arrayPKcj _Z14xref_basetypesP9tree_nodeS0_ 401
_Z23plugin_start_class_typePN10cc1_plugin10connectionEyPK15gcc_vbase_arrayPKcj _Z22begin_class_definitionP9tree_node 409
_Z23plugin_start_class_typePN10cc1_plugin10connectionEyPK15gcc_vbase_arrayPKcj _ZN14plugin_context8preserveEP9tree_node 420
_Z23plugin_start_class_typePN10cc1_plugin10connectionEyPK15gcc_vbase_arrayPKcj xstrdup 446
_Z23plugin_start_class_typePN10cc1_plugin10connectionEyPK15gcc_vbase_arrayPKcj _Z11fancy_abortPKciS0_ 484
_Z23plugin_start_class_typePN10cc1_plugin10connectionEyPK15gcc_vbase_arrayPKcj _Z11fancy_abortPKciS0_ 504
_Z23plugin_start_class_typePN10cc1_plugin10connectionEyPK15gcc_vbase_arrayPKcj _Z11fancy_abortPKciS0_ 524
_Z31plugin_start_closure_class_typePN10cc1_plugin10connectionEiy18gcc_cp_symbol_kindPKcj _Z16at_class_scope_pv 68
_Z31plugin_start_closure_class_typePN10cc1_plugin10connectionEiy18gcc_cp_symbol_kindPKcj _Z19at_function_scope_pv 85
_Z31plugin_start_closure_class_typePN10cc1_plugin10connectionEiy18gcc_cp_symbol_kindPKcj _Z17build_lambda_exprv 137
_Z31plugin_start_closure_class_typePN10cc1_plugin10connectionEiy18gcc_cp_symbol_kindPKcj htab_hash_string 160
_Z31plugin_start_closure_class_typePN10cc1_plugin10connectionEiy18gcc_cp_symbol_kindPKcj _ZN10hash_tableI13string_hasher11xcallocatorE19find_slot_with_hashERKPKcj13insert_option 181
_Z31plugin_start_closure_class_typePN10cc1_plugin10connectionEiy18gcc_cp_symbol_kindPKcj line_table 208
_Z31plugin_start_closure_class_typePN10cc1_plugin10connectionEiy18gcc_cp_symbol_kindPKcj _Z11linemap_addP9line_maps9lc_reasonjPKcj 220
_Z31plugin_start_closure_class_typePN10cc1_plugin10connectionEiy18gcc_cp_symbol_kindPKcj line_table 227
_Z31plugin_start_closure_class_typePN10cc1_plugin10connectionEiy18gcc_cp_symbol_kindPKcj _Z18linemap_line_startP9line_mapsjj 237
_Z31plugin_start_closure_class_typePN10cc1_plugin10connectionEiy18gcc_cp_symbol_kindPKcj line_table 244
_Z31plugin_start_closure_class_typePN10cc1_plugin10connectionEiy18gcc_cp_symbol_kindPKcj _Z11linemap_addP9line_maps9lc_reasonjPKcj 264
_Z31plugin_start_closure_class_typePN10cc1_plugin10connectionEiy18gcc_cp_symbol_kindPKcj _Z17begin_lambda_typeP9tree_node 280
_Z31plugin_start_closure_class_typePN10cc1_plugin10connectionEiy18gcc_cp_symbol_kindPKcj _Z20determine_visibilityP9tree_node 309
_Z31plugin_start_closure_class_typePN10cc1_plugin10connectionEiy18gcc_cp_symbol_kindPKcj tree_code_type 332
_Z31plugin_start_closure_class_typePN10cc1_plugin10connectionEiy18gcc_cp_symbol_kindPKcj scope_chain 371
_Z31plugin_start_closure_class_typePN10cc1_plugin10connectionEiy18gcc_cp_symbol_kindPKcj global_trees 378
_Z31plugin_start_closure_class_typePN10cc1_plugin10connectionEiy18gcc_cp_symbol_kindPKcj _ZN14plugin_context8preserveEP9tree_node 393
_Z31plugin_start_closure_class_typePN10cc1_plugin10connectionEiy18gcc_cp_symbol_kindPKcj scope_chain 423
_Z31plugin_start_closure_class_typePN10cc1_plugin10connectionEiy18gcc_cp_symbol_kindPKcj global_trees 430
_Z31plugin_start_closure_class_typePN10cc1_plugin10connectionEiy18gcc_cp_symbol_kindPKcj scope_chain 451
_Z31plugin_start_closure_class_typePN10cc1_plugin10connectionEiy18gcc_cp_symbol_kindPKcj global_trees 458
_Z31plugin_start_closure_class_typePN10cc1_plugin10connectionEiy18gcc_cp_symbol_kindPKcj current_function_decl 504
_Z31plugin_start_closure_class_typePN10cc1_plugin10connectionEiy18gcc_cp_symbol_kindPKcj _Z11fancy_abortPKciS0_ 562
_Z31plugin_start_closure_class_typePN10cc1_plugin10connectionEiy18gcc_cp_symbol_kindPKcj _Z16at_class_scope_pv 577
_Z31plugin_start_closure_class_typePN10cc1_plugin10connectionEiy18gcc_cp_symbol_kindPKcj scope_chain 592
_Z31plugin_start_closure_class_typePN10cc1_plugin10connectionEiy18gcc_cp_symbol_kindPKcj _Z11fancy_abortPKciS0_ 626
_Z31plugin_start_closure_class_typePN10cc1_plugin10connectionEiy18gcc_cp_symbol_kindPKcj xstrdup 646
_Z31plugin_start_closure_class_typePN10cc1_plugin10connectionEiy18gcc_cp_symbol_kindPKcj _Z11fancy_abortPKciS0_ 678
_Z31plugin_start_closure_class_typePN10cc1_plugin10connectionEiy18gcc_cp_symbol_kindPKcj _Z11fancy_abortPKciS0_ 698
_Z31plugin_start_closure_class_typePN10cc1_plugin10connectionEiy18gcc_cp_symbol_kindPKcj _Z11fancy_abortPKciS0_ 718
_Z31plugin_start_closure_class_typePN10cc1_plugin10connectionEiy18gcc_cp_symbol_kindPKcj _Z11fancy_abortPKciS0_ 738
_Z31plugin_start_closure_class_typePN10cc1_plugin10connectionEiy18gcc_cp_symbol_kindPKcj _Z11fancy_abortPKciS0_ 763
_Z31plugin_start_closure_class_typePN10cc1_plugin10connectionEiy18gcc_cp_symbol_kindPKcj _Z11fancy_abortPKciS0_ 783
_Z31plugin_start_closure_class_typePN10cc1_plugin10connectionEiy18gcc_cp_symbol_kindPKcj _Z11fancy_abortPKciS0_ 803
_Z22plugin_start_enum_typePN10cc1_plugin10connectionEPKcy18gcc_cp_symbol_kindS3_j _Z16at_class_scope_pv 72
_Z22plugin_start_enum_typePN10cc1_plugin10connectionEPKcy18gcc_cp_symbol_kindS3_j global_trees 95
_Z22plugin_start_enum_typePN10cc1_plugin10connectionEPKcy18gcc_cp_symbol_kindS3_j _Z14get_identifierPKc 126
_Z22plugin_start_enum_typePN10cc1_plugin10connectionEPKcy18gcc_cp_symbol_kindS3_j _Z10start_enumP9tree_nodeS0_S0_S0_bPb 156
_Z22plugin_start_enum_typePN10cc1_plugin10connectionEPKcy18gcc_cp_symbol_kindS3_j htab_hash_string 194
_Z22plugin_start_enum_typePN10cc1_plugin10connectionEPKcy18gcc_cp_symbol_kindS3_j _ZN10hash_tableI13string_hasher11xcallocatorE19find_slot_with_hashERKPKcj13insert_option 215
_Z22plugin_start_enum_typePN10cc1_plugin10connectionEPKcy18gcc_cp_symbol_kindS3_j line_table 241
_Z22plugin_start_enum_typePN10cc1_plugin10connectionEPKcy18gcc_cp_symbol_kindS3_j _Z11linemap_addP9line_maps9lc_reasonjPKcj 253
_Z22plugin_start_enum_typePN10cc1_plugin10connectionEPKcy18gcc_cp_symbol_kindS3_j line_table 260
_Z22plugin_start_enum_typePN10cc1_plugin10connectionEPKcy18gcc_cp_symbol_kindS3_j _Z18linemap_line_startP9line_mapsjj 269
_Z22plugin_start_enum_typePN10cc1_plugin10connectionEPKcy18gcc_cp_symbol_kindS3_j line_table 276
_Z22plugin_start_enum_typePN10cc1_plugin10connectionEPKcy18gcc_cp_symbol_kindS3_j _Z11linemap_addP9line_maps9lc_reasonjPKcj 295
_Z22plugin_start_enum_typePN10cc1_plugin10connectionEPKcy18gcc_cp_symbol_kindS3_j tree_code_type 327
_Z22plugin_start_enum_typePN10cc1_plugin10connectionEPKcy18gcc_cp_symbol_kindS3_j scope_chain 370
_Z22plugin_start_enum_typePN10cc1_plugin10connectionEPKcy18gcc_cp_symbol_kindS3_j global_trees 377
_Z22plugin_start_enum_typePN10cc1_plugin10connectionEPKcy18gcc_cp_symbol_kindS3_j _ZN14plugin_context8preserveEP9tree_node 392
_Z22plugin_start_enum_typePN10cc1_plugin10connectionEPKcy18gcc_cp_symbol_kindS3_j scope_chain 423
_Z22plugin_start_enum_typePN10cc1_plugin10connectionEPKcy18gcc_cp_symbol_kindS3_j global_trees 430
_Z22plugin_start_enum_typePN10cc1_plugin10connectionEPKcy18gcc_cp_symbol_kindS3_j scope_chain 451
_Z22plugin_start_enum_typePN10cc1_plugin10connectionEPKcy18gcc_cp_symbol_kindS3_j global_trees 458
_Z22plugin_start_enum_typePN10cc1_plugin10connectionEPKcy18gcc_cp_symbol_kindS3_j _Z14make_anon_namev 473
_Z22plugin_start_enum_typePN10cc1_plugin10connectionEPKcy18gcc_cp_symbol_kindS3_j xstrdup 494
_Z22plugin_start_enum_typePN10cc1_plugin10connectionEPKcy18gcc_cp_symbol_kindS3_j _Z11fancy_abortPKciS0_ 526
_Z22plugin_start_enum_typePN10cc1_plugin10connectionEPKcy18gcc_cp_symbol_kindS3_j _Z11fancy_abortPKciS0_ 551
_Z22plugin_start_enum_typePN10cc1_plugin10connectionEPKcy18gcc_cp_symbol_kindS3_j _Z11fancy_abortPKciS0_ 571
_Z22plugin_start_enum_typePN10cc1_plugin10connectionEPKcy18gcc_cp_symbol_kindS3_j _Z11fancy_abortPKciS0_ 591
_Z35plugin_build_exception_spec_variantPN10cc1_plugin10connectionEyPK14gcc_type_array cp_global_trees 25
_Z35plugin_build_exception_spec_variantPN10cc1_plugin10connectionEyPK14gcc_type_array cp_global_trees 37
_Z35plugin_build_exception_spec_variantPN10cc1_plugin10connectionEyPK14gcc_type_array _Z23add_exception_specifierP9tree_nodeS0_i 78
_Z35plugin_build_exception_spec_variantPN10cc1_plugin10connectionEyPK14gcc_type_array _Z23build_exception_variantP9tree_nodeS0_ 101
_Z35plugin_build_exception_spec_variantPN10cc1_plugin10connectionEyPK14gcc_type_array _ZN14plugin_context8preserveEP9tree_node 122
_Z36plugin_build_type_template_parameterPN10cc1_plugin10connectionEPKciyS3_j htab_hash_string 45
_Z36plugin_build_type_template_parameterPN10cc1_plugin10connectionEPKciyS3_j _ZN10hash_tableI13string_hasher11xcallocatorE19find_slot_with_hashERKPKcj13insert_option 67
_Z36plugin_build_type_template_parameterPN10cc1_plugin10connectionEPKciyS3_j line_table 89
_Z36plugin_build_type_template_parameterPN10cc1_plugin10connectionEPKciyS3_j _Z11linemap_addP9line_maps9lc_reasonjPKcj 101
_Z36plugin_build_type_template_parameterPN10cc1_plugin10connectionEPKciyS3_j line_table 108
_Z36plugin_build_type_template_parameterPN10cc1_plugin10connectionEPKciyS3_j _Z18linemap_line_startP9line_mapsjj 118
_Z36plugin_build_type_template_parameterPN10cc1_plugin10connectionEPKciyS3_j line_table 125
_Z36plugin_build_type_template_parameterPN10cc1_plugin10connectionEPKciyS3_j _Z11linemap_addP9line_maps9lc_reasonjPKcj 144
_Z36plugin_build_type_template_parameterPN10cc1_plugin10connectionEPKciyS3_j _Z21template_parm_scope_pv 149
_Z36plugin_build_type_template_parameterPN10cc1_plugin10connectionEPKciyS3_j _Z14get_identifierPKc 165
_Z36plugin_build_type_template_parameterPN10cc1_plugin10connectionEPKciyS3_j cp_global_trees 172
_Z36plugin_build_type_template_parameterPN10cc1_plugin10connectionEPKciyS3_j _Z25finish_template_type_parmP9tree_nodeS0_ 180
_Z36plugin_build_type_template_parameterPN10cc1_plugin10connectionEPKciyS3_j _Z15build_tree_listP9tree_nodeS0_ 191
_Z36plugin_build_type_template_parameterPN10cc1_plugin10connectionEPKciyS3_j scope_chain 215
_Z36plugin_build_type_template_parameterPN10cc1_plugin10connectionEPKciyS3_j _Z21process_template_parmP9tree_nodejS0_bb 239
_Z36plugin_build_type_template_parameterPN10cc1_plugin10connectionEPKciyS3_j scope_chain 250
_Z36plugin_build_type_template_parameterPN10cc1_plugin10connectionEPKciyS3_j _Z9tree_lastP9tree_node 263
_Z36plugin_build_type_template_parameterPN10cc1_plugin10connectionEPKciyS3_j _ZN14plugin_context8preserveEP9tree_node 279
_Z36plugin_build_type_template_parameterPN10cc1_plugin10connectionEPKciyS3_j xstrdup 310
_Z36plugin_build_type_template_parameterPN10cc1_plugin10connectionEPKciyS3_j _Z11fancy_abortPKciS0_ 341
_Z36plugin_build_type_template_parameterPN10cc1_plugin10connectionEPKciyS3_j _Z11fancy_abortPKciS0_ 361
_Z40plugin_build_template_template_parameterPN10cc1_plugin10connectionEPKciyS3_j htab_hash_string 45
_Z40plugin_build_template_template_parameterPN10cc1_plugin10connectionEPKciyS3_j _ZN10hash_tableI13string_hasher11xcallocatorE19find_slot_with_hashERKPKcj13insert_option 67
_Z40plugin_build_template_template_parameterPN10cc1_plugin10connectionEPKciyS3_j line_table 89
_Z40plugin_build_template_template_parameterPN10cc1_plugin10connectionEPKciyS3_j _Z11linemap_addP9line_maps9lc_reasonjPKcj 101
_Z40plugin_build_template_template_parameterPN10cc1_plugin10connectionEPKciyS3_j line_table 108
_Z40plugin_build_template_template_parameterPN10cc1_plugin10connectionEPKciyS3_j _Z18linemap_line_startP9line_mapsjj 118
_Z40plugin_build_template_template_parameterPN10cc1_plugin10connectionEPKciyS3_j line_table 125
_Z40plugin_build_template_template_parameterPN10cc1_plugin10connectionEPKciyS3_j _Z11linemap_addP9line_maps9lc_reasonjPKcj 144
_Z40plugin_build_template_template_parameterPN10cc1_plugin10connectionEPKciyS3_j _Z21template_parm_scope_pv 149
_Z40plugin_build_template_template_parameterPN10cc1_plugin10connectionEPKciyS3_j scope_chain 164
_Z40plugin_build_template_template_parameterPN10cc1_plugin10connectionEPKciyS3_j _Z22end_template_parm_listP9tree_node 177
_Z40plugin_build_template_template_parameterPN10cc1_plugin10connectionEPKciyS3_j _Z21template_parm_scope_pv 182
_Z40plugin_build_template_template_parameterPN10cc1_plugin10connectionEPKciyS3_j _Z14get_identifierPKc 198
_Z40plugin_build_template_template_parameterPN10cc1_plugin10connectionEPKciyS3_j cp_global_trees 205
_Z40plugin_build_template_template_parameterPN10cc1_plugin10connectionEPKciyS3_j _Z29finish_template_template_parmP9tree_nodeS0_ 213
_Z40plugin_build_template_template_parameterPN10cc1_plugin10connectionEPKciyS3_j _Z15build_tree_listP9tree_nodeS0_ 224
_Z40plugin_build_template_template_parameterPN10cc1_plugin10connectionEPKciyS3_j scope_chain 248
_Z40plugin_build_template_template_parameterPN10cc1_plugin10connectionEPKciyS3_j _Z21process_template_parmP9tree_nodejS0_bb 272
_Z40plugin_build_template_template_parameterPN10cc1_plugin10connectionEPKciyS3_j scope_chain 283
_Z40plugin_build_template_template_parameterPN10cc1_plugin10connectionEPKciyS3_j _Z9tree_lastP9tree_node 296
_Z40plugin_build_template_template_parameterPN10cc1_plugin10connectionEPKciyS3_j _ZN14plugin_context8preserveEP9tree_node 308
_Z40plugin_build_template_template_parameterPN10cc1_plugin10connectionEPKciyS3_j xstrdup 342
_Z40plugin_build_template_template_parameterPN10cc1_plugin10connectionEPKciyS3_j _Z11fancy_abortPKciS0_ 373
_Z40plugin_build_template_template_parameterPN10cc1_plugin10connectionEPKciyS3_j _Z11fancy_abortPKciS0_ 393
_Z40plugin_build_template_template_parameterPN10cc1_plugin10connectionEPKciyS3_j _Z11fancy_abortPKciS0_ 413
_Z37plugin_build_value_template_parameterPN10cc1_plugin10connectionEyPKcyS3_j htab_hash_string 50
_Z37plugin_build_value_template_parameterPN10cc1_plugin10connectionEyPKcyS3_j _ZN10hash_tableI13string_hasher11xcallocatorE19find_slot_with_hashERKPKcj13insert_option 72
_Z37plugin_build_value_template_parameterPN10cc1_plugin10connectionEyPKcyS3_j line_table 94
_Z37plugin_build_value_template_parameterPN10cc1_plugin10connectionEyPKcyS3_j _Z11linemap_addP9line_maps9lc_reasonjPKcj 106
_Z37plugin_build_value_template_parameterPN10cc1_plugin10connectionEyPKcyS3_j line_table 113
_Z37plugin_build_value_template_parameterPN10cc1_plugin10connectionEyPKcyS3_j _Z18linemap_line_startP9line_mapsjj 122
_Z37plugin_build_value_template_parameterPN10cc1_plugin10connectionEyPKcyS3_j line_table 129
_Z37plugin_build_value_template_parameterPN10cc1_plugin10connectionEyPKcyS3_j _Z11linemap_addP9line_maps9lc_reasonjPKcj 148
_Z37plugin_build_value_template_parameterPN10cc1_plugin10connectionEyPKcyS3_j _Z21template_parm_scope_pv 153
_Z37plugin_build_value_template_parameterPN10cc1_plugin10connectionEyPKcyS3_j _Z14get_identifierPKc 191
_Z37plugin_build_value_template_parameterPN10cc1_plugin10connectionEyPKcyS3_j _Z14grokdeclaratorPK13cp_declaratorP21cp_decl_specifier_seq12decl_contextiPP9tree_node 265
_Z37plugin_build_value_template_parameterPN10cc1_plugin10connectionEyPKcyS3_j _Z15build_tree_listP9tree_nodeS0_ 278
_Z37plugin_build_value_template_parameterPN10cc1_plugin10connectionEyPKcyS3_j scope_chain 285
_Z37plugin_build_value_template_parameterPN10cc1_plugin10connectionEyPKcyS3_j _Z21process_template_parmP9tree_nodejS0_bb 311
_Z37plugin_build_value_template_parameterPN10cc1_plugin10connectionEyPKcyS3_j scope_chain 322
_Z37plugin_build_value_template_parameterPN10cc1_plugin10connectionEyPKcyS3_j _Z9tree_lastP9tree_node 335
_Z37plugin_build_value_template_parameterPN10cc1_plugin10connectionEyPKcyS3_j _ZN14plugin_context8preserveEP9tree_node 347
_Z37plugin_build_value_template_parameterPN10cc1_plugin10connectionEyPKcyS3_j xstrdup 382
_Z37plugin_build_value_template_parameterPN10cc1_plugin10connectionEyPKcyS3_j _Z11fancy_abortPKciS0_ 413
_Z23plugin_build_unary_exprPN10cc1_plugin10connectionEPKcy scope_chain 123
_Z23plugin_build_unary_exprPN10cc1_plugin10connectionEPKcy _Z27type_dependent_expression_pP9tree_node 149
_Z23plugin_build_unary_exprPN10cc1_plugin10connectionEPKcy _Z11fancy_abortPKciS0_ 272
_Z23plugin_build_unary_exprPN10cc1_plugin10connectionEPKcy scope_chain 332
_Z23plugin_build_unary_exprPN10cc1_plugin10connectionEPKcy _Z11fancy_abortPKciS0_ 425
_Z23plugin_build_unary_exprPN10cc1_plugin10connectionEPKcy _Z19make_pack_expansionP9tree_nodei 441
_Z23plugin_build_unary_exprPN10cc1_plugin10connectionEPKcy scope_chain 456
_Z23plugin_build_unary_exprPN10cc1_plugin10connectionEPKcy _ZN14plugin_context8preserveEP9tree_node 468
_Z23plugin_build_unary_exprPN10cc1_plugin10connectionEPKcy _Z19make_pack_expansionP9tree_nodei 497
_Z23plugin_build_unary_exprPN10cc1_plugin10connectionEPKcy _Z20finish_noexcept_exprP9tree_nodei 521
_Z23plugin_build_unary_exprPN10cc1_plugin10connectionEPKcy _Z12build_typeidP9tree_nodei 545
_Z23plugin_build_unary_exprPN10cc1_plugin10connectionEPKcy _Z11build_throwP9tree_node 588
_Z23plugin_build_unary_exprPN10cc1_plugin10connectionEPKcy _Z13delete_sanityP9tree_nodeS0_bii 636
_Z23plugin_build_unary_exprPN10cc1_plugin10connectionEPKcy _Z26cxx_sizeof_or_alignof_exprP9tree_node9tree_codeb 668
_Z23plugin_build_unary_exprPN10cc1_plugin10connectionEPKcy tree_code_type 710
_Z23plugin_build_unary_exprPN10cc1_plugin10connectionEPKcy _Z16build_x_unary_opj9tree_code7cp_expri 743
_Z23plugin_build_unary_exprPN10cc1_plugin10connectionEPKcy _Z28value_dependent_expression_pP9tree_node 884
_Z23plugin_build_unary_exprPN10cc1_plugin10connectionEPKcy scope_chain 899
_Z23plugin_build_unary_exprPN10cc1_plugin10connectionEPKcy _Z11fancy_abortPKciS0_ 1175
_Z23plugin_build_unary_exprPN10cc1_plugin10connectionEPKcy _Z11fancy_abortPKciS0_ 1195
_Z23plugin_build_unary_exprPN10cc1_plugin10connectionEPKcy _Z11fancy_abortPKciS0_ 1215
_Z23plugin_build_unary_exprPN10cc1_plugin10connectionEPKcy _Z11fancy_abortPKciS0_ 1235
_Z24plugin_build_binary_exprPN10cc1_plugin10connectionEPKcyy _Z11fancy_abortPKciS0_ 488
_Z24plugin_build_binary_exprPN10cc1_plugin10connectionEPKcyy scope_chain 587
_Z24plugin_build_binary_exprPN10cc1_plugin10connectionEPKcyy _Z27type_dependent_expression_pP9tree_node 599
_Z24plugin_build_binary_exprPN10cc1_plugin10connectionEPKcyy _Z13build_x_arrowjP9tree_nodei 644
_Z24plugin_build_binary_exprPN10cc1_plugin10connectionEPKcyy tree_code_type 674
_Z24plugin_build_binary_exprPN10cc1_plugin10connectionEPKcyy _Z31finish_class_member_access_expr7cp_exprP9tree_nodebi 710
_Z24plugin_build_binary_exprPN10cc1_plugin10connectionEPKcyy scope_chain 722
_Z24plugin_build_binary_exprPN10cc1_plugin10connectionEPKcyy _ZN14plugin_context8preserveEP9tree_node 737
_Z24plugin_build_binary_exprPN10cc1_plugin10connectionEPKcyy _Z17build_x_binary_opj9tree_codeP9tree_nodeS_S1_S_PS1_i 1070
_Z24plugin_build_binary_exprPN10cc1_plugin10connectionEPKcyy _Z28value_dependent_expression_pP9tree_node 1092
_Z24plugin_build_binary_exprPN10cc1_plugin10connectionEPKcyy _Z27type_dependent_expression_pP9tree_node 1108
_Z24plugin_build_binary_exprPN10cc1_plugin10connectionEPKcyy _Z28value_dependent_expression_pP9tree_node 1124
_Z24plugin_build_binary_exprPN10cc1_plugin10connectionEPKcyy scope_chain 1139
_Z33plugin_build_expression_list_exprPN10cc1_plugin10connectionEPKcyPK20gcc_cp_function_args _Z11fancy_abortPKciS0_ 83
_Z33plugin_build_expression_list_exprPN10cc1_plugin10connectionEPKcyPK20gcc_cp_function_args tree_code_type 106
_Z33plugin_build_expression_list_exprPN10cc1_plugin10connectionEPKcyPK20gcc_cp_function_args _Z15build_tree_listP9tree_nodeS0_ 147
_Z33plugin_build_expression_list_exprPN10cc1_plugin10connectionEPKcyPK20gcc_cp_function_args _Z21build_functional_castP9tree_nodeS0_i 188
_Z33plugin_build_expression_list_exprPN10cc1_plugin10connectionEPKcyPK20gcc_cp_function_args tree_code_type 245
_Z33plugin_build_expression_list_exprPN10cc1_plugin10connectionEPKcyPK20gcc_cp_function_args _Z9make_node9tree_code 262
_Z33plugin_build_expression_list_exprPN10cc1_plugin10connectionEPKcyPK20gcc_cp_function_args _ZN10vec_prefix22calculate_allocation_1Ejj 381
_Z33plugin_build_expression_list_exprPN10cc1_plugin10connectionEPKcyPK20gcc_cp_function_args _Z20ggc_round_alloc_sizem 400
_Z33plugin_build_expression_list_exprPN10cc1_plugin10connectionEPKcyPK20gcc_cp_function_args _Z11ggc_reallocPvm 448
_Z33plugin_build_expression_list_exprPN10cc1_plugin10connectionEPKcyPK20gcc_cp_function_args _Z8ggc_freePv 500
_Z33plugin_build_expression_list_exprPN10cc1_plugin10connectionEPKcyPK20gcc_cp_function_args _Z20ggc_round_alloc_sizem 531
_Z33plugin_build_expression_list_exprPN10cc1_plugin10connectionEPKcyPK20gcc_cp_function_args _Z9make_node9tree_code 577
_Z33plugin_build_expression_list_exprPN10cc1_plugin10connectionEPKcyPK20gcc_cp_function_args _ZN10vec_prefix22calculate_allocation_1Ejj 692
_Z33plugin_build_expression_list_exprPN10cc1_plugin10connectionEPKcyPK20gcc_cp_function_args _Z20ggc_round_alloc_sizem 715
_Z33plugin_build_expression_list_exprPN10cc1_plugin10connectionEPKcyPK20gcc_cp_function_args _Z11ggc_reallocPvm 764
_Z33plugin_build_expression_list_exprPN10cc1_plugin10connectionEPKcyPK20gcc_cp_function_args _Z20ggc_round_alloc_sizem 830
_Z33plugin_build_expression_list_exprPN10cc1_plugin10connectionEPKcyPK20gcc_cp_function_args _Z23finish_compound_literalP9tree_nodeS0_i5fcl_t 900
_Z33plugin_build_expression_list_exprPN10cc1_plugin10connectionEPKcyPK20gcc_cp_function_args _Z11fancy_abortPKciS0_ 945
_Z33plugin_build_expression_list_exprPN10cc1_plugin10connectionEPKcyPK20gcc_cp_function_args _Z11fancy_abortPKciS0_ 965
_Z33plugin_build_expression_list_exprPN10cc1_plugin10connectionEPKcyPK20gcc_cp_function_args _Z11fancy_abortPKciS0_ 985
_Z33plugin_build_expression_list_exprPN10cc1_plugin10connectionEPKcyPK20gcc_cp_function_args _Z11fancy_abortPKciS0_ 1005
_Z33plugin_build_expression_list_exprPN10cc1_plugin10connectionEPKcyPK20gcc_cp_function_args _ZN14plugin_context8preserveEP9tree_node 218
_Z21plugin_build_new_exprPN10cc1_plugin10connectionEPKcPK20gcc_cp_function_argsyS6_ _Z16make_tree_vectorv 62
_Z21plugin_build_new_exprPN10cc1_plugin10connectionEPKcPK20gcc_cp_function_argsyS6_ _ZN5va_gc7reserveIP9tree_nodeS_EEvRP3vecIT_T0_8vl_embedEjb 161
_Z21plugin_build_new_exprPN10cc1_plugin10connectionEPKcPK20gcc_cp_function_argsyS6_ _Z16make_tree_vectorv 187
_Z21plugin_build_new_exprPN10cc1_plugin10connectionEPKcPK20gcc_cp_function_argsyS6_ _ZN5va_gc7reserveIP9tree_nodeS_EEvRP3vecIT_T0_8vl_embedEjb 281
_Z21plugin_build_new_exprPN10cc1_plugin10connectionEPKcPK20gcc_cp_function_argsyS6_ tree_code_type 320
_Z21plugin_build_new_exprPN10cc1_plugin10connectionEPKcPK20gcc_cp_function_argsyS6_ _Z11fancy_abortPKciS0_ 387
_Z21plugin_build_new_exprPN10cc1_plugin10connectionEPKcPK20gcc_cp_function_argsyS6_ _Z11fancy_abortPKciS0_ 458
_Z21plugin_build_new_exprPN10cc1_plugin10connectionEPKcPK20gcc_cp_function_argsyS6_ scope_chain 480
_Z21plugin_build_new_exprPN10cc1_plugin10connectionEPKcPK20gcc_cp_function_argsyS6_ _Z16dependent_type_pP9tree_node 501
_Z21plugin_build_new_exprPN10cc1_plugin10connectionEPKcPK20gcc_cp_function_argsyS6_ _Z9build_newPP3vecIP9tree_node5va_gc8vl_embedES1_S1_S6_ii 545
_Z21plugin_build_new_exprPN10cc1_plugin10connectionEPKcPK20gcc_cp_function_argsyS6_ scope_chain 552
_Z21plugin_build_new_exprPN10cc1_plugin10connectionEPKcPK20gcc_cp_function_argsyS6_ _Z19release_tree_vectorP3vecIP9tree_node5va_gc8vl_embedE 574
_Z21plugin_build_new_exprPN10cc1_plugin10connectionEPKcPK20gcc_cp_function_argsyS6_ _Z19release_tree_vectorP3vecIP9tree_node5va_gc8vl_embedE 589
_Z21plugin_build_new_exprPN10cc1_plugin10connectionEPKcPK20gcc_cp_function_argsyS6_ _ZN14plugin_context8preserveEP9tree_node 602
_Z21plugin_build_new_exprPN10cc1_plugin10connectionEPKcPK20gcc_cp_function_argsyS6_ scope_chain 668
_Z21plugin_build_new_exprPN10cc1_plugin10connectionEPKcPK20gcc_cp_function_argsyS6_ global_trees 675
_Z21plugin_build_new_exprPN10cc1_plugin10connectionEPKcPK20gcc_cp_function_argsyS6_ _Z28value_dependent_expression_pP9tree_node 691
_Z21plugin_build_new_exprPN10cc1_plugin10connectionEPKcPK20gcc_cp_function_argsyS6_ _Z15fold_build2_locj9tree_codeP9tree_nodeS1_S1_ 719
_Z21plugin_build_new_exprPN10cc1_plugin10connectionEPKcPK20gcc_cp_function_argsyS6_ scope_chain 729
_Z21plugin_build_new_exprPN10cc1_plugin10connectionEPKcPK20gcc_cp_function_argsyS6_ _Z28value_dependent_expression_pP9tree_node 788
_Z21plugin_build_new_exprPN10cc1_plugin10connectionEPKcPK20gcc_cp_function_argsyS6_ _Z30any_type_dependent_arguments_pPK3vecIP9tree_node5va_gc8vl_embedE 811
_Z21plugin_build_new_exprPN10cc1_plugin10connectionEPKcPK20gcc_cp_function_argsyS6_ _Z30any_type_dependent_arguments_pPK3vecIP9tree_node5va_gc8vl_embedE 834
_Z21plugin_build_new_exprPN10cc1_plugin10connectionEPKcPK20gcc_cp_function_argsyS6_ scope_chain 849
_Z21plugin_build_new_exprPN10cc1_plugin10connectionEPKcPK20gcc_cp_function_argsyS6_ _Z9build_newPP3vecIP9tree_node5va_gc8vl_embedES1_S1_S6_ii 889
_Z21plugin_build_new_exprPN10cc1_plugin10connectionEPKcPK20gcc_cp_function_argsyS6_ _Z27type_dependent_expression_pP9tree_node 908
_Z21plugin_build_new_exprPN10cc1_plugin10connectionEPKcPK20gcc_cp_function_argsyS6_ scope_chain 923
_Z21plugin_build_new_exprPN10cc1_plugin10connectionEPKcPK20gcc_cp_function_argsyS6_ _Z16fold_convert_locjP9tree_nodeS0_ 940
_Z21plugin_build_new_exprPN10cc1_plugin10connectionEPKcPK20gcc_cp_function_argsyS6_ _Z15fold_build2_locj9tree_codeP9tree_nodeS1_S1_ 960
_Z21plugin_build_new_exprPN10cc1_plugin10connectionEPKcPK20gcc_cp_function_argsyS6_ scope_chain 970
_Z21plugin_build_new_exprPN10cc1_plugin10connectionEPKcPK20gcc_cp_function_argsyS6_ _Z11fancy_abortPKciS0_ 1019
_Z21plugin_build_new_exprPN10cc1_plugin10connectionEPKcPK20gcc_cp_function_argsyS6_ _Z11fancy_abortPKciS0_ 1039
_Z21plugin_build_new_exprPN10cc1_plugin10connectionEPKcPK20gcc_cp_function_argsyS6_ _Z11fancy_abortPKciS0_ 1059
_Z21plugin_build_new_exprPN10cc1_plugin10connectionEPKcPK20gcc_cp_function_argsyS6_ _Z11fancy_abortPKciS0_ 1079
_Z22plugin_build_call_exprPN10cc1_plugin10connectionEyiPK20gcc_cp_function_args _Z16make_tree_vectorv 35
_Z22plugin_build_call_exprPN10cc1_plugin10connectionEyiPK20gcc_cp_function_args _ZN5va_gc7reserveIP9tree_nodeS_EEvRP3vecIT_T0_8vl_embedEjb 135
_Z22plugin_build_call_exprPN10cc1_plugin10connectionEyiPK20gcc_cp_function_args _Z16finish_call_exprP9tree_nodePP3vecIS0_5va_gc8vl_embedEbbi 249
_Z22plugin_build_call_exprPN10cc1_plugin10connectionEyiPK20gcc_cp_function_args _Z19release_tree_vectorP3vecIP9tree_node5va_gc8vl_embedE 262
_Z22plugin_build_call_exprPN10cc1_plugin10connectionEyiPK20gcc_cp_function_args _ZN14plugin_context8preserveEP9tree_node 275
_Z22plugin_build_call_exprPN10cc1_plugin10connectionEyiPK20gcc_cp_function_args _Z31build_offset_ref_call_from_treeP9tree_nodePP3vecIS0_5va_gc8vl_embedEi 317
_Z22plugin_build_call_exprPN10cc1_plugin10connectionEyiPK20gcc_cp_function_args _Z16is_overloaded_fnP9tree_node 363
_Z22plugin_build_call_exprPN10cc1_plugin10connectionEyiPK20gcc_cp_function_args _Z12get_first_fnP9tree_node 379
_Z22plugin_build_call_exprPN10cc1_plugin10connectionEyiPK20gcc_cp_function_args _Z30any_type_dependent_arguments_pPK3vecIP9tree_node5va_gc8vl_embedE 441
_Z22plugin_build_call_exprPN10cc1_plugin10connectionEyiPK20gcc_cp_function_args tree_code_type 469
_Z22plugin_build_call_exprPN10cc1_plugin10connectionEyiPK20gcc_cp_function_args _Z21perform_koenig_lookup7cp_exprP3vecIP9tree_node5va_gc8vl_embedEi 513
_Z22plugin_build_call_exprPN10cc1_plugin10connectionEyiPK20gcc_cp_function_args _Z27type_dependent_expression_pP9tree_node 564
_Z22plugin_build_call_exprPN10cc1_plugin10connectionEyiPK20gcc_cp_function_args _Z17build_nt_call_vecP9tree_nodeP3vecIS0_5va_gc8vl_embedE 599
_Z22plugin_build_call_exprPN10cc1_plugin10connectionEyiPK20gcc_cp_function_args _Z27type_dependent_expression_pP9tree_node 641
_Z22plugin_build_call_exprPN10cc1_plugin10connectionEyiPK20gcc_cp_function_args _Z30any_type_dependent_arguments_pPK3vecIP9tree_node5va_gc8vl_embedE 655
_Z22plugin_build_call_exprPN10cc1_plugin10connectionEyiPK20gcc_cp_function_args _Z21build_new_method_callP9tree_nodeS0_PP3vecIS0_5va_gc8vl_embedES0_iPS0_i 708
_Z22plugin_build_call_exprPN10cc1_plugin10connectionEyiPK20gcc_cp_function_args _Z16finish_call_exprP9tree_nodePP3vecIS0_5va_gc8vl_embedEbbi 748
_Z45plugin_build_function_template_specializationPN10cc1_plugin10connectionEyPK20gcc_cp_template_argsyPKcj htab_hash_string 45
_Z45plugin_build_function_template_specializationPN10cc1_plugin10connectionEyPK20gcc_cp_template_argsyPKcj _ZN10hash_tableI13string_hasher11xcallocatorE19find_slot_with_hashERKPKcj13insert_option 67
_Z45plugin_build_function_template_specializationPN10cc1_plugin10connectionEyPK20gcc_cp_template_argsyPKcj line_table 89
_Z45plugin_build_function_template_specializationPN10cc1_plugin10connectionEyPK20gcc_cp_template_argsyPKcj _Z11linemap_addP9line_maps9lc_reasonjPKcj 101
_Z45plugin_build_function_template_specializationPN10cc1_plugin10connectionEyPK20gcc_cp_template_argsyPKcj line_table 108
_Z45plugin_build_function_template_specializationPN10cc1_plugin10connectionEyPK20gcc_cp_template_argsyPKcj _Z18linemap_line_startP9line_mapsjj 118
_Z45plugin_build_function_template_specializationPN10cc1_plugin10connectionEyPK20gcc_cp_template_argsyPKcj line_table 125
_Z45plugin_build_function_template_specializationPN10cc1_plugin10connectionEyPK20gcc_cp_template_argsyPKcj _Z11linemap_addP9line_maps9lc_reasonjPKcj 144
_Z45plugin_build_function_template_specializationPN10cc1_plugin10connectionEyPK20gcc_cp_template_argsyPKcj _Z6tsubstP9tree_nodeS0_iS0_ 170
_Z45plugin_build_function_template_specializationPN10cc1_plugin10connectionEyPK20gcc_cp_template_argsyPKcj global_trees 180
_Z45plugin_build_function_template_specializationPN10cc1_plugin10connectionEyPK20gcc_cp_template_argsyPKcj _Z18build_int_cst_typeP9tree_node8poly_intILj1ElE 191
_Z45plugin_build_function_template_specializationPN10cc1_plugin10connectionEyPK20gcc_cp_template_argsyPKcj _ZN14plugin_context8preserveEP9tree_node 216
_Z45plugin_build_function_template_specializationPN10cc1_plugin10connectionEyPK20gcc_cp_template_argsyPKcj xstrdup 246
_Z42plugin_build_class_template_specializationPN10cc1_plugin10connectionEyPK20gcc_cp_template_argsPKcj htab_hash_string 40
_Z42plugin_build_class_template_specializationPN10cc1_plugin10connectionEyPK20gcc_cp_template_argsPKcj _ZN10hash_tableI13string_hasher11xcallocatorE19find_slot_with_hashERKPKcj13insert_option 61
_Z42plugin_build_class_template_specializationPN10cc1_plugin10connectionEyPK20gcc_cp_template_argsPKcj line_table 79
_Z42plugin_build_class_template_specializationPN10cc1_plugin10connectionEyPK20gcc_cp_template_argsPKcj _Z11linemap_addP9line_maps9lc_reasonjPKcj 91
_Z42plugin_build_class_template_specializationPN10cc1_plugin10connectionEyPK20gcc_cp_template_argsPKcj line_table 98
_Z42plugin_build_class_template_specializationPN10cc1_plugin10connectionEyPK20gcc_cp_template_argsPKcj _Z18linemap_line_startP9line_mapsjj 108
_Z42plugin_build_class_template_specializationPN10cc1_plugin10connectionEyPK20gcc_cp_template_argsPKcj line_table 115
_Z42plugin_build_class_template_specializationPN10cc1_plugin10connectionEyPK20gcc_cp_template_argsPKcj _Z11linemap_addP9line_maps9lc_reasonjPKcj 134
_Z42plugin_build_class_template_specializationPN10cc1_plugin10connectionEyPK20gcc_cp_template_argsPKcj _Z20finish_template_typeP9tree_nodeS0_i 155
_Z42plugin_build_class_template_specializationPN10cc1_plugin10connectionEyPK20gcc_cp_template_argsPKcj _ZN14plugin_context8preserveEP9tree_node 169
_Z42plugin_build_class_template_specializationPN10cc1_plugin10connectionEyPK20gcc_cp_template_argsPKcj xstrdup 198
_Z20plugin_get_expr_typePN10cc1_plugin10connectionEy prime_tab 80
_Z20plugin_get_expr_typePN10cc1_plugin10connectionEy prime_tab 86
_Z20plugin_get_expr_typePN10cc1_plugin10connectionEy prime_tab 93
_Z20plugin_get_expr_typePN10cc1_plugin10connectionEy prime_tab 99
_Z20plugin_get_expr_typePN10cc1_plugin10connectionEy _ZN10hash_tableI15nofree_ptr_hashI9tree_nodeE11xcallocatorE6expandEv 338
_Z20plugin_get_expr_typePN10cc1_plugin10connectionEy _Z18make_decltype_autov 385
_Z35plugin_build_pointer_to_member_typePN10cc1_plugin10connectionEyy _Z17build_ptrmem_typeP9tree_nodeS0_ 16
_Z35plugin_build_pointer_to_member_typePN10cc1_plugin10connectionEyy prime_tab 78
_Z35plugin_build_pointer_to_member_typePN10cc1_plugin10connectionEyy prime_tab 84
_Z35plugin_build_pointer_to_member_typePN10cc1_plugin10connectionEyy prime_tab 91
_Z35plugin_build_pointer_to_member_typePN10cc1_plugin10connectionEyy prime_tab 97
_Z35plugin_build_pointer_to_member_typePN10cc1_plugin10connectionEyy _ZN10hash_tableI15nofree_ptr_hashI9tree_nodeE11xcallocatorE6expandEv 338
_Z25plugin_build_literal_exprPN10cc1_plugin10connectionEym _Z18build_int_cst_typeP9tree_node8poly_intILj1ElE 16
_Z25plugin_build_literal_exprPN10cc1_plugin10connectionEym prime_tab 78
_Z25plugin_build_literal_exprPN10cc1_plugin10connectionEym prime_tab 84
_Z25plugin_build_literal_exprPN10cc1_plugin10connectionEym prime_tab 91
_Z25plugin_build_literal_exprPN10cc1_plugin10connectionEym prime_tab 97
_Z25plugin_build_literal_exprPN10cc1_plugin10connectionEym _ZN10hash_tableI15nofree_ptr_hashI9tree_nodeE11xcallocatorE6expandEv 338
_Z22plugin_build_decl_exprPN10cc1_plugin10connectionEyi tree_code_type 15
_Z22plugin_build_decl_exprPN10cc1_plugin10connectionEyi tree_code_type 52
_Z22plugin_build_decl_exprPN10cc1_plugin10connectionEyi _Z16build_offset_refP9tree_nodeS0_bi 74
_Z22plugin_build_decl_exprPN10cc1_plugin10connectionEyi prime_tab 136
_Z22plugin_build_decl_exprPN10cc1_plugin10connectionEyi prime_tab 143
_Z22plugin_build_decl_exprPN10cc1_plugin10connectionEyi prime_tab 150
_Z22plugin_build_decl_exprPN10cc1_plugin10connectionEyi prime_tab 156
_Z22plugin_build_decl_exprPN10cc1_plugin10connectionEyi _ZN10hash_tableI15nofree_ptr_hashI9tree_nodeE11xcallocatorE6expandEv 402
_Z22plugin_build_decl_exprPN10cc1_plugin10connectionEyi _Z11fancy_abortPKciS0_ 463
_Z22plugin_build_decl_exprPN10cc1_plugin10connectionEyi _Z11fancy_abortPKciS0_ 483
_Z24plugin_build_lambda_exprPN10cc1_plugin10connectionEy _Z19build_lambda_objectP9tree_node 56
_Z24plugin_build_lambda_exprPN10cc1_plugin10connectionEy prime_tab 118
_Z24plugin_build_lambda_exprPN10cc1_plugin10connectionEy prime_tab 124
_Z24plugin_build_lambda_exprPN10cc1_plugin10connectionEy prime_tab 131
_Z24plugin_build_lambda_exprPN10cc1_plugin10connectionEy prime_tab 137
_Z24plugin_build_lambda_exprPN10cc1_plugin10connectionEy _ZN10hash_tableI15nofree_ptr_hashI9tree_nodeE11xcallocatorE6expandEv 386
_Z24plugin_build_lambda_exprPN10cc1_plugin10connectionEy _Z11fancy_abortPKciS0_ 447
_Z37plugin_build_dependent_class_templatePN10cc1_plugin10connectionEyPKc _Z14get_identifierPKc 16
_Z37plugin_build_dependent_class_templatePN10cc1_plugin10connectionEyPKc _Z27make_unbound_class_templateP9tree_nodeS0_S0_i 34
_Z37plugin_build_dependent_class_templatePN10cc1_plugin10connectionEyPKc prime_tab 96
_Z37plugin_build_dependent_class_templatePN10cc1_plugin10connectionEyPKc prime_tab 102
_Z37plugin_build_dependent_class_templatePN10cc1_plugin10connectionEyPKc prime_tab 109
_Z37plugin_build_dependent_class_templatePN10cc1_plugin10connectionEyPKc prime_tab 115
_Z37plugin_build_dependent_class_templatePN10cc1_plugin10connectionEyPKc _ZN10hash_tableI15nofree_ptr_hashI9tree_nodeE11xcallocatorE6expandEv 354
_Z39plugin_build_dependent_type_template_idPN10cc1_plugin10connectionEyPK20gcc_cp_template_args _Z20finish_template_typeP9tree_nodeS0_i 29
_Z39plugin_build_dependent_type_template_idPN10cc1_plugin10connectionEyPK20gcc_cp_template_args prime_tab 95
_Z39plugin_build_dependent_type_template_idPN10cc1_plugin10connectionEyPK20gcc_cp_template_args prime_tab 101
_Z39plugin_build_dependent_type_template_idPN10cc1_plugin10connectionEyPK20gcc_cp_template_args prime_tab 108
_Z39plugin_build_dependent_type_template_idPN10cc1_plugin10connectionEyPK20gcc_cp_template_args prime_tab 114
_Z39plugin_build_dependent_type_template_idPN10cc1_plugin10connectionEyPK20gcc_cp_template_args _ZN10hash_tableI15nofree_ptr_hashI9tree_nodeE11xcallocatorE6expandEv 354
_Z24plugin_build_method_typePN10cc1_plugin10connectionEyy17gcc_cp_qualifiers21gcc_cp_ref_qualifiers _Z11fancy_abortPKciS0_ 67
_Z24plugin_build_method_typePN10cc1_plugin10connectionEyy17gcc_cp_qualifiers21gcc_cp_ref_qualifiers _Z16build_memfn_typeP9tree_nodeS0_i16cp_ref_qualifier 94
_Z24plugin_build_method_typePN10cc1_plugin10connectionEyy17gcc_cp_qualifiers21gcc_cp_ref_qualifiers prime_tab 156
_Z24plugin_build_method_typePN10cc1_plugin10connectionEyy17gcc_cp_qualifiers21gcc_cp_ref_qualifiers prime_tab 162
_Z24plugin_build_method_typePN10cc1_plugin10connectionEyy17gcc_cp_qualifiers21gcc_cp_ref_qualifiers prime_tab 169
_Z24plugin_build_method_typePN10cc1_plugin10connectionEyy17gcc_cp_qualifiers21gcc_cp_ref_qualifiers prime_tab 175
_Z24plugin_build_method_typePN10cc1_plugin10connectionEyy17gcc_cp_qualifiers21gcc_cp_ref_qualifiers _Z17apply_memfn_qualsP9tree_nodei16cp_ref_qualifier 427
_Z24plugin_build_method_typePN10cc1_plugin10connectionEyy17gcc_cp_qualifiers21gcc_cp_ref_qualifiers _ZN10hash_tableI15nofree_ptr_hashI9tree_nodeE11xcallocatorE6expandEv 466
_Z24plugin_build_method_typePN10cc1_plugin10connectionEyy17gcc_cp_qualifiers21gcc_cp_ref_qualifiers _Z11fancy_abortPKciS0_ 522
_Z19plugin_get_int_typePN10cc1_plugin10connectionEimPKc prime_tab 172
_Z19plugin_get_int_typePN10cc1_plugin10connectionEimPKc prime_tab 178
_Z19plugin_get_int_typePN10cc1_plugin10connectionEimPKc prime_tab 185
_Z19plugin_get_int_typePN10cc1_plugin10connectionEimPKc prime_tab 191
_Z19plugin_get_int_typePN10cc1_plugin10connectionEimPKc _ZN10hash_tableI15nofree_ptr_hashI9tree_nodeE11xcallocatorE6expandEv 426
_Z19plugin_get_int_typePN10cc1_plugin10connectionEimPKc _Z22c_common_type_for_sizeji 456
_Z19plugin_get_int_typePN10cc1_plugin10connectionEimPKc global_trees 475
_Z19plugin_get_int_typePN10cc1_plugin10connectionEimPKc _Z11fancy_abortPKciS0_ 519
_Z19plugin_get_int_typePN10cc1_plugin10connectionEimPKc _Z11fancy_abortPKciS0_ 539
_Z19plugin_get_int_typePN10cc1_plugin10connectionEimPKc _Z11fancy_abortPKciS0_ 559
_Z19plugin_get_int_typePN10cc1_plugin10connectionEimPKc _Z11fancy_abortPKciS0_ 579
_Z31plugin_build_dependent_typenamePN10cc1_plugin10connectionEyPKcPK20gcc_cp_template_args _Z14get_identifierPKc 23
_Z31plugin_build_dependent_typenamePN10cc1_plugin10connectionEyPKcPK20gcc_cp_template_args _Z16build_min_nt_locj9tree_codez 59
_Z31plugin_build_dependent_typenamePN10cc1_plugin10connectionEyPKcPK20gcc_cp_template_args _Z18make_typename_typeP9tree_nodeS0_9tag_typesi 83
_Z31plugin_build_dependent_typenamePN10cc1_plugin10connectionEyPKcPK20gcc_cp_template_args prime_tab 145
_Z31plugin_build_dependent_typenamePN10cc1_plugin10connectionEyPKcPK20gcc_cp_template_args prime_tab 151
_Z31plugin_build_dependent_typenamePN10cc1_plugin10connectionEyPKcPK20gcc_cp_template_args prime_tab 158
_Z31plugin_build_dependent_typenamePN10cc1_plugin10connectionEyPKcPK20gcc_cp_template_args prime_tab 164
_Z31plugin_build_dependent_typenamePN10cc1_plugin10connectionEyPKcPK20gcc_cp_template_args _ZN10hash_tableI15nofree_ptr_hashI9tree_nodeE11xcallocatorE6expandEv 410
_Z28plugin_build_unary_type_exprPN10cc1_plugin10connectionEPKcy scope_chain 70
_Z28plugin_build_unary_type_exprPN10cc1_plugin10connectionEPKcy _Z16dependent_type_pP9tree_node 82
_Z28plugin_build_unary_type_exprPN10cc1_plugin10connectionEPKcy scope_chain 96
_Z28plugin_build_unary_type_exprPN10cc1_plugin10connectionEPKcy _Z10get_typeidP9tree_nodei 113
_Z28plugin_build_unary_type_exprPN10cc1_plugin10connectionEPKcy scope_chain 128
_Z28plugin_build_unary_type_exprPN10cc1_plugin10connectionEPKcy prime_tab 187
_Z28plugin_build_unary_type_exprPN10cc1_plugin10connectionEPKcy prime_tab 194
_Z28plugin_build_unary_type_exprPN10cc1_plugin10connectionEPKcy prime_tab 200
_Z28plugin_build_unary_type_exprPN10cc1_plugin10connectionEPKcy prime_tab 206
_Z28plugin_build_unary_type_exprPN10cc1_plugin10connectionEPKcy scope_chain 401
_Z28plugin_build_unary_type_exprPN10cc1_plugin10connectionEPKcy _Z16dependent_type_pP9tree_node 413
_Z28plugin_build_unary_type_exprPN10cc1_plugin10connectionEPKcy scope_chain 427
_Z28plugin_build_unary_type_exprPN10cc1_plugin10connectionEPKcy _Z19make_pack_expansionP9tree_nodei 466
_Z28plugin_build_unary_type_exprPN10cc1_plugin10connectionEPKcy _Z26cxx_sizeof_or_alignof_typeP9tree_node9tree_codebb 505
_Z28plugin_build_unary_type_exprPN10cc1_plugin10connectionEPKcy _Z11fancy_abortPKciS0_ 601
_Z28plugin_build_unary_type_exprPN10cc1_plugin10connectionEPKcy _ZN10hash_tableI15nofree_ptr_hashI9tree_nodeE11xcallocatorE6expandEv 629
_Z28plugin_build_unary_type_exprPN10cc1_plugin10connectionEPKcy scope_chain 651
_Z28plugin_build_unary_type_exprPN10cc1_plugin10connectionEPKcy _Z16dependent_type_pP9tree_node 663
_Z28plugin_build_unary_type_exprPN10cc1_plugin10connectionEPKcy scope_chain 681
_Z25plugin_build_ternary_exprPN10cc1_plugin10connectionEPKcyyy scope_chain 38
_Z25plugin_build_ternary_exprPN10cc1_plugin10connectionEPKcyyy _Z27type_dependent_expression_pP9tree_node 62
_Z25plugin_build_ternary_exprPN10cc1_plugin10connectionEPKcyyy _Z24build_x_conditional_exprjP9tree_nodeS0_S0_i 92
_Z25plugin_build_ternary_exprPN10cc1_plugin10connectionEPKcyyy scope_chain 99
_Z25plugin_build_ternary_exprPN10cc1_plugin10connectionEPKcyyy prime_tab 165
_Z25plugin_build_ternary_exprPN10cc1_plugin10connectionEPKcyyy prime_tab 171
_Z25plugin_build_ternary_exprPN10cc1_plugin10connectionEPKcyyy prime_tab 178
_Z25plugin_build_ternary_exprPN10cc1_plugin10connectionEPKcyyy prime_tab 184
_Z25plugin_build_ternary_exprPN10cc1_plugin10connectionEPKcyyy _ZN10hash_tableI15nofree_ptr_hashI9tree_nodeE11xcallocatorE6expandEv 434
_Z25plugin_build_ternary_exprPN10cc1_plugin10connectionEPKcyyy _Z28value_dependent_expression_pP9tree_node 460
_Z25plugin_build_ternary_exprPN10cc1_plugin10connectionEPKcyyy _Z27type_dependent_expression_pP9tree_node 476
_Z25plugin_build_ternary_exprPN10cc1_plugin10connectionEPKcyyy _Z28value_dependent_expression_pP9tree_node 492
_Z25plugin_build_ternary_exprPN10cc1_plugin10connectionEPKcyyy _Z27type_dependent_expression_pP9tree_node 508
_Z25plugin_build_ternary_exprPN10cc1_plugin10connectionEPKcyyy _Z28value_dependent_expression_pP9tree_node 524
_Z25plugin_build_ternary_exprPN10cc1_plugin10connectionEPKcyyy scope_chain 539
_Z25plugin_build_ternary_exprPN10cc1_plugin10connectionEPKcyyy _Z24build_x_conditional_exprjP9tree_nodeS0_S0_i 565
_Z25plugin_build_ternary_exprPN10cc1_plugin10connectionEPKcyyy _Z11fancy_abortPKciS0_ 619
_Z22plugin_build_cast_exprPN10cc1_plugin10connectionEPKcyy _Z15cp_build_c_castP9tree_nodeS0_i 68
_Z22plugin_build_cast_exprPN10cc1_plugin10connectionEPKcyy scope_chain 81
_Z22plugin_build_cast_exprPN10cc1_plugin10connectionEPKcyy _Z16dependent_type_pP9tree_node 93
_Z22plugin_build_cast_exprPN10cc1_plugin10connectionEPKcyy scope_chain 122
_Z22plugin_build_cast_exprPN10cc1_plugin10connectionEPKcyy prime_tab 188
_Z22plugin_build_cast_exprPN10cc1_plugin10connectionEPKcyy prime_tab 194
_Z22plugin_build_cast_exprPN10cc1_plugin10connectionEPKcyy prime_tab 201
_Z22plugin_build_cast_exprPN10cc1_plugin10connectionEPKcyy prime_tab 207
_Z22plugin_build_cast_exprPN10cc1_plugin10connectionEPKcyy _Z17build_static_castP9tree_nodeS0_i 402
_Z22plugin_build_cast_exprPN10cc1_plugin10connectionEPKcyy _Z11fancy_abortPKciS0_ 428
_Z22plugin_build_cast_exprPN10cc1_plugin10connectionEPKcyy _ZN10hash_tableI15nofree_ptr_hashI9tree_nodeE11xcallocatorE6expandEv 514
_Z22plugin_build_cast_exprPN10cc1_plugin10connectionEPKcyy _Z27type_dependent_expression_pP9tree_node 540
_Z22plugin_build_cast_exprPN10cc1_plugin10connectionEPKcyy _Z28value_dependent_expression_pP9tree_node 556
_Z22plugin_build_cast_exprPN10cc1_plugin10connectionEPKcyy scope_chain 571
_Z22plugin_build_cast_exprPN10cc1_plugin10connectionEPKcyy _Z16build_const_castP9tree_nodeS0_i 610
_Z22plugin_build_cast_exprPN10cc1_plugin10connectionEPKcyy _Z18build_dynamic_castP9tree_nodeS0_i 626
_Z22plugin_build_cast_exprPN10cc1_plugin10connectionEPKcyy _Z22build_reinterpret_castP9tree_nodeS0_i 642
_Z33plugin_build_dependent_array_typePN10cc1_plugin10connectionEyy _Z26get_identifier_with_lengthPKcm 30
_Z33plugin_build_dependent_array_typePN10cc1_plugin10connectionEyy scope_chain 37
_Z33plugin_build_dependent_array_typePN10cc1_plugin10connectionEyy _Z16dependent_type_pP9tree_node 52
_Z33plugin_build_dependent_array_typePN10cc1_plugin10connectionEyy _Z24compute_array_index_typeP9tree_nodeS0_i 76
_Z33plugin_build_dependent_array_typePN10cc1_plugin10connectionEyy _Z22build_cplus_array_typeP9tree_nodeS0_ 87
_Z33plugin_build_dependent_array_typePN10cc1_plugin10connectionEyy scope_chain 94
_Z33plugin_build_dependent_array_typePN10cc1_plugin10connectionEyy prime_tab 160
_Z33plugin_build_dependent_array_typePN10cc1_plugin10connectionEyy prime_tab 166
_Z33plugin_build_dependent_array_typePN10cc1_plugin10connectionEyy prime_tab 173
_Z33plugin_build_dependent_array_typePN10cc1_plugin10connectionEyy prime_tab 179
_Z33plugin_build_dependent_array_typePN10cc1_plugin10connectionEyy _Z27type_dependent_expression_pP9tree_node 428
_Z33plugin_build_dependent_array_typePN10cc1_plugin10connectionEyy _Z28value_dependent_expression_pP9tree_node 444
_Z33plugin_build_dependent_array_typePN10cc1_plugin10connectionEyy scope_chain 459
_Z33plugin_build_dependent_array_typePN10cc1_plugin10connectionEyy _Z24compute_array_index_typeP9tree_nodeS0_i 479
_Z33plugin_build_dependent_array_typePN10cc1_plugin10connectionEyy _Z22build_cplus_array_typeP9tree_nodeS0_ 490
_Z33plugin_build_dependent_array_typePN10cc1_plugin10connectionEyy _ZN10hash_tableI15nofree_ptr_hashI9tree_nodeE11xcallocatorE6expandEv 514
_Z27plugin_build_dependent_exprPN10cc1_plugin10connectionEy18gcc_cp_symbol_kindPKcyPK20gcc_cp_template_args _Z14get_identifierPKc 74
_Z27plugin_build_dependent_exprPN10cc1_plugin10connectionEy18gcc_cp_symbol_kindPKcyPK20gcc_cp_template_args tree_code_type 89
_Z27plugin_build_dependent_exprPN10cc1_plugin10connectionEy18gcc_cp_symbol_kindPKcyPK20gcc_cp_template_args _Z21lookup_qualified_nameP9tree_nodeS0_ibb 120
_Z27plugin_build_dependent_exprPN10cc1_plugin10connectionEy18gcc_cp_symbol_kindPKcyPK20gcc_cp_template_args _Z24lookup_template_functionP9tree_nodeS0_ 147
_Z27plugin_build_dependent_exprPN10cc1_plugin10connectionEy18gcc_cp_symbol_kindPKcyPK20gcc_cp_template_args _Z20build_qualified_nameP9tree_nodeS0_S0_b 176
_Z27plugin_build_dependent_exprPN10cc1_plugin10connectionEy18gcc_cp_symbol_kindPKcyPK20gcc_cp_template_args prime_tab 234
_Z27plugin_build_dependent_exprPN10cc1_plugin10connectionEy18gcc_cp_symbol_kindPKcyPK20gcc_cp_template_args prime_tab 241
_Z27plugin_build_dependent_exprPN10cc1_plugin10connectionEy18gcc_cp_symbol_kindPKcyPK20gcc_cp_template_args prime_tab 247
_Z27plugin_build_dependent_exprPN10cc1_plugin10connectionEy18gcc_cp_symbol_kindPKcyPK20gcc_cp_template_args prime_tab 253
_Z27plugin_build_dependent_exprPN10cc1_plugin10connectionEy18gcc_cp_symbol_kindPKcyPK20gcc_cp_template_args _ZN10hash_tableI15nofree_ptr_hashI9tree_nodeE11xcallocatorE6expandEv 501
_Z27plugin_build_dependent_exprPN10cc1_plugin10connectionEy18gcc_cp_symbol_kindPKcyPK20gcc_cp_template_args _Z11fancy_abortPKciS0_ 756
_Z27plugin_build_dependent_exprPN10cc1_plugin10connectionEy18gcc_cp_symbol_kindPKcyPK20gcc_cp_template_args _Z17dependent_scope_pP9tree_node 772
_Z27plugin_build_dependent_exprPN10cc1_plugin10connectionEy18gcc_cp_symbol_kindPKcyPK20gcc_cp_template_args ovl_op_mapping 908
_Z27plugin_build_dependent_exprPN10cc1_plugin10connectionEy18gcc_cp_symbol_kindPKcyPK20gcc_cp_template_args ovl_op_info 940
_Z27plugin_build_dependent_exprPN10cc1_plugin10connectionEy18gcc_cp_symbol_kindPKcyPK20gcc_cp_template_args _Z11fancy_abortPKciS0_ 969
_Z27plugin_build_dependent_exprPN10cc1_plugin10connectionEy18gcc_cp_symbol_kindPKcyPK20gcc_cp_template_args xstrndup 1078
_Z27plugin_build_dependent_exprPN10cc1_plugin10connectionEy18gcc_cp_symbol_kindPKcyPK20gcc_cp_template_args _Z22cp_literal_operator_idPKc 1089
_Z27plugin_build_dependent_exprPN10cc1_plugin10connectionEy18gcc_cp_symbol_kindPKcyPK20gcc_cp_template_args free 1100
_Z27plugin_build_dependent_exprPN10cc1_plugin10connectionEy18gcc_cp_symbol_kindPKcyPK20gcc_cp_template_args _Z11fancy_abortPKciS0_ 1134
_Z27plugin_build_dependent_exprPN10cc1_plugin10connectionEy18gcc_cp_symbol_kindPKcyPK20gcc_cp_template_args cp_global_trees 1695
_Z27plugin_build_dependent_exprPN10cc1_plugin10connectionEy18gcc_cp_symbol_kindPKcyPK20gcc_cp_template_args cp_global_trees 1734
_Z27plugin_build_dependent_exprPN10cc1_plugin10connectionEy18gcc_cp_symbol_kindPKcyPK20gcc_cp_template_args _Z17make_conv_op_nameP9tree_node 1777
_Z27plugin_build_dependent_exprPN10cc1_plugin10connectionEy18gcc_cp_symbol_kindPKcyPK20gcc_cp_template_args _Z22cp_literal_operator_idPKc 2107
_Z27plugin_build_dependent_exprPN10cc1_plugin10connectionEy18gcc_cp_symbol_kindPKcyPK20gcc_cp_template_args _Z11fancy_abortPKciS0_ 2171
_Z27plugin_build_dependent_exprPN10cc1_plugin10connectionEy18gcc_cp_symbol_kindPKcyPK20gcc_cp_template_args _Z11fancy_abortPKciS0_ 2191
_Z27plugin_build_dependent_exprPN10cc1_plugin10connectionEy18gcc_cp_symbol_kindPKcyPK20gcc_cp_template_args _Z11fancy_abortPKciS0_ 2211
_Z27plugin_build_dependent_exprPN10cc1_plugin10connectionEy18gcc_cp_symbol_kindPKcyPK20gcc_cp_template_args _Z11fancy_abortPKciS0_ 2231
_ZL16set_access_flagsP9tree_node18gcc_cp_symbol_kind.part.0 _Z11fancy_abortPKciS0_ 17
_ZN21mem_alloc_descriptionI9mem_usageE25release_instance_overheadEPvmb.part.95 _Z11fancy_abortPKciS0_ 17
_ZN10cc1_plugin8callbackIiPKcyXadL_Z26plugin_add_namespace_aliasPNS_10connectionES2_yEEEENS_6statusES4_ _ZN10cc1_plugin16unmarshall_checkEPNS_10connectionEy 23
_ZN10cc1_plugin8callbackIiPKcyXadL_Z26plugin_add_namespace_aliasPNS_10connectionES2_yEEEENS_6statusES4_ _ZdaPv 43
_ZN10cc1_plugin8callbackIiPKcyXadL_Z26plugin_add_namespace_aliasPNS_10connectionES2_yEEEENS_6statusES4_ _ZN10cc1_plugin10unmarshallEPNS_10connectionEPPc 71
_ZN10cc1_plugin8callbackIiPKcyXadL_Z26plugin_add_namespace_aliasPNS_10connectionES2_yEEEENS_6statusES4_ _ZN10cc1_plugin18unmarshall_intlikeEPNS_10connectionEPy 88
_ZN10cc1_plugin8callbackIiPKcyXadL_Z26plugin_add_namespace_aliasPNS_10connectionES2_yEEEENS_6statusES4_ _Z14get_identifierPKc 108
_ZN10cc1_plugin8callbackIiPKcyXadL_Z26plugin_add_namespace_aliasPNS_10connectionES2_yEEEENS_6statusES4_ _Z18do_namespace_aliasP9tree_nodeS0_ 119
_ZN10cc1_plugin8callbackIiPKcyXadL_Z26plugin_add_namespace_aliasPNS_10connectionES2_yEEEENS_6statusES4_ _ZN10cc1_plugin10connection4sendEc 132
_ZN10cc1_plugin8callbackIiPKcyXadL_Z26plugin_add_namespace_aliasPNS_10connectionES2_yEEEENS_6statusES4_ _ZN10cc1_plugin16marshall_intlikeEPNS_10connectionEy 149
_ZN10cc1_plugin8callbackIiPKcyXadL_Z26plugin_add_namespace_aliasPNS_10connectionES2_yEEEENS_6statusES4_ _ZdaPv 170
_ZN10cc1_plugin8callbackIiPKcyXadL_Z26plugin_add_namespace_aliasPNS_10connectionES2_yEEEENS_6statusES4_ _Unwind_Resume 178
_ZN10cc1_plugin8callbackIiXadL_Z26plugin_start_template_declPNS_10connectionEEEEENS_6statusES2_ _ZN10cc1_plugin16unmarshall_checkEPNS_10connectionEy 7
_ZN10cc1_plugin8callbackIiXadL_Z26plugin_start_template_declPNS_10connectionEEEEENS_6statusES2_ _Z24begin_template_parm_listv 25
_ZN10cc1_plugin8callbackIiXadL_Z26plugin_start_template_declPNS_10connectionEEEEENS_6statusES2_ scope_chain 32
_ZN10cc1_plugin8callbackIiXadL_Z26plugin_start_template_declPNS_10connectionEEEEENS_6statusES2_ _ZN10cc1_plugin10connection4sendEc 57
_ZN10cc1_plugin8callbackIiXadL_Z26plugin_start_template_declPNS_10connectionEEEEENS_6statusES2_ _ZN10cc1_plugin16marshall_intlikeEPNS_10connectionEy 75
_ZN10cc1_plugin8callbackIiXadL_Z24plugin_pop_binding_levelPNS_10connectionEEEEENS_6statusES2_ _ZN10cc1_plugin16unmarshall_checkEPNS_10connectionEy 7
_ZN10cc1_plugin8callbackIiXadL_Z24plugin_pop_binding_levelPNS_10connectionEEEEENS_6statusES2_ _ZN10cc1_plugin10connection4sendEc 38
_ZN10cc1_plugin8callbackIiXadL_Z24plugin_pop_binding_levelPNS_10connectionEEEEENS_6statusES2_ _ZN10cc1_plugin16marshall_intlikeEPNS_10connectionEy 56
_ZN10cc1_plugin8callbackIyXadL_Z27plugin_get_nullptr_constantPNS_10connectionEEEEENS_6statusES2_ _ZN10cc1_plugin16unmarshall_checkEPNS_10connectionEy 12
_ZN10cc1_plugin8callbackIyXadL_Z27plugin_get_nullptr_constantPNS_10connectionEEEEENS_6statusES2_ cp_global_trees 43
_ZN10cc1_plugin8callbackIyXadL_Z27plugin_get_nullptr_constantPNS_10connectionEEEEENS_6statusES2_ _ZN10cc1_plugin10connection4sendEc 48
_ZN10cc1_plugin8callbackIyXadL_Z27plugin_get_nullptr_constantPNS_10connectionEEEEENS_6statusES2_ _ZN10cc1_plugin16marshall_intlikeEPNS_10connectionEy 69
_ZN10cc1_plugin8callbackIyXadL_Z23plugin_get_nullptr_typePNS_10connectionEEEEENS_6statusES2_ _ZN10cc1_plugin16unmarshall_checkEPNS_10connectionEy 12
_ZN10cc1_plugin8callbackIyXadL_Z23plugin_get_nullptr_typePNS_10connectionEEEEENS_6statusES2_ cp_global_trees 43
_ZN10cc1_plugin8callbackIyXadL_Z23plugin_get_nullptr_typePNS_10connectionEEEEENS_6statusES2_ _ZN10cc1_plugin10connection4sendEc 48
_ZN10cc1_plugin8callbackIyXadL_Z23plugin_get_nullptr_typePNS_10connectionEEEEENS_6statusES2_ _ZN10cc1_plugin16marshall_intlikeEPNS_10connectionEy 69
_ZN10cc1_plugin8callbackIyXadL_Z20plugin_get_bool_typePNS_10connectionEEEEENS_6statusES2_ _ZN10cc1_plugin16unmarshall_checkEPNS_10connectionEy 12
_ZN10cc1_plugin8callbackIyXadL_Z20plugin_get_bool_typePNS_10connectionEEEEENS_6statusES2_ global_trees 43
_ZN10cc1_plugin8callbackIyXadL_Z20plugin_get_bool_typePNS_10connectionEEEEENS_6statusES2_ _ZN10cc1_plugin10connection4sendEc 48
_ZN10cc1_plugin8callbackIyXadL_Z20plugin_get_bool_typePNS_10connectionEEEEENS_6statusES2_ _ZN10cc1_plugin16marshall_intlikeEPNS_10connectionEy 69
_ZN10cc1_plugin8callbackIyXadL_Z20plugin_get_void_typePNS_10connectionEEEEENS_6statusES2_ _ZN10cc1_plugin16unmarshall_checkEPNS_10connectionEy 12
_ZN10cc1_plugin8callbackIyXadL_Z20plugin_get_void_typePNS_10connectionEEEEENS_6statusES2_ global_trees 43
_ZN10cc1_plugin8callbackIyXadL_Z20plugin_get_void_typePNS_10connectionEEEEENS_6statusES2_ _ZN10cc1_plugin10connection4sendEc 48
_ZN10cc1_plugin8callbackIyXadL_Z20plugin_get_void_typePNS_10connectionEEEEENS_6statusES2_ _ZN10cc1_plugin16marshall_intlikeEPNS_10connectionEy 69
_ZN10cc1_plugin8callbackIyXadL_Z20plugin_get_char_typePNS_10connectionEEEEENS_6statusES2_ _ZN10cc1_plugin16unmarshall_checkEPNS_10connectionEy 12
_ZN10cc1_plugin8callbackIyXadL_Z20plugin_get_char_typePNS_10connectionEEEEENS_6statusES2_ integer_types 43
_ZN10cc1_plugin8callbackIyXadL_Z20plugin_get_char_typePNS_10connectionEEEEENS_6statusES2_ _ZN10cc1_plugin10connection4sendEc 48
_ZN10cc1_plugin8callbackIyXadL_Z20plugin_get_char_typePNS_10connectionEEEEENS_6statusES2_ _ZN10cc1_plugin16marshall_intlikeEPNS_10connectionEy 69
_ZN10cc1_plugin8callbackIyXadL_Z37plugin_get_current_binding_level_declPNS_10connectionEEEEENS_6statusES2_ _ZN10cc1_plugin16unmarshall_checkEPNS_10connectionEy 12
_ZN10cc1_plugin8callbackIyXadL_Z37plugin_get_current_binding_level_declPNS_10connectionEEEEENS_6statusES2_ _ZN10cc1_plugin10connection4sendEc 49
_ZN10cc1_plugin8callbackIyXadL_Z37plugin_get_current_binding_level_declPNS_10connectionEEEEENS_6statusES2_ _ZN10cc1_plugin16marshall_intlikeEPNS_10connectionEy 70
_ZN10cc1_plugin8callbackIyyXadL_Z20plugin_get_type_declPNS_10connectionEyEEEENS_6statusES2_ _ZN10cc1_plugin16unmarshall_checkEPNS_10connectionEy 15
_ZN10cc1_plugin8callbackIyyXadL_Z20plugin_get_type_declPNS_10connectionEyEEEENS_6statusES2_ _ZN10cc1_plugin18unmarshall_intlikeEPNS_10connectionEPy 41
_ZN10cc1_plugin8callbackIyyXadL_Z20plugin_get_type_declPNS_10connectionEyEEEENS_6statusES2_ _ZN10cc1_plugin10connection4sendEc 72
_ZN10cc1_plugin8callbackIyyXadL_Z20plugin_get_type_declPNS_10connectionEyEEEENS_6statusES2_ _ZN10cc1_plugin16marshall_intlikeEPNS_10connectionEy 87
_ZN10cc1_plugin8callbackIyyXadL_Z20plugin_get_type_declPNS_10connectionEyEEEENS_6statusES2_ _Z11fancy_abortPKciS0_ 109
_ZN10cc1_plugin8callbackIiyXadL_Z26plugin_add_using_namespacePNS_10connectionEyEEEENS_6statusES2_ _ZN10cc1_plugin16unmarshall_checkEPNS_10connectionEy 14
_ZN10cc1_plugin8callbackIiyXadL_Z26plugin_add_using_namespacePNS_10connectionEyEEEENS_6statusES2_ _ZN10cc1_plugin18unmarshall_intlikeEPNS_10connectionEPy 41
_ZN10cc1_plugin8callbackIiyXadL_Z26plugin_add_using_namespacePNS_10connectionEyEEEENS_6statusES2_ _Z32finish_namespace_using_directiveP9tree_nodeS0_ 63
_ZN10cc1_plugin8callbackIiyXadL_Z26plugin_add_using_namespacePNS_10connectionEyEEEENS_6statusES2_ _ZN10cc1_plugin10connection4sendEc 76
_ZN10cc1_plugin8callbackIiyXadL_Z26plugin_add_using_namespacePNS_10connectionEyEEEENS_6statusES2_ _ZN10cc1_plugin16marshall_intlikeEPNS_10connectionEy 93
_ZN10cc1_plugin8callbackIiyXadL_Z26plugin_add_using_namespacePNS_10connectionEyEEEENS_6statusES2_ _Z11fancy_abortPKciS0_ 115
_ZN10cc1_plugin8callbackIyyXadL_Z20plugin_get_decl_typePNS_10connectionEyEEEENS_6statusES2_ _ZN10cc1_plugin16unmarshall_checkEPNS_10connectionEy 15
_ZN10cc1_plugin8callbackIyyXadL_Z20plugin_get_decl_typePNS_10connectionEyEEEENS_6statusES2_ _ZN10cc1_plugin18unmarshall_intlikeEPNS_10connectionEPy 41
_ZN10cc1_plugin8callbackIyyXadL_Z20plugin_get_decl_typePNS_10connectionEyEEEENS_6statusES2_ _ZN10cc1_plugin10connection4sendEc 72
_ZN10cc1_plugin8callbackIyyXadL_Z20plugin_get_decl_typePNS_10connectionEyEEEENS_6statusES2_ _ZN10cc1_plugin16marshall_intlikeEPNS_10connectionEy 87
_ZN10cc1_plugin8callbackIyyXadL_Z20plugin_get_decl_typePNS_10connectionEyEEEENS_6statusES2_ _Z11fancy_abortPKciS0_ 109
_ZN10cc1_plugin16argument_wrapperIPK14gcc_type_arrayED1Ev,_ZN10cc1_plugin16argument_wrapperIPK14gcc_type_arrayED2Ev _ZdaPv 25
_ZN10cc1_plugin16argument_wrapperIPK14gcc_type_arrayED1Ev,_ZN10cc1_plugin16argument_wrapperIPK14gcc_type_arrayED2Ev _ZdlPv 37
_ZN10cc1_plugin16argument_wrapperIPK14gcc_type_arrayED1Ev,_ZN10cc1_plugin16argument_wrapperIPK14gcc_type_arrayED2Ev _ZdlPv 52
_ZN10cc1_plugin16argument_wrapperIPK20gcc_cp_template_argsED1Ev,_ZN10cc1_plugin16argument_wrapperIPK20gcc_cp_template_argsED2Ev _ZdaPv 22
_ZN10cc1_plugin16argument_wrapperIPK20gcc_cp_template_argsED1Ev,_ZN10cc1_plugin16argument_wrapperIPK20gcc_cp_template_argsED2Ev _ZdaPv 39
_ZN10cc1_plugin16argument_wrapperIPK20gcc_cp_template_argsED1Ev,_ZN10cc1_plugin16argument_wrapperIPK20gcc_cp_template_argsED2Ev _ZdlPv 51
_ZN10cc1_plugin16argument_wrapperIPK20gcc_cp_template_argsED1Ev,_ZN10cc1_plugin16argument_wrapperIPK20gcc_cp_template_argsED2Ev _ZdlPv 68
_ZN10cc1_plugin16argument_wrapperIPK20gcc_cp_function_argsED1Ev,_ZN10cc1_plugin16argument_wrapperIPK20gcc_cp_function_argsED2Ev _ZdaPv 25
_ZN10cc1_plugin16argument_wrapperIPK20gcc_cp_function_argsED1Ev,_ZN10cc1_plugin16argument_wrapperIPK20gcc_cp_function_argsED2Ev _ZdlPv 37
_ZN10cc1_plugin16argument_wrapperIPK20gcc_cp_function_argsED1Ev,_ZN10cc1_plugin16argument_wrapperIPK20gcc_cp_function_argsED2Ev _ZdlPv 52
_ZN10cc1_plugin8callbackIiPKcXadL_Z21plugin_push_namespacePNS_10connectionES2_EEEENS_6statusES4_ _ZN10cc1_plugin16unmarshall_checkEPNS_10connectionEy 23
_ZN10cc1_plugin8callbackIiPKcXadL_Z21plugin_push_namespacePNS_10connectionES2_EEEENS_6statusES4_ _ZdaPv 43
_ZN10cc1_plugin8callbackIiPKcXadL_Z21plugin_push_namespacePNS_10connectionES2_EEEENS_6statusES4_ _ZN10cc1_plugin10unmarshallEPNS_10connectionEPPc 71
_ZN10cc1_plugin8callbackIiPKcXadL_Z21plugin_push_namespacePNS_10connectionES2_EEEENS_6statusES4_ _Z21plugin_push_namespacePN10cc1_plugin10connectionEPKc 87
_ZN10cc1_plugin8callbackIiPKcXadL_Z21plugin_push_namespacePNS_10connectionES2_EEEENS_6statusES4_ _ZN10cc1_plugin10connection4sendEc 102
_ZN10cc1_plugin8callbackIiPKcXadL_Z21plugin_push_namespacePNS_10connectionES2_EEEENS_6statusES4_ _ZN10cc1_plugin16marshall_intlikeEPNS_10connectionEy 117
_ZN10cc1_plugin8callbackIiPKcXadL_Z21plugin_push_namespacePNS_10connectionES2_EEEENS_6statusES4_ _ZdaPv 138
_ZN10cc1_plugin8callbackIiPKcXadL_Z21plugin_push_namespacePNS_10connectionES2_EEEENS_6statusES4_ _Unwind_Resume 146
_ZN10cc1_plugin8callbackIiyXadL_Z17plugin_push_classPNS_10connectionEyEEEENS_6statusES2_ _ZN10cc1_plugin16unmarshall_checkEPNS_10connectionEy 15
_ZN10cc1_plugin8callbackIiyXadL_Z17plugin_push_classPNS_10connectionEyEEEENS_6statusES2_ _ZN10cc1_plugin18unmarshall_intlikeEPNS_10connectionEPy 41
_ZN10cc1_plugin8callbackIiyXadL_Z17plugin_push_classPNS_10connectionEyEEEENS_6statusES2_ _Z17plugin_push_classPN10cc1_plugin10connectionEy 58
_ZN10cc1_plugin8callbackIiyXadL_Z17plugin_push_classPNS_10connectionEyEEEENS_6statusES2_ _ZN10cc1_plugin10connection4sendEc 73
_ZN10cc1_plugin8callbackIiyXadL_Z17plugin_push_classPNS_10connectionEyEEEENS_6statusES2_ _ZN10cc1_plugin16marshall_intlikeEPNS_10connectionEy 88
_ZN10cc1_plugin8callbackIiyXadL_Z20plugin_push_functionPNS_10connectionEyEEEENS_6statusES2_ _ZN10cc1_plugin16unmarshall_checkEPNS_10connectionEy 15
_ZN10cc1_plugin8callbackIiyXadL_Z20plugin_push_functionPNS_10connectionEyEEEENS_6statusES2_ _ZN10cc1_plugin18unmarshall_intlikeEPNS_10connectionEPy 41
_ZN10cc1_plugin8callbackIiyXadL_Z20plugin_push_functionPNS_10connectionEyEEEENS_6statusES2_ _Z20plugin_push_functionPN10cc1_plugin10connectionEy 58
_ZN10cc1_plugin8callbackIiyXadL_Z20plugin_push_functionPNS_10connectionEyEEEENS_6statusES2_ _ZN10cc1_plugin10connection4sendEc 73
_ZN10cc1_plugin8callbackIiyXadL_Z20plugin_push_functionPNS_10connectionEyEEEENS_6statusES2_ _ZN10cc1_plugin16marshall_intlikeEPNS_10connectionEy 88
_ZN10cc1_plugin8callbackIiyyXadL_Z22plugin_reactivate_declPNS_10connectionEyyEEEENS_6statusES2_ _ZN10cc1_plugin16unmarshall_checkEPNS_10connectionEy 15
_ZN10cc1_plugin8callbackIiyyXadL_Z22plugin_reactivate_declPNS_10connectionEyyEEEENS_6statusES2_ _ZN10cc1_plugin18unmarshall_intlikeEPNS_10connectionEPy 41
_ZN10cc1_plugin8callbackIiyyXadL_Z22plugin_reactivate_declPNS_10connectionEyyEEEENS_6statusES2_ _ZN10cc1_plugin18unmarshall_intlikeEPNS_10connectionEPy 63
_ZN10cc1_plugin8callbackIiyyXadL_Z22plugin_reactivate_declPNS_10connectionEyyEEEENS_6statusES2_ _Z22plugin_reactivate_declPN10cc1_plugin10connectionEyy 83
_ZN10cc1_plugin8callbackIiyyXadL_Z22plugin_reactivate_declPNS_10connectionEyyEEEENS_6statusES2_ _ZN10cc1_plugin10connection4sendEc 98
_ZN10cc1_plugin8callbackIiyyXadL_Z22plugin_reactivate_declPNS_10connectionEyyEEEENS_6statusES2_ _ZN10cc1_plugin16marshall_intlikeEPNS_10connectionEy 113
_ZN10cc1_plugin8callbackIi18gcc_cp_symbol_kindyXadL_Z21plugin_add_using_declPNS_10connectionES1_yEEEENS_6statusES3_ _ZN10cc1_plugin16unmarshall_checkEPNS_10connectionEy 15
_ZN10cc1_plugin8callbackIi18gcc_cp_symbol_kindyXadL_Z21plugin_add_using_declPNS_10connectionES1_yEEEENS_6statusES3_ _ZN10cc1_plugin18unmarshall_intlikeEPNS_10connectionEPy 41
_ZN10cc1_plugin8callbackIi18gcc_cp_symbol_kindyXadL_Z21plugin_add_using_declPNS_10connectionES1_yEEEENS_6statusES3_ _ZN10cc1_plugin18unmarshall_intlikeEPNS_10connectionEPy 63
_ZN10cc1_plugin8callbackIi18gcc_cp_symbol_kindyXadL_Z21plugin_add_using_declPNS_10connectionES1_yEEEENS_6statusES3_ _Z21plugin_add_using_declPN10cc1_plugin10connectionE18gcc_cp_symbol_kindy 82
_ZN10cc1_plugin8callbackIi18gcc_cp_symbol_kindyXadL_Z21plugin_add_using_declPNS_10connectionES1_yEEEENS_6statusES3_ _ZN10cc1_plugin10connection4sendEc 97
_ZN10cc1_plugin8callbackIi18gcc_cp_symbol_kindyXadL_Z21plugin_add_using_declPNS_10connectionES1_yEEEENS_6statusES3_ _ZN10cc1_plugin16marshall_intlikeEPNS_10connectionEy 112
_ZN10cc1_plugin8callbackIiyyXadL_Z17plugin_add_friendPNS_10connectionEyyEEEENS_6statusES2_ _ZN10cc1_plugin16unmarshall_checkEPNS_10connectionEy 15
_ZN10cc1_plugin8callbackIiyyXadL_Z17plugin_add_friendPNS_10connectionEyyEEEENS_6statusES2_ _ZN10cc1_plugin18unmarshall_intlikeEPNS_10connectionEPy 41
_ZN10cc1_plugin8callbackIiyyXadL_Z17plugin_add_friendPNS_10connectionEyyEEEENS_6statusES2_ _ZN10cc1_plugin18unmarshall_intlikeEPNS_10connectionEPy 63
_ZN10cc1_plugin8callbackIiyyXadL_Z17plugin_add_friendPNS_10connectionEyyEEEENS_6statusES2_ _Z17plugin_add_friendPN10cc1_plugin10connectionEyy 83
_ZN10cc1_plugin8callbackIiyyXadL_Z17plugin_add_friendPNS_10connectionEyyEEEENS_6statusES2_ _ZN10cc1_plugin10connection4sendEc 98
_ZN10cc1_plugin8callbackIiyyXadL_Z17plugin_add_friendPNS_10connectionEyyEEEENS_6statusES2_ _ZN10cc1_plugin16marshall_intlikeEPNS_10connectionEy 113
_ZN10cc1_plugin8callbackIyy21gcc_cp_ref_qualifiersXadL_Z27plugin_build_reference_typePNS_10connectionEyS1_EEEENS_6statusES3_ _ZN10cc1_plugin16unmarshall_checkEPNS_10connectionEy 15
_ZN10cc1_plugin8callbackIyy21gcc_cp_ref_qualifiersXadL_Z27plugin_build_reference_typePNS_10connectionEyS1_EEEENS_6statusES3_ _ZN10cc1_plugin18unmarshall_intlikeEPNS_10connectionEPy 41
_ZN10cc1_plugin8callbackIyy21gcc_cp_ref_qualifiersXadL_Z27plugin_build_reference_typePNS_10connectionEyS1_EEEENS_6statusES3_ _ZN10cc1_plugin18unmarshall_intlikeEPNS_10connectionEPy 63
_ZN10cc1_plugin8callbackIyy21gcc_cp_ref_qualifiersXadL_Z27plugin_build_reference_typePNS_10connectionEyS1_EEEENS_6statusES3_ _Z27plugin_build_reference_typePN10cc1_plugin10connectionEy21gcc_cp_ref_qualifiers 82
_ZN10cc1_plugin8callbackIyy21gcc_cp_ref_qualifiersXadL_Z27plugin_build_reference_typePNS_10connectionEyS1_EEEENS_6statusES3_ _ZN10cc1_plugin10connection4sendEc 98
_ZN10cc1_plugin8callbackIyy21gcc_cp_ref_qualifiersXadL_Z27plugin_build_reference_typePNS_10connectionEyS1_EEEENS_6statusES3_ _ZN10cc1_plugin16marshall_intlikeEPNS_10connectionEy 113
_ZN10cc1_plugin8callbackIyPKcy18gcc_cp_symbol_kindmmXadL_Z18plugin_build_fieldPNS_10connectionES2_yS3_mmEEEENS_6statusES5_ _ZN10cc1_plugin16unmarshall_checkEPNS_10connectionEy 29
_ZN10cc1_plugin8callbackIyPKcy18gcc_cp_symbol_kindmmXadL_Z18plugin_build_fieldPNS_10connectionES2_yS3_mmEEEENS_6statusES5_ _ZdaPv 49
_ZN10cc1_plugin8callbackIyPKcy18gcc_cp_symbol_kindmmXadL_Z18plugin_build_fieldPNS_10connectionES2_yS3_mmEEEENS_6statusES5_ _ZN10cc1_plugin10unmarshallEPNS_10connectionEPPc 79
_ZN10cc1_plugin8callbackIyPKcy18gcc_cp_symbol_kindmmXadL_Z18plugin_build_fieldPNS_10connectionES2_yS3_mmEEEENS_6statusES5_ _ZN10cc1_plugin18unmarshall_intlikeEPNS_10connectionEPy 96
_ZN10cc1_plugin8callbackIyPKcy18gcc_cp_symbol_kindmmXadL_Z18plugin_build_fieldPNS_10connectionES2_yS3_mmEEEENS_6statusES5_ _ZN10cc1_plugin18unmarshall_intlikeEPNS_10connectionEPy 120
_ZN10cc1_plugin8callbackIyPKcy18gcc_cp_symbol_kindmmXadL_Z18plugin_build_fieldPNS_10connectionES2_yS3_mmEEEENS_6statusES5_ _ZN10cc1_plugin18unmarshall_intlikeEPNS_10connectionEPy 144
_ZN10cc1_plugin8callbackIyPKcy18gcc_cp_symbol_kindmmXadL_Z18plugin_build_fieldPNS_10connectionES2_yS3_mmEEEENS_6statusES5_ _ZN10cc1_plugin18unmarshall_intlikeEPNS_10connectionEPy 168
_ZN10cc1_plugin8callbackIyPKcy18gcc_cp_symbol_kindmmXadL_Z18plugin_build_fieldPNS_10connectionES2_yS3_mmEEEENS_6statusES5_ _Z18plugin_build_fieldPN10cc1_plugin10connectionEPKcy18gcc_cp_symbol_kindmm 204
_ZN10cc1_plugin8callbackIyPKcy18gcc_cp_symbol_kindmmXadL_Z18plugin_build_fieldPNS_10connectionES2_yS3_mmEEEENS_6statusES5_ _ZN10cc1_plugin10connection4sendEc 220
_ZN10cc1_plugin8callbackIyPKcy18gcc_cp_symbol_kindmmXadL_Z18plugin_build_fieldPNS_10connectionES2_yS3_mmEEEENS_6statusES5_ _ZN10cc1_plugin16marshall_intlikeEPNS_10connectionEy 239
_ZN10cc1_plugin8callbackIyPKcy18gcc_cp_symbol_kindmmXadL_Z18plugin_build_fieldPNS_10connectionES2_yS3_mmEEEENS_6statusES5_ _ZdaPv 263
_ZN10cc1_plugin8callbackIyPKcy18gcc_cp_symbol_kindmmXadL_Z18plugin_build_fieldPNS_10connectionES2_yS3_mmEEEENS_6statusES5_ _Unwind_Resume 271
_ZN10cc1_plugin8callbackIimXadL_Z24plugin_finish_class_typePNS_10connectionEmEEEENS_6statusES2_ _ZN10cc1_plugin16unmarshall_checkEPNS_10connectionEy 15
_ZN10cc1_plugin8callbackIimXadL_Z24plugin_finish_class_typePNS_10connectionEmEEEENS_6statusES2_ _ZN10cc1_plugin18unmarshall_intlikeEPNS_10connectionEPy 41
_ZN10cc1_plugin8callbackIimXadL_Z24plugin_finish_class_typePNS_10connectionEmEEEENS_6statusES2_ _Z24plugin_finish_class_typePN10cc1_plugin10connectionEm 58
_ZN10cc1_plugin8callbackIimXadL_Z24plugin_finish_class_typePNS_10connectionEmEEEENS_6statusES2_ _ZN10cc1_plugin10connection4sendEc 73
_ZN10cc1_plugin8callbackIimXadL_Z24plugin_finish_class_typePNS_10connectionEmEEEENS_6statusES2_ _ZN10cc1_plugin16marshall_intlikeEPNS_10connectionEy 88
_ZN10cc1_plugin8callbackIyyPKcmXadL_Z26plugin_build_enum_constantPNS_10connectionEyS2_mEEEENS_6statusES4_ _ZN10cc1_plugin16unmarshall_checkEPNS_10connectionEy 25
_ZN10cc1_plugin8callbackIyyPKcmXadL_Z26plugin_build_enum_constantPNS_10connectionEyS2_mEEEENS_6statusES4_ _ZdaPv 45
_ZN10cc1_plugin8callbackIyyPKcmXadL_Z26plugin_build_enum_constantPNS_10connectionEyS2_mEEEENS_6statusES4_ _ZN10cc1_plugin18unmarshall_intlikeEPNS_10connectionEPy 73
_ZN10cc1_plugin8callbackIyyPKcmXadL_Z26plugin_build_enum_constantPNS_10connectionEyS2_mEEEENS_6statusES4_ _ZN10cc1_plugin10unmarshallEPNS_10connectionEPPc 95
_ZN10cc1_plugin8callbackIyyPKcmXadL_Z26plugin_build_enum_constantPNS_10connectionEyS2_mEEEENS_6statusES4_ _ZN10cc1_plugin18unmarshall_intlikeEPNS_10connectionEPy 112
_ZN10cc1_plugin8callbackIyyPKcmXadL_Z26plugin_build_enum_constantPNS_10connectionEyS2_mEEEENS_6statusES4_ _Z26plugin_build_enum_constantPN10cc1_plugin10connectionEyPKcm 138
_ZN10cc1_plugin8callbackIyyPKcmXadL_Z26plugin_build_enum_constantPNS_10connectionEyS2_mEEEENS_6statusES4_ _ZN10cc1_plugin10connection4sendEc 154
_ZN10cc1_plugin8callbackIyyPKcmXadL_Z26plugin_build_enum_constantPNS_10connectionEyS2_mEEEENS_6statusES4_ _ZN10cc1_plugin16marshall_intlikeEPNS_10connectionEy 173
_ZN10cc1_plugin8callbackIyyPKcmXadL_Z26plugin_build_enum_constantPNS_10connectionEyS2_mEEEENS_6statusES4_ _ZdaPv 197
_ZN10cc1_plugin8callbackIyyPKcmXadL_Z26plugin_build_enum_constantPNS_10connectionEyS2_mEEEENS_6statusES4_ _Unwind_Resume 205
_ZN10cc1_plugin8callbackIyyiXadL_Z34plugin_get_function_parameter_declPNS_10connectionEyiEEEENS_6statusES2_ _ZN10cc1_plugin16unmarshall_checkEPNS_10connectionEy 15
_ZN10cc1_plugin8callbackIyyiXadL_Z34plugin_get_function_parameter_declPNS_10connectionEyiEEEENS_6statusES2_ _ZN10cc1_plugin18unmarshall_intlikeEPNS_10connectionEPy 41
_ZN10cc1_plugin8callbackIyyiXadL_Z34plugin_get_function_parameter_declPNS_10connectionEyiEEEENS_6statusES2_ _ZN10cc1_plugin18unmarshall_intlikeEPNS_10connectionEPy 63
_ZN10cc1_plugin8callbackIyyiXadL_Z34plugin_get_function_parameter_declPNS_10connectionEyiEEEENS_6statusES2_ _Z34plugin_get_function_parameter_declPN10cc1_plugin10connectionEyi 82
_ZN10cc1_plugin8callbackIyyiXadL_Z34plugin_get_function_parameter_declPNS_10connectionEyiEEEENS_6statusES2_ _ZN10cc1_plugin10connection4sendEc 98
_ZN10cc1_plugin8callbackIyyiXadL_Z34plugin_get_function_parameter_declPNS_10connectionEyiEEEENS_6statusES2_ _ZN10cc1_plugin16marshall_intlikeEPNS_10connectionEy 113
_ZN10cc1_plugin8callbackIymPKcXadL_Z21plugin_get_float_typePNS_10connectionEmS2_EEEENS_6statusES4_ _ZN10cc1_plugin16unmarshall_checkEPNS_10connectionEy 23
_ZN10cc1_plugin8callbackIymPKcXadL_Z21plugin_get_float_typePNS_10connectionEmS2_EEEENS_6statusES4_ _ZdaPv 43
_ZN10cc1_plugin8callbackIymPKcXadL_Z21plugin_get_float_typePNS_10connectionEmS2_EEEENS_6statusES4_ _ZN10cc1_plugin18unmarshall_intlikeEPNS_10connectionEPy 73
_ZN10cc1_plugin8callbackIymPKcXadL_Z21plugin_get_float_typePNS_10connectionEmS2_EEEENS_6statusES4_ _ZN10cc1_plugin10unmarshallEPNS_10connectionEPPc 95
_ZN10cc1_plugin8callbackIymPKcXadL_Z21plugin_get_float_typePNS_10connectionEmS2_EEEENS_6statusES4_ _Z21plugin_get_float_typePN10cc1_plugin10connectionEmPKc 114
_ZN10cc1_plugin8callbackIymPKcXadL_Z21plugin_get_float_typePNS_10connectionEmS2_EEEENS_6statusES4_ _ZN10cc1_plugin10connection4sendEc 130
_ZN10cc1_plugin8callbackIymPKcXadL_Z21plugin_get_float_typePNS_10connectionEmS2_EEEENS_6statusES4_ _ZN10cc1_plugin16marshall_intlikeEPNS_10connectionEy 145
_ZN10cc1_plugin8callbackIymPKcXadL_Z21plugin_get_float_typePNS_10connectionEmS2_EEEENS_6statusES4_ _ZdaPv 166
_ZN10cc1_plugin8callbackIymPKcXadL_Z21plugin_get_float_typePNS_10connectionEmS2_EEEENS_6statusES4_ _Unwind_Resume 174
_ZN10cc1_plugin8callbackIyy17gcc_cp_qualifiersXadL_Z27plugin_build_qualified_typePNS_10connectionEyS1_EEEENS_6statusES3_ _ZN10cc1_plugin16unmarshall_checkEPNS_10connectionEy 15
_ZN10cc1_plugin8callbackIyy17gcc_cp_qualifiersXadL_Z27plugin_build_qualified_typePNS_10connectionEyS1_EEEENS_6statusES3_ _ZN10cc1_plugin18unmarshall_intlikeEPNS_10connectionEPy 41
_ZN10cc1_plugin8callbackIyy17gcc_cp_qualifiersXadL_Z27plugin_build_qualified_typePNS_10connectionEyS1_EEEENS_6statusES3_ _ZN10cc1_plugin18unmarshall_intlikeEPNS_10connectionEPy 63
_ZN10cc1_plugin8callbackIyy17gcc_cp_qualifiersXadL_Z27plugin_build_qualified_typePNS_10connectionEyS1_EEEENS_6statusES3_ _Z27plugin_build_qualified_typePN10cc1_plugin10connectionEy17gcc_cp_qualifiers 82
_ZN10cc1_plugin8callbackIyy17gcc_cp_qualifiersXadL_Z27plugin_build_qualified_typePNS_10connectionEyS1_EEEENS_6statusES3_ _ZN10cc1_plugin10connection4sendEc 98
_ZN10cc1_plugin8callbackIyy17gcc_cp_qualifiersXadL_Z27plugin_build_qualified_typePNS_10connectionEyS1_EEEENS_6statusES3_ _ZN10cc1_plugin16marshall_intlikeEPNS_10connectionEy 113
_ZN10cc1_plugin4callIiEENS_6statusEPNS_10connectionEPKcPT_ _ZN10cc1_plugin10connection4sendEc 23
_ZN10cc1_plugin4callIiEENS_6statusEPNS_10connectionEPKcPT_ _ZN10cc1_plugin8marshallEPNS_10connectionEPKc 55
_ZN10cc1_plugin4callIiEENS_6statusEPNS_10connectionEPKcPT_ _ZN10cc1_plugin16marshall_intlikeEPNS_10connectionEy 69
_ZN10cc1_plugin4callIiEENS_6statusEPNS_10connectionEPKcPT_ _ZN10cc1_plugin10connection7do_waitEb 86
_ZN10cc1_plugin4callIiEENS_6statusEPNS_10connectionEPKcPT_ _ZN10cc1_plugin18unmarshall_intlikeEPNS_10connectionEPy 103
_ZN5va_gc7reserveIP9tree_nodeS_EEvRP3vecIT_T0_8vl_embedEjb _Z20ggc_round_alloc_sizem 43
_ZN5va_gc7reserveIP9tree_nodeS_EEvRP3vecIT_T0_8vl_embedEjb _Z11ggc_reallocPvm 82
_ZN5va_gc7reserveIP9tree_nodeS_EEvRP3vecIT_T0_8vl_embedEjb _ZN10vec_prefix22calculate_allocation_1Ejj 140
_ZN5va_gc7reserveIP9tree_nodeS_EEvRP3vecIT_T0_8vl_embedEjb _Z8ggc_freePv 153
_ZN10cc1_plugin8callbackIiXadL_Z28plugin_make_namespace_inlinePNS_10connectionEEEEENS_6statusES2_ _ZN10cc1_plugin16unmarshall_checkEPNS_10connectionEy 12
_ZN10cc1_plugin8callbackIiXadL_Z28plugin_make_namespace_inlinePNS_10connectionEEEEENS_6statusES2_ _Z28plugin_make_namespace_inlinePN10cc1_plugin10connectionE 36
_ZN10cc1_plugin8callbackIiXadL_Z28plugin_make_namespace_inlinePNS_10connectionEEEEENS_6statusES2_ _ZN10cc1_plugin10connection4sendEc 51
_ZN10cc1_plugin8callbackIiXadL_Z28plugin_make_namespace_inlinePNS_10connectionEEEEENS_6statusES2_ _ZN10cc1_plugin16marshall_intlikeEPNS_10connectionEy 72
_ZN21mem_alloc_descriptionI9mem_usageE25release_instance_overheadEPvmb _ZN10hash_tableIN8hash_mapIPKv14mem_usage_pairI9mem_usageE21simple_hashmap_traitsI19default_hash_traitsIS2_ES5_EE10hash_entryE11xcallocatorE14find_with_hashERKS2_j 49
_ZN21mem_alloc_descriptionI9mem_usageE25release_instance_overheadEPvmb _ZN10hash_tableIN8hash_mapIPKv14mem_usage_pairI9mem_usageE21simple_hashmap_traitsI19default_hash_traitsIS2_ES5_EE10hash_entryE11xcallocatorE19find_slot_with_hashERKS2_j13insert_option 119
_ZN10cc1_plugin8callbackIiyPKcS2_jXadL_Z24plugin_add_static_assertPNS_10connectionEyS2_S2_jEEEENS_6statusES4_ _ZN10cc1_plugin16unmarshall_checkEPNS_10connectionEy 34
_ZN10cc1_plugin8callbackIiyPKcS2_jXadL_Z24plugin_add_static_assertPNS_10connectionEyS2_S2_jEEEENS_6statusES4_ _ZdaPv 55
_ZN10cc1_plugin8callbackIiyPKcS2_jXadL_Z24plugin_add_static_assertPNS_10connectionEyS2_S2_jEEEENS_6statusES4_ _ZdaPv 69
_ZN10cc1_plugin8callbackIiyPKcS2_jXadL_Z24plugin_add_static_assertPNS_10connectionEyS2_S2_jEEEENS_6statusES4_ _ZN10cc1_plugin18unmarshall_intlikeEPNS_10connectionEPy 97
_ZN10cc1_plugin8callbackIiyPKcS2_jXadL_Z24plugin_add_static_assertPNS_10connectionEyS2_S2_jEEEENS_6statusES4_ _ZN10cc1_plugin10unmarshallEPNS_10connectionEPPc 119
_ZN10cc1_plugin8callbackIiyPKcS2_jXadL_Z24plugin_add_static_assertPNS_10connectionEyS2_S2_jEEEENS_6statusES4_ _ZN10cc1_plugin10unmarshallEPNS_10connectionEPPc 136
_ZN10cc1_plugin8callbackIiyPKcS2_jXadL_Z24plugin_add_static_assertPNS_10connectionEyS2_S2_jEEEENS_6statusES4_ _ZN10cc1_plugin18unmarshall_intlikeEPNS_10connectionEPy 153
_ZN10cc1_plugin8callbackIiyPKcS2_jXadL_Z24plugin_add_static_assertPNS_10connectionEyS2_S2_jEEEENS_6statusES4_ _Z24plugin_add_static_assertPN10cc1_plugin10connectionEyPKcS3_j 184
_ZN10cc1_plugin8callbackIiyPKcS2_jXadL_Z24plugin_add_static_assertPNS_10connectionEyS2_S2_jEEEENS_6statusES4_ _ZN10cc1_plugin10connection4sendEc 199
_ZN10cc1_plugin8callbackIiyPKcS2_jXadL_Z24plugin_add_static_assertPNS_10connectionEyS2_S2_jEEEENS_6statusES4_ _ZN10cc1_plugin16marshall_intlikeEPNS_10connectionEy 218
_ZN10cc1_plugin8callbackIiyPKcS2_jXadL_Z24plugin_add_static_assertPNS_10connectionEyS2_S2_jEEEENS_6statusES4_ _ZdaPv 243
_ZN10cc1_plugin8callbackIiyPKcS2_jXadL_Z24plugin_add_static_assertPNS_10connectionEyS2_S2_jEEEENS_6statusES4_ _ZdaPv 257
_ZN10cc1_plugin8callbackIiyPKcS2_jXadL_Z24plugin_add_static_assertPNS_10connectionEyS2_S2_jEEEENS_6statusES4_ _Unwind_Resume 265
_ZN10cc1_plugin8callbackIyPKcyyXadL_Z25plugin_define_cdtor_clonePNS_10connectionES2_yyEEEENS_6statusES4_ _ZN10cc1_plugin16unmarshall_checkEPNS_10connectionEy 25
_ZN10cc1_plugin8callbackIyPKcyyXadL_Z25plugin_define_cdtor_clonePNS_10connectionES2_yyEEEENS_6statusES4_ _ZdaPv 45
_ZN10cc1_plugin8callbackIyPKcyyXadL_Z25plugin_define_cdtor_clonePNS_10connectionES2_yyEEEENS_6statusES4_ _ZN10cc1_plugin10unmarshallEPNS_10connectionEPPc 71
_ZN10cc1_plugin8callbackIyPKcyyXadL_Z25plugin_define_cdtor_clonePNS_10connectionES2_yyEEEENS_6statusES4_ _ZN10cc1_plugin18unmarshall_intlikeEPNS_10connectionEPy 88
_ZN10cc1_plugin8callbackIyPKcyyXadL_Z25plugin_define_cdtor_clonePNS_10connectionES2_yyEEEENS_6statusES4_ _ZN10cc1_plugin18unmarshall_intlikeEPNS_10connectionEPy 112
_ZN10cc1_plugin8callbackIyPKcyyXadL_Z25plugin_define_cdtor_clonePNS_10connectionES2_yyEEEENS_6statusES4_ _Z25plugin_define_cdtor_clonePN10cc1_plugin10connectionEPKcyy 138
_ZN10cc1_plugin8callbackIyPKcyyXadL_Z25plugin_define_cdtor_clonePNS_10connectionES2_yyEEEENS_6statusES4_ _ZN10cc1_plugin10connection4sendEc 154
_ZN10cc1_plugin8callbackIyPKcyyXadL_Z25plugin_define_cdtor_clonePNS_10connectionES2_yyEEEENS_6statusES4_ _ZN10cc1_plugin16marshall_intlikeEPNS_10connectionEy 173
_ZN10cc1_plugin8callbackIyPKcyyXadL_Z25plugin_define_cdtor_clonePNS_10connectionES2_yyEEEENS_6statusES4_ _ZdaPv 197
_ZN10cc1_plugin8callbackIyPKcyyXadL_Z25plugin_define_cdtor_clonePNS_10connectionES2_yyEEEENS_6statusES4_ _Unwind_Resume 205
_ZN14plugin_context8preserveEP9tree_node prime_tab 70
_ZN14plugin_context8preserveEP9tree_node prime_tab 76
_ZN14plugin_context8preserveEP9tree_node prime_tab 83
_ZN14plugin_context8preserveEP9tree_node prime_tab 89
_ZN14plugin_context8preserveEP9tree_node _ZN10hash_tableI15nofree_ptr_hashI9tree_nodeE11xcallocatorE6expandEv 338
_ZN10cc1_plugin8callbackIyPKc18gcc_cp_symbol_kindyS2_yS2_jXadL_Z17plugin_build_declPNS_10connectionES2_S3_yS2_yS2_jEEEENS_6statusES5_ _ZN10cc1_plugin16unmarshall_checkEPNS_10connectionEy 50
_ZN10cc1_plugin8callbackIyPKc18gcc_cp_symbol_kindyS2_yS2_jXadL_Z17plugin_build_declPNS_10connectionES2_S3_yS2_yS2_jEEEENS_6statusES5_ _ZdaPv 71
_ZN10cc1_plugin8callbackIyPKc18gcc_cp_symbol_kindyS2_yS2_jXadL_Z17plugin_build_declPNS_10connectionES2_S3_yS2_yS2_jEEEENS_6statusES5_ _ZdaPv 85
_ZN10cc1_plugin8callbackIyPKc18gcc_cp_symbol_kindyS2_yS2_jXadL_Z17plugin_build_declPNS_10connectionES2_S3_yS2_yS2_jEEEENS_6statusES5_ _ZdaPv 99
_ZN10cc1_plugin8callbackIyPKc18gcc_cp_symbol_kindyS2_yS2_jXadL_Z17plugin_build_declPNS_10connectionES2_S3_yS2_yS2_jEEEENS_6statusES5_ _ZN10cc1_plugin10unmarshallEPNS_10connectionEPPc 136
_ZN10cc1_plugin8callbackIyPKc18gcc_cp_symbol_kindyS2_yS2_jXadL_Z17plugin_build_declPNS_10connectionES2_S3_yS2_yS2_jEEEENS_6statusES5_ _ZN10cc1_plugin18unmarshall_intlikeEPNS_10connectionEPy 152
_ZN10cc1_plugin8callbackIyPKc18gcc_cp_symbol_kindyS2_yS2_jXadL_Z17plugin_build_declPNS_10connectionES2_S3_yS2_yS2_jEEEENS_6statusES5_ _ZN10cc1_plugin18unmarshall_intlikeEPNS_10connectionEPy 175
_ZN10cc1_plugin8callbackIyPKc18gcc_cp_symbol_kindyS2_yS2_jXadL_Z17plugin_build_declPNS_10connectionES2_S3_yS2_yS2_jEEEENS_6statusES5_ _ZN10cc1_plugin10unmarshallEPNS_10connectionEPPc 198
_ZN10cc1_plugin8callbackIyPKc18gcc_cp_symbol_kindyS2_yS2_jXadL_Z17plugin_build_declPNS_10connectionES2_S3_yS2_yS2_jEEEENS_6statusES5_ _ZN10cc1_plugin18unmarshall_intlikeEPNS_10connectionEPy 218
_ZN10cc1_plugin8callbackIyPKc18gcc_cp_symbol_kindyS2_yS2_jXadL_Z17plugin_build_declPNS_10connectionES2_S3_yS2_yS2_jEEEENS_6statusES5_ _ZN10cc1_plugin10unmarshallEPNS_10connectionEPPc 245
_ZN10cc1_plugin8callbackIyPKc18gcc_cp_symbol_kindyS2_yS2_jXadL_Z17plugin_build_declPNS_10connectionES2_S3_yS2_yS2_jEEEENS_6statusES5_ _ZN10cc1_plugin18unmarshall_intlikeEPNS_10connectionEPy 265
_ZN10cc1_plugin8callbackIyPKc18gcc_cp_symbol_kindyS2_yS2_jXadL_Z17plugin_build_declPNS_10connectionES2_S3_yS2_yS2_jEEEENS_6statusES5_ _Z17plugin_build_declPN10cc1_plugin10connectionEPKc18gcc_cp_symbol_kindyS3_yS3_j 309
_ZN10cc1_plugin8callbackIyPKc18gcc_cp_symbol_kindyS2_yS2_jXadL_Z17plugin_build_declPNS_10connectionES2_S3_yS2_yS2_jEEEENS_6statusES5_ _ZN10cc1_plugin10connection4sendEc 327
_ZN10cc1_plugin8callbackIyPKc18gcc_cp_symbol_kindyS2_yS2_jXadL_Z17plugin_build_declPNS_10connectionES2_S3_yS2_yS2_jEEEENS_6statusES5_ _ZN10cc1_plugin16marshall_intlikeEPNS_10connectionEy 346
_ZN10cc1_plugin8callbackIyPKc18gcc_cp_symbol_kindyS2_yS2_jXadL_Z17plugin_build_declPNS_10connectionES2_S3_yS2_yS2_jEEEENS_6statusES5_ _ZdaPv 371
_ZN10cc1_plugin8callbackIyPKc18gcc_cp_symbol_kindyS2_yS2_jXadL_Z17plugin_build_declPNS_10connectionES2_S3_yS2_yS2_jEEEENS_6statusES5_ _ZdaPv 385
_ZN10cc1_plugin8callbackIyPKc18gcc_cp_symbol_kindyS2_yS2_jXadL_Z17plugin_build_declPNS_10connectionES2_S3_yS2_yS2_jEEEENS_6statusES5_ _ZdaPv 399
_ZN10cc1_plugin8callbackIyPKc18gcc_cp_symbol_kindyS2_yS2_jXadL_Z17plugin_build_declPNS_10connectionES2_S3_yS2_yS2_jEEEENS_6statusES5_ _Unwind_Resume 407
_ZN10cc1_plugin8callbackIyyPK15gcc_vbase_arrayPKcjXadL_Z23plugin_start_class_typePNS_10connectionEyS3_S5_jEEEENS_6statusES7_ _ZN10cc1_plugin16unmarshall_checkEPNS_10connectionEy 34
_ZN10cc1_plugin8callbackIyyPK15gcc_vbase_arrayPKcjXadL_Z23plugin_start_class_typePNS_10connectionEyS3_S5_jEEEENS_6statusES7_ _ZdaPv 55
_ZN10cc1_plugin8callbackIyyPK15gcc_vbase_arrayPKcjXadL_Z23plugin_start_class_typePNS_10connectionEyS3_S5_jEEEENS_6statusES7_ _ZdaPv 78
_ZN10cc1_plugin8callbackIyyPK15gcc_vbase_arrayPKcjXadL_Z23plugin_start_class_typePNS_10connectionEyS3_S5_jEEEENS_6statusES7_ _ZdaPv 96
_ZN10cc1_plugin8callbackIyyPK15gcc_vbase_arrayPKcjXadL_Z23plugin_start_class_typePNS_10connectionEyS3_S5_jEEEENS_6statusES7_ _ZdlPv 108
_ZN10cc1_plugin8callbackIyyPK15gcc_vbase_arrayPKcjXadL_Z23plugin_start_class_typePNS_10connectionEyS3_S5_jEEEENS_6statusES7_ _ZN10cc1_plugin18unmarshall_intlikeEPNS_10connectionEPy 137
_ZN10cc1_plugin8callbackIyyPK15gcc_vbase_arrayPKcjXadL_Z23plugin_start_class_typePNS_10connectionEyS3_S5_jEEEENS_6statusES7_ _ZN10cc1_plugin10unmarshallEPNS_10connectionEPP15gcc_vbase_array 159
_ZN10cc1_plugin8callbackIyyPK15gcc_vbase_arrayPKcjXadL_Z23plugin_start_class_typePNS_10connectionEyS3_S5_jEEEENS_6statusES7_ _ZN10cc1_plugin10unmarshallEPNS_10connectionEPPc 176
_ZN10cc1_plugin8callbackIyyPK15gcc_vbase_arrayPKcjXadL_Z23plugin_start_class_typePNS_10connectionEyS3_S5_jEEEENS_6statusES7_ _ZN10cc1_plugin18unmarshall_intlikeEPNS_10connectionEPy 197
_ZN10cc1_plugin8callbackIyyPK15gcc_vbase_arrayPKcjXadL_Z23plugin_start_class_typePNS_10connectionEyS3_S5_jEEEENS_6statusES7_ _Z23plugin_start_class_typePN10cc1_plugin10connectionEyPK15gcc_vbase_arrayPKcj 232
_ZN10cc1_plugin8callbackIyyPK15gcc_vbase_arrayPKcjXadL_Z23plugin_start_class_typePNS_10connectionEyS3_S5_jEEEENS_6statusES7_ _ZN10cc1_plugin10connection4sendEc 248
_ZN10cc1_plugin8callbackIyyPK15gcc_vbase_arrayPKcjXadL_Z23plugin_start_class_typePNS_10connectionEyS3_S5_jEEEENS_6statusES7_ _ZN10cc1_plugin16marshall_intlikeEPNS_10connectionEy 267
_ZN10cc1_plugin8callbackIyyPK15gcc_vbase_arrayPKcjXadL_Z23plugin_start_class_typePNS_10connectionEyS3_S5_jEEEENS_6statusES7_ _ZdaPv 292
_ZN10cc1_plugin8callbackIyyPK15gcc_vbase_arrayPKcjXadL_Z23plugin_start_class_typePNS_10connectionEyS3_S5_jEEEENS_6statusES7_ _ZdaPv 315
_ZN10cc1_plugin8callbackIyyPK15gcc_vbase_arrayPKcjXadL_Z23plugin_start_class_typePNS_10connectionEyS3_S5_jEEEENS_6statusES7_ _ZdaPv 333
_ZN10cc1_plugin8callbackIyyPK15gcc_vbase_arrayPKcjXadL_Z23plugin_start_class_typePNS_10connectionEyS3_S5_jEEEENS_6statusES7_ _ZdlPv 345
_ZN10cc1_plugin8callbackIyyPK15gcc_vbase_arrayPKcjXadL_Z23plugin_start_class_typePNS_10connectionEyS3_S5_jEEEENS_6statusES7_ _Unwind_Resume 353
_ZN10cc1_plugin8callbackIyiy18gcc_cp_symbol_kindPKcjXadL_Z31plugin_start_closure_class_typePNS_10connectionEiyS1_S3_jEEEENS_6statusES5_ _ZN10cc1_plugin16unmarshall_checkEPNS_10connectionEy 29
_ZN10cc1_plugin8callbackIyiy18gcc_cp_symbol_kindPKcjXadL_Z31plugin_start_closure_class_typePNS_10connectionEiyS1_S3_jEEEENS_6statusES5_ _ZdaPv 49
_ZN10cc1_plugin8callbackIyiy18gcc_cp_symbol_kindPKcjXadL_Z31plugin_start_closure_class_typePNS_10connectionEiyS1_S3_jEEEENS_6statusES5_ _ZN10cc1_plugin18unmarshall_intlikeEPNS_10connectionEPy 81
_ZN10cc1_plugin8callbackIyiy18gcc_cp_symbol_kindPKcjXadL_Z31plugin_start_closure_class_typePNS_10connectionEiyS1_S3_jEEEENS_6statusES5_ _ZN10cc1_plugin18unmarshall_intlikeEPNS_10connectionEPy 105
_ZN10cc1_plugin8callbackIyiy18gcc_cp_symbol_kindPKcjXadL_Z31plugin_start_closure_class_typePNS_10connectionEiyS1_S3_jEEEENS_6statusES5_ _ZN10cc1_plugin18unmarshall_intlikeEPNS_10connectionEPy 129
_ZN10cc1_plugin8callbackIyiy18gcc_cp_symbol_kindPKcjXadL_Z31plugin_start_closure_class_typePNS_10connectionEiyS1_S3_jEEEENS_6statusES5_ _ZN10cc1_plugin10unmarshallEPNS_10connectionEPPc 151
_ZN10cc1_plugin8callbackIyiy18gcc_cp_symbol_kindPKcjXadL_Z31plugin_start_closure_class_typePNS_10connectionEiyS1_S3_jEEEENS_6statusES5_ _ZN10cc1_plugin18unmarshall_intlikeEPNS_10connectionEPy 168
_ZN10cc1_plugin8callbackIyiy18gcc_cp_symbol_kindPKcjXadL_Z31plugin_start_closure_class_typePNS_10connectionEiyS1_S3_jEEEENS_6statusES5_ _Z31plugin_start_closure_class_typePN10cc1_plugin10connectionEiy18gcc_cp_symbol_kindPKcj 204
_ZN10cc1_plugin8callbackIyiy18gcc_cp_symbol_kindPKcjXadL_Z31plugin_start_closure_class_typePNS_10connectionEiyS1_S3_jEEEENS_6statusES5_ _ZN10cc1_plugin10connection4sendEc 220
_ZN10cc1_plugin8callbackIyiy18gcc_cp_symbol_kindPKcjXadL_Z31plugin_start_closure_class_typePNS_10connectionEiyS1_S3_jEEEENS_6statusES5_ _ZN10cc1_plugin16marshall_intlikeEPNS_10connectionEy 239
_ZN10cc1_plugin8callbackIyiy18gcc_cp_symbol_kindPKcjXadL_Z31plugin_start_closure_class_typePNS_10connectionEiyS1_S3_jEEEENS_6statusES5_ _ZdaPv 263
_ZN10cc1_plugin8callbackIyiy18gcc_cp_symbol_kindPKcjXadL_Z31plugin_start_closure_class_typePNS_10connectionEiyS1_S3_jEEEENS_6statusES5_ _Unwind_Resume 271
_ZN10cc1_plugin8callbackIyPKcy18gcc_cp_symbol_kindS2_jXadL_Z22plugin_start_enum_typePNS_10connectionES2_yS3_S2_jEEEENS_6statusES5_ _ZN10cc1_plugin16unmarshall_checkEPNS_10connectionEy 36
_ZN10cc1_plugin8callbackIyPKcy18gcc_cp_symbol_kindS2_jXadL_Z22plugin_start_enum_typePNS_10connectionES2_yS3_S2_jEEEENS_6statusES5_ _ZdaPv 57
_ZN10cc1_plugin8callbackIyPKcy18gcc_cp_symbol_kindS2_jXadL_Z22plugin_start_enum_typePNS_10connectionES2_yS3_S2_jEEEENS_6statusES5_ _ZdaPv 71
_ZN10cc1_plugin8callbackIyPKcy18gcc_cp_symbol_kindS2_jXadL_Z22plugin_start_enum_typePNS_10connectionES2_yS3_S2_jEEEENS_6statusES5_ _ZN10cc1_plugin10unmarshallEPNS_10connectionEPPc 103
_ZN10cc1_plugin8callbackIyPKcy18gcc_cp_symbol_kindS2_jXadL_Z22plugin_start_enum_typePNS_10connectionES2_yS3_S2_jEEEENS_6statusES5_ _ZN10cc1_plugin18unmarshall_intlikeEPNS_10connectionEPy 120
_ZN10cc1_plugin8callbackIyPKcy18gcc_cp_symbol_kindS2_jXadL_Z22plugin_start_enum_typePNS_10connectionES2_yS3_S2_jEEEENS_6statusES5_ _ZN10cc1_plugin18unmarshall_intlikeEPNS_10connectionEPy 144
_ZN10cc1_plugin8callbackIyPKcy18gcc_cp_symbol_kindS2_jXadL_Z22plugin_start_enum_typePNS_10connectionES2_yS3_S2_jEEEENS_6statusES5_ _ZN10cc1_plugin10unmarshallEPNS_10connectionEPPc 168
_ZN10cc1_plugin8callbackIyPKcy18gcc_cp_symbol_kindS2_jXadL_Z22plugin_start_enum_typePNS_10connectionES2_yS3_S2_jEEEENS_6statusES5_ _ZN10cc1_plugin18unmarshall_intlikeEPNS_10connectionEPy 189
_ZN10cc1_plugin8callbackIyPKcy18gcc_cp_symbol_kindS2_jXadL_Z22plugin_start_enum_typePNS_10connectionES2_yS3_S2_jEEEENS_6statusES5_ _Z22plugin_start_enum_typePN10cc1_plugin10connectionEPKcy18gcc_cp_symbol_kindS3_j 227
_ZN10cc1_plugin8callbackIyPKcy18gcc_cp_symbol_kindS2_jXadL_Z22plugin_start_enum_typePNS_10connectionES2_yS3_S2_jEEEENS_6statusES5_ _ZN10cc1_plugin10connection4sendEc 243
_ZN10cc1_plugin8callbackIyPKcy18gcc_cp_symbol_kindS2_jXadL_Z22plugin_start_enum_typePNS_10connectionES2_yS3_S2_jEEEENS_6statusES5_ _ZN10cc1_plugin16marshall_intlikeEPNS_10connectionEy 262
_ZN10cc1_plugin8callbackIyPKcy18gcc_cp_symbol_kindS2_jXadL_Z22plugin_start_enum_typePNS_10connectionES2_yS3_S2_jEEEENS_6statusES5_ _ZdaPv 287
_ZN10cc1_plugin8callbackIyPKcy18gcc_cp_symbol_kindS2_jXadL_Z22plugin_start_enum_typePNS_10connectionES2_yS3_S2_jEEEENS_6statusES5_ _ZdaPv 301
_ZN10cc1_plugin8callbackIyPKcy18gcc_cp_symbol_kindS2_jXadL_Z22plugin_start_enum_typePNS_10connectionES2_yS3_S2_jEEEENS_6statusES5_ _Unwind_Resume 309
_ZN10cc1_plugin8callbackIyyPK14gcc_type_arrayXadL_Z35plugin_build_exception_spec_variantPNS_10connectionEyS3_EEEENS_6statusES5_ _ZN10cc1_plugin16unmarshall_checkEPNS_10connectionEy 28
_ZN10cc1_plugin8callbackIyyPK14gcc_type_arrayXadL_Z35plugin_build_exception_spec_variantPNS_10connectionEyS3_EEEENS_6statusES5_ _ZN10cc1_plugin18unmarshall_intlikeEPNS_10connectionEPy 52
_ZN10cc1_plugin8callbackIyyPK14gcc_type_arrayXadL_Z35plugin_build_exception_spec_variantPNS_10connectionEyS3_EEEENS_6statusES5_ _ZdaPv 81
_ZN10cc1_plugin8callbackIyyPK14gcc_type_arrayXadL_Z35plugin_build_exception_spec_variantPNS_10connectionEyS3_EEEENS_6statusES5_ _ZdlPv 93
_ZN10cc1_plugin8callbackIyyPK14gcc_type_arrayXadL_Z35plugin_build_exception_spec_variantPNS_10connectionEyS3_EEEENS_6statusES5_ _ZN10cc1_plugin10unmarshallEPNS_10connectionEPP14gcc_type_array 127
_ZN10cc1_plugin8callbackIyyPK14gcc_type_arrayXadL_Z35plugin_build_exception_spec_variantPNS_10connectionEyS3_EEEENS_6statusES5_ _Z35plugin_build_exception_spec_variantPN10cc1_plugin10connectionEyPK14gcc_type_array 146
_ZN10cc1_plugin8callbackIyyPK14gcc_type_arrayXadL_Z35plugin_build_exception_spec_variantPNS_10connectionEyS3_EEEENS_6statusES5_ _ZN10cc1_plugin10connection4sendEc 162
_ZN10cc1_plugin8callbackIyyPK14gcc_type_arrayXadL_Z35plugin_build_exception_spec_variantPNS_10connectionEyS3_EEEENS_6statusES5_ _ZN10cc1_plugin16marshall_intlikeEPNS_10connectionEy 191
_ZN10cc1_plugin8callbackIyyPK14gcc_type_arrayXadL_Z35plugin_build_exception_spec_variantPNS_10connectionEyS3_EEEENS_6statusES5_ _ZN10cc1_plugin16argument_wrapperIPK14gcc_type_arrayED1Ev 209
_ZN10cc1_plugin8callbackIyyPK14gcc_type_arrayXadL_Z35plugin_build_exception_spec_variantPNS_10connectionEyS3_EEEENS_6statusES5_ _Unwind_Resume 217
_ZN10cc1_plugin8callbackIyyyXadL_Z35plugin_build_pointer_to_member_typePNS_10connectionEyyEEEENS_6statusES2_ _ZN10cc1_plugin16unmarshall_checkEPNS_10connectionEy 15
_ZN10cc1_plugin8callbackIyyyXadL_Z35plugin_build_pointer_to_member_typePNS_10connectionEyyEEEENS_6statusES2_ _ZN10cc1_plugin18unmarshall_intlikeEPNS_10connectionEPy 41
_ZN10cc1_plugin8callbackIyyyXadL_Z35plugin_build_pointer_to_member_typePNS_10connectionEyyEEEENS_6statusES2_ _ZN10cc1_plugin18unmarshall_intlikeEPNS_10connectionEPy 63
_ZN10cc1_plugin8callbackIyyyXadL_Z35plugin_build_pointer_to_member_typePNS_10connectionEyyEEEENS_6statusES2_ _Z17build_ptrmem_typeP9tree_nodeS0_ 80
_ZN10cc1_plugin8callbackIyyyXadL_Z35plugin_build_pointer_to_member_typePNS_10connectionEyyEEEENS_6statusES2_ _ZN14plugin_context8preserveEP9tree_node 91
_ZN10cc1_plugin8callbackIyyyXadL_Z35plugin_build_pointer_to_member_typePNS_10connectionEyyEEEENS_6statusES2_ _ZN10cc1_plugin10connection4sendEc 107
_ZN10cc1_plugin8callbackIyyyXadL_Z35plugin_build_pointer_to_member_typePNS_10connectionEyyEEEENS_6statusES2_ _ZN10cc1_plugin16marshall_intlikeEPNS_10connectionEy 122
_ZN10cc1_plugin8callbackIyPKciyS2_jXadL_Z36plugin_build_type_template_parameterPNS_10connectionES2_iyS2_jEEEENS_6statusES4_ _ZN10cc1_plugin16unmarshall_checkEPNS_10connectionEy 36
_ZN10cc1_plugin8callbackIyPKciyS2_jXadL_Z36plugin_build_type_template_parameterPNS_10connectionES2_iyS2_jEEEENS_6statusES4_ _ZdaPv 57
_ZN10cc1_plugin8callbackIyPKciyS2_jXadL_Z36plugin_build_type_template_parameterPNS_10connectionES2_iyS2_jEEEENS_6statusES4_ _ZdaPv 71
_ZN10cc1_plugin8callbackIyPKciyS2_jXadL_Z36plugin_build_type_template_parameterPNS_10connectionES2_iyS2_jEEEENS_6statusES4_ _ZN10cc1_plugin10unmarshallEPNS_10connectionEPPc 103
_ZN10cc1_plugin8callbackIyPKciyS2_jXadL_Z36plugin_build_type_template_parameterPNS_10connectionES2_iyS2_jEEEENS_6statusES4_ _ZN10cc1_plugin18unmarshall_intlikeEPNS_10connectionEPy 120
_ZN10cc1_plugin8callbackIyPKciyS2_jXadL_Z36plugin_build_type_template_parameterPNS_10connectionES2_iyS2_jEEEENS_6statusES4_ _ZN10cc1_plugin18unmarshall_intlikeEPNS_10connectionEPy 144
_ZN10cc1_plugin8callbackIyPKciyS2_jXadL_Z36plugin_build_type_template_parameterPNS_10connectionES2_iyS2_jEEEENS_6statusES4_ _ZN10cc1_plugin10unmarshallEPNS_10connectionEPPc 168
_ZN10cc1_plugin8callbackIyPKciyS2_jXadL_Z36plugin_build_type_template_parameterPNS_10connectionES2_iyS2_jEEEENS_6statusES4_ _ZN10cc1_plugin18unmarshall_intlikeEPNS_10connectionEPy 189
_ZN10cc1_plugin8callbackIyPKciyS2_jXadL_Z36plugin_build_type_template_parameterPNS_10connectionES2_iyS2_jEEEENS_6statusES4_ _Z36plugin_build_type_template_parameterPN10cc1_plugin10connectionEPKciyS3_j 227
_ZN10cc1_plugin8callbackIyPKciyS2_jXadL_Z36plugin_build_type_template_parameterPNS_10connectionES2_iyS2_jEEEENS_6statusES4_ _ZN10cc1_plugin10connection4sendEc 243
_ZN10cc1_plugin8callbackIyPKciyS2_jXadL_Z36plugin_build_type_template_parameterPNS_10connectionES2_iyS2_jEEEENS_6statusES4_ _ZN10cc1_plugin16marshall_intlikeEPNS_10connectionEy 262
_ZN10cc1_plugin8callbackIyPKciyS2_jXadL_Z36plugin_build_type_template_parameterPNS_10connectionES2_iyS2_jEEEENS_6statusES4_ _ZdaPv 287
_ZN10cc1_plugin8callbackIyPKciyS2_jXadL_Z36plugin_build_type_template_parameterPNS_10connectionES2_iyS2_jEEEENS_6statusES4_ _ZdaPv 301
_ZN10cc1_plugin8callbackIyPKciyS2_jXadL_Z36plugin_build_type_template_parameterPNS_10connectionES2_iyS2_jEEEENS_6statusES4_ _Unwind_Resume 309
_ZN10cc1_plugin8callbackIyPKciyS2_jXadL_Z40plugin_build_template_template_parameterPNS_10connectionES2_iyS2_jEEEENS_6statusES4_ _ZN10cc1_plugin16unmarshall_checkEPNS_10connectionEy 36
_ZN10cc1_plugin8callbackIyPKciyS2_jXadL_Z40plugin_build_template_template_parameterPNS_10connectionES2_iyS2_jEEEENS_6statusES4_ _ZdaPv 57
_ZN10cc1_plugin8callbackIyPKciyS2_jXadL_Z40plugin_build_template_template_parameterPNS_10connectionES2_iyS2_jEEEENS_6statusES4_ _ZdaPv 71
_ZN10cc1_plugin8callbackIyPKciyS2_jXadL_Z40plugin_build_template_template_parameterPNS_10connectionES2_iyS2_jEEEENS_6statusES4_ _ZN10cc1_plugin10unmarshallEPNS_10connectionEPPc 103
_ZN10cc1_plugin8callbackIyPKciyS2_jXadL_Z40plugin_build_template_template_parameterPNS_10connectionES2_iyS2_jEEEENS_6statusES4_ _ZN10cc1_plugin18unmarshall_intlikeEPNS_10connectionEPy 120
_ZN10cc1_plugin8callbackIyPKciyS2_jXadL_Z40plugin_build_template_template_parameterPNS_10connectionES2_iyS2_jEEEENS_6statusES4_ _ZN10cc1_plugin18unmarshall_intlikeEPNS_10connectionEPy 144
_ZN10cc1_plugin8callbackIyPKciyS2_jXadL_Z40plugin_build_template_template_parameterPNS_10connectionES2_iyS2_jEEEENS_6statusES4_ _ZN10cc1_plugin10unmarshallEPNS_10connectionEPPc 168
_ZN10cc1_plugin8callbackIyPKciyS2_jXadL_Z40plugin_build_template_template_parameterPNS_10connectionES2_iyS2_jEEEENS_6statusES4_ _ZN10cc1_plugin18unmarshall_intlikeEPNS_10connectionEPy 189
_ZN10cc1_plugin8callbackIyPKciyS2_jXadL_Z40plugin_build_template_template_parameterPNS_10connectionES2_iyS2_jEEEENS_6statusES4_ _Z40plugin_build_template_template_parameterPN10cc1_plugin10connectionEPKciyS3_j 227
_ZN10cc1_plugin8callbackIyPKciyS2_jXadL_Z40plugin_build_template_template_parameterPNS_10connectionES2_iyS2_jEEEENS_6statusES4_ _ZN10cc1_plugin10connection4sendEc 243
_ZN10cc1_plugin8callbackIyPKciyS2_jXadL_Z40plugin_build_template_template_parameterPNS_10connectionES2_iyS2_jEEEENS_6statusES4_ _ZN10cc1_plugin16marshall_intlikeEPNS_10connectionEy 262
_ZN10cc1_plugin8callbackIyPKciyS2_jXadL_Z40plugin_build_template_template_parameterPNS_10connectionES2_iyS2_jEEEENS_6statusES4_ _ZdaPv 287
_ZN10cc1_plugin8callbackIyPKciyS2_jXadL_Z40plugin_build_template_template_parameterPNS_10connectionES2_iyS2_jEEEENS_6statusES4_ _ZdaPv 301
_ZN10cc1_plugin8callbackIyPKciyS2_jXadL_Z40plugin_build_template_template_parameterPNS_10connectionES2_iyS2_jEEEENS_6statusES4_ _Unwind_Resume 309
_ZN10cc1_plugin8callbackIyyPKcyS2_jXadL_Z37plugin_build_value_template_parameterPNS_10connectionEyS2_yS2_jEEEENS_6statusES4_ _ZN10cc1_plugin16unmarshall_checkEPNS_10connectionEy 36
_ZN10cc1_plugin8callbackIyyPKcyS2_jXadL_Z37plugin_build_value_template_parameterPNS_10connectionEyS2_yS2_jEEEENS_6statusES4_ _ZdaPv 57
_ZN10cc1_plugin8callbackIyyPKcyS2_jXadL_Z37plugin_build_value_template_parameterPNS_10connectionEyS2_yS2_jEEEENS_6statusES4_ _ZdaPv 71
_ZN10cc1_plugin8callbackIyyPKcyS2_jXadL_Z37plugin_build_value_template_parameterPNS_10connectionEyS2_yS2_jEEEENS_6statusES4_ _ZN10cc1_plugin18unmarshall_intlikeEPNS_10connectionEPy 105
_ZN10cc1_plugin8callbackIyyPKcyS2_jXadL_Z37plugin_build_value_template_parameterPNS_10connectionEyS2_yS2_jEEEENS_6statusES4_ _ZN10cc1_plugin10unmarshallEPNS_10connectionEPPc 127
_ZN10cc1_plugin8callbackIyyPKcyS2_jXadL_Z37plugin_build_value_template_parameterPNS_10connectionEyS2_yS2_jEEEENS_6statusES4_ _ZN10cc1_plugin18unmarshall_intlikeEPNS_10connectionEPy 144
_ZN10cc1_plugin8callbackIyyPKcyS2_jXadL_Z37plugin_build_value_template_parameterPNS_10connectionEyS2_yS2_jEEEENS_6statusES4_ _ZN10cc1_plugin10unmarshallEPNS_10connectionEPPc 168
_ZN10cc1_plugin8callbackIyyPKcyS2_jXadL_Z37plugin_build_value_template_parameterPNS_10connectionEyS2_yS2_jEEEENS_6statusES4_ _ZN10cc1_plugin18unmarshall_intlikeEPNS_10connectionEPy 189
_ZN10cc1_plugin8callbackIyyPKcyS2_jXadL_Z37plugin_build_value_template_parameterPNS_10connectionEyS2_yS2_jEEEENS_6statusES4_ _Z37plugin_build_value_template_parameterPN10cc1_plugin10connectionEyPKcyS3_j 227
_ZN10cc1_plugin8callbackIyyPKcyS2_jXadL_Z37plugin_build_value_template_parameterPNS_10connectionEyS2_yS2_jEEEENS_6statusES4_ _ZN10cc1_plugin10connection4sendEc 243
_ZN10cc1_plugin8callbackIyyPKcyS2_jXadL_Z37plugin_build_value_template_parameterPNS_10connectionEyS2_yS2_jEEEENS_6statusES4_ _ZN10cc1_plugin16marshall_intlikeEPNS_10connectionEy 262
_ZN10cc1_plugin8callbackIyyPKcyS2_jXadL_Z37plugin_build_value_template_parameterPNS_10connectionEyS2_yS2_jEEEENS_6statusES4_ _ZdaPv 287
_ZN10cc1_plugin8callbackIyyPKcyS2_jXadL_Z37plugin_build_value_template_parameterPNS_10connectionEyS2_yS2_jEEEENS_6statusES4_ _ZdaPv 301
_ZN10cc1_plugin8callbackIyyPKcyS2_jXadL_Z37plugin_build_value_template_parameterPNS_10connectionEyS2_yS2_jEEEENS_6statusES4_ _Unwind_Resume 309
_ZN10cc1_plugin8callbackIyPKcyXadL_Z23plugin_build_unary_exprPNS_10connectionES2_yEEEENS_6statusES4_ _ZN10cc1_plugin16unmarshall_checkEPNS_10connectionEy 23
_ZN10cc1_plugin8callbackIyPKcyXadL_Z23plugin_build_unary_exprPNS_10connectionES2_yEEEENS_6statusES4_ _ZdaPv 43
_ZN10cc1_plugin8callbackIyPKcyXadL_Z23plugin_build_unary_exprPNS_10connectionES2_yEEEENS_6statusES4_ _ZN10cc1_plugin10unmarshallEPNS_10connectionEPPc 71
_ZN10cc1_plugin8callbackIyPKcyXadL_Z23plugin_build_unary_exprPNS_10connectionES2_yEEEENS_6statusES4_ _ZN10cc1_plugin18unmarshall_intlikeEPNS_10connectionEPy 88
_ZN10cc1_plugin8callbackIyPKcyXadL_Z23plugin_build_unary_exprPNS_10connectionES2_yEEEENS_6statusES4_ _Z23plugin_build_unary_exprPN10cc1_plugin10connectionEPKcy 111
_ZN10cc1_plugin8callbackIyPKcyXadL_Z23plugin_build_unary_exprPNS_10connectionES2_yEEEENS_6statusES4_ _ZN10cc1_plugin10connection4sendEc 127
_ZN10cc1_plugin8callbackIyPKcyXadL_Z23plugin_build_unary_exprPNS_10connectionES2_yEEEENS_6statusES4_ _ZN10cc1_plugin16marshall_intlikeEPNS_10connectionEy 142
_ZN10cc1_plugin8callbackIyPKcyXadL_Z23plugin_build_unary_exprPNS_10connectionES2_yEEEENS_6statusES4_ _ZdaPv 163
_ZN10cc1_plugin8callbackIyPKcyXadL_Z23plugin_build_unary_exprPNS_10connectionES2_yEEEENS_6statusES4_ _Unwind_Resume 171
_ZN10cc1_plugin8callbackIyPKcyyXadL_Z24plugin_build_binary_exprPNS_10connectionES2_yyEEEENS_6statusES4_ _ZN10cc1_plugin16unmarshall_checkEPNS_10connectionEy 25
_ZN10cc1_plugin8callbackIyPKcyyXadL_Z24plugin_build_binary_exprPNS_10connectionES2_yyEEEENS_6statusES4_ _ZdaPv 45
_ZN10cc1_plugin8callbackIyPKcyyXadL_Z24plugin_build_binary_exprPNS_10connectionES2_yyEEEENS_6statusES4_ _ZN10cc1_plugin10unmarshallEPNS_10connectionEPPc 71
_ZN10cc1_plugin8callbackIyPKcyyXadL_Z24plugin_build_binary_exprPNS_10connectionES2_yyEEEENS_6statusES4_ _ZN10cc1_plugin18unmarshall_intlikeEPNS_10connectionEPy 88
_ZN10cc1_plugin8callbackIyPKcyyXadL_Z24plugin_build_binary_exprPNS_10connectionES2_yyEEEENS_6statusES4_ _ZN10cc1_plugin18unmarshall_intlikeEPNS_10connectionEPy 112
_ZN10cc1_plugin8callbackIyPKcyyXadL_Z24plugin_build_binary_exprPNS_10connectionES2_yyEEEENS_6statusES4_ _Z24plugin_build_binary_exprPN10cc1_plugin10connectionEPKcyy 138
_ZN10cc1_plugin8callbackIyPKcyyXadL_Z24plugin_build_binary_exprPNS_10connectionES2_yyEEEENS_6statusES4_ _ZN10cc1_plugin10connection4sendEc 154
_ZN10cc1_plugin8callbackIyPKcyyXadL_Z24plugin_build_binary_exprPNS_10connectionES2_yyEEEENS_6statusES4_ _ZN10cc1_plugin16marshall_intlikeEPNS_10connectionEy 173
_ZN10cc1_plugin8callbackIyPKcyyXadL_Z24plugin_build_binary_exprPNS_10connectionES2_yyEEEENS_6statusES4_ _ZdaPv 197
_ZN10cc1_plugin8callbackIyPKcyyXadL_Z24plugin_build_binary_exprPNS_10connectionES2_yyEEEENS_6statusES4_ _Unwind_Resume 205
_ZN10cc1_plugin8callbackIyPKcyPK20gcc_cp_function_argsXadL_Z33plugin_build_expression_list_exprPNS_10connectionES2_yS5_EEEENS_6statusES7_ _ZN10cc1_plugin16unmarshall_checkEPNS_10connectionEy 39
_ZN10cc1_plugin8callbackIyPKcyPK20gcc_cp_function_argsXadL_Z33plugin_build_expression_list_exprPNS_10connectionES2_yS5_EEEENS_6statusES7_ _ZN10cc1_plugin10unmarshallEPNS_10connectionEPPc 59
_ZN10cc1_plugin8callbackIyPKcyPK20gcc_cp_function_argsXadL_Z33plugin_build_expression_list_exprPNS_10connectionES2_yS5_EEEENS_6statusES7_ _ZdaPv 89
_ZN10cc1_plugin8callbackIyPKcyPK20gcc_cp_function_argsXadL_Z33plugin_build_expression_list_exprPNS_10connectionES2_yS5_EEEENS_6statusES7_ _ZdlPv 102
_ZN10cc1_plugin8callbackIyPKcyPK20gcc_cp_function_argsXadL_Z33plugin_build_expression_list_exprPNS_10connectionES2_yS5_EEEENS_6statusES7_ _ZdaPv 116
_ZN10cc1_plugin8callbackIyPKcyPK20gcc_cp_function_argsXadL_Z33plugin_build_expression_list_exprPNS_10connectionES2_yS5_EEEENS_6statusES7_ _ZN10cc1_plugin18unmarshall_intlikeEPNS_10connectionEPy 150
_ZN10cc1_plugin8callbackIyPKcyPK20gcc_cp_function_argsXadL_Z33plugin_build_expression_list_exprPNS_10connectionES2_yS5_EEEENS_6statusES7_ _ZN10cc1_plugin10unmarshallEPNS_10connectionEPP20gcc_cp_function_args 177
_ZN10cc1_plugin8callbackIyPKcyPK20gcc_cp_function_argsXadL_Z33plugin_build_expression_list_exprPNS_10connectionES2_yS5_EEEENS_6statusES7_ _Z33plugin_build_expression_list_exprPN10cc1_plugin10connectionEPKcyPK20gcc_cp_function_args 201
_ZN10cc1_plugin8callbackIyPKcyPK20gcc_cp_function_argsXadL_Z33plugin_build_expression_list_exprPNS_10connectionES2_yS5_EEEENS_6statusES7_ _ZN10cc1_plugin10connection4sendEc 217
_ZN10cc1_plugin8callbackIyPKcyPK20gcc_cp_function_argsXadL_Z33plugin_build_expression_list_exprPNS_10connectionES2_yS5_EEEENS_6statusES7_ _ZN10cc1_plugin16marshall_intlikeEPNS_10connectionEy 236
_ZN10cc1_plugin8callbackIyPKcyPK20gcc_cp_function_argsXadL_Z33plugin_build_expression_list_exprPNS_10connectionES2_yS5_EEEENS_6statusES7_ _ZN10cc1_plugin16argument_wrapperIPK20gcc_cp_function_argsED1Ev 254
_ZN10cc1_plugin8callbackIyPKcyPK20gcc_cp_function_argsXadL_Z33plugin_build_expression_list_exprPNS_10connectionES2_yS5_EEEENS_6statusES7_ _ZdaPv 268
_ZN10cc1_plugin8callbackIyPKcyPK20gcc_cp_function_argsXadL_Z33plugin_build_expression_list_exprPNS_10connectionES2_yS5_EEEENS_6statusES7_ _Unwind_Resume 276
_ZN10cc1_plugin8callbackIyPKcPK20gcc_cp_function_argsyS5_XadL_Z21plugin_build_new_exprPNS_10connectionES2_S5_yS5_EEEENS_6statusES7_ _ZN10cc1_plugin16unmarshall_checkEPNS_10connectionEy 55
_ZN10cc1_plugin8callbackIyPKcPK20gcc_cp_function_argsyS5_XadL_Z21plugin_build_new_exprPNS_10connectionES2_S5_yS5_EEEENS_6statusES7_ _ZN10cc1_plugin10unmarshallEPNS_10connectionEPPc 80
_ZN10cc1_plugin8callbackIyPKcPK20gcc_cp_function_argsyS5_XadL_Z21plugin_build_new_exprPNS_10connectionES2_S5_yS5_EEEENS_6statusES7_ _ZdaPv 110
_ZN10cc1_plugin8callbackIyPKcPK20gcc_cp_function_argsyS5_XadL_Z21plugin_build_new_exprPNS_10connectionES2_S5_yS5_EEEENS_6statusES7_ _ZdlPv 123
_ZN10cc1_plugin8callbackIyPKcPK20gcc_cp_function_argsyS5_XadL_Z21plugin_build_new_exprPNS_10connectionES2_S5_yS5_EEEENS_6statusES7_ _ZdaPv 147
_ZN10cc1_plugin8callbackIyPKcPK20gcc_cp_function_argsyS5_XadL_Z21plugin_build_new_exprPNS_10connectionES2_S5_yS5_EEEENS_6statusES7_ _ZdlPv 160
_ZN10cc1_plugin8callbackIyPKcPK20gcc_cp_function_argsyS5_XadL_Z21plugin_build_new_exprPNS_10connectionES2_S5_yS5_EEEENS_6statusES7_ _ZdaPv 174
_ZN10cc1_plugin8callbackIyPKcPK20gcc_cp_function_argsyS5_XadL_Z21plugin_build_new_exprPNS_10connectionES2_S5_yS5_EEEENS_6statusES7_ _ZN10cc1_plugin10unmarshallEPNS_10connectionEPP20gcc_cp_function_args 209
_ZN10cc1_plugin8callbackIyPKcPK20gcc_cp_function_argsyS5_XadL_Z21plugin_build_new_exprPNS_10connectionES2_S5_yS5_EEEENS_6statusES7_ _ZN10cc1_plugin18unmarshall_intlikeEPNS_10connectionEPy 235
_ZN10cc1_plugin8callbackIyPKcPK20gcc_cp_function_argsyS5_XadL_Z21plugin_build_new_exprPNS_10connectionES2_S5_yS5_EEEENS_6statusES7_ _ZN10cc1_plugin10unmarshallEPNS_10connectionEPP20gcc_cp_function_args 266
_ZN10cc1_plugin8callbackIyPKcPK20gcc_cp_function_argsyS5_XadL_Z21plugin_build_new_exprPNS_10connectionES2_S5_yS5_EEEENS_6statusES7_ _Z21plugin_build_new_exprPN10cc1_plugin10connectionEPKcPK20gcc_cp_function_argsyS6_ 299
_ZN10cc1_plugin8callbackIyPKcPK20gcc_cp_function_argsyS5_XadL_Z21plugin_build_new_exprPNS_10connectionES2_S5_yS5_EEEENS_6statusES7_ _ZN10cc1_plugin10connection4sendEc 315
_ZN10cc1_plugin8callbackIyPKcPK20gcc_cp_function_argsyS5_XadL_Z21plugin_build_new_exprPNS_10connectionES2_S5_yS5_EEEENS_6statusES7_ _ZN10cc1_plugin16marshall_intlikeEPNS_10connectionEy 334
_ZN10cc1_plugin8callbackIyPKcPK20gcc_cp_function_argsyS5_XadL_Z21plugin_build_new_exprPNS_10connectionES2_S5_yS5_EEEENS_6statusES7_ _ZN10cc1_plugin16argument_wrapperIPK20gcc_cp_function_argsED1Ev 352
_ZN10cc1_plugin8callbackIyPKcPK20gcc_cp_function_argsyS5_XadL_Z21plugin_build_new_exprPNS_10connectionES2_S5_yS5_EEEENS_6statusES7_ _ZN10cc1_plugin16argument_wrapperIPK20gcc_cp_function_argsED1Ev 360
_ZN10cc1_plugin8callbackIyPKcPK20gcc_cp_function_argsyS5_XadL_Z21plugin_build_new_exprPNS_10connectionES2_S5_yS5_EEEENS_6statusES7_ _ZdaPv 374
_ZN10cc1_plugin8callbackIyPKcPK20gcc_cp_function_argsyS5_XadL_Z21plugin_build_new_exprPNS_10connectionES2_S5_yS5_EEEENS_6statusES7_ _Unwind_Resume 382
_ZN10cc1_plugin8callbackIyyiPK20gcc_cp_function_argsXadL_Z22plugin_build_call_exprPNS_10connectionEyiS3_EEEENS_6statusES5_ _ZN10cc1_plugin16unmarshall_checkEPNS_10connectionEy 30
_ZN10cc1_plugin8callbackIyyiPK20gcc_cp_function_argsXadL_Z22plugin_build_call_exprPNS_10connectionEyiS3_EEEENS_6statusES5_ _ZN10cc1_plugin18unmarshall_intlikeEPNS_10connectionEPy 54
_ZN10cc1_plugin8callbackIyyiPK20gcc_cp_function_argsXadL_Z22plugin_build_call_exprPNS_10connectionEyiS3_EEEENS_6statusES5_ _ZdaPv 83
_ZN10cc1_plugin8callbackIyyiPK20gcc_cp_function_argsXadL_Z22plugin_build_call_exprPNS_10connectionEyiS3_EEEENS_6statusES5_ _ZdlPv 95
_ZN10cc1_plugin8callbackIyyiPK20gcc_cp_function_argsXadL_Z22plugin_build_call_exprPNS_10connectionEyiS3_EEEENS_6statusES5_ _ZN10cc1_plugin18unmarshall_intlikeEPNS_10connectionEPy 129
_ZN10cc1_plugin8callbackIyyiPK20gcc_cp_function_argsXadL_Z22plugin_build_call_exprPNS_10connectionEyiS3_EEEENS_6statusES5_ _ZN10cc1_plugin10unmarshallEPNS_10connectionEPP20gcc_cp_function_args 154
_ZN10cc1_plugin8callbackIyyiPK20gcc_cp_function_argsXadL_Z22plugin_build_call_exprPNS_10connectionEyiS3_EEEENS_6statusES5_ _Z22plugin_build_call_exprPN10cc1_plugin10connectionEyiPK20gcc_cp_function_args 190
_ZN10cc1_plugin8callbackIyyiPK20gcc_cp_function_argsXadL_Z22plugin_build_call_exprPNS_10connectionEyiS3_EEEENS_6statusES5_ _ZN10cc1_plugin10connection4sendEc 206
_ZN10cc1_plugin8callbackIyyiPK20gcc_cp_function_argsXadL_Z22plugin_build_call_exprPNS_10connectionEyiS3_EEEENS_6statusES5_ _ZN10cc1_plugin16marshall_intlikeEPNS_10connectionEy 221
_ZN10cc1_plugin8callbackIyyiPK20gcc_cp_function_argsXadL_Z22plugin_build_call_exprPNS_10connectionEyiS3_EEEENS_6statusES5_ _ZN10cc1_plugin16argument_wrapperIPK20gcc_cp_function_argsED1Ev 239
_ZN10cc1_plugin8callbackIyyiPK20gcc_cp_function_argsXadL_Z22plugin_build_call_exprPNS_10connectionEyiS3_EEEENS_6statusES5_ _Unwind_Resume 247
_ZN10cc1_plugin8callbackIyyPK20gcc_cp_template_argsyPKcjXadL_Z45plugin_build_function_template_specializationPNS_10connectionEyS3_yS5_jEEEENS_6statusES7_ _ZN10cc1_plugin16unmarshall_checkEPNS_10connectionEy 41
_ZN10cc1_plugin8callbackIyyPK20gcc_cp_template_argsyPKcjXadL_Z45plugin_build_function_template_specializationPNS_10connectionEyS3_yS5_jEEEENS_6statusES7_ _ZdaPv 62
_ZN10cc1_plugin8callbackIyyPK20gcc_cp_template_argsyPKcjXadL_Z45plugin_build_function_template_specializationPNS_10connectionEyS3_yS5_jEEEENS_6statusES7_ _ZdaPv 85
_ZN10cc1_plugin8callbackIyyPK20gcc_cp_template_argsyPKcjXadL_Z45plugin_build_function_template_specializationPNS_10connectionEyS3_yS5_jEEEENS_6statusES7_ _ZdaPv 103
_ZN10cc1_plugin8callbackIyyPK20gcc_cp_template_argsyPKcjXadL_Z45plugin_build_function_template_specializationPNS_10connectionEyS3_yS5_jEEEENS_6statusES7_ _ZdlPv 115
_ZN10cc1_plugin8callbackIyyPK20gcc_cp_template_argsyPKcjXadL_Z45plugin_build_function_template_specializationPNS_10connectionEyS3_yS5_jEEEENS_6statusES7_ _ZN10cc1_plugin18unmarshall_intlikeEPNS_10connectionEPy 156
_ZN10cc1_plugin8callbackIyyPK20gcc_cp_template_argsyPKcjXadL_Z45plugin_build_function_template_specializationPNS_10connectionEyS3_yS5_jEEEENS_6statusES7_ _ZN10cc1_plugin10unmarshallEPNS_10connectionEPP20gcc_cp_template_args 181
_ZN10cc1_plugin8callbackIyyPK20gcc_cp_template_argsyPKcjXadL_Z45plugin_build_function_template_specializationPNS_10connectionEyS3_yS5_jEEEENS_6statusES7_ _ZN10cc1_plugin18unmarshall_intlikeEPNS_10connectionEPy 202
_ZN10cc1_plugin8callbackIyyPK20gcc_cp_template_argsyPKcjXadL_Z45plugin_build_function_template_specializationPNS_10connectionEyS3_yS5_jEEEENS_6statusES7_ _ZN10cc1_plugin10unmarshallEPNS_10connectionEPPc 230
_ZN10cc1_plugin8callbackIyyPK20gcc_cp_template_argsyPKcjXadL_Z45plugin_build_function_template_specializationPNS_10connectionEyS3_yS5_jEEEENS_6statusES7_ _ZN10cc1_plugin18unmarshall_intlikeEPNS_10connectionEPy 251
_ZN10cc1_plugin8callbackIyyPK20gcc_cp_template_argsyPKcjXadL_Z45plugin_build_function_template_specializationPNS_10connectionEyS3_yS5_jEEEENS_6statusES7_ _Z45plugin_build_function_template_specializationPN10cc1_plugin10connectionEyPK20gcc_cp_template_argsyPKcj 289
_ZN10cc1_plugin8callbackIyyPK20gcc_cp_template_argsyPKcjXadL_Z45plugin_build_function_template_specializationPNS_10connectionEyS3_yS5_jEEEENS_6statusES7_ _ZN10cc1_plugin10connection4sendEc 305
_ZN10cc1_plugin8callbackIyyPK20gcc_cp_template_argsyPKcjXadL_Z45plugin_build_function_template_specializationPNS_10connectionEyS3_yS5_jEEEENS_6statusES7_ _ZN10cc1_plugin16marshall_intlikeEPNS_10connectionEy 324
_ZN10cc1_plugin8callbackIyyPK20gcc_cp_template_argsyPKcjXadL_Z45plugin_build_function_template_specializationPNS_10connectionEyS3_yS5_jEEEENS_6statusES7_ _ZdaPv 349
_ZN10cc1_plugin8callbackIyyPK20gcc_cp_template_argsyPKcjXadL_Z45plugin_build_function_template_specializationPNS_10connectionEyS3_yS5_jEEEENS_6statusES7_ _ZN10cc1_plugin16argument_wrapperIPK20gcc_cp_template_argsED1Ev 357
_ZN10cc1_plugin8callbackIyyPK20gcc_cp_template_argsyPKcjXadL_Z45plugin_build_function_template_specializationPNS_10connectionEyS3_yS5_jEEEENS_6statusES7_ _Unwind_Resume 365
_ZN10cc1_plugin8callbackIyyPK20gcc_cp_template_argsPKcjXadL_Z42plugin_build_class_template_specializationPNS_10connectionEyS3_S5_jEEEENS_6statusES7_ _ZN10cc1_plugin16unmarshall_checkEPNS_10connectionEy 39
_ZN10cc1_plugin8callbackIyyPK20gcc_cp_template_argsPKcjXadL_Z42plugin_build_class_template_specializationPNS_10connectionEyS3_S5_jEEEENS_6statusES7_ _ZdaPv 60
_ZN10cc1_plugin8callbackIyyPK20gcc_cp_template_argsPKcjXadL_Z42plugin_build_class_template_specializationPNS_10connectionEyS3_S5_jEEEENS_6statusES7_ _ZdaPv 83
_ZN10cc1_plugin8callbackIyyPK20gcc_cp_template_argsPKcjXadL_Z42plugin_build_class_template_specializationPNS_10connectionEyS3_S5_jEEEENS_6statusES7_ _ZdaPv 101
_ZN10cc1_plugin8callbackIyyPK20gcc_cp_template_argsPKcjXadL_Z42plugin_build_class_template_specializationPNS_10connectionEyS3_S5_jEEEENS_6statusES7_ _ZdlPv 113
_ZN10cc1_plugin8callbackIyyPK20gcc_cp_template_argsPKcjXadL_Z42plugin_build_class_template_specializationPNS_10connectionEyS3_S5_jEEEENS_6statusES7_ _ZN10cc1_plugin18unmarshall_intlikeEPNS_10connectionEPy 148
_ZN10cc1_plugin8callbackIyyPK20gcc_cp_template_argsPKcjXadL_Z42plugin_build_class_template_specializationPNS_10connectionEyS3_S5_jEEEENS_6statusES7_ _ZN10cc1_plugin10unmarshallEPNS_10connectionEPP20gcc_cp_template_args 173
_ZN10cc1_plugin8callbackIyyPK20gcc_cp_template_argsPKcjXadL_Z42plugin_build_class_template_specializationPNS_10connectionEyS3_S5_jEEEENS_6statusES7_ _ZN10cc1_plugin10unmarshallEPNS_10connectionEPPc 194
_ZN10cc1_plugin8callbackIyyPK20gcc_cp_template_argsPKcjXadL_Z42plugin_build_class_template_specializationPNS_10connectionEyS3_S5_jEEEENS_6statusES7_ _ZN10cc1_plugin18unmarshall_intlikeEPNS_10connectionEPy 215
_ZN10cc1_plugin8callbackIyyPK20gcc_cp_template_argsPKcjXadL_Z42plugin_build_class_template_specializationPNS_10connectionEyS3_S5_jEEEENS_6statusES7_ _Z42plugin_build_class_template_specializationPN10cc1_plugin10connectionEyPK20gcc_cp_template_argsPKcj 250
_ZN10cc1_plugin8callbackIyyPK20gcc_cp_template_argsPKcjXadL_Z42plugin_build_class_template_specializationPNS_10connectionEyS3_S5_jEEEENS_6statusES7_ _ZN10cc1_plugin10connection4sendEc 266
_ZN10cc1_plugin8callbackIyyPK20gcc_cp_template_argsPKcjXadL_Z42plugin_build_class_template_specializationPNS_10connectionEyS3_S5_jEEEENS_6statusES7_ _ZN10cc1_plugin16marshall_intlikeEPNS_10connectionEy 285
_ZN10cc1_plugin8callbackIyyPK20gcc_cp_template_argsPKcjXadL_Z42plugin_build_class_template_specializationPNS_10connectionEyS3_S5_jEEEENS_6statusES7_ _ZdaPv 310
_ZN10cc1_plugin8callbackIyyPK20gcc_cp_template_argsPKcjXadL_Z42plugin_build_class_template_specializationPNS_10connectionEyS3_S5_jEEEENS_6statusES7_ _ZN10cc1_plugin16argument_wrapperIPK20gcc_cp_template_argsED1Ev 318
_ZN10cc1_plugin8callbackIyyPK20gcc_cp_template_argsPKcjXadL_Z42plugin_build_class_template_specializationPNS_10connectionEyS3_S5_jEEEENS_6statusES7_ _Unwind_Resume 326
_ZN10cc1_plugin8callbackIyyXadL_Z20plugin_get_expr_typePNS_10connectionEyEEEENS_6statusES2_ _ZN10cc1_plugin16unmarshall_checkEPNS_10connectionEy 15
_ZN10cc1_plugin8callbackIyyXadL_Z20plugin_get_expr_typePNS_10connectionEyEEEENS_6statusES2_ _ZN10cc1_plugin18unmarshall_intlikeEPNS_10connectionEPy 41
_ZN10cc1_plugin8callbackIyyXadL_Z20plugin_get_expr_typePNS_10connectionEyEEEENS_6statusES2_ _Z20plugin_get_expr_typePN10cc1_plugin10connectionEy 58
_ZN10cc1_plugin8callbackIyyXadL_Z20plugin_get_expr_typePNS_10connectionEyEEEENS_6statusES2_ _ZN10cc1_plugin10connection4sendEc 74
_ZN10cc1_plugin8callbackIyyXadL_Z20plugin_get_expr_typePNS_10connectionEyEEEENS_6statusES2_ _ZN10cc1_plugin16marshall_intlikeEPNS_10connectionEy 89
_ZN10cc1_plugin8callbackIyymXadL_Z25plugin_build_literal_exprPNS_10connectionEymEEEENS_6statusES2_ _ZN10cc1_plugin16unmarshall_checkEPNS_10connectionEy 15
_ZN10cc1_plugin8callbackIyymXadL_Z25plugin_build_literal_exprPNS_10connectionEymEEEENS_6statusES2_ _ZN10cc1_plugin18unmarshall_intlikeEPNS_10connectionEPy 41
_ZN10cc1_plugin8callbackIyymXadL_Z25plugin_build_literal_exprPNS_10connectionEymEEEENS_6statusES2_ _ZN10cc1_plugin18unmarshall_intlikeEPNS_10connectionEPy 63
_ZN10cc1_plugin8callbackIyymXadL_Z25plugin_build_literal_exprPNS_10connectionEymEEEENS_6statusES2_ _Z25plugin_build_literal_exprPN10cc1_plugin10connectionEym 83
_ZN10cc1_plugin8callbackIyymXadL_Z25plugin_build_literal_exprPNS_10connectionEymEEEENS_6statusES2_ _ZN10cc1_plugin10connection4sendEc 99
_ZN10cc1_plugin8callbackIyymXadL_Z25plugin_build_literal_exprPNS_10connectionEymEEEENS_6statusES2_ _ZN10cc1_plugin16marshall_intlikeEPNS_10connectionEy 114
_ZN10cc1_plugin8callbackIyyiXadL_Z22plugin_build_decl_exprPNS_10connectionEyiEEEENS_6statusES2_ _ZN10cc1_plugin16unmarshall_checkEPNS_10connectionEy 15
_ZN10cc1_plugin8callbackIyyiXadL_Z22plugin_build_decl_exprPNS_10connectionEyiEEEENS_6statusES2_ _ZN10cc1_plugin18unmarshall_intlikeEPNS_10connectionEPy 41
_ZN10cc1_plugin8callbackIyyiXadL_Z22plugin_build_decl_exprPNS_10connectionEyiEEEENS_6statusES2_ _ZN10cc1_plugin18unmarshall_intlikeEPNS_10connectionEPy 63
_ZN10cc1_plugin8callbackIyyiXadL_Z22plugin_build_decl_exprPNS_10connectionEyiEEEENS_6statusES2_ _Z22plugin_build_decl_exprPN10cc1_plugin10connectionEyi 82
_ZN10cc1_plugin8callbackIyyiXadL_Z22plugin_build_decl_exprPNS_10connectionEyiEEEENS_6statusES2_ _ZN10cc1_plugin10connection4sendEc 98
_ZN10cc1_plugin8callbackIyyiXadL_Z22plugin_build_decl_exprPNS_10connectionEyiEEEENS_6statusES2_ _ZN10cc1_plugin16marshall_intlikeEPNS_10connectionEy 113
_ZN10cc1_plugin8callbackIyyXadL_Z24plugin_build_lambda_exprPNS_10connectionEyEEEENS_6statusES2_ _ZN10cc1_plugin16unmarshall_checkEPNS_10connectionEy 15
_ZN10cc1_plugin8callbackIyyXadL_Z24plugin_build_lambda_exprPNS_10connectionEyEEEENS_6statusES2_ _ZN10cc1_plugin18unmarshall_intlikeEPNS_10connectionEPy 41
_ZN10cc1_plugin8callbackIyyXadL_Z24plugin_build_lambda_exprPNS_10connectionEyEEEENS_6statusES2_ _Z24plugin_build_lambda_exprPN10cc1_plugin10connectionEy 58
_ZN10cc1_plugin8callbackIyyXadL_Z24plugin_build_lambda_exprPNS_10connectionEyEEEENS_6statusES2_ _ZN10cc1_plugin10connection4sendEc 74
_ZN10cc1_plugin8callbackIyyXadL_Z24plugin_build_lambda_exprPNS_10connectionEyEEEENS_6statusES2_ _ZN10cc1_plugin16marshall_intlikeEPNS_10connectionEy 89
_ZN10cc1_plugin8callbackIyyPKcXadL_Z37plugin_build_dependent_class_templatePNS_10connectionEyS2_EEEENS_6statusES4_ _ZN10cc1_plugin16unmarshall_checkEPNS_10connectionEy 23
_ZN10cc1_plugin8callbackIyyPKcXadL_Z37plugin_build_dependent_class_templatePNS_10connectionEyS2_EEEENS_6statusES4_ _ZdaPv 43
_ZN10cc1_plugin8callbackIyyPKcXadL_Z37plugin_build_dependent_class_templatePNS_10connectionEyS2_EEEENS_6statusES4_ _ZN10cc1_plugin18unmarshall_intlikeEPNS_10connectionEPy 73
_ZN10cc1_plugin8callbackIyyPKcXadL_Z37plugin_build_dependent_class_templatePNS_10connectionEyS2_EEEENS_6statusES4_ _ZN10cc1_plugin10unmarshallEPNS_10connectionEPPc 95
_ZN10cc1_plugin8callbackIyyPKcXadL_Z37plugin_build_dependent_class_templatePNS_10connectionEyS2_EEEENS_6statusES4_ _Z37plugin_build_dependent_class_templatePN10cc1_plugin10connectionEyPKc 114
_ZN10cc1_plugin8callbackIyyPKcXadL_Z37plugin_build_dependent_class_templatePNS_10connectionEyS2_EEEENS_6statusES4_ _ZN10cc1_plugin10connection4sendEc 130
_ZN10cc1_plugin8callbackIyyPKcXadL_Z37plugin_build_dependent_class_templatePNS_10connectionEyS2_EEEENS_6statusES4_ _ZN10cc1_plugin16marshall_intlikeEPNS_10connectionEy 145
_ZN10cc1_plugin8callbackIyyPKcXadL_Z37plugin_build_dependent_class_templatePNS_10connectionEyS2_EEEENS_6statusES4_ _ZdaPv 166
_ZN10cc1_plugin8callbackIyyPKcXadL_Z37plugin_build_dependent_class_templatePNS_10connectionEyS2_EEEENS_6statusES4_ _Unwind_Resume 174
_ZN10cc1_plugin8callbackIyyPK20gcc_cp_template_argsXadL_Z39plugin_build_dependent_type_template_idPNS_10connectionEyS3_EEEENS_6statusES5_ _ZN10cc1_plugin16unmarshall_checkEPNS_10connectionEy 28
_ZN10cc1_plugin8callbackIyyPK20gcc_cp_template_argsXadL_Z39plugin_build_dependent_type_template_idPNS_10connectionEyS3_EEEENS_6statusES5_ _ZN10cc1_plugin18unmarshall_intlikeEPNS_10connectionEPy 52
_ZN10cc1_plugin8callbackIyyPK20gcc_cp_template_argsXadL_Z39plugin_build_dependent_type_template_idPNS_10connectionEyS3_EEEENS_6statusES5_ _ZdaPv 81
_ZN10cc1_plugin8callbackIyyPK20gcc_cp_template_argsXadL_Z39plugin_build_dependent_type_template_idPNS_10connectionEyS3_EEEENS_6statusES5_ _ZdaPv 99
_ZN10cc1_plugin8callbackIyyPK20gcc_cp_template_argsXadL_Z39plugin_build_dependent_type_template_idPNS_10connectionEyS3_EEEENS_6statusES5_ _ZdlPv 111
_ZN10cc1_plugin8callbackIyyPK20gcc_cp_template_argsXadL_Z39plugin_build_dependent_type_template_idPNS_10connectionEyS3_EEEENS_6statusES5_ _ZN10cc1_plugin10unmarshallEPNS_10connectionEPP20gcc_cp_template_args 143
_ZN10cc1_plugin8callbackIyyPK20gcc_cp_template_argsXadL_Z39plugin_build_dependent_type_template_idPNS_10connectionEyS3_EEEENS_6statusES5_ _Z39plugin_build_dependent_type_template_idPN10cc1_plugin10connectionEyPK20gcc_cp_template_args 162
_ZN10cc1_plugin8callbackIyyPK20gcc_cp_template_argsXadL_Z39plugin_build_dependent_type_template_idPNS_10connectionEyS3_EEEENS_6statusES5_ _ZN10cc1_plugin10connection4sendEc 178
_ZN10cc1_plugin8callbackIyyPK20gcc_cp_template_argsXadL_Z39plugin_build_dependent_type_template_idPNS_10connectionEyS3_EEEENS_6statusES5_ _ZN10cc1_plugin16marshall_intlikeEPNS_10connectionEy 215
_ZN10cc1_plugin8callbackIyyPK20gcc_cp_template_argsXadL_Z39plugin_build_dependent_type_template_idPNS_10connectionEyS3_EEEENS_6statusES5_ _ZN10cc1_plugin16argument_wrapperIPK20gcc_cp_template_argsED1Ev 233
_ZN10cc1_plugin8callbackIyyPK20gcc_cp_template_argsXadL_Z39plugin_build_dependent_type_template_idPNS_10connectionEyS3_EEEENS_6statusES5_ _Unwind_Resume 241
_ZN10cc1_plugin8callbackIyyy17gcc_cp_qualifiers21gcc_cp_ref_qualifiersXadL_Z24plugin_build_method_typePNS_10connectionEyyS1_S2_EEEENS_6statusES4_ _ZN10cc1_plugin16unmarshall_checkEPNS_10connectionEy 19
_ZN10cc1_plugin8callbackIyyy17gcc_cp_qualifiers21gcc_cp_ref_qualifiersXadL_Z24plugin_build_method_typePNS_10connectionEyyS1_S2_EEEENS_6statusES4_ _ZN10cc1_plugin18unmarshall_intlikeEPNS_10connectionEPy 57
_ZN10cc1_plugin8callbackIyyy17gcc_cp_qualifiers21gcc_cp_ref_qualifiersXadL_Z24plugin_build_method_typePNS_10connectionEyyS1_S2_EEEENS_6statusES4_ _ZN10cc1_plugin18unmarshall_intlikeEPNS_10connectionEPy 79
_ZN10cc1_plugin8callbackIyyy17gcc_cp_qualifiers21gcc_cp_ref_qualifiersXadL_Z24plugin_build_method_typePNS_10connectionEyyS1_S2_EEEENS_6statusES4_ _ZN10cc1_plugin18unmarshall_intlikeEPNS_10connectionEPy 101
_ZN10cc1_plugin8callbackIyyy17gcc_cp_qualifiers21gcc_cp_ref_qualifiersXadL_Z24plugin_build_method_typePNS_10connectionEyyS1_S2_EEEENS_6statusES4_ _ZN10cc1_plugin18unmarshall_intlikeEPNS_10connectionEPy 123
_ZN10cc1_plugin8callbackIyyy17gcc_cp_qualifiers21gcc_cp_ref_qualifiersXadL_Z24plugin_build_method_typePNS_10connectionEyyS1_S2_EEEENS_6statusES4_ _Z24plugin_build_method_typePN10cc1_plugin10connectionEyy17gcc_cp_qualifiers21gcc_cp_ref_qualifiers 149
_ZN10cc1_plugin8callbackIyyy17gcc_cp_qualifiers21gcc_cp_ref_qualifiersXadL_Z24plugin_build_method_typePNS_10connectionEyyS1_S2_EEEENS_6statusES4_ _ZN10cc1_plugin10connection4sendEc 165
_ZN10cc1_plugin8callbackIyyy17gcc_cp_qualifiers21gcc_cp_ref_qualifiersXadL_Z24plugin_build_method_typePNS_10connectionEyyS1_S2_EEEENS_6statusES4_ _ZN10cc1_plugin16marshall_intlikeEPNS_10connectionEy 184
_ZN10cc1_plugin8callbackIyimPKcXadL_Z19plugin_get_int_typePNS_10connectionEimS2_EEEENS_6statusES4_ _ZN10cc1_plugin16unmarshall_checkEPNS_10connectionEy 25
_ZN10cc1_plugin8callbackIyimPKcXadL_Z19plugin_get_int_typePNS_10connectionEimS2_EEEENS_6statusES4_ _ZdaPv 45
_ZN10cc1_plugin8callbackIyimPKcXadL_Z19plugin_get_int_typePNS_10connectionEimS2_EEEENS_6statusES4_ _ZN10cc1_plugin18unmarshall_intlikeEPNS_10connectionEPy 73
_ZN10cc1_plugin8callbackIyimPKcXadL_Z19plugin_get_int_typePNS_10connectionEimS2_EEEENS_6statusES4_ _ZN10cc1_plugin18unmarshall_intlikeEPNS_10connectionEPy 97
_ZN10cc1_plugin8callbackIyimPKcXadL_Z19plugin_get_int_typePNS_10connectionEimS2_EEEENS_6statusES4_ _ZN10cc1_plugin10unmarshallEPNS_10connectionEPPc 119
_ZN10cc1_plugin8callbackIyimPKcXadL_Z19plugin_get_int_typePNS_10connectionEimS2_EEEENS_6statusES4_ _Z19plugin_get_int_typePN10cc1_plugin10connectionEimPKc 141
_ZN10cc1_plugin8callbackIyimPKcXadL_Z19plugin_get_int_typePNS_10connectionEimS2_EEEENS_6statusES4_ _ZN10cc1_plugin10connection4sendEc 157
_ZN10cc1_plugin8callbackIyimPKcXadL_Z19plugin_get_int_typePNS_10connectionEimS2_EEEENS_6statusES4_ _ZN10cc1_plugin16marshall_intlikeEPNS_10connectionEy 176
_ZN10cc1_plugin8callbackIyimPKcXadL_Z19plugin_get_int_typePNS_10connectionEimS2_EEEENS_6statusES4_ _ZdaPv 200
_ZN10cc1_plugin8callbackIyimPKcXadL_Z19plugin_get_int_typePNS_10connectionEimS2_EEEENS_6statusES4_ _Unwind_Resume 208
_ZN10cc1_plugin8callbackIyyPKcPK20gcc_cp_template_argsXadL_Z31plugin_build_dependent_typenamePNS_10connectionEyS2_S5_EEEENS_6statusES7_ _ZN10cc1_plugin16unmarshall_checkEPNS_10connectionEy 39
_ZN10cc1_plugin8callbackIyyPKcPK20gcc_cp_template_argsXadL_Z31plugin_build_dependent_typenamePNS_10connectionEyS2_S5_EEEENS_6statusES7_ _ZN10cc1_plugin18unmarshall_intlikeEPNS_10connectionEPy 65
_ZN10cc1_plugin8callbackIyyPKcPK20gcc_cp_template_argsXadL_Z31plugin_build_dependent_typenamePNS_10connectionEyS2_S5_EEEENS_6statusES7_ _ZdaPv 95
_ZN10cc1_plugin8callbackIyyPKcPK20gcc_cp_template_argsXadL_Z31plugin_build_dependent_typenamePNS_10connectionEyS2_S5_EEEENS_6statusES7_ _ZdaPv 114
_ZN10cc1_plugin8callbackIyyPKcPK20gcc_cp_template_argsXadL_Z31plugin_build_dependent_typenamePNS_10connectionEyS2_S5_EEEENS_6statusES7_ _ZdlPv 127
_ZN10cc1_plugin8callbackIyyPKcPK20gcc_cp_template_argsXadL_Z31plugin_build_dependent_typenamePNS_10connectionEyS2_S5_EEEENS_6statusES7_ _ZdaPv 141
_ZN10cc1_plugin8callbackIyyPKcPK20gcc_cp_template_argsXadL_Z31plugin_build_dependent_typenamePNS_10connectionEyS2_S5_EEEENS_6statusES7_ _ZN10cc1_plugin10unmarshallEPNS_10connectionEPPc 177
_ZN10cc1_plugin8callbackIyyPKcPK20gcc_cp_template_argsXadL_Z31plugin_build_dependent_typenamePNS_10connectionEyS2_S5_EEEENS_6statusES7_ _ZN10cc1_plugin10unmarshallEPNS_10connectionEPP20gcc_cp_template_args 204
_ZN10cc1_plugin8callbackIyyPKcPK20gcc_cp_template_argsXadL_Z31plugin_build_dependent_typenamePNS_10connectionEyS2_S5_EEEENS_6statusES7_ _Z31plugin_build_dependent_typenamePN10cc1_plugin10connectionEyPKcPK20gcc_cp_template_args 228
_ZN10cc1_plugin8callbackIyyPKcPK20gcc_cp_template_argsXadL_Z31plugin_build_dependent_typenamePNS_10connectionEyS2_S5_EEEENS_6statusES7_ _ZN10cc1_plugin10connection4sendEc 244
_ZN10cc1_plugin8callbackIyyPKcPK20gcc_cp_template_argsXadL_Z31plugin_build_dependent_typenamePNS_10connectionEyS2_S5_EEEENS_6statusES7_ _ZN10cc1_plugin16marshall_intlikeEPNS_10connectionEy 259
_ZN10cc1_plugin8callbackIyyPKcPK20gcc_cp_template_argsXadL_Z31plugin_build_dependent_typenamePNS_10connectionEyS2_S5_EEEENS_6statusES7_ _ZN10cc1_plugin16argument_wrapperIPK20gcc_cp_template_argsED1Ev 277
_ZN10cc1_plugin8callbackIyyPKcPK20gcc_cp_template_argsXadL_Z31plugin_build_dependent_typenamePNS_10connectionEyS2_S5_EEEENS_6statusES7_ _ZdaPv 291
_ZN10cc1_plugin8callbackIyyPKcPK20gcc_cp_template_argsXadL_Z31plugin_build_dependent_typenamePNS_10connectionEyS2_S5_EEEENS_6statusES7_ _Unwind_Resume 299
_ZN10cc1_plugin8callbackIyPKcyXadL_Z28plugin_build_unary_type_exprPNS_10connectionES2_yEEEENS_6statusES4_ _ZN10cc1_plugin16unmarshall_checkEPNS_10connectionEy 23
_ZN10cc1_plugin8callbackIyPKcyXadL_Z28plugin_build_unary_type_exprPNS_10connectionES2_yEEEENS_6statusES4_ _ZdaPv 43
_ZN10cc1_plugin8callbackIyPKcyXadL_Z28plugin_build_unary_type_exprPNS_10connectionES2_yEEEENS_6statusES4_ _ZN10cc1_plugin10unmarshallEPNS_10connectionEPPc 71
_ZN10cc1_plugin8callbackIyPKcyXadL_Z28plugin_build_unary_type_exprPNS_10connectionES2_yEEEENS_6statusES4_ _ZN10cc1_plugin18unmarshall_intlikeEPNS_10connectionEPy 88
_ZN10cc1_plugin8callbackIyPKcyXadL_Z28plugin_build_unary_type_exprPNS_10connectionES2_yEEEENS_6statusES4_ _Z28plugin_build_unary_type_exprPN10cc1_plugin10connectionEPKcy 111
_ZN10cc1_plugin8callbackIyPKcyXadL_Z28plugin_build_unary_type_exprPNS_10connectionES2_yEEEENS_6statusES4_ _ZN10cc1_plugin10connection4sendEc 127
_ZN10cc1_plugin8callbackIyPKcyXadL_Z28plugin_build_unary_type_exprPNS_10connectionES2_yEEEENS_6statusES4_ _ZN10cc1_plugin16marshall_intlikeEPNS_10connectionEy 142
_ZN10cc1_plugin8callbackIyPKcyXadL_Z28plugin_build_unary_type_exprPNS_10connectionES2_yEEEENS_6statusES4_ _ZdaPv 163
_ZN10cc1_plugin8callbackIyPKcyXadL_Z28plugin_build_unary_type_exprPNS_10connectionES2_yEEEENS_6statusES4_ _Unwind_Resume 171
_ZN10cc1_plugin8callbackIyPKcyyyXadL_Z25plugin_build_ternary_exprPNS_10connectionES2_yyyEEEENS_6statusES4_ _ZN10cc1_plugin16unmarshall_checkEPNS_10connectionEy 27
_ZN10cc1_plugin8callbackIyPKcyyyXadL_Z25plugin_build_ternary_exprPNS_10connectionES2_yyyEEEENS_6statusES4_ _ZdaPv 47
_ZN10cc1_plugin8callbackIyPKcyyyXadL_Z25plugin_build_ternary_exprPNS_10connectionES2_yyyEEEENS_6statusES4_ _ZN10cc1_plugin10unmarshallEPNS_10connectionEPPc 71
_ZN10cc1_plugin8callbackIyPKcyyyXadL_Z25plugin_build_ternary_exprPNS_10connectionES2_yyyEEEENS_6statusES4_ _ZN10cc1_plugin18unmarshall_intlikeEPNS_10connectionEPy 88
_ZN10cc1_plugin8callbackIyPKcyyyXadL_Z25plugin_build_ternary_exprPNS_10connectionES2_yyyEEEENS_6statusES4_ _ZN10cc1_plugin18unmarshall_intlikeEPNS_10connectionEPy 112
_ZN10cc1_plugin8callbackIyPKcyyyXadL_Z25plugin_build_ternary_exprPNS_10connectionES2_yyyEEEENS_6statusES4_ _ZN10cc1_plugin18unmarshall_intlikeEPNS_10connectionEPy 136
_ZN10cc1_plugin8callbackIyPKcyyyXadL_Z25plugin_build_ternary_exprPNS_10connectionES2_yyyEEEENS_6statusES4_ _Z25plugin_build_ternary_exprPN10cc1_plugin10connectionEPKcyyy 165
_ZN10cc1_plugin8callbackIyPKcyyyXadL_Z25plugin_build_ternary_exprPNS_10connectionES2_yyyEEEENS_6statusES4_ _ZN10cc1_plugin10connection4sendEc 181
_ZN10cc1_plugin8callbackIyPKcyyyXadL_Z25plugin_build_ternary_exprPNS_10connectionES2_yyyEEEENS_6statusES4_ _ZN10cc1_plugin16marshall_intlikeEPNS_10connectionEy 200
_ZN10cc1_plugin8callbackIyPKcyyyXadL_Z25plugin_build_ternary_exprPNS_10connectionES2_yyyEEEENS_6statusES4_ _ZdaPv 224
_ZN10cc1_plugin8callbackIyPKcyyyXadL_Z25plugin_build_ternary_exprPNS_10connectionES2_yyyEEEENS_6statusES4_ _Unwind_Resume 232
_ZN10cc1_plugin8callbackIyPKcyyXadL_Z22plugin_build_cast_exprPNS_10connectionES2_yyEEEENS_6statusES4_ _ZN10cc1_plugin16unmarshall_checkEPNS_10connectionEy 25
_ZN10cc1_plugin8callbackIyPKcyyXadL_Z22plugin_build_cast_exprPNS_10connectionES2_yyEEEENS_6statusES4_ _ZdaPv 45
_ZN10cc1_plugin8callbackIyPKcyyXadL_Z22plugin_build_cast_exprPNS_10connectionES2_yyEEEENS_6statusES4_ _ZN10cc1_plugin10unmarshallEPNS_10connectionEPPc 71
_ZN10cc1_plugin8callbackIyPKcyyXadL_Z22plugin_build_cast_exprPNS_10connectionES2_yyEEEENS_6statusES4_ _ZN10cc1_plugin18unmarshall_intlikeEPNS_10connectionEPy 88
_ZN10cc1_plugin8callbackIyPKcyyXadL_Z22plugin_build_cast_exprPNS_10connectionES2_yyEEEENS_6statusES4_ _ZN10cc1_plugin18unmarshall_intlikeEPNS_10connectionEPy 112
_ZN10cc1_plugin8callbackIyPKcyyXadL_Z22plugin_build_cast_exprPNS_10connectionES2_yyEEEENS_6statusES4_ _Z22plugin_build_cast_exprPN10cc1_plugin10connectionEPKcyy 138
_ZN10cc1_plugin8callbackIyPKcyyXadL_Z22plugin_build_cast_exprPNS_10connectionES2_yyEEEENS_6statusES4_ _ZN10cc1_plugin10connection4sendEc 154
_ZN10cc1_plugin8callbackIyPKcyyXadL_Z22plugin_build_cast_exprPNS_10connectionES2_yyEEEENS_6statusES4_ _ZN10cc1_plugin16marshall_intlikeEPNS_10connectionEy 173
_ZN10cc1_plugin8callbackIyPKcyyXadL_Z22plugin_build_cast_exprPNS_10connectionES2_yyEEEENS_6statusES4_ _ZdaPv 197
_ZN10cc1_plugin8callbackIyPKcyyXadL_Z22plugin_build_cast_exprPNS_10connectionES2_yyEEEENS_6statusES4_ _Unwind_Resume 205
_ZN10cc1_plugin8callbackIyyyXadL_Z33plugin_build_dependent_array_typePNS_10connectionEyyEEEENS_6statusES2_ _ZN10cc1_plugin16unmarshall_checkEPNS_10connectionEy 15
_ZN10cc1_plugin8callbackIyyyXadL_Z33plugin_build_dependent_array_typePNS_10connectionEyyEEEENS_6statusES2_ _ZN10cc1_plugin18unmarshall_intlikeEPNS_10connectionEPy 41
_ZN10cc1_plugin8callbackIyyyXadL_Z33plugin_build_dependent_array_typePNS_10connectionEyyEEEENS_6statusES2_ _ZN10cc1_plugin18unmarshall_intlikeEPNS_10connectionEPy 63
_ZN10cc1_plugin8callbackIyyyXadL_Z33plugin_build_dependent_array_typePNS_10connectionEyyEEEENS_6statusES2_ _Z33plugin_build_dependent_array_typePN10cc1_plugin10connectionEyy 83
_ZN10cc1_plugin8callbackIyyyXadL_Z33plugin_build_dependent_array_typePNS_10connectionEyyEEEENS_6statusES2_ _ZN10cc1_plugin10connection4sendEc 99
_ZN10cc1_plugin8callbackIyyyXadL_Z33plugin_build_dependent_array_typePNS_10connectionEyyEEEENS_6statusES2_ _ZN10cc1_plugin16marshall_intlikeEPNS_10connectionEy 114
_ZN10cc1_plugin8callbackIyy18gcc_cp_symbol_kindPKcyPK20gcc_cp_template_argsXadL_Z27plugin_build_dependent_exprPNS_10connectionEyS1_S3_yS6_EEEENS_6statusES8_ _ZN10cc1_plugin16unmarshall_checkEPNS_10connectionEy 43
_ZN10cc1_plugin8callbackIyy18gcc_cp_symbol_kindPKcyPK20gcc_cp_template_argsXadL_Z27plugin_build_dependent_exprPNS_10connectionEyS1_S3_yS6_EEEENS_6statusES8_ _ZdaPv 73
_ZN10cc1_plugin8callbackIyy18gcc_cp_symbol_kindPKcyPK20gcc_cp_template_argsXadL_Z27plugin_build_dependent_exprPNS_10connectionEyS1_S3_yS6_EEEENS_6statusES8_ _ZdaPv 92
_ZN10cc1_plugin8callbackIyy18gcc_cp_symbol_kindPKcyPK20gcc_cp_template_argsXadL_Z27plugin_build_dependent_exprPNS_10connectionEyS1_S3_yS6_EEEENS_6statusES8_ _ZdlPv 105
_ZN10cc1_plugin8callbackIyy18gcc_cp_symbol_kindPKcyPK20gcc_cp_template_argsXadL_Z27plugin_build_dependent_exprPNS_10connectionEyS1_S3_yS6_EEEENS_6statusES8_ _ZdaPv 119
_ZN10cc1_plugin8callbackIyy18gcc_cp_symbol_kindPKcyPK20gcc_cp_template_argsXadL_Z27plugin_build_dependent_exprPNS_10connectionEyS1_S3_yS6_EEEENS_6statusES8_ _ZN10cc1_plugin18unmarshall_intlikeEPNS_10connectionEPy 158
_ZN10cc1_plugin8callbackIyy18gcc_cp_symbol_kindPKcyPK20gcc_cp_template_argsXadL_Z27plugin_build_dependent_exprPNS_10connectionEyS1_S3_yS6_EEEENS_6statusES8_ _ZN10cc1_plugin18unmarshall_intlikeEPNS_10connectionEPy 187
_ZN10cc1_plugin8callbackIyy18gcc_cp_symbol_kindPKcyPK20gcc_cp_template_argsXadL_Z27plugin_build_dependent_exprPNS_10connectionEyS1_S3_yS6_EEEENS_6statusES8_ _ZN10cc1_plugin10unmarshallEPNS_10connectionEPPc 218
_ZN10cc1_plugin8callbackIyy18gcc_cp_symbol_kindPKcyPK20gcc_cp_template_argsXadL_Z27plugin_build_dependent_exprPNS_10connectionEyS1_S3_yS6_EEEENS_6statusES8_ _ZN10cc1_plugin18unmarshall_intlikeEPNS_10connectionEPy 244
_ZN10cc1_plugin8callbackIyy18gcc_cp_symbol_kindPKcyPK20gcc_cp_template_argsXadL_Z27plugin_build_dependent_exprPNS_10connectionEyS1_S3_yS6_EEEENS_6statusES8_ _ZN10cc1_plugin10unmarshallEPNS_10connectionEPP20gcc_cp_template_args 275
_ZN10cc1_plugin8callbackIyy18gcc_cp_symbol_kindPKcyPK20gcc_cp_template_argsXadL_Z27plugin_build_dependent_exprPNS_10connectionEyS1_S3_yS6_EEEENS_6statusES8_ _Z27plugin_build_dependent_exprPN10cc1_plugin10connectionEy18gcc_cp_symbol_kindPKcyPK20gcc_cp_template_args 309
_ZN10cc1_plugin8callbackIyy18gcc_cp_symbol_kindPKcyPK20gcc_cp_template_argsXadL_Z27plugin_build_dependent_exprPNS_10connectionEyS1_S3_yS6_EEEENS_6statusES8_ _ZN10cc1_plugin10connection4sendEc 325
_ZN10cc1_plugin8callbackIyy18gcc_cp_symbol_kindPKcyPK20gcc_cp_template_argsXadL_Z27plugin_build_dependent_exprPNS_10connectionEyS1_S3_yS6_EEEENS_6statusES8_ _ZN10cc1_plugin16marshall_intlikeEPNS_10connectionEy 344
_ZN10cc1_plugin8callbackIyy18gcc_cp_symbol_kindPKcyPK20gcc_cp_template_argsXadL_Z27plugin_build_dependent_exprPNS_10connectionEyS1_S3_yS6_EEEENS_6statusES8_ _ZN10cc1_plugin16argument_wrapperIPK20gcc_cp_template_argsED1Ev 362
_ZN10cc1_plugin8callbackIyy18gcc_cp_symbol_kindPKcyPK20gcc_cp_template_argsXadL_Z27plugin_build_dependent_exprPNS_10connectionEyS1_S3_yS6_EEEENS_6statusES8_ _ZdaPv 376
_ZN10cc1_plugin8callbackIyy18gcc_cp_symbol_kindPKcyPK20gcc_cp_template_argsXadL_Z27plugin_build_dependent_exprPNS_10connectionEyS1_S3_yS6_EEEENS_6statusES8_ _Unwind_Resume 384
_ZN21mem_alloc_descriptionI9mem_usageE17mem_location_hash4hashEP12mem_location iterative_hash 26
_ZN21mem_alloc_descriptionI9mem_usageE17mem_location_hash4hashEP12mem_location iterative_hash 52
_ZNSs4_Rep10_M_disposeERKSaIcE.part.0 __pthread_key_create 1
_ZNSs4_Rep10_M_disposeERKSaIcE.part.0 _ZNSs4_Rep10_M_destroyERKSaIcE 46
_Z13find_compilerRK17re_pattern_bufferPSs getenv 22
_Z13find_compilerRK17re_pattern_bufferPSs _ZNSsC1EPKcRKSaIcE 51
_Z13find_compilerRK17re_pattern_bufferPSs _ZNKSs4findEcm 78
_Z13find_compilerRK17re_pattern_bufferPSs _ZNSs4_Rep20_S_empty_rep_storageE 90
_Z13find_compilerRK17re_pattern_bufferPSs _ZNSsC1ERKSsmm 147
_Z13find_compilerRK17re_pattern_bufferPSs _ZNSs6assignERKSs 160
_Z13find_compilerRK17re_pattern_bufferPSs _ZNSs4_Rep20_S_empty_rep_storageE 176
_Z13find_compilerRK17re_pattern_bufferPSs _ZNKSs7compareEPKc 195
_Z13find_compilerRK17re_pattern_bufferPSs opendir 212
_Z13find_compilerRK17re_pattern_bufferPSs xregexec 250
_Z13find_compilerRK17re_pattern_bufferPSs readdir 262
_Z13find_compilerRK17re_pattern_bufferPSs closedir 277
_Z13find_compilerRK17re_pattern_bufferPSs _ZNSs4_Rep20_S_empty_rep_storageE 300
_Z13find_compilerRK17re_pattern_bufferPSs _ZNSs4_Rep20_S_empty_rep_storageE 339
_Z13find_compilerRK17re_pattern_bufferPSs _ZNSsC1ERKSs 377
_Z13find_compilerRK17re_pattern_bufferPSs _ZNSs6appendEmc 397
_Z13find_compilerRK17re_pattern_bufferPSs _ZNSsC1ERKSs 412
_Z13find_compilerRK17re_pattern_bufferPSs strlen 420
_Z13find_compilerRK17re_pattern_bufferPSs _ZNSs6appendEPKcm 436
_Z13find_compilerRK17re_pattern_bufferPSs _ZNSs6assignERKSs 449
_Z13find_compilerRK17re_pattern_bufferPSs _ZNSs4_Rep20_S_empty_rep_storageE 465
_Z13find_compilerRK17re_pattern_bufferPSs _ZNSs4_Rep20_S_empty_rep_storageE 487
_Z13find_compilerRK17re_pattern_bufferPSs _ZNSs6assignEPKcm 526
_Z13find_compilerRK17re_pattern_bufferPSs _ZNSsC1ERKSsmm 584
_Z13find_compilerRK17re_pattern_bufferPSs _ZNSs6assignERKSs 597
_Z13find_compilerRK17re_pattern_bufferPSs _ZNSs4_Rep20_S_empty_rep_storageE 613
_Z13find_compilerRK17re_pattern_bufferPSs __pthread_key_create 624
_Z13find_compilerRK17re_pattern_bufferPSs _ZNSs4_Rep10_M_destroyERKSaIcE 664
_Z13find_compilerRK17re_pattern_bufferPSs __pthread_key_create 681
_Z13find_compilerRK17re_pattern_bufferPSs _ZNSs4_Rep10_M_destroyERKSaIcE 720
_Z13find_compilerRK17re_pattern_bufferPSs __pthread_key_create 730
_Z13find_compilerRK17re_pattern_bufferPSs _ZNSs4_Rep10_M_destroyERKSaIcE 769
_Z13find_compilerRK17re_pattern_bufferPSs __pthread_key_create 779
_Z13find_compilerRK17re_pattern_bufferPSs _ZNSs4_Rep10_M_destroyERKSaIcE 818
_Z13find_compilerRK17re_pattern_bufferPSs __pthread_key_create 828
_Z13find_compilerRK17re_pattern_bufferPSs _ZNSs4_Rep10_M_destroyERKSaIcE 867
_Z13find_compilerRK17re_pattern_bufferPSs _ZNSs4_Rep20_S_empty_rep_storageE 919
_Z13find_compilerRK17re_pattern_bufferPSs __pthread_key_create 930
_Z13find_compilerRK17re_pattern_bufferPSs _ZNSs4_Rep10_M_destroyERKSaIcE 970
_Z13find_compilerRK17re_pattern_bufferPSs __pthread_key_create 1032
_Z13find_compilerRK17re_pattern_bufferPSs _ZNSs4_Rep10_M_destroyERKSaIcE 1067
_Z13find_compilerRK17re_pattern_bufferPSs _ZNSs4_Rep20_S_empty_rep_storageE 1121
_Z13find_compilerRK17re_pattern_bufferPSs _ZNSs4_Rep20_S_empty_rep_storageE 1149
_Z13find_compilerRK17re_pattern_bufferPSs _Unwind_Resume 1167
_Z13find_compilerRK17re_pattern_bufferPSs _ZSt24__throw_out_of_range_fmtPKcz 1190
_Z13find_compilerRK17re_pattern_bufferPSs closedir 1201
_Z13find_compilerRK17re_pattern_bufferPSs _ZNSs4_Rep20_S_empty_rep_storageE 1216
_Z13find_compilerRK17re_pattern_bufferPSs _ZNSs4_Rep20_S_empty_rep_storageE 1259
_Z13find_compilerRK17re_pattern_bufferPSs _ZNSs4_Rep20_S_empty_rep_storageE 1299
_Z13find_compilerRK17re_pattern_bufferPSs _ZNSs4_Rep20_S_empty_rep_storageE 1327
_Z13find_compilerRK17re_pattern_bufferPSs _ZNSs4_Rep20_S_empty_rep_storageE 1372
_Z13find_compilerRK17re_pattern_bufferPSs _ZNSs4_Rep20_S_empty_rep_storageE 1399
_Z13find_compilerRK17re_pattern_bufferPSs _ZSt24__throw_out_of_range_fmtPKcz 1440
_ZNK6libcc18compiler4findERSs xstrdup 6
_ZNK6libcc124compiler_driver_filename4findERSs stderr 29
_ZNK6libcc124compiler_driver_filename4findERSs fprintf 41
_ZNK6libcc124compiler_driver_filename4findERSs _ZNSs6assignERKSs 53
_ZN10cc1_plugin8callbackIi20gcc_c_oracle_requestPKcXadL_ZN12_GLOBAL__N_121c_call_binding_oracleEPNS_10connectionES1_S3_EEEENS_6statusES6_ _ZN10cc1_plugin16unmarshall_checkEPNS_10connectionEy 23
_ZN10cc1_plugin8callbackIi20gcc_c_oracle_requestPKcXadL_ZN12_GLOBAL__N_121c_call_binding_oracleEPNS_10connectionES1_S3_EEEENS_6statusES6_ _ZdaPv 43
_ZN10cc1_plugin8callbackIi20gcc_c_oracle_requestPKcXadL_ZN12_GLOBAL__N_121c_call_binding_oracleEPNS_10connectionES1_S3_EEEENS_6statusES6_ _ZN10cc1_plugin18unmarshall_intlikeEPNS_10connectionEPy 73
_ZN10cc1_plugin8callbackIi20gcc_c_oracle_requestPKcXadL_ZN12_GLOBAL__N_121c_call_binding_oracleEPNS_10connectionES1_S3_EEEENS_6statusES6_ _ZN10cc1_plugin10unmarshallEPNS_10connectionEPPc 95
_ZN10cc1_plugin8callbackIi20gcc_c_oracle_requestPKcXadL_ZN12_GLOBAL__N_121c_call_binding_oracleEPNS_10connectionES1_S3_EEEENS_6statusES6_ _ZN10cc1_plugin10connection4sendEc 132
_ZN10cc1_plugin8callbackIi20gcc_c_oracle_requestPKcXadL_ZN12_GLOBAL__N_121c_call_binding_oracleEPNS_10connectionES1_S3_EEEENS_6statusES6_ _ZN10cc1_plugin16marshall_intlikeEPNS_10connectionEy 149
_ZN10cc1_plugin8callbackIi20gcc_c_oracle_requestPKcXadL_ZN12_GLOBAL__N_121c_call_binding_oracleEPNS_10connectionES1_S3_EEEENS_6statusES6_ _ZdaPv 170
_ZN10cc1_plugin8callbackIi20gcc_c_oracle_requestPKcXadL_ZN12_GLOBAL__N_121c_call_binding_oracleEPNS_10connectionES1_S3_EEEENS_6statusES6_ _Unwind_Resume 178
_ZN10cc1_plugin8callbackIyPKcXadL_ZN12_GLOBAL__N_121c_call_symbol_addressEPNS_10connectionES2_EEEENS_6statusES5_ _ZN10cc1_plugin16unmarshall_checkEPNS_10connectionEy 23
_ZN10cc1_plugin8callbackIyPKcXadL_ZN12_GLOBAL__N_121c_call_symbol_addressEPNS_10connectionES2_EEEENS_6statusES5_ _ZdaPv 43
_ZN10cc1_plugin8callbackIyPKcXadL_ZN12_GLOBAL__N_121c_call_symbol_addressEPNS_10connectionES2_EEEENS_6statusES5_ _ZN10cc1_plugin10unmarshallEPNS_10connectionEPPc 71
_ZN10cc1_plugin8callbackIyPKcXadL_ZN12_GLOBAL__N_121c_call_symbol_addressEPNS_10connectionES2_EEEENS_6statusES5_ _ZN10cc1_plugin10connection4sendEc 109
_ZN10cc1_plugin8callbackIyPKcXadL_ZN12_GLOBAL__N_121c_call_symbol_addressEPNS_10connectionES2_EEEENS_6statusES5_ _ZN10cc1_plugin16marshall_intlikeEPNS_10connectionEy 124
_ZN10cc1_plugin8callbackIyPKcXadL_ZN12_GLOBAL__N_121c_call_symbol_addressEPNS_10connectionES2_EEEENS_6statusES5_ _ZdaPv 145
_ZN10cc1_plugin8callbackIyPKcXadL_ZN12_GLOBAL__N_121c_call_symbol_addressEPNS_10connectionES2_EEEENS_6statusES5_ _Unwind_Resume 153
_ZL22libcc1_set_source_fileP16gcc_base_contextPKc strlen 16
_ZL22libcc1_set_source_fileP16gcc_base_contextPKc _ZNSs6assignEPKcm 37
_ZL25libcc1_set_triplet_regexpP16gcc_base_contextPKc _ZNSsC1EPKcRKSaIcE 45
_ZL25libcc1_set_triplet_regexpP16gcc_base_contextPKc _Znwm 55
_ZL25libcc1_set_triplet_regexpP16gcc_base_contextPKc _ZTVN6libcc123compiler_triplet_regexpE 75
_ZL25libcc1_set_triplet_regexpP16gcc_base_contextPKc _ZNSsC1ERKSs 83
_ZL25libcc1_set_triplet_regexpP16gcc_base_contextPKc _ZNSs4_Rep20_S_empty_rep_storageE 103
_ZL25libcc1_set_triplet_regexpP16gcc_base_contextPKc __pthread_key_create 129
_ZL25libcc1_set_triplet_regexpP16gcc_base_contextPKc _ZNSs4_Rep10_M_destroyERKSaIcE 160
_ZL25libcc1_set_triplet_regexpP16gcc_base_contextPKc _ZdlPv 199
_ZL25libcc1_set_triplet_regexpP16gcc_base_contextPKc _ZNSs4_Rep20_S_empty_rep_storageE 215
_ZL25libcc1_set_triplet_regexpP16gcc_base_contextPKc _Unwind_Resume 235
_ZL26libcc1_set_driver_filenameP16gcc_base_contextPKc _ZNSsC1EPKcRKSaIcE 45
_ZL26libcc1_set_driver_filenameP16gcc_base_contextPKc _Znwm 55
_ZL26libcc1_set_driver_filenameP16gcc_base_contextPKc _ZTVN6libcc124compiler_driver_filenameE 75
_ZL26libcc1_set_driver_filenameP16gcc_base_contextPKc _ZNSsC1ERKSs 83
_ZL26libcc1_set_driver_filenameP16gcc_base_contextPKc _ZNSs4_Rep20_S_empty_rep_storageE 103
_ZL26libcc1_set_driver_filenameP16gcc_base_contextPKc __pthread_key_create 129
_ZL26libcc1_set_driver_filenameP16gcc_base_contextPKc _ZNSs4_Rep10_M_destroyERKSaIcE 160
_ZL26libcc1_set_driver_filenameP16gcc_base_contextPKc _ZdlPv 199
_ZL26libcc1_set_driver_filenameP16gcc_base_contextPKc _ZNSs4_Rep20_S_empty_rep_storageE 215
_ZL26libcc1_set_driver_filenameP16gcc_base_contextPKc _Unwind_Resume 235
_ZN6libcc1C1EPK15gcc_base_vtablePK15gcc_c_fe_vtable,_ZN6libcc1C2EPK15gcc_base_vtablePK15gcc_c_fe_vtable _ZNSs4_Rep20_S_empty_rep_storageE 93
_ZN6libcc1C1EPK15gcc_base_vtablePK15gcc_c_fe_vtable,_ZN6libcc1C2EPK15gcc_base_vtablePK15gcc_c_fe_vtable _Znwm 107
_ZN6libcc1C1EPK15gcc_base_vtablePK15gcc_c_fe_vtable,_ZN6libcc1C2EPK15gcc_base_vtablePK15gcc_c_fe_vtable _ZTVN6libcc18compilerE 114
_ZN6libcc1C1EPK15gcc_base_vtablePK15gcc_c_fe_vtable,_ZN6libcc1C2EPK15gcc_base_vtablePK15gcc_c_fe_vtable _ZNSs4_Rep20_S_empty_rep_storageE 156
_ZN6libcc1C1EPK15gcc_base_vtablePK15gcc_c_fe_vtable,_ZN6libcc1C2EPK15gcc_base_vtablePK15gcc_c_fe_vtable _ZNSt6vectorISsSaISsEED1Ev 177
_ZN6libcc1C1EPK15gcc_base_vtablePK15gcc_c_fe_vtable,_ZN6libcc1C2EPK15gcc_base_vtablePK15gcc_c_fe_vtable _Unwind_Resume 185
gcc_c_fe_context _Znwm 22
gcc_c_fe_context _ZN6libcc1C2EPK15gcc_base_vtablePK15gcc_c_fe_vtable 43
gcc_c_fe_context _ZdlPv 74
gcc_c_fe_context _Unwind_Resume 82
_ZN6libcc1D1Ev,_ZN6libcc1D2Ev _ZNSs4_Rep20_S_empty_rep_storageE 54
_ZN6libcc1D1Ev,_ZN6libcc1D2Ev _ZNSs4_Rep20_S_empty_rep_storageE 107
_ZN6libcc1D1Ev,_ZN6libcc1D2Ev __pthread_key_create 114
_ZN6libcc1D1Ev,_ZN6libcc1D2Ev _ZNSs4_Rep10_M_destroyERKSaIcE 149
_ZN6libcc1D1Ev,_ZN6libcc1D2Ev _ZdlPv 174
_ZN6libcc1D1Ev,_ZN6libcc1D2Ev __pthread_key_create 206
_ZN6libcc1D1Ev,_ZN6libcc1D2Ev _ZNSs4_Rep10_M_destroyERKSaIcE 241
_ZN6libcc1D1Ev,_ZN6libcc1D2Ev _ZNSs4_Rep20_S_empty_rep_storageE 278
_ZN6libcc1D1Ev,_ZN6libcc1D2Ev _ZNSt6vectorISsSaISsEED1Ev 300
_ZN6libcc1D1Ev,_ZN6libcc1D2Ev _Unwind_Resume 308
_ZL14libcc1_destroyP16gcc_base_context _ZN6libcc1D2Ev 10
_ZL14libcc1_destroyP16gcc_base_context _ZdlPv 19
_ZL20libcc1_set_argumentsP16gcc_base_contextiPPc _ZNSs4_Rep20_S_empty_rep_storageE 28
_ZL20libcc1_set_argumentsP16gcc_base_contextiPPc _ZNSs4_Rep20_S_empty_rep_storageE 59
_ZL20libcc1_set_argumentsP16gcc_base_contextiPPc __pthread_key_create 81
_ZL20libcc1_set_argumentsP16gcc_base_contextiPPc _ZNSs4_Rep10_M_destroyERKSaIcE 121
_ZL20libcc1_set_argumentsP16gcc_base_contextiPPc _ZNSsC1ERKSs 165
_ZL20libcc1_set_argumentsP16gcc_base_contextiPPc _ZNSsC1EPKcRKSaIcE 236
_ZL20libcc1_set_argumentsP16gcc_base_contextiPPc _ZNSsC1ERKSs 261
_ZL20libcc1_set_argumentsP16gcc_base_contextiPPc _ZNSs4_Rep20_S_empty_rep_storageE 289
_ZL20libcc1_set_argumentsP16gcc_base_contextiPPc __pthread_key_create 296
_ZL20libcc1_set_argumentsP16gcc_base_contextiPPc _ZNSs4_Rep10_M_destroyERKSaIcE 327
_ZL20libcc1_set_argumentsP16gcc_base_contextiPPc _ZNSt6vectorISsSaISsEE13_M_insert_auxEN9__gnu_cxx17__normal_iteratorIPSsS1_EERKSs 348
_ZL20libcc1_set_argumentsP16gcc_base_contextiPPc _ZNSt6vectorISsSaISsEE13_M_insert_auxEN9__gnu_cxx17__normal_iteratorIPSsS1_EERKSs 412
_ZL20libcc1_set_argumentsP16gcc_base_contextiPPc _ZNSs4_Rep20_S_empty_rep_storageE 436
_ZL20libcc1_set_argumentsP16gcc_base_contextiPPc _Unwind_Resume 456
_ZL20libcc1_set_argumentsP16gcc_base_contextiPPc _ZNSs4_Rep20_S_empty_rep_storageE 475
_ZL14libcc1_compileP16gcc_base_contextPKc socketpair 37
_ZL14libcc1_compileP16gcc_base_contextPKc pipe 55
_ZL14libcc1_compileP16gcc_base_contextPKc _ZNSsC1EPKcRKSaIcE 89
_ZL14libcc1_compileP16gcc_base_contextPKc _ZNSsC1ERKSs 118
_ZL14libcc1_compileP16gcc_base_contextPKc _ZNSs4_Rep20_S_empty_rep_storageE 146
_ZL14libcc1_compileP16gcc_base_contextPKc snprintf 178
_ZL14libcc1_compileP16gcc_base_contextPKc _ZNSsC1EPKcRKSaIcE 207
_ZL14libcc1_compileP16gcc_base_contextPKc _ZNSsC1ERKSs 236
_ZL14libcc1_compileP16gcc_base_contextPKc _ZNSs4_Rep20_S_empty_rep_storageE 264
_ZL14libcc1_compileP16gcc_base_contextPKc _ZNSsC1ERKSs 298
_ZL14libcc1_compileP16gcc_base_contextPKc _ZNSsC1EPKcRKSaIcE 330
_ZL14libcc1_compileP16gcc_base_contextPKc _ZNSsC1ERKSs 359
_ZL14libcc1_compileP16gcc_base_contextPKc _ZNSs4_Rep20_S_empty_rep_storageE 387
_ZL14libcc1_compileP16gcc_base_contextPKc _ZNSsC1EPKcRKSaIcE 413
_ZL14libcc1_compileP16gcc_base_contextPKc _ZNSsC1ERKSs 442
_ZL14libcc1_compileP16gcc_base_contextPKc _ZNSs4_Rep20_S_empty_rep_storageE 470
_ZL14libcc1_compileP16gcc_base_contextPKc _ZNSsC1EPKcRKSaIcE 494
_ZL14libcc1_compileP16gcc_base_contextPKc _ZNSsC1ERKSs 523
_ZL14libcc1_compileP16gcc_base_contextPKc _ZNSs4_Rep20_S_empty_rep_storageE 551
_ZL14libcc1_compileP16gcc_base_contextPKc _ZNSsC1EPKcRKSaIcE 583
_ZL14libcc1_compileP16gcc_base_contextPKc _ZNSsC1ERKSs 612
_ZL14libcc1_compileP16gcc_base_contextPKc _ZNSs4_Rep20_S_empty_rep_storageE 640
_ZL14libcc1_compileP16gcc_base_contextPKc _Znwm 656
_ZL14libcc1_compileP16gcc_base_contextPKc _ZTVN10cc1_plugin10connectionE 680
_ZL14libcc1_compileP16gcc_base_contextPKc _ZN10cc1_plugin9callbacksC1Ev 698
_ZL14libcc1_compileP16gcc_base_contextPKc _ZTV17libcc1_connection 706
_ZL14libcc1_compileP16gcc_base_contextPKc _ZN10cc1_plugin9callbacks12add_callbackEPKcPFNS_6statusEPNS_10connectionEE 733
_ZL14libcc1_compileP16gcc_base_contextPKc _ZN10cc1_plugin9callbacks12add_callbackEPKcPFNS_6statusEPNS_10connectionEE 756
_ZL14libcc1_compileP16gcc_base_contextPKc _ZSt7nothrow 786
_ZL14libcc1_compileP16gcc_base_contextPKc _ZnamRKSt9nothrow_t 814
_ZL14libcc1_compileP16gcc_base_contextPKc fork 912
_ZL14libcc1_compileP16gcc_base_contextPKc close 941
_ZL14libcc1_compileP16gcc_base_contextPKc close 950
_ZL14libcc1_compileP16gcc_base_contextPKc _ZN10cc1_plugin10connection4sendEc 964
_ZL14libcc1_compileP16gcc_base_contextPKc close 983
_ZL14libcc1_compileP16gcc_base_contextPKc close 992
_ZL14libcc1_compileP16gcc_base_contextPKc waitpid 1007
_ZL14libcc1_compileP16gcc_base_contextPKc close 1075
_ZL14libcc1_compileP16gcc_base_contextPKc close 1084
_ZL14libcc1_compileP16gcc_base_contextPKc _ZN10cc1_plugin16marshall_intlikeEPNS_10connectionEy 1146
_ZL14libcc1_compileP16gcc_base_contextPKc _ZN10cc1_plugin10connection7do_waitEb 1165
_ZL14libcc1_compileP16gcc_base_contextPKc __errno_location 1185
_ZL14libcc1_compileP16gcc_base_contextPKc __pthread_key_create 1200
_ZL14libcc1_compileP16gcc_base_contextPKc _ZNSs4_Rep10_M_destroyERKSaIcE 1239
_ZL14libcc1_compileP16gcc_base_contextPKc __pthread_key_create 1249
_ZL14libcc1_compileP16gcc_base_contextPKc _ZNSs4_Rep10_M_destroyERKSaIcE 1288
_ZL14libcc1_compileP16gcc_base_contextPKc __pthread_key_create 1305
_ZL14libcc1_compileP16gcc_base_contextPKc _ZNSs4_Rep10_M_destroyERKSaIcE 1344
_ZL14libcc1_compileP16gcc_base_contextPKc __pthread_key_create 1361
_ZL14libcc1_compileP16gcc_base_contextPKc _ZNSs4_Rep10_M_destroyERKSaIcE 1400
_ZL14libcc1_compileP16gcc_base_contextPKc __pthread_key_create 1417
_ZL14libcc1_compileP16gcc_base_contextPKc _ZNSs4_Rep10_M_destroyERKSaIcE 1456
_ZL14libcc1_compileP16gcc_base_contextPKc __pthread_key_create 1473
_ZL14libcc1_compileP16gcc_base_contextPKc _ZNSs4_Rep10_M_destroyERKSaIcE 1512
_ZL14libcc1_compileP16gcc_base_contextPKc close 1526
_ZL14libcc1_compileP16gcc_base_contextPKc close 1535
_ZL14libcc1_compileP16gcc_base_contextPKc close 1544
_ZL14libcc1_compileP16gcc_base_contextPKc close 1553
_ZL14libcc1_compileP16gcc_base_contextPKc _ZNSt6vectorISsSaISsEE13_M_insert_auxEN9__gnu_cxx17__normal_iteratorIPSsS1_EERKSs 1581
_ZL14libcc1_compileP16gcc_base_contextPKc _ZNSt6vectorISsSaISsEE13_M_insert_auxEN9__gnu_cxx17__normal_iteratorIPSsS1_EERKSs 1600
_ZL14libcc1_compileP16gcc_base_contextPKc _ZNSt6vectorISsSaISsEE13_M_insert_auxEN9__gnu_cxx17__normal_iteratorIPSsS1_EERKSs 1621
_ZL14libcc1_compileP16gcc_base_contextPKc _ZNSt6vectorISsSaISsEE13_M_insert_auxEN9__gnu_cxx17__normal_iteratorIPSsS1_EERKSs 1642
_ZL14libcc1_compileP16gcc_base_contextPKc _ZNSt6vectorISsSaISsEE13_M_insert_auxEN9__gnu_cxx17__normal_iteratorIPSsS1_EERKSs 1663
_ZL14libcc1_compileP16gcc_base_contextPKc _ZNSt6vectorISsSaISsEE13_M_insert_auxEN9__gnu_cxx17__normal_iteratorIPSsS1_EERKSs 1684
_ZL14libcc1_compileP16gcc_base_contextPKc _ZNSt6vectorISsSaISsEE13_M_insert_auxEN9__gnu_cxx17__normal_iteratorIPSsS1_EERKSs 1705
_ZL14libcc1_compileP16gcc_base_contextPKc _ZdlPv 1817
_ZL14libcc1_compileP16gcc_base_contextPKc _Unwind_Resume 1825
_ZL14libcc1_compileP16gcc_base_contextPKc dup2 1839
_ZL14libcc1_compileP16gcc_base_contextPKc dup2 1853
_ZL14libcc1_compileP16gcc_base_contextPKc close 1862
_ZL14libcc1_compileP16gcc_base_contextPKc close 1871
_ZL14libcc1_compileP16gcc_base_contextPKc close 1880
_ZL14libcc1_compileP16gcc_base_contextPKc execvp 1892
_ZL14libcc1_compileP16gcc_base_contextPKc _exit 1902
_ZL14libcc1_compileP16gcc_base_contextPKc _ZNSs4_Rep20_S_empty_rep_storageE 1921
_ZL14libcc1_compileP16gcc_base_contextPKc abort 1948
_ZL14libcc1_compileP16gcc_base_contextPKc _ZNSs4_Rep20_S_empty_rep_storageE 1967
_ZNK6libcc123compiler_triplet_regexp4findERSs _ZNSt8ios_baseC2Ev 46
_ZNK6libcc123compiler_triplet_regexp4findERSs _ZTTSt18basic_stringstreamIcSt11char_traitsIcESaIcEE 53
_ZNK6libcc123compiler_triplet_regexp4findERSs _ZTTSt18basic_stringstreamIcSt11char_traitsIcESaIcEE 71
_ZNK6libcc123compiler_triplet_regexp4findERSs _ZTVSt9basic_iosIcSt11char_traitsIcEE 82
_ZNK6libcc123compiler_triplet_regexp4findERSs _ZNSt9basic_iosIcSt11char_traitsIcEE4initEPSt15basic_streambufIcS1_E 167
_ZNK6libcc123compiler_triplet_regexp4findERSs _ZTTSt18basic_stringstreamIcSt11char_traitsIcESaIcEE 174
_ZNK6libcc123compiler_triplet_regexp4findERSs _ZTTSt18basic_stringstreamIcSt11char_traitsIcESaIcEE 202
_ZNK6libcc123compiler_triplet_regexp4findERSs _ZNSt9basic_iosIcSt11char_traitsIcEE4initEPSt15basic_streambufIcS1_E 210
_ZNK6libcc123compiler_triplet_regexp4findERSs _ZTTSt18basic_stringstreamIcSt11char_traitsIcESaIcEE 217
_ZNK6libcc123compiler_triplet_regexp4findERSs _ZTTSt18basic_stringstreamIcSt11char_traitsIcESaIcEE 224
_ZNK6libcc123compiler_triplet_regexp4findERSs _ZTVSt18basic_stringstreamIcSt11char_traitsIcESaIcEE 254
_ZNK6libcc123compiler_triplet_regexp4findERSs _ZTVSt18basic_stringstreamIcSt11char_traitsIcESaIcEE 265
_ZNK6libcc123compiler_triplet_regexp4findERSs _ZTVSt18basic_stringstreamIcSt11char_traitsIcESaIcEE 276
_ZNK6libcc123compiler_triplet_regexp4findERSs _ZTVSt15basic_streambufIcSt11char_traitsIcEE 291
_ZNK6libcc123compiler_triplet_regexp4findERSs _ZNSt6localeC1Ev 362
_ZNK6libcc123compiler_triplet_regexp4findERSs _ZTVSt15basic_stringbufIcSt11char_traitsIcESaIcEE 380
_ZNK6libcc123compiler_triplet_regexp4findERSs _ZNSs4_Rep20_S_empty_rep_storageE 401
_ZNK6libcc123compiler_triplet_regexp4findERSs _ZNSt9basic_iosIcSt11char_traitsIcEE4initEPSt15basic_streambufIcS1_E 414
_ZNK6libcc123compiler_triplet_regexp4findERSs _ZSt16__ostream_insertIcSt11char_traitsIcEERSt13basic_ostreamIT_T0_ES6_PKS3_l 440
_ZNK6libcc123compiler_triplet_regexp4findERSs strlen 457
_ZNK6libcc123compiler_triplet_regexp4findERSs _ZSt16__ostream_insertIcSt11char_traitsIcEERSt13basic_ostreamIT_T0_ES6_PKS3_l 479
_ZNK6libcc123compiler_triplet_regexp4findERSs _ZSt16__ostream_insertIcSt11char_traitsIcEERSt13basic_ostreamIT_T0_ES6_PKS3_l 505
_ZNK6libcc123compiler_triplet_regexp4findERSs _ZSt16__ostream_insertIcSt11char_traitsIcEERSt13basic_ostreamIT_T0_ES6_PKS3_l 558
_ZNK6libcc123compiler_triplet_regexp4findERSs _ZSt16__ostream_insertIcSt11char_traitsIcEERSt13basic_ostreamIT_T0_ES6_PKS3_l 615
_ZNK6libcc123compiler_triplet_regexp4findERSs _ZSt16__ostream_insertIcSt11char_traitsIcEERSt13basic_ostreamIT_T0_ES6_PKS3_l 646
_ZNK6libcc123compiler_triplet_regexp4findERSs _ZNSs4_Rep20_S_empty_rep_storageE 664
_ZNK6libcc123compiler_triplet_regexp4findERSs _ZNSs12_S_constructIPcEES0_T_S1_RKSaIcESt20forward_iterator_tag 714
_ZNK6libcc123compiler_triplet_regexp4findERSs _ZNSs6assignERKSs 742
_ZNK6libcc123compiler_triplet_regexp4findERSs _ZNSs4_Rep20_S_empty_rep_storageE 760
_ZNK6libcc123compiler_triplet_regexp4findERSs _ZTVSt18basic_stringstreamIcSt11char_traitsIcESaIcEE 784
_ZNK6libcc123compiler_triplet_regexp4findERSs _ZTVSt18basic_stringstreamIcSt11char_traitsIcESaIcEE 795
_ZNK6libcc123compiler_triplet_regexp4findERSs _ZTVSt18basic_stringstreamIcSt11char_traitsIcESaIcEE 806
_ZNK6libcc123compiler_triplet_regexp4findERSs _ZTVSt15basic_stringbufIcSt11char_traitsIcESaIcEE 817
_ZNK6libcc123compiler_triplet_regexp4findERSs _ZNSs4_Rep20_S_empty_rep_storageE 828
_ZNK6libcc123compiler_triplet_regexp4findERSs _ZTVSt15basic_streambufIcSt11char_traitsIcEE 852
_ZNK6libcc123compiler_triplet_regexp4findERSs _ZNSt6localeD1Ev 861
_ZNK6libcc123compiler_triplet_regexp4findERSs _ZTTSt18basic_stringstreamIcSt11char_traitsIcESaIcEE 868
_ZNK6libcc123compiler_triplet_regexp4findERSs _ZTTSt18basic_stringstreamIcSt11char_traitsIcESaIcEE 875
_ZNK6libcc123compiler_triplet_regexp4findERSs _ZTTSt18basic_stringstreamIcSt11char_traitsIcESaIcEE 894
_ZNK6libcc123compiler_triplet_regexp4findERSs _ZTTSt18basic_stringstreamIcSt11char_traitsIcESaIcEE 901
_ZNK6libcc123compiler_triplet_regexp4findERSs _ZTTSt18basic_stringstreamIcSt11char_traitsIcESaIcEE 931
_ZNK6libcc123compiler_triplet_regexp4findERSs _ZTVSt9basic_iosIcSt11char_traitsIcEE 964
_ZNK6libcc123compiler_triplet_regexp4findERSs _ZNSt8ios_baseD2Ev 973
_ZNK6libcc123compiler_triplet_regexp4findERSs stderr 997
_ZNK6libcc123compiler_triplet_regexp4findERSs fprintf 1009
_ZNK6libcc123compiler_triplet_regexp4findERSs xregcomp 1033
_ZNK6libcc123compiler_triplet_regexp4findERSs xregerror 1064
_ZNK6libcc123compiler_triplet_regexp4findERSs xregerror 1095
_ZNK6libcc123compiler_triplet_regexp4findERSs concat 1125
_ZNK6libcc123compiler_triplet_regexp4findERSs _ZNSs4_Rep20_S_empty_rep_storageE 1146
_ZNK6libcc123compiler_triplet_regexp4findERSs _ZNSs12_S_constructIPcEES0_T_S1_RKSaIcESt20forward_iterator_tag 1200
_ZNK6libcc123compiler_triplet_regexp4findERSs _ZNSs6assignERKSs 1228
_ZNK6libcc123compiler_triplet_regexp4findERSs _Z13find_compilerRK17re_pattern_bufferPSs 1255
_ZNK6libcc123compiler_triplet_regexp4findERSs xregfree 1271
_ZNK6libcc123compiler_triplet_regexp4findERSs concat 1297
_ZNK6libcc123compiler_triplet_regexp4findERSs xregfree 1307
_ZNK6libcc123compiler_triplet_regexp4findERSs stderr 1331
_ZNK6libcc123compiler_triplet_regexp4findERSs fprintf 1346
_ZNK6libcc123compiler_triplet_regexp4findERSs __pthread_key_create 1358
_ZNK6libcc123compiler_triplet_regexp4findERSs _ZNSs4_Rep10_M_destroyERKSaIcE 1406
_ZNK6libcc123compiler_triplet_regexp4findERSs __pthread_key_create 1423
_ZNK6libcc123compiler_triplet_regexp4findERSs _ZNSs4_Rep10_M_destroyERKSaIcE 1464
_ZNK6libcc123compiler_triplet_regexp4findERSs _ZNSt9basic_iosIcSt11char_traitsIcEE5clearESt12_Ios_Iostate 1499
_ZNK6libcc123compiler_triplet_regexp4findERSs __pthread_key_create 1509
_ZNK6libcc123compiler_triplet_regexp4findERSs _ZNSs4_Rep10_M_destroyERKSaIcE 1546
_ZNK6libcc123compiler_triplet_regexp4findERSs _ZNSs6assignERKSs 1574
_ZNK6libcc123compiler_triplet_regexp4findERSs _ZTTSt18basic_stringstreamIcSt11char_traitsIcESaIcEE 1635
_ZNK6libcc123compiler_triplet_regexp4findERSs _ZTVSt9basic_iosIcSt11char_traitsIcEE 1671
_ZNK6libcc123compiler_triplet_regexp4findERSs _ZNSt8ios_baseD2Ev 1680
_ZNK6libcc123compiler_triplet_regexp4findERSs _Unwind_Resume 1688
_ZNK6libcc123compiler_triplet_regexp4findERSs _ZNSs4_Rep20_S_empty_rep_storageE 1714
_ZNK6libcc123compiler_triplet_regexp4findERSs _ZNSt18basic_stringstreamIcSt11char_traitsIcESaIcEED1Ev 1740
_ZNK6libcc123compiler_triplet_regexp4findERSs _Unwind_Resume 1748
_ZNK6libcc123compiler_triplet_regexp4findERSs _ZTVSt15basic_stringbufIcSt11char_traitsIcESaIcEE 1769
_ZNK6libcc123compiler_triplet_regexp4findERSs _ZNSs4_Rep20_S_empty_rep_storageE 1780
_ZNK6libcc123compiler_triplet_regexp4findERSs _ZTVSt15basic_streambufIcSt11char_traitsIcEE 1800
_ZNK6libcc123compiler_triplet_regexp4findERSs _ZNSt6localeD1Ev 1809
_ZNK6libcc123compiler_triplet_regexp4findERSs _ZTTSt18basic_stringstreamIcSt11char_traitsIcESaIcEE 1821
_ZNK6libcc123compiler_triplet_regexp4findERSs _ZNSdD2Ev 1826
_ZNK6libcc123compiler_triplet_regexp4findERSs _ZNSs4_Rep20_S_empty_rep_storageE 1852
_ZNK6libcc123compiler_triplet_regexp4findERSs __pthread_key_create 1880
_ZNK6libcc123compiler_triplet_regexp4findERSs _ZNSs4_Rep10_M_destroyERKSaIcE 1914
_ZNK6libcc123compiler_triplet_regexp4findERSs _ZNSs4_Rep20_S_empty_rep_storageE 1945
_ZNK6libcc123compiler_triplet_regexp4findERSs _Unwind_Resume 1967
_ZNSs4_Rep10_M_disposeERKSaIcE.part.5 __pthread_key_create 1
_ZNSs4_Rep10_M_disposeERKSaIcE.part.5 _ZNSs4_Rep10_M_destroyERKSaIcE 34
_ZN6libcc18compilerD0Ev _ZdlPv 1
_ZN17libcc1_connectionD1Ev,_ZN17libcc1_connectionD2Ev _ZTV17libcc1_connection 3
_ZN17libcc1_connectionD1Ev,_ZN17libcc1_connectionD2Ev _ZN10cc1_plugin10connectionD2Ev 8
_ZN17libcc1_connectionD0Ev _ZTV17libcc1_connection 7
_ZN17libcc1_connectionD0Ev _ZN10cc1_plugin10connectionD2Ev 12
_ZN17libcc1_connectionD0Ev _ZdlPv 21
_Z3rpcIyXadL_ZN10cc1_plugin1c10build_declEEEPKc17gcc_c_symbol_kindyS3_yS3_jET_P13gcc_c_contextT1_T2_T3_T4_T5_T6_T7_ _ZN10cc1_plugin1c10build_declE 38
_Z3rpcIyXadL_ZN10cc1_plugin1c10build_declEEEPKc17gcc_c_symbol_kindyS3_yS3_jET_P13gcc_c_contextT1_T2_T3_T4_T5_T6_T7_ _ZN10cc1_plugin10connection4sendEc 51
_Z3rpcIyXadL_ZN10cc1_plugin1c10build_declEEEPKc17gcc_c_symbol_kindyS3_yS3_jET_P13gcc_c_contextT1_T2_T3_T4_T5_T6_T7_ _ZN10cc1_plugin8marshallEPNS_10connectionEPKc 87
_Z3rpcIyXadL_ZN10cc1_plugin1c10build_declEEEPKc17gcc_c_symbol_kindyS3_yS3_jET_P13gcc_c_contextT1_T2_T3_T4_T5_T6_T7_ _ZN10cc1_plugin16marshall_intlikeEPNS_10connectionEy 104
_Z3rpcIyXadL_ZN10cc1_plugin1c10build_declEEEPKc17gcc_c_symbol_kindyS3_yS3_jET_P13gcc_c_contextT1_T2_T3_T4_T5_T6_T7_ _ZN10cc1_plugin8marshallEPNS_10connectionEPKc 119
_Z3rpcIyXadL_ZN10cc1_plugin1c10build_declEEEPKc17gcc_c_symbol_kindyS3_yS3_jET_P13gcc_c_contextT1_T2_T3_T4_T5_T6_T7_ _ZN10cc1_plugin16marshall_intlikeEPNS_10connectionEy 134
_Z3rpcIyXadL_ZN10cc1_plugin1c10build_declEEEPKc17gcc_c_symbol_kindyS3_yS3_jET_P13gcc_c_contextT1_T2_T3_T4_T5_T6_T7_ _ZN10cc1_plugin16marshall_intlikeEPNS_10connectionEy 149
_Z3rpcIyXadL_ZN10cc1_plugin1c10build_declEEEPKc17gcc_c_symbol_kindyS3_yS3_jET_P13gcc_c_contextT1_T2_T3_T4_T5_T6_T7_ _ZN10cc1_plugin8marshallEPNS_10connectionEPKc 164
_Z3rpcIyXadL_ZN10cc1_plugin1c10build_declEEEPKc17gcc_c_symbol_kindyS3_yS3_jET_P13gcc_c_contextT1_T2_T3_T4_T5_T6_T7_ _ZN10cc1_plugin16marshall_intlikeEPNS_10connectionEy 181
_Z3rpcIyXadL_ZN10cc1_plugin1c10build_declEEEPKc17gcc_c_symbol_kindyS3_yS3_jET_P13gcc_c_contextT1_T2_T3_T4_T5_T6_T7_ _ZN10cc1_plugin8marshallEPNS_10connectionEPKc 202
_Z3rpcIyXadL_ZN10cc1_plugin1c10build_declEEEPKc17gcc_c_symbol_kindyS3_yS3_jET_P13gcc_c_contextT1_T2_T3_T4_T5_T6_T7_ _ZN10cc1_plugin16marshall_intlikeEPNS_10connectionEy 222
_Z3rpcIyXadL_ZN10cc1_plugin1c10build_declEEEPKc17gcc_c_symbol_kindyS3_yS3_jET_P13gcc_c_contextT1_T2_T3_T4_T5_T6_T7_ _ZN10cc1_plugin10connection7do_waitEb 243
_Z3rpcIyXadL_ZN10cc1_plugin1c10build_declEEEPKc17gcc_c_symbol_kindyS3_yS3_jET_P13gcc_c_contextT1_T2_T3_T4_T5_T6_T7_ _ZN10cc1_plugin18unmarshall_intlikeEPNS_10connectionEPy 264
_Z3rpcIiXadL_ZN10cc1_plugin1c14build_constantEEEyPKcmS3_jET_P13gcc_c_contextT1_T2_T3_T4_T5_ _ZN10cc1_plugin1c14build_constantE 38
_Z3rpcIiXadL_ZN10cc1_plugin1c14build_constantEEEyPKcmS3_jET_P13gcc_c_contextT1_T2_T3_T4_T5_ _ZN10cc1_plugin10connection4sendEc 51
_Z3rpcIiXadL_ZN10cc1_plugin1c14build_constantEEEyPKcmS3_jET_P13gcc_c_contextT1_T2_T3_T4_T5_ _ZN10cc1_plugin8marshallEPNS_10connectionEPKc 87
_Z3rpcIiXadL_ZN10cc1_plugin1c14build_constantEEEyPKcmS3_jET_P13gcc_c_contextT1_T2_T3_T4_T5_ _ZN10cc1_plugin16marshall_intlikeEPNS_10connectionEy 104
_Z3rpcIiXadL_ZN10cc1_plugin1c14build_constantEEEyPKcmS3_jET_P13gcc_c_contextT1_T2_T3_T4_T5_ _ZN10cc1_plugin16marshall_intlikeEPNS_10connectionEy 119
_Z3rpcIiXadL_ZN10cc1_plugin1c14build_constantEEEyPKcmS3_jET_P13gcc_c_contextT1_T2_T3_T4_T5_ _ZN10cc1_plugin8marshallEPNS_10connectionEPKc 134
_Z3rpcIiXadL_ZN10cc1_plugin1c14build_constantEEEyPKcmS3_jET_P13gcc_c_contextT1_T2_T3_T4_T5_ _ZN10cc1_plugin16marshall_intlikeEPNS_10connectionEy 149
_Z3rpcIiXadL_ZN10cc1_plugin1c14build_constantEEEyPKcmS3_jET_P13gcc_c_contextT1_T2_T3_T4_T5_ _ZN10cc1_plugin8marshallEPNS_10connectionEPKc 164
_Z3rpcIiXadL_ZN10cc1_plugin1c14build_constantEEEyPKcmS3_jET_P13gcc_c_contextT1_T2_T3_T4_T5_ _ZN10cc1_plugin16marshall_intlikeEPNS_10connectionEy 180
_Z3rpcIiXadL_ZN10cc1_plugin1c14build_constantEEEyPKcmS3_jET_P13gcc_c_contextT1_T2_T3_T4_T5_ _ZN10cc1_plugin10connection7do_waitEb 201
_Z3rpcIiXadL_ZN10cc1_plugin1c14build_constantEEEyPKcmS3_jET_P13gcc_c_contextT1_T2_T3_T4_T5_ _ZN10cc1_plugin18unmarshall_intlikeEPNS_10connectionEPy 222
_Z3rpcIiXadL_ZN10cc1_plugin1c15build_add_fieldEEEyPKcymmET_P13gcc_c_contextT1_T2_T3_T4_T5_ _ZN10cc1_plugin1c15build_add_fieldE 38
_Z3rpcIiXadL_ZN10cc1_plugin1c15build_add_fieldEEEyPKcymmET_P13gcc_c_contextT1_T2_T3_T4_T5_ _ZN10cc1_plugin10connection4sendEc 51
_Z3rpcIiXadL_ZN10cc1_plugin1c15build_add_fieldEEEyPKcymmET_P13gcc_c_contextT1_T2_T3_T4_T5_ _ZN10cc1_plugin8marshallEPNS_10connectionEPKc 87
_Z3rpcIiXadL_ZN10cc1_plugin1c15build_add_fieldEEEyPKcymmET_P13gcc_c_contextT1_T2_T3_T4_T5_ _ZN10cc1_plugin16marshall_intlikeEPNS_10connectionEy 104
_Z3rpcIiXadL_ZN10cc1_plugin1c15build_add_fieldEEEyPKcymmET_P13gcc_c_contextT1_T2_T3_T4_T5_ _ZN10cc1_plugin16marshall_intlikeEPNS_10connectionEy 119
_Z3rpcIiXadL_ZN10cc1_plugin1c15build_add_fieldEEEyPKcymmET_P13gcc_c_contextT1_T2_T3_T4_T5_ _ZN10cc1_plugin8marshallEPNS_10connectionEPKc 134
_Z3rpcIiXadL_ZN10cc1_plugin1c15build_add_fieldEEEyPKcymmET_P13gcc_c_contextT1_T2_T3_T4_T5_ _ZN10cc1_plugin16marshall_intlikeEPNS_10connectionEy 149
_Z3rpcIiXadL_ZN10cc1_plugin1c15build_add_fieldEEEyPKcymmET_P13gcc_c_contextT1_T2_T3_T4_T5_ _ZN10cc1_plugin16marshall_intlikeEPNS_10connectionEy 164
_Z3rpcIiXadL_ZN10cc1_plugin1c15build_add_fieldEEEyPKcymmET_P13gcc_c_contextT1_T2_T3_T4_T5_ _ZN10cc1_plugin16marshall_intlikeEPNS_10connectionEy 181
_Z3rpcIiXadL_ZN10cc1_plugin1c15build_add_fieldEEEyPKcymmET_P13gcc_c_contextT1_T2_T3_T4_T5_ _ZN10cc1_plugin10connection7do_waitEb 202
_Z3rpcIiXadL_ZN10cc1_plugin1c15build_add_fieldEEEyPKcymmET_P13gcc_c_contextT1_T2_T3_T4_T5_ _ZN10cc1_plugin18unmarshall_intlikeEPNS_10connectionEPy 223
_Z3rpcIiXadL_ZN10cc1_plugin1c7tagbindEEEPKcyS3_jET_P13gcc_c_contextT1_T2_T3_T4_ _ZN10cc1_plugin1c7tagbindE 38
_Z3rpcIiXadL_ZN10cc1_plugin1c7tagbindEEEPKcyS3_jET_P13gcc_c_contextT1_T2_T3_T4_ _ZN10cc1_plugin10connection4sendEc 46
_Z3rpcIiXadL_ZN10cc1_plugin1c7tagbindEEEPKcyS3_jET_P13gcc_c_contextT1_T2_T3_T4_ _ZN10cc1_plugin8marshallEPNS_10connectionEPKc 87
_Z3rpcIiXadL_ZN10cc1_plugin1c7tagbindEEEPKcyS3_jET_P13gcc_c_contextT1_T2_T3_T4_ _ZN10cc1_plugin16marshall_intlikeEPNS_10connectionEy 104
_Z3rpcIiXadL_ZN10cc1_plugin1c7tagbindEEEPKcyS3_jET_P13gcc_c_contextT1_T2_T3_T4_ _ZN10cc1_plugin8marshallEPNS_10connectionEPKc 119
_Z3rpcIiXadL_ZN10cc1_plugin1c7tagbindEEEPKcyS3_jET_P13gcc_c_contextT1_T2_T3_T4_ _ZN10cc1_plugin16marshall_intlikeEPNS_10connectionEy 134
_Z3rpcIiXadL_ZN10cc1_plugin1c7tagbindEEEPKcyS3_jET_P13gcc_c_contextT1_T2_T3_T4_ _ZN10cc1_plugin8marshallEPNS_10connectionEPKc 149
_Z3rpcIiXadL_ZN10cc1_plugin1c7tagbindEEEPKcyS3_jET_P13gcc_c_contextT1_T2_T3_T4_ _ZN10cc1_plugin16marshall_intlikeEPNS_10connectionEy 164
_Z3rpcIiXadL_ZN10cc1_plugin1c7tagbindEEEPKcyS3_jET_P13gcc_c_contextT1_T2_T3_T4_ _ZN10cc1_plugin10connection7do_waitEb 181
_Z3rpcIiXadL_ZN10cc1_plugin1c7tagbindEEEPKcyS3_jET_P13gcc_c_contextT1_T2_T3_T4_ _ZN10cc1_plugin18unmarshall_intlikeEPNS_10connectionEPy 202
_Z3rpcIyXadL_ZN10cc1_plugin1c19build_function_typeEEEyPK14gcc_type_arrayiET_P13gcc_c_contextT1_T2_T3_ _ZN10cc1_plugin1c19build_function_typeE 33
_Z3rpcIyXadL_ZN10cc1_plugin1c19build_function_typeEEEyPK14gcc_type_arrayiET_P13gcc_c_contextT1_T2_T3_ _ZN10cc1_plugin10connection4sendEc 41
_Z3rpcIyXadL_ZN10cc1_plugin1c19build_function_typeEEEyPK14gcc_type_arrayiET_P13gcc_c_contextT1_T2_T3_ _ZN10cc1_plugin8marshallEPNS_10connectionEPKc 71
_Z3rpcIyXadL_ZN10cc1_plugin1c19build_function_typeEEEyPK14gcc_type_arrayiET_P13gcc_c_contextT1_T2_T3_ _ZN10cc1_plugin16marshall_intlikeEPNS_10connectionEy 88
_Z3rpcIyXadL_ZN10cc1_plugin1c19build_function_typeEEEyPK14gcc_type_arrayiET_P13gcc_c_contextT1_T2_T3_ _ZN10cc1_plugin16marshall_intlikeEPNS_10connectionEy 103
_Z3rpcIyXadL_ZN10cc1_plugin1c19build_function_typeEEEyPK14gcc_type_arrayiET_P13gcc_c_contextT1_T2_T3_ _ZN10cc1_plugin8marshallEPNS_10connectionEPK14gcc_type_array 118
_Z3rpcIyXadL_ZN10cc1_plugin1c19build_function_typeEEEyPK14gcc_type_arrayiET_P13gcc_c_contextT1_T2_T3_ _ZN10cc1_plugin16marshall_intlikeEPNS_10connectionEy 133
_Z3rpcIyXadL_ZN10cc1_plugin1c19build_function_typeEEEyPK14gcc_type_arrayiET_P13gcc_c_contextT1_T2_T3_ _ZN10cc1_plugin10connection7do_waitEb 150
_Z3rpcIyXadL_ZN10cc1_plugin1c19build_function_typeEEEyPK14gcc_type_arrayiET_P13gcc_c_contextT1_T2_T3_ _ZN10cc1_plugin18unmarshall_intlikeEPNS_10connectionEPy 167
_Z3rpcIyXadL_ZN10cc1_plugin1c8int_typeEEEimPKcET_P13gcc_c_contextT1_T2_T3_ _ZN10cc1_plugin1c8int_typeE 33
_Z3rpcIyXadL_ZN10cc1_plugin1c8int_typeEEEimPKcET_P13gcc_c_contextT1_T2_T3_ _ZN10cc1_plugin10connection4sendEc 41
_Z3rpcIyXadL_ZN10cc1_plugin1c8int_typeEEEimPKcET_P13gcc_c_contextT1_T2_T3_ _ZN10cc1_plugin8marshallEPNS_10connectionEPKc 71
_Z3rpcIyXadL_ZN10cc1_plugin1c8int_typeEEEimPKcET_P13gcc_c_contextT1_T2_T3_ _ZN10cc1_plugin16marshall_intlikeEPNS_10connectionEy 88
_Z3rpcIyXadL_ZN10cc1_plugin1c8int_typeEEEimPKcET_P13gcc_c_contextT1_T2_T3_ _ZN10cc1_plugin16marshall_intlikeEPNS_10connectionEy 103
_Z3rpcIyXadL_ZN10cc1_plugin1c8int_typeEEEimPKcET_P13gcc_c_contextT1_T2_T3_ _ZN10cc1_plugin16marshall_intlikeEPNS_10connectionEy 118
_Z3rpcIyXadL_ZN10cc1_plugin1c8int_typeEEEimPKcET_P13gcc_c_contextT1_T2_T3_ _ZN10cc1_plugin8marshallEPNS_10connectionEPKc 133
_Z3rpcIyXadL_ZN10cc1_plugin1c8int_typeEEEimPKcET_P13gcc_c_contextT1_T2_T3_ _ZN10cc1_plugin10connection7do_waitEb 150
_Z3rpcIyXadL_ZN10cc1_plugin1c8int_typeEEEimPKcET_P13gcc_c_contextT1_T2_T3_ _ZN10cc1_plugin18unmarshall_intlikeEPNS_10connectionEPy 167
_Z3rpcIiXadL_ZN10cc1_plugin1c23build_add_enum_constantEEEyPKcmET_P13gcc_c_contextT1_T2_T3_ _ZN10cc1_plugin1c23build_add_enum_constantE 33
_Z3rpcIiXadL_ZN10cc1_plugin1c23build_add_enum_constantEEEyPKcmET_P13gcc_c_contextT1_T2_T3_ _ZN10cc1_plugin10connection4sendEc 41
_Z3rpcIiXadL_ZN10cc1_plugin1c23build_add_enum_constantEEEyPKcmET_P13gcc_c_contextT1_T2_T3_ _ZN10cc1_plugin8marshallEPNS_10connectionEPKc 71
_Z3rpcIiXadL_ZN10cc1_plugin1c23build_add_enum_constantEEEyPKcmET_P13gcc_c_contextT1_T2_T3_ _ZN10cc1_plugin16marshall_intlikeEPNS_10connectionEy 88
_Z3rpcIiXadL_ZN10cc1_plugin1c23build_add_enum_constantEEEyPKcmET_P13gcc_c_contextT1_T2_T3_ _ZN10cc1_plugin16marshall_intlikeEPNS_10connectionEy 103
_Z3rpcIiXadL_ZN10cc1_plugin1c23build_add_enum_constantEEEyPKcmET_P13gcc_c_contextT1_T2_T3_ _ZN10cc1_plugin8marshallEPNS_10connectionEPKc 118
_Z3rpcIiXadL_ZN10cc1_plugin1c23build_add_enum_constantEEEyPKcmET_P13gcc_c_contextT1_T2_T3_ _ZN10cc1_plugin16marshall_intlikeEPNS_10connectionEy 133
_Z3rpcIiXadL_ZN10cc1_plugin1c23build_add_enum_constantEEEyPKcmET_P13gcc_c_contextT1_T2_T3_ _ZN10cc1_plugin10connection7do_waitEb 150
_Z3rpcIiXadL_ZN10cc1_plugin1c23build_add_enum_constantEEEyPKcmET_P13gcc_c_contextT1_T2_T3_ _ZN10cc1_plugin18unmarshall_intlikeEPNS_10connectionEPy 167
_Z3rpcIyXadL_ZN10cc1_plugin1c20build_vla_array_typeEEEyPKcET_P13gcc_c_contextT1_T2_ _ZN10cc1_plugin1c20build_vla_array_typeE 28
_Z3rpcIyXadL_ZN10cc1_plugin1c20build_vla_array_typeEEEyPKcET_P13gcc_c_contextT1_T2_ _ZN10cc1_plugin10connection4sendEc 36
_Z3rpcIyXadL_ZN10cc1_plugin1c20build_vla_array_typeEEEyPKcET_P13gcc_c_contextT1_T2_ _ZN10cc1_plugin8marshallEPNS_10connectionEPKc 71
_Z3rpcIyXadL_ZN10cc1_plugin1c20build_vla_array_typeEEEyPKcET_P13gcc_c_contextT1_T2_ _ZN10cc1_plugin16marshall_intlikeEPNS_10connectionEy 88
_Z3rpcIyXadL_ZN10cc1_plugin1c20build_vla_array_typeEEEyPKcET_P13gcc_c_contextT1_T2_ _ZN10cc1_plugin16marshall_intlikeEPNS_10connectionEy 103
_Z3rpcIyXadL_ZN10cc1_plugin1c20build_vla_array_typeEEEyPKcET_P13gcc_c_contextT1_T2_ _ZN10cc1_plugin8marshallEPNS_10connectionEPKc 118
_Z3rpcIyXadL_ZN10cc1_plugin1c20build_vla_array_typeEEEyPKcET_P13gcc_c_contextT1_T2_ _ZN10cc1_plugin10connection7do_waitEb 135
_Z3rpcIyXadL_ZN10cc1_plugin1c20build_vla_array_typeEEEyPKcET_P13gcc_c_contextT1_T2_ _ZN10cc1_plugin18unmarshall_intlikeEPNS_10connectionEPy 152
_Z3rpcIyXadL_ZN10cc1_plugin1c20build_qualified_typeEEEy14gcc_qualifiersET_P13gcc_c_contextT1_T2_ _ZN10cc1_plugin1c20build_qualified_typeE 28
_Z3rpcIyXadL_ZN10cc1_plugin1c20build_qualified_typeEEEy14gcc_qualifiersET_P13gcc_c_contextT1_T2_ _ZN10cc1_plugin10connection4sendEc 36
_Z3rpcIyXadL_ZN10cc1_plugin1c20build_qualified_typeEEEy14gcc_qualifiersET_P13gcc_c_contextT1_T2_ _ZN10cc1_plugin8marshallEPNS_10connectionEPKc 71
_Z3rpcIyXadL_ZN10cc1_plugin1c20build_qualified_typeEEEy14gcc_qualifiersET_P13gcc_c_contextT1_T2_ _ZN10cc1_plugin16marshall_intlikeEPNS_10connectionEy 88
_Z3rpcIyXadL_ZN10cc1_plugin1c20build_qualified_typeEEEy14gcc_qualifiersET_P13gcc_c_contextT1_T2_ _ZN10cc1_plugin16marshall_intlikeEPNS_10connectionEy 103
_Z3rpcIyXadL_ZN10cc1_plugin1c20build_qualified_typeEEEy14gcc_qualifiersET_P13gcc_c_contextT1_T2_ _ZN10cc1_plugin16marshall_intlikeEPNS_10connectionEy 118
_Z3rpcIyXadL_ZN10cc1_plugin1c20build_qualified_typeEEEy14gcc_qualifiersET_P13gcc_c_contextT1_T2_ _ZN10cc1_plugin10connection7do_waitEb 135
_Z3rpcIyXadL_ZN10cc1_plugin1c20build_qualified_typeEEEy14gcc_qualifiersET_P13gcc_c_contextT1_T2_ _ZN10cc1_plugin18unmarshall_intlikeEPNS_10connectionEPy 152
_Z3rpcIyXadL_ZN10cc1_plugin1c11int_type_v0EEEimET_P13gcc_c_contextT1_T2_ _ZN10cc1_plugin1c11int_type_v0E 28
_Z3rpcIyXadL_ZN10cc1_plugin1c11int_type_v0EEEimET_P13gcc_c_contextT1_T2_ _ZN10cc1_plugin10connection4sendEc 36
_Z3rpcIyXadL_ZN10cc1_plugin1c11int_type_v0EEEimET_P13gcc_c_contextT1_T2_ _ZN10cc1_plugin8marshallEPNS_10connectionEPKc 71
_Z3rpcIyXadL_ZN10cc1_plugin1c11int_type_v0EEEimET_P13gcc_c_contextT1_T2_ _ZN10cc1_plugin16marshall_intlikeEPNS_10connectionEy 88
_Z3rpcIyXadL_ZN10cc1_plugin1c11int_type_v0EEEimET_P13gcc_c_contextT1_T2_ _ZN10cc1_plugin16marshall_intlikeEPNS_10connectionEy 103
_Z3rpcIyXadL_ZN10cc1_plugin1c11int_type_v0EEEimET_P13gcc_c_contextT1_T2_ _ZN10cc1_plugin16marshall_intlikeEPNS_10connectionEy 118
_Z3rpcIyXadL_ZN10cc1_plugin1c11int_type_v0EEEimET_P13gcc_c_contextT1_T2_ _ZN10cc1_plugin10connection7do_waitEb 135
_Z3rpcIyXadL_ZN10cc1_plugin1c11int_type_v0EEEimET_P13gcc_c_contextT1_T2_ _ZN10cc1_plugin18unmarshall_intlikeEPNS_10connectionEPy 152
_Z3rpcIyXadL_ZN10cc1_plugin1c10float_typeEEEmPKcET_P13gcc_c_contextT1_T2_ _ZN10cc1_plugin1c10float_typeE 28
_Z3rpcIyXadL_ZN10cc1_plugin1c10float_typeEEEmPKcET_P13gcc_c_contextT1_T2_ _ZN10cc1_plugin10connection4sendEc 36
_Z3rpcIyXadL_ZN10cc1_plugin1c10float_typeEEEmPKcET_P13gcc_c_contextT1_T2_ _ZN10cc1_plugin8marshallEPNS_10connectionEPKc 71
_Z3rpcIyXadL_ZN10cc1_plugin1c10float_typeEEEmPKcET_P13gcc_c_contextT1_T2_ _ZN10cc1_plugin16marshall_intlikeEPNS_10connectionEy 88
_Z3rpcIyXadL_ZN10cc1_plugin1c10float_typeEEEmPKcET_P13gcc_c_contextT1_T2_ _ZN10cc1_plugin16marshall_intlikeEPNS_10connectionEy 103
_Z3rpcIyXadL_ZN10cc1_plugin1c10float_typeEEEmPKcET_P13gcc_c_contextT1_T2_ _ZN10cc1_plugin8marshallEPNS_10connectionEPKc 118
_Z3rpcIyXadL_ZN10cc1_plugin1c10float_typeEEEmPKcET_P13gcc_c_contextT1_T2_ _ZN10cc1_plugin10connection7do_waitEb 135
_Z3rpcIyXadL_ZN10cc1_plugin1c10float_typeEEEmPKcET_P13gcc_c_contextT1_T2_ _ZN10cc1_plugin18unmarshall_intlikeEPNS_10connectionEPy 152
_Z3rpcIiXadL_ZN10cc1_plugin1c4bindEEEyiET_P13gcc_c_contextT1_T2_ _ZN10cc1_plugin1c4bindE 28
_Z3rpcIiXadL_ZN10cc1_plugin1c4bindEEEyiET_P13gcc_c_contextT1_T2_ _ZN10cc1_plugin10connection4sendEc 36
_Z3rpcIiXadL_ZN10cc1_plugin1c4bindEEEyiET_P13gcc_c_contextT1_T2_ _ZN10cc1_plugin8marshallEPNS_10connectionEPKc 71
_Z3rpcIiXadL_ZN10cc1_plugin1c4bindEEEyiET_P13gcc_c_contextT1_T2_ _ZN10cc1_plugin16marshall_intlikeEPNS_10connectionEy 88
_Z3rpcIiXadL_ZN10cc1_plugin1c4bindEEEyiET_P13gcc_c_contextT1_T2_ _ZN10cc1_plugin16marshall_intlikeEPNS_10connectionEy 103
_Z3rpcIiXadL_ZN10cc1_plugin1c4bindEEEyiET_P13gcc_c_contextT1_T2_ _ZN10cc1_plugin16marshall_intlikeEPNS_10connectionEy 118
_Z3rpcIiXadL_ZN10cc1_plugin1c4bindEEEyiET_P13gcc_c_contextT1_T2_ _ZN10cc1_plugin10connection7do_waitEb 135
_Z3rpcIiXadL_ZN10cc1_plugin1c4bindEEEyiET_P13gcc_c_contextT1_T2_ _ZN10cc1_plugin18unmarshall_intlikeEPNS_10connectionEPy 152
_Z3rpcIiXadL_ZN10cc1_plugin1c22finish_record_or_unionEEEymET_P13gcc_c_contextT1_T2_ _ZN10cc1_plugin1c22finish_record_or_unionE 28
_Z3rpcIiXadL_ZN10cc1_plugin1c22finish_record_or_unionEEEymET_P13gcc_c_contextT1_T2_ _ZN10cc1_plugin10connection4sendEc 36
_Z3rpcIiXadL_ZN10cc1_plugin1c22finish_record_or_unionEEEymET_P13gcc_c_contextT1_T2_ _ZN10cc1_plugin8marshallEPNS_10connectionEPKc 71
_Z3rpcIiXadL_ZN10cc1_plugin1c22finish_record_or_unionEEEymET_P13gcc_c_contextT1_T2_ _ZN10cc1_plugin16marshall_intlikeEPNS_10connectionEy 88
_Z3rpcIiXadL_ZN10cc1_plugin1c22finish_record_or_unionEEEymET_P13gcc_c_contextT1_T2_ _ZN10cc1_plugin16marshall_intlikeEPNS_10connectionEy 103
_Z3rpcIiXadL_ZN10cc1_plugin1c22finish_record_or_unionEEEymET_P13gcc_c_contextT1_T2_ _ZN10cc1_plugin16marshall_intlikeEPNS_10connectionEy 118
_Z3rpcIiXadL_ZN10cc1_plugin1c22finish_record_or_unionEEEymET_P13gcc_c_contextT1_T2_ _ZN10cc1_plugin10connection7do_waitEb 135
_Z3rpcIiXadL_ZN10cc1_plugin1c22finish_record_or_unionEEEymET_P13gcc_c_contextT1_T2_ _ZN10cc1_plugin18unmarshall_intlikeEPNS_10connectionEPy 152
_Z3rpcIyXadL_ZN10cc1_plugin1c5errorEEEPKcET_P13gcc_c_contextT1_ _ZN10cc1_plugin1c5errorE 23
_Z3rpcIyXadL_ZN10cc1_plugin1c5errorEEEPKcET_P13gcc_c_contextT1_ _ZN10cc1_plugin10connection4sendEc 31
_Z3rpcIyXadL_ZN10cc1_plugin1c5errorEEEPKcET_P13gcc_c_contextT1_ _ZN10cc1_plugin8marshallEPNS_10connectionEPKc 63
_Z3rpcIyXadL_ZN10cc1_plugin1c5errorEEEPKcET_P13gcc_c_contextT1_ _ZN10cc1_plugin16marshall_intlikeEPNS_10connectionEy 80
_Z3rpcIyXadL_ZN10cc1_plugin1c5errorEEEPKcET_P13gcc_c_contextT1_ _ZN10cc1_plugin8marshallEPNS_10connectionEPKc 95
_Z3rpcIyXadL_ZN10cc1_plugin1c5errorEEEPKcET_P13gcc_c_contextT1_ _ZN10cc1_plugin10connection7do_waitEb 112
_Z3rpcIyXadL_ZN10cc1_plugin1c5errorEEEPKcET_P13gcc_c_contextT1_ _ZN10cc1_plugin18unmarshall_intlikeEPNS_10connectionEPy 129
_ZN6libcc123compiler_triplet_regexpD1Ev,_ZN6libcc123compiler_triplet_regexpD2Ev _ZTVN6libcc123compiler_triplet_regexpE 7
_ZN6libcc123compiler_triplet_regexpD1Ev,_ZN6libcc123compiler_triplet_regexpD2Ev _ZNSs4_Rep20_S_empty_rep_storageE 18
_ZN6libcc123compiler_triplet_regexpD1Ev,_ZN6libcc123compiler_triplet_regexpD2Ev __pthread_key_create 33
_ZN6libcc123compiler_triplet_regexpD1Ev,_ZN6libcc123compiler_triplet_regexpD2Ev _ZNSs4_Rep10_M_destroyERKSaIcE 68
_ZN6libcc124compiler_driver_filenameD1Ev,_ZN6libcc124compiler_driver_filenameD2Ev _ZTVN6libcc124compiler_driver_filenameE 7
_ZN6libcc124compiler_driver_filenameD1Ev,_ZN6libcc124compiler_driver_filenameD2Ev _ZNSs4_Rep20_S_empty_rep_storageE 18
_ZN6libcc124compiler_driver_filenameD1Ev,_ZN6libcc124compiler_driver_filenameD2Ev __pthread_key_create 33
_ZN6libcc124compiler_driver_filenameD1Ev,_ZN6libcc124compiler_driver_filenameD2Ev _ZNSs4_Rep10_M_destroyERKSaIcE 68
_ZN6libcc124compiler_driver_filenameD0Ev _ZTVN6libcc124compiler_driver_filenameE 15
_ZN6libcc124compiler_driver_filenameD0Ev _ZNSs4_Rep20_S_empty_rep_storageE 26
_ZN6libcc124compiler_driver_filenameD0Ev _ZdlPv 36
_ZN6libcc124compiler_driver_filenameD0Ev __pthread_key_create 49
_ZN6libcc124compiler_driver_filenameD0Ev _ZNSs4_Rep10_M_destroyERKSaIcE 80
_ZN6libcc123compiler_triplet_regexpD0Ev _ZTVN6libcc123compiler_triplet_regexpE 15
_ZN6libcc123compiler_triplet_regexpD0Ev _ZNSs4_Rep20_S_empty_rep_storageE 26
_ZN6libcc123compiler_triplet_regexpD0Ev _ZdlPv 36
_ZN6libcc123compiler_triplet_regexpD0Ev __pthread_key_create 49
_ZN6libcc123compiler_triplet_regexpD0Ev _ZNSs4_Rep10_M_destroyERKSaIcE 80
_Z3rpcIiXadL_ZN10cc1_plugin1c16finish_enum_typeEEEyET_P13gcc_c_contextT1_ _ZN10cc1_plugin1c16finish_enum_typeE 23
_Z3rpcIiXadL_ZN10cc1_plugin1c16finish_enum_typeEEEyET_P13gcc_c_contextT1_ _ZN10cc1_plugin10connection4sendEc 31
_Z3rpcIiXadL_ZN10cc1_plugin1c16finish_enum_typeEEEyET_P13gcc_c_contextT1_ _ZN10cc1_plugin8marshallEPNS_10connectionEPKc 63
_Z3rpcIiXadL_ZN10cc1_plugin1c16finish_enum_typeEEEyET_P13gcc_c_contextT1_ _ZN10cc1_plugin16marshall_intlikeEPNS_10connectionEy 80
_Z3rpcIiXadL_ZN10cc1_plugin1c16finish_enum_typeEEEyET_P13gcc_c_contextT1_ _ZN10cc1_plugin16marshall_intlikeEPNS_10connectionEy 95
_Z3rpcIiXadL_ZN10cc1_plugin1c16finish_enum_typeEEEyET_P13gcc_c_contextT1_ _ZN10cc1_plugin10connection7do_waitEb 112
_Z3rpcIiXadL_ZN10cc1_plugin1c16finish_enum_typeEEEyET_P13gcc_c_contextT1_ _ZN10cc1_plugin18unmarshall_intlikeEPNS_10connectionEPy 129
_Z3rpcIyXadL_ZN10cc1_plugin1c13float_type_v0EEEmET_P13gcc_c_contextT1_ _ZN10cc1_plugin1c13float_type_v0E 23
_Z3rpcIyXadL_ZN10cc1_plugin1c13float_type_v0EEEmET_P13gcc_c_contextT1_ _ZN10cc1_plugin10connection4sendEc 31
_Z3rpcIyXadL_ZN10cc1_plugin1c13float_type_v0EEEmET_P13gcc_c_contextT1_ _ZN10cc1_plugin8marshallEPNS_10connectionEPKc 63
_Z3rpcIyXadL_ZN10cc1_plugin1c13float_type_v0EEEmET_P13gcc_c_contextT1_ _ZN10cc1_plugin16marshall_intlikeEPNS_10connectionEy 80
_Z3rpcIyXadL_ZN10cc1_plugin1c13float_type_v0EEEmET_P13gcc_c_contextT1_ _ZN10cc1_plugin16marshall_intlikeEPNS_10connectionEy 95
_Z3rpcIyXadL_ZN10cc1_plugin1c13float_type_v0EEEmET_P13gcc_c_contextT1_ _ZN10cc1_plugin10connection7do_waitEb 112
_Z3rpcIyXadL_ZN10cc1_plugin1c13float_type_v0EEEmET_P13gcc_c_contextT1_ _ZN10cc1_plugin18unmarshall_intlikeEPNS_10connectionEPy 129
_ZNSt6vectorISsSaISsEED1Ev,_ZNSt6vectorISsSaISsEED2Ev _ZNSs4_Rep20_S_empty_rep_storageE 51
_ZNSt6vectorISsSaISsEED1Ev,_ZNSt6vectorISsSaISsEED2Ev __pthread_key_create 58
_ZNSt6vectorISsSaISsEED1Ev,_ZNSt6vectorISsSaISsEED2Ev _ZNSs4_Rep10_M_destroyERKSaIcE 93
_ZNSt6vectorISsSaISsEED1Ev,_ZNSt6vectorISsSaISsEED2Ev _ZdlPv 125
_ZN10cc1_plugin4callIyyEENS_6statusEPNS_10connectionEPKcPT_T0_ _ZN10cc1_plugin10connection4sendEc 28
_ZN10cc1_plugin4callIyyEENS_6statusEPNS_10connectionEPKcPT_T0_ _ZN10cc1_plugin8marshallEPNS_10connectionEPKc 63
_ZN10cc1_plugin4callIyyEENS_6statusEPNS_10connectionEPKcPT_T0_ _ZN10cc1_plugin16marshall_intlikeEPNS_10connectionEy 80
_ZN10cc1_plugin4callIyyEENS_6statusEPNS_10connectionEPKcPT_T0_ _ZN10cc1_plugin16marshall_intlikeEPNS_10connectionEy 95
_ZN10cc1_plugin4callIyyEENS_6statusEPNS_10connectionEPKcPT_T0_ _ZN10cc1_plugin10connection7do_waitEb 112
_ZN10cc1_plugin4callIyyEENS_6statusEPNS_10connectionEPKcPT_T0_ _ZN10cc1_plugin18unmarshall_intlikeEPNS_10connectionEPy 129
_Z3rpcIyXadL_ZN10cc1_plugin1c18build_complex_typeEEEyET_P13gcc_c_contextT1_ _ZN10cc1_plugin1c18build_complex_typeE 14
_Z3rpcIyXadL_ZN10cc1_plugin1c18build_complex_typeEEEyET_P13gcc_c_contextT1_ _ZN10cc1_plugin4callIyyEENS_6statusEPNS_10connectionEPKcPT_T0_ 24
_Z3rpcIyXadL_ZN10cc1_plugin1c15build_enum_typeEEEyET_P13gcc_c_contextT1_ _ZN10cc1_plugin1c15build_enum_typeE 14
_Z3rpcIyXadL_ZN10cc1_plugin1c15build_enum_typeEEEyET_P13gcc_c_contextT1_ _ZN10cc1_plugin4callIyyEENS_6statusEPNS_10connectionEPKcPT_T0_ 24
_Z3rpcIyXadL_ZN10cc1_plugin1c18build_pointer_typeEEEyET_P13gcc_c_contextT1_ _ZN10cc1_plugin1c18build_pointer_typeE 14
_Z3rpcIyXadL_ZN10cc1_plugin1c18build_pointer_typeEEEyET_P13gcc_c_contextT1_ _ZN10cc1_plugin4callIyyEENS_6statusEPNS_10connectionEPKcPT_T0_ 24
_ZN10cc1_plugin4callIyEENS_6statusEPNS_10connectionEPKcPT_ _ZN10cc1_plugin10connection4sendEc 23
_ZN10cc1_plugin4callIyEENS_6statusEPNS_10connectionEPKcPT_ _ZN10cc1_plugin8marshallEPNS_10connectionEPKc 55
_ZN10cc1_plugin4callIyEENS_6statusEPNS_10connectionEPKcPT_ _ZN10cc1_plugin16marshall_intlikeEPNS_10connectionEy 69
_ZN10cc1_plugin4callIyEENS_6statusEPNS_10connectionEPKcPT_ _ZN10cc1_plugin10connection7do_waitEb 86
_ZN10cc1_plugin4callIyEENS_6statusEPNS_10connectionEPKcPT_ _ZN10cc1_plugin18unmarshall_intlikeEPNS_10connectionEPy 103
_Z3rpcIyXadL_ZN10cc1_plugin1c9char_typeEEEET_P13gcc_c_context _ZN10cc1_plugin1c9char_typeE 11
_Z3rpcIyXadL_ZN10cc1_plugin1c9char_typeEEEET_P13gcc_c_context _ZN10cc1_plugin4callIyEENS_6statusEPNS_10connectionEPKcPT_ 21
_Z3rpcIyXadL_ZN10cc1_plugin1c9bool_typeEEEET_P13gcc_c_context _ZN10cc1_plugin1c9bool_typeE 11
_Z3rpcIyXadL_ZN10cc1_plugin1c9bool_typeEEEET_P13gcc_c_context _ZN10cc1_plugin4callIyEENS_6statusEPNS_10connectionEPKcPT_ 21
_Z3rpcIyXadL_ZN10cc1_plugin1c9void_typeEEEET_P13gcc_c_context _ZN10cc1_plugin1c9void_typeE 11
_Z3rpcIyXadL_ZN10cc1_plugin1c9void_typeEEEET_P13gcc_c_context _ZN10cc1_plugin4callIyEENS_6statusEPNS_10connectionEPKcPT_ 21
_Z3rpcIyXadL_ZN10cc1_plugin1c16build_union_typeEEEET_P13gcc_c_context _ZN10cc1_plugin1c16build_union_typeE 11
_Z3rpcIyXadL_ZN10cc1_plugin1c16build_union_typeEEEET_P13gcc_c_context _ZN10cc1_plugin4callIyEENS_6statusEPNS_10connectionEPKcPT_ 21
_Z3rpcIyXadL_ZN10cc1_plugin1c17build_record_typeEEEET_P13gcc_c_context _ZN10cc1_plugin1c17build_record_typeE 11
_Z3rpcIyXadL_ZN10cc1_plugin1c17build_record_typeEEEET_P13gcc_c_context _ZN10cc1_plugin4callIyEENS_6statusEPNS_10connectionEPKcPT_ 21
_ZN10cc1_plugin4callIyyiEENS_6statusEPNS_10connectionEPKcPT_T0_T1_ _ZN10cc1_plugin10connection4sendEc 33
_ZN10cc1_plugin4callIyyiEENS_6statusEPNS_10connectionEPKcPT_T0_T1_ _ZN10cc1_plugin8marshallEPNS_10connectionEPKc 71
_ZN10cc1_plugin4callIyyiEENS_6statusEPNS_10connectionEPKcPT_T0_T1_ _ZN10cc1_plugin16marshall_intlikeEPNS_10connectionEy 88
_ZN10cc1_plugin4callIyyiEENS_6statusEPNS_10connectionEPKcPT_T0_T1_ _ZN10cc1_plugin16marshall_intlikeEPNS_10connectionEy 103
_ZN10cc1_plugin4callIyyiEENS_6statusEPNS_10connectionEPKcPT_T0_T1_ _ZN10cc1_plugin16marshall_intlikeEPNS_10connectionEy 118
_ZN10cc1_plugin4callIyyiEENS_6statusEPNS_10connectionEPKcPT_T0_T1_ _ZN10cc1_plugin10connection7do_waitEb 135
_ZN10cc1_plugin4callIyyiEENS_6statusEPNS_10connectionEPKcPT_T0_T1_ _ZN10cc1_plugin18unmarshall_intlikeEPNS_10connectionEPy 152
_Z3rpcIyXadL_ZN10cc1_plugin1c17build_vector_typeEEEyiET_P13gcc_c_contextT1_T2_ _ZN10cc1_plugin1c17build_vector_typeE 14
_Z3rpcIyXadL_ZN10cc1_plugin1c17build_vector_typeEEEyiET_P13gcc_c_contextT1_T2_ _ZN10cc1_plugin4callIyyiEENS_6statusEPNS_10connectionEPKcPT_T0_T1_ 27
_Z3rpcIyXadL_ZN10cc1_plugin1c16build_array_typeEEEyiET_P13gcc_c_contextT1_T2_ _ZN10cc1_plugin1c16build_array_typeE 14
_Z3rpcIyXadL_ZN10cc1_plugin1c16build_array_typeEEEyiET_P13gcc_c_contextT1_T2_ _ZN10cc1_plugin4callIyyiEENS_6statusEPNS_10connectionEPKcPT_T0_T1_ 27
_ZNSt12_Destroy_auxILb0EE9__destroyIPSsEEvT_S3_ _ZNSs4_Rep20_S_empty_rep_storageE 43
_ZNSt12_Destroy_auxILb0EE9__destroyIPSsEEvT_S3_ __pthread_key_create 50
_ZNSt12_Destroy_auxILb0EE9__destroyIPSsEEvT_S3_ _ZNSs4_Rep10_M_destroyERKSaIcE 85
_ZNSt6vectorISsSaISsEE13_M_insert_auxEN9__gnu_cxx17__normal_iteratorIPSsS1_EERKSs _ZNSsC1ERKSs 47
_ZNSt6vectorISsSaISsEE13_M_insert_auxEN9__gnu_cxx17__normal_iteratorIPSsS1_EERKSs _ZNSsC1ERKSs 72
_ZNSt6vectorISsSaISsEE13_M_insert_auxEN9__gnu_cxx17__normal_iteratorIPSsS1_EERKSs _ZNSs6assignERKSs 124
_ZNSt6vectorISsSaISsEE13_M_insert_auxEN9__gnu_cxx17__normal_iteratorIPSsS1_EERKSs _ZNSs6assignERKSs 142
_ZNSt6vectorISsSaISsEE13_M_insert_auxEN9__gnu_cxx17__normal_iteratorIPSsS1_EERKSs _ZNSs4_Rep20_S_empty_rep_storageE 158
_ZNSt6vectorISsSaISsEE13_M_insert_auxEN9__gnu_cxx17__normal_iteratorIPSsS1_EERKSs __pthread_key_create 180
_ZNSt6vectorISsSaISsEE13_M_insert_auxEN9__gnu_cxx17__normal_iteratorIPSsS1_EERKSs _ZNSs4_Rep10_M_destroyERKSaIcE 215
_ZNSt6vectorISsSaISsEE13_M_insert_auxEN9__gnu_cxx17__normal_iteratorIPSsS1_EERKSs _Znwm 262
_ZNSt6vectorISsSaISsEE13_M_insert_auxEN9__gnu_cxx17__normal_iteratorIPSsS1_EERKSs _ZNSsC1ERKSs 286
_ZNSt6vectorISsSaISsEE13_M_insert_auxEN9__gnu_cxx17__normal_iteratorIPSsS1_EERKSs _ZNSsC1ERKSs 316
_ZNSt6vectorISsSaISsEE13_M_insert_auxEN9__gnu_cxx17__normal_iteratorIPSsS1_EERKSs _ZNSsC1ERKSs 372
_ZNSt6vectorISsSaISsEE13_M_insert_auxEN9__gnu_cxx17__normal_iteratorIPSsS1_EERKSs _ZNSs4_Rep20_S_empty_rep_storageE 427
_ZNSt6vectorISsSaISsEE13_M_insert_auxEN9__gnu_cxx17__normal_iteratorIPSsS1_EERKSs __pthread_key_create 434
_ZNSt6vectorISsSaISsEE13_M_insert_auxEN9__gnu_cxx17__normal_iteratorIPSsS1_EERKSs _ZNSs4_Rep10_M_destroyERKSaIcE 465
_ZNSt6vectorISsSaISsEE13_M_insert_auxEN9__gnu_cxx17__normal_iteratorIPSsS1_EERKSs _ZdlPv 521
_ZNSt6vectorISsSaISsEE13_M_insert_auxEN9__gnu_cxx17__normal_iteratorIPSsS1_EERKSs _ZNSs4_Rep20_S_empty_rep_storageE 639
_ZNSt6vectorISsSaISsEE13_M_insert_auxEN9__gnu_cxx17__normal_iteratorIPSsS1_EERKSs _Unwind_Resume 659
_ZNSt6vectorISsSaISsEE13_M_insert_auxEN9__gnu_cxx17__normal_iteratorIPSsS1_EERKSs __cxa_begin_catch 667
_ZNSt6vectorISsSaISsEE13_M_insert_auxEN9__gnu_cxx17__normal_iteratorIPSsS1_EERKSs _ZNSt12_Destroy_auxILb0EE9__destroyIPSsEEvT_S3_ 680
_ZNSt6vectorISsSaISsEE13_M_insert_auxEN9__gnu_cxx17__normal_iteratorIPSsS1_EERKSs __cxa_rethrow 685
_ZNSt6vectorISsSaISsEE13_M_insert_auxEN9__gnu_cxx17__normal_iteratorIPSsS1_EERKSs __cxa_begin_catch 698
_ZNSt6vectorISsSaISsEE13_M_insert_auxEN9__gnu_cxx17__normal_iteratorIPSsS1_EERKSs _ZNSt12_Destroy_auxILb0EE9__destroyIPSsEEvT_S3_ 719
_ZNSt6vectorISsSaISsEE13_M_insert_auxEN9__gnu_cxx17__normal_iteratorIPSsS1_EERKSs _ZdlPv 732
_ZNSt6vectorISsSaISsEE13_M_insert_auxEN9__gnu_cxx17__normal_iteratorIPSsS1_EERKSs __cxa_rethrow 737
_ZNSt6vectorISsSaISsEE13_M_insert_auxEN9__gnu_cxx17__normal_iteratorIPSsS1_EERKSs __cxa_end_catch 742
_ZNSt6vectorISsSaISsEE13_M_insert_auxEN9__gnu_cxx17__normal_iteratorIPSsS1_EERKSs __cxa_begin_catch 750
_ZNSt6vectorISsSaISsEE13_M_insert_auxEN9__gnu_cxx17__normal_iteratorIPSsS1_EERKSs _ZNSs4_Rep20_S_empty_rep_storageE 768
_ZNSt6vectorISsSaISsEE13_M_insert_auxEN9__gnu_cxx17__normal_iteratorIPSsS1_EERKSs __cxa_begin_catch 795
_ZNSt6vectorISsSaISsEE13_M_insert_auxEN9__gnu_cxx17__normal_iteratorIPSsS1_EERKSs _ZNSt12_Destroy_auxILb0EE9__destroyIPSsEEvT_S3_ 806
_ZNSt6vectorISsSaISsEE13_M_insert_auxEN9__gnu_cxx17__normal_iteratorIPSsS1_EERKSs __cxa_rethrow 811
_ZNSt6vectorISsSaISsEE13_M_insert_auxEN9__gnu_cxx17__normal_iteratorIPSsS1_EERKSs __cxa_end_catch 821
_ZNSt6vectorISsSaISsEE13_M_insert_auxEN9__gnu_cxx17__normal_iteratorIPSsS1_EERKSs __cxa_end_catch 836
_ZNSs12_S_constructIPcEES0_T_S1_RKSaIcESt20forward_iterator_tag _ZSt19__throw_logic_errorPKc 31
_ZNSs12_S_constructIPcEES0_T_S1_RKSaIcESt20forward_iterator_tag _ZNSs4_Rep9_S_createEmmRKSaIcE 49
_ZNSs12_S_constructIPcEES0_T_S1_RKSaIcESt20forward_iterator_tag memcpy 76
_ZNSs12_S_constructIPcEES0_T_S1_RKSaIcESt20forward_iterator_tag _ZNSs4_Rep20_S_empty_rep_storageE 86
_ZNSs12_S_constructIPcEES0_T_S1_RKSaIcESt20forward_iterator_tag _ZNSs4_Rep20_S_empty_rep_storageE 121
_ZNK6libcp18compiler4findERSs xstrdup 6
_ZNK6libcp124compiler_driver_filename4findERSs stderr 29
_ZNK6libcp124compiler_driver_filename4findERSs fprintf 41
_ZNK6libcp124compiler_driver_filename4findERSs _ZNSs6assignERKSs 53
_ZN10cc1_plugin8callbackIi21gcc_cp_oracle_requestPKcXadL_ZN12_GLOBAL__N_122cp_call_binding_oracleEPNS_10connectionES1_S3_EEEENS_6statusES6_ _ZN10cc1_plugin16unmarshall_checkEPNS_10connectionEy 23
_ZN10cc1_plugin8callbackIi21gcc_cp_oracle_requestPKcXadL_ZN12_GLOBAL__N_122cp_call_binding_oracleEPNS_10connectionES1_S3_EEEENS_6statusES6_ _ZdaPv 43
_ZN10cc1_plugin8callbackIi21gcc_cp_oracle_requestPKcXadL_ZN12_GLOBAL__N_122cp_call_binding_oracleEPNS_10connectionES1_S3_EEEENS_6statusES6_ _ZN10cc1_plugin18unmarshall_intlikeEPNS_10connectionEPy 73
_ZN10cc1_plugin8callbackIi21gcc_cp_oracle_requestPKcXadL_ZN12_GLOBAL__N_122cp_call_binding_oracleEPNS_10connectionES1_S3_EEEENS_6statusES6_ _ZN10cc1_plugin10unmarshallEPNS_10connectionEPPc 95
_ZN10cc1_plugin8callbackIi21gcc_cp_oracle_requestPKcXadL_ZN12_GLOBAL__N_122cp_call_binding_oracleEPNS_10connectionES1_S3_EEEENS_6statusES6_ _ZN10cc1_plugin10connection4sendEc 132
_ZN10cc1_plugin8callbackIi21gcc_cp_oracle_requestPKcXadL_ZN12_GLOBAL__N_122cp_call_binding_oracleEPNS_10connectionES1_S3_EEEENS_6statusES6_ _ZN10cc1_plugin16marshall_intlikeEPNS_10connectionEy 149
_ZN10cc1_plugin8callbackIi21gcc_cp_oracle_requestPKcXadL_ZN12_GLOBAL__N_122cp_call_binding_oracleEPNS_10connectionES1_S3_EEEENS_6statusES6_ _ZdaPv 170
_ZN10cc1_plugin8callbackIi21gcc_cp_oracle_requestPKcXadL_ZN12_GLOBAL__N_122cp_call_binding_oracleEPNS_10connectionES1_S3_EEEENS_6statusES6_ _Unwind_Resume 178
_ZN10cc1_plugin8callbackIyPKcXadL_ZN12_GLOBAL__N_122cp_call_symbol_addressEPNS_10connectionES2_EEEENS_6statusES5_ _ZN10cc1_plugin16unmarshall_checkEPNS_10connectionEy 23
_ZN10cc1_plugin8callbackIyPKcXadL_ZN12_GLOBAL__N_122cp_call_symbol_addressEPNS_10connectionES2_EEEENS_6statusES5_ _ZdaPv 43
_ZN10cc1_plugin8callbackIyPKcXadL_ZN12_GLOBAL__N_122cp_call_symbol_addressEPNS_10connectionES2_EEEENS_6statusES5_ _ZN10cc1_plugin10unmarshallEPNS_10connectionEPPc 71
_ZN10cc1_plugin8callbackIyPKcXadL_ZN12_GLOBAL__N_122cp_call_symbol_addressEPNS_10connectionES2_EEEENS_6statusES5_ _ZN10cc1_plugin10connection4sendEc 109
_ZN10cc1_plugin8callbackIyPKcXadL_ZN12_GLOBAL__N_122cp_call_symbol_addressEPNS_10connectionES2_EEEENS_6statusES5_ _ZN10cc1_plugin16marshall_intlikeEPNS_10connectionEy 124
_ZN10cc1_plugin8callbackIyPKcXadL_ZN12_GLOBAL__N_122cp_call_symbol_addressEPNS_10connectionES2_EEEENS_6statusES5_ _ZdaPv 145
_ZN10cc1_plugin8callbackIyPKcXadL_ZN12_GLOBAL__N_122cp_call_symbol_addressEPNS_10connectionES2_EEEENS_6statusES5_ _Unwind_Resume 153
_ZL22libcp1_set_source_fileP16gcc_base_contextPKc strlen 16
_ZL22libcp1_set_source_fileP16gcc_base_contextPKc _ZNSs6assignEPKcm 37
_ZN10cc1_plugin8callbackIiXadL_ZN12_GLOBAL__N_119cp_call_leave_scopeEPNS_10connectionEEEEENS_6statusES3_ _ZN10cc1_plugin16unmarshall_checkEPNS_10connectionEy 7
_ZN10cc1_plugin8callbackIiXadL_ZN12_GLOBAL__N_119cp_call_leave_scopeEPNS_10connectionEEEEENS_6statusES3_ _ZN10cc1_plugin10connection4sendEc 47
_ZN10cc1_plugin8callbackIiXadL_ZN12_GLOBAL__N_119cp_call_leave_scopeEPNS_10connectionEEEEENS_6statusES3_ _ZN10cc1_plugin16marshall_intlikeEPNS_10connectionEy 65
_ZN10cc1_plugin8callbackIiXadL_ZN12_GLOBAL__N_119cp_call_enter_scopeEPNS_10connectionEEEEENS_6statusES3_ _ZN10cc1_plugin16unmarshall_checkEPNS_10connectionEy 7
_ZN10cc1_plugin8callbackIiXadL_ZN12_GLOBAL__N_119cp_call_enter_scopeEPNS_10connectionEEEEENS_6statusES3_ _ZN10cc1_plugin10connection4sendEc 47
_ZN10cc1_plugin8callbackIiXadL_ZN12_GLOBAL__N_119cp_call_enter_scopeEPNS_10connectionEEEEENS_6statusES3_ _ZN10cc1_plugin16marshall_intlikeEPNS_10connectionEy 65
_ZL25libcp1_set_triplet_regexpP16gcc_base_contextPKc _ZNSsC1EPKcRKSaIcE 45
_ZL25libcp1_set_triplet_regexpP16gcc_base_contextPKc _Znwm 55
_ZL25libcp1_set_triplet_regexpP16gcc_base_contextPKc _ZTVN6libcp123compiler_triplet_regexpE 75
_ZL25libcp1_set_triplet_regexpP16gcc_base_contextPKc _ZNSsC1ERKSs 83
_ZL25libcp1_set_triplet_regexpP16gcc_base_contextPKc _ZNSs4_Rep20_S_empty_rep_storageE 103
_ZL25libcp1_set_triplet_regexpP16gcc_base_contextPKc __pthread_key_create 129
_ZL25libcp1_set_triplet_regexpP16gcc_base_contextPKc _ZNSs4_Rep10_M_destroyERKSaIcE 160
_ZL25libcp1_set_triplet_regexpP16gcc_base_contextPKc _ZdlPv 199
_ZL25libcp1_set_triplet_regexpP16gcc_base_contextPKc _ZNSs4_Rep20_S_empty_rep_storageE 215
_ZL25libcp1_set_triplet_regexpP16gcc_base_contextPKc _Unwind_Resume 235
_ZL26libcp1_set_driver_filenameP16gcc_base_contextPKc _ZNSsC1EPKcRKSaIcE 45
_ZL26libcp1_set_driver_filenameP16gcc_base_contextPKc _Znwm 55
_ZL26libcp1_set_driver_filenameP16gcc_base_contextPKc _ZTVN6libcp124compiler_driver_filenameE 75
_ZL26libcp1_set_driver_filenameP16gcc_base_contextPKc _ZNSsC1ERKSs 83
_ZL26libcp1_set_driver_filenameP16gcc_base_contextPKc _ZNSs4_Rep20_S_empty_rep_storageE 103
_ZL26libcp1_set_driver_filenameP16gcc_base_contextPKc __pthread_key_create 129
_ZL26libcp1_set_driver_filenameP16gcc_base_contextPKc _ZNSs4_Rep10_M_destroyERKSaIcE 160
_ZL26libcp1_set_driver_filenameP16gcc_base_contextPKc _ZdlPv 199
_ZL26libcp1_set_driver_filenameP16gcc_base_contextPKc _ZNSs4_Rep20_S_empty_rep_storageE 215
_ZL26libcp1_set_driver_filenameP16gcc_base_contextPKc _Unwind_Resume 235
_ZN6libcp1C1EPK15gcc_base_vtablePK16gcc_cp_fe_vtable,_ZN6libcp1C2EPK15gcc_base_vtablePK16gcc_cp_fe_vtable _ZNSs4_Rep20_S_empty_rep_storageE 93
_ZN6libcp1C1EPK15gcc_base_vtablePK16gcc_cp_fe_vtable,_ZN6libcp1C2EPK15gcc_base_vtablePK16gcc_cp_fe_vtable _Znwm 107
_ZN6libcp1C1EPK15gcc_base_vtablePK16gcc_cp_fe_vtable,_ZN6libcp1C2EPK15gcc_base_vtablePK16gcc_cp_fe_vtable _ZTVN6libcp18compilerE 114
_ZN6libcp1C1EPK15gcc_base_vtablePK16gcc_cp_fe_vtable,_ZN6libcp1C2EPK15gcc_base_vtablePK16gcc_cp_fe_vtable _ZNSs4_Rep20_S_empty_rep_storageE 156
_ZN6libcp1C1EPK15gcc_base_vtablePK16gcc_cp_fe_vtable,_ZN6libcp1C2EPK15gcc_base_vtablePK16gcc_cp_fe_vtable _ZNSt6vectorISsSaISsEED1Ev 177
_ZN6libcp1C1EPK15gcc_base_vtablePK16gcc_cp_fe_vtable,_ZN6libcp1C2EPK15gcc_base_vtablePK16gcc_cp_fe_vtable _Unwind_Resume 185
gcc_cp_fe_context _Znwm 21
gcc_cp_fe_context _ZN6libcp1C2EPK15gcc_base_vtablePK16gcc_cp_fe_vtable 42
gcc_cp_fe_context _ZdlPv 74
gcc_cp_fe_context _Unwind_Resume 82
_ZN6libcp1D1Ev,_ZN6libcp1D2Ev _ZNSs4_Rep20_S_empty_rep_storageE 54
_ZN6libcp1D1Ev,_ZN6libcp1D2Ev _ZNSs4_Rep20_S_empty_rep_storageE 107
_ZN6libcp1D1Ev,_ZN6libcp1D2Ev __pthread_key_create 114
_ZN6libcp1D1Ev,_ZN6libcp1D2Ev _ZNSs4_Rep10_M_destroyERKSaIcE 149
_ZN6libcp1D1Ev,_ZN6libcp1D2Ev _ZdlPv 174
_ZN6libcp1D1Ev,_ZN6libcp1D2Ev __pthread_key_create 206
_ZN6libcp1D1Ev,_ZN6libcp1D2Ev _ZNSs4_Rep10_M_destroyERKSaIcE 241
_ZN6libcp1D1Ev,_ZN6libcp1D2Ev _ZNSs4_Rep20_S_empty_rep_storageE 278
_ZN6libcp1D1Ev,_ZN6libcp1D2Ev _ZNSt6vectorISsSaISsEED1Ev 300
_ZN6libcp1D1Ev,_ZN6libcp1D2Ev _Unwind_Resume 308
_ZL14libcp1_destroyP16gcc_base_context _ZN6libcp1D2Ev 10
_ZL14libcp1_destroyP16gcc_base_context _ZdlPv 19
_ZL20libcp1_set_argumentsP16gcc_base_contextiPPc _ZNSs4_Rep20_S_empty_rep_storageE 28
_ZL20libcp1_set_argumentsP16gcc_base_contextiPPc _ZNSs4_Rep20_S_empty_rep_storageE 59
_ZL20libcp1_set_argumentsP16gcc_base_contextiPPc __pthread_key_create 81
_ZL20libcp1_set_argumentsP16gcc_base_contextiPPc _ZNSs4_Rep10_M_destroyERKSaIcE 121
_ZL20libcp1_set_argumentsP16gcc_base_contextiPPc _ZNSsC1ERKSs 165
_ZL20libcp1_set_argumentsP16gcc_base_contextiPPc _ZNSsC1EPKcRKSaIcE 236
_ZL20libcp1_set_argumentsP16gcc_base_contextiPPc _ZNSsC1ERKSs 261
_ZL20libcp1_set_argumentsP16gcc_base_contextiPPc _ZNSs4_Rep20_S_empty_rep_storageE 289
_ZL20libcp1_set_argumentsP16gcc_base_contextiPPc __pthread_key_create 296
_ZL20libcp1_set_argumentsP16gcc_base_contextiPPc _ZNSs4_Rep10_M_destroyERKSaIcE 327
_ZL20libcp1_set_argumentsP16gcc_base_contextiPPc _ZNSt6vectorISsSaISsEE13_M_insert_auxEN9__gnu_cxx17__normal_iteratorIPSsS1_EERKSs 348
_ZL20libcp1_set_argumentsP16gcc_base_contextiPPc _ZNSt6vectorISsSaISsEE13_M_insert_auxEN9__gnu_cxx17__normal_iteratorIPSsS1_EERKSs 412
_ZL20libcp1_set_argumentsP16gcc_base_contextiPPc _ZNSs4_Rep20_S_empty_rep_storageE 436
_ZL20libcp1_set_argumentsP16gcc_base_contextiPPc _Unwind_Resume 456
_ZL20libcp1_set_argumentsP16gcc_base_contextiPPc _ZNSs4_Rep20_S_empty_rep_storageE 475
_ZL14libcp1_compileP16gcc_base_contextPKc socketpair 37
_ZL14libcp1_compileP16gcc_base_contextPKc pipe 55
_ZL14libcp1_compileP16gcc_base_contextPKc _ZNSsC1EPKcRKSaIcE 89
_ZL14libcp1_compileP16gcc_base_contextPKc _ZNSsC1ERKSs 118
_ZL14libcp1_compileP16gcc_base_contextPKc _ZNSs4_Rep20_S_empty_rep_storageE 146
_ZL14libcp1_compileP16gcc_base_contextPKc snprintf 178
_ZL14libcp1_compileP16gcc_base_contextPKc _ZNSsC1EPKcRKSaIcE 207
_ZL14libcp1_compileP16gcc_base_contextPKc _ZNSsC1ERKSs 236
_ZL14libcp1_compileP16gcc_base_contextPKc _ZNSs4_Rep20_S_empty_rep_storageE 264
_ZL14libcp1_compileP16gcc_base_contextPKc _ZNSsC1ERKSs 298
_ZL14libcp1_compileP16gcc_base_contextPKc _ZNSsC1EPKcRKSaIcE 330
_ZL14libcp1_compileP16gcc_base_contextPKc _ZNSsC1ERKSs 359
_ZL14libcp1_compileP16gcc_base_contextPKc _ZNSs4_Rep20_S_empty_rep_storageE 387
_ZL14libcp1_compileP16gcc_base_contextPKc _ZNSsC1EPKcRKSaIcE 413
_ZL14libcp1_compileP16gcc_base_contextPKc _ZNSsC1ERKSs 442
_ZL14libcp1_compileP16gcc_base_contextPKc _ZNSs4_Rep20_S_empty_rep_storageE 470
_ZL14libcp1_compileP16gcc_base_contextPKc _ZNSsC1EPKcRKSaIcE 494
_ZL14libcp1_compileP16gcc_base_contextPKc _ZNSsC1ERKSs 523
_ZL14libcp1_compileP16gcc_base_contextPKc _ZNSs4_Rep20_S_empty_rep_storageE 551
_ZL14libcp1_compileP16gcc_base_contextPKc _ZNSsC1EPKcRKSaIcE 583
_ZL14libcp1_compileP16gcc_base_contextPKc _ZNSsC1ERKSs 612
_ZL14libcp1_compileP16gcc_base_contextPKc _ZNSs4_Rep20_S_empty_rep_storageE 640
_ZL14libcp1_compileP16gcc_base_contextPKc _Znwm 656
_ZL14libcp1_compileP16gcc_base_contextPKc _ZTVN10cc1_plugin10connectionE 680
_ZL14libcp1_compileP16gcc_base_contextPKc _ZN10cc1_plugin9callbacksC1Ev 698
_ZL14libcp1_compileP16gcc_base_contextPKc _ZTV17libcp1_connection 706
_ZL14libcp1_compileP16gcc_base_contextPKc _ZN10cc1_plugin9callbacks12add_callbackEPKcPFNS_6statusEPNS_10connectionEE 733
_ZL14libcp1_compileP16gcc_base_contextPKc _ZN10cc1_plugin9callbacks12add_callbackEPKcPFNS_6statusEPNS_10connectionEE 756
_ZL14libcp1_compileP16gcc_base_contextPKc _ZN10cc1_plugin9callbacks12add_callbackEPKcPFNS_6statusEPNS_10connectionEE 779
_ZL14libcp1_compileP16gcc_base_contextPKc _ZN10cc1_plugin9callbacks12add_callbackEPKcPFNS_6statusEPNS_10connectionEE 802
_ZL14libcp1_compileP16gcc_base_contextPKc _ZSt7nothrow 832
_ZL14libcp1_compileP16gcc_base_contextPKc _ZnamRKSt9nothrow_t 860
_ZL14libcp1_compileP16gcc_base_contextPKc fork 960
_ZL14libcp1_compileP16gcc_base_contextPKc close 989
_ZL14libcp1_compileP16gcc_base_contextPKc close 998
_ZL14libcp1_compileP16gcc_base_contextPKc _ZN10cc1_plugin10connection4sendEc 1012
_ZL14libcp1_compileP16gcc_base_contextPKc close 1031
_ZL14libcp1_compileP16gcc_base_contextPKc close 1040
_ZL14libcp1_compileP16gcc_base_contextPKc waitpid 1055
_ZL14libcp1_compileP16gcc_base_contextPKc close 1123
_ZL14libcp1_compileP16gcc_base_contextPKc close 1132
_ZL14libcp1_compileP16gcc_base_contextPKc _ZN10cc1_plugin16marshall_intlikeEPNS_10connectionEy 1191
_ZL14libcp1_compileP16gcc_base_contextPKc _ZN10cc1_plugin10connection7do_waitEb 1210
_ZL14libcp1_compileP16gcc_base_contextPKc __errno_location 1225
_ZL14libcp1_compileP16gcc_base_contextPKc __pthread_key_create 1240
_ZL14libcp1_compileP16gcc_base_contextPKc _ZNSs4_Rep10_M_destroyERKSaIcE 1279
_ZL14libcp1_compileP16gcc_base_contextPKc __pthread_key_create 1297
_ZL14libcp1_compileP16gcc_base_contextPKc _ZNSs4_Rep10_M_destroyERKSaIcE 1336
_ZL14libcp1_compileP16gcc_base_contextPKc __pthread_key_create 1353
_ZL14libcp1_compileP16gcc_base_contextPKc _ZNSs4_Rep10_M_destroyERKSaIcE 1392
_ZL14libcp1_compileP16gcc_base_contextPKc __pthread_key_create 1409
_ZL14libcp1_compileP16gcc_base_contextPKc _ZNSs4_Rep10_M_destroyERKSaIcE 1448
_ZL14libcp1_compileP16gcc_base_contextPKc __pthread_key_create 1465
_ZL14libcp1_compileP16gcc_base_contextPKc _ZNSs4_Rep10_M_destroyERKSaIcE 1504
_ZL14libcp1_compileP16gcc_base_contextPKc __pthread_key_create 1521
_ZL14libcp1_compileP16gcc_base_contextPKc _ZNSs4_Rep10_M_destroyERKSaIcE 1560
_ZL14libcp1_compileP16gcc_base_contextPKc close 1574
_ZL14libcp1_compileP16gcc_base_contextPKc close 1583
_ZL14libcp1_compileP16gcc_base_contextPKc close 1592
_ZL14libcp1_compileP16gcc_base_contextPKc close 1601
_ZL14libcp1_compileP16gcc_base_contextPKc _ZNSt6vectorISsSaISsEE13_M_insert_auxEN9__gnu_cxx17__normal_iteratorIPSsS1_EERKSs 1629
_ZL14libcp1_compileP16gcc_base_contextPKc _ZNSt6vectorISsSaISsEE13_M_insert_auxEN9__gnu_cxx17__normal_iteratorIPSsS1_EERKSs 1648
_ZL14libcp1_compileP16gcc_base_contextPKc _ZNSt6vectorISsSaISsEE13_M_insert_auxEN9__gnu_cxx17__normal_iteratorIPSsS1_EERKSs 1669
_ZL14libcp1_compileP16gcc_base_contextPKc _ZNSt6vectorISsSaISsEE13_M_insert_auxEN9__gnu_cxx17__normal_iteratorIPSsS1_EERKSs 1690
_ZL14libcp1_compileP16gcc_base_contextPKc _ZNSt6vectorISsSaISsEE13_M_insert_auxEN9__gnu_cxx17__normal_iteratorIPSsS1_EERKSs 1711
_ZL14libcp1_compileP16gcc_base_contextPKc _ZNSt6vectorISsSaISsEE13_M_insert_auxEN9__gnu_cxx17__normal_iteratorIPSsS1_EERKSs 1732
_ZL14libcp1_compileP16gcc_base_contextPKc _ZNSt6vectorISsSaISsEE13_M_insert_auxEN9__gnu_cxx17__normal_iteratorIPSsS1_EERKSs 1753
_ZL14libcp1_compileP16gcc_base_contextPKc _ZdlPv 1865
_ZL14libcp1_compileP16gcc_base_contextPKc _Unwind_Resume 1873
_ZL14libcp1_compileP16gcc_base_contextPKc dup2 1887
_ZL14libcp1_compileP16gcc_base_contextPKc dup2 1901
_ZL14libcp1_compileP16gcc_base_contextPKc close 1910
_ZL14libcp1_compileP16gcc_base_contextPKc close 1919
_ZL14libcp1_compileP16gcc_base_contextPKc close 1928
_ZL14libcp1_compileP16gcc_base_contextPKc execvp 1940
_ZL14libcp1_compileP16gcc_base_contextPKc _exit 1950
_ZL14libcp1_compileP16gcc_base_contextPKc _ZNSs4_Rep20_S_empty_rep_storageE 1969
_ZL14libcp1_compileP16gcc_base_contextPKc abort 1996
_ZL14libcp1_compileP16gcc_base_contextPKc _ZNSs4_Rep20_S_empty_rep_storageE 2015
_ZNK6libcp123compiler_triplet_regexp4findERSs _ZNSt8ios_baseC2Ev 46
_ZNK6libcp123compiler_triplet_regexp4findERSs _ZTTSt18basic_stringstreamIcSt11char_traitsIcESaIcEE 53
_ZNK6libcp123compiler_triplet_regexp4findERSs _ZTTSt18basic_stringstreamIcSt11char_traitsIcESaIcEE 71
_ZNK6libcp123compiler_triplet_regexp4findERSs _ZTVSt9basic_iosIcSt11char_traitsIcEE 82
_ZNK6libcp123compiler_triplet_regexp4findERSs _ZNSt9basic_iosIcSt11char_traitsIcEE4initEPSt15basic_streambufIcS1_E 167
_ZNK6libcp123compiler_triplet_regexp4findERSs _ZTTSt18basic_stringstreamIcSt11char_traitsIcESaIcEE 174
_ZNK6libcp123compiler_triplet_regexp4findERSs _ZTTSt18basic_stringstreamIcSt11char_traitsIcESaIcEE 202
_ZNK6libcp123compiler_triplet_regexp4findERSs _ZNSt9basic_iosIcSt11char_traitsIcEE4initEPSt15basic_streambufIcS1_E 210
_ZNK6libcp123compiler_triplet_regexp4findERSs _ZTTSt18basic_stringstreamIcSt11char_traitsIcESaIcEE 217
_ZNK6libcp123compiler_triplet_regexp4findERSs _ZTTSt18basic_stringstreamIcSt11char_traitsIcESaIcEE 224
_ZNK6libcp123compiler_triplet_regexp4findERSs _ZTVSt18basic_stringstreamIcSt11char_traitsIcESaIcEE 254
_ZNK6libcp123compiler_triplet_regexp4findERSs _ZTVSt18basic_stringstreamIcSt11char_traitsIcESaIcEE 265
_ZNK6libcp123compiler_triplet_regexp4findERSs _ZTVSt18basic_stringstreamIcSt11char_traitsIcESaIcEE 276
_ZNK6libcp123compiler_triplet_regexp4findERSs _ZTVSt15basic_streambufIcSt11char_traitsIcEE 291
_ZNK6libcp123compiler_triplet_regexp4findERSs _ZNSt6localeC1Ev 362
_ZNK6libcp123compiler_triplet_regexp4findERSs _ZTVSt15basic_stringbufIcSt11char_traitsIcESaIcEE 380
_ZNK6libcp123compiler_triplet_regexp4findERSs _ZNSs4_Rep20_S_empty_rep_storageE 401
_ZNK6libcp123compiler_triplet_regexp4findERSs _ZNSt9basic_iosIcSt11char_traitsIcEE4initEPSt15basic_streambufIcS1_E 414
_ZNK6libcp123compiler_triplet_regexp4findERSs _ZSt16__ostream_insertIcSt11char_traitsIcEERSt13basic_ostreamIT_T0_ES6_PKS3_l 440
_ZNK6libcp123compiler_triplet_regexp4findERSs strlen 457
_ZNK6libcp123compiler_triplet_regexp4findERSs _ZSt16__ostream_insertIcSt11char_traitsIcEERSt13basic_ostreamIT_T0_ES6_PKS3_l 479
_ZNK6libcp123compiler_triplet_regexp4findERSs _ZSt16__ostream_insertIcSt11char_traitsIcEERSt13basic_ostreamIT_T0_ES6_PKS3_l 505
_ZNK6libcp123compiler_triplet_regexp4findERSs _ZSt16__ostream_insertIcSt11char_traitsIcEERSt13basic_ostreamIT_T0_ES6_PKS3_l 558
_ZNK6libcp123compiler_triplet_regexp4findERSs _ZSt16__ostream_insertIcSt11char_traitsIcEERSt13basic_ostreamIT_T0_ES6_PKS3_l 615
_ZNK6libcp123compiler_triplet_regexp4findERSs _ZSt16__ostream_insertIcSt11char_traitsIcEERSt13basic_ostreamIT_T0_ES6_PKS3_l 646
_ZNK6libcp123compiler_triplet_regexp4findERSs _ZNSs4_Rep20_S_empty_rep_storageE 664
_ZNK6libcp123compiler_triplet_regexp4findERSs _ZNSs12_S_constructIPcEES0_T_S1_RKSaIcESt20forward_iterator_tag 714
_ZNK6libcp123compiler_triplet_regexp4findERSs _ZNSs6assignERKSs 742
_ZNK6libcp123compiler_triplet_regexp4findERSs _ZNSs4_Rep20_S_empty_rep_storageE 760
_ZNK6libcp123compiler_triplet_regexp4findERSs _ZTVSt18basic_stringstreamIcSt11char_traitsIcESaIcEE 784
_ZNK6libcp123compiler_triplet_regexp4findERSs _ZTVSt18basic_stringstreamIcSt11char_traitsIcESaIcEE 795
_ZNK6libcp123compiler_triplet_regexp4findERSs _ZTVSt18basic_stringstreamIcSt11char_traitsIcESaIcEE 806
_ZNK6libcp123compiler_triplet_regexp4findERSs _ZTVSt15basic_stringbufIcSt11char_traitsIcESaIcEE 817
_ZNK6libcp123compiler_triplet_regexp4findERSs _ZNSs4_Rep20_S_empty_rep_storageE 828
_ZNK6libcp123compiler_triplet_regexp4findERSs _ZTVSt15basic_streambufIcSt11char_traitsIcEE 852
_ZNK6libcp123compiler_triplet_regexp4findERSs _ZNSt6localeD1Ev 861
_ZNK6libcp123compiler_triplet_regexp4findERSs _ZTTSt18basic_stringstreamIcSt11char_traitsIcESaIcEE 868
_ZNK6libcp123compiler_triplet_regexp4findERSs _ZTTSt18basic_stringstreamIcSt11char_traitsIcESaIcEE 875
_ZNK6libcp123compiler_triplet_regexp4findERSs _ZTTSt18basic_stringstreamIcSt11char_traitsIcESaIcEE 894
_ZNK6libcp123compiler_triplet_regexp4findERSs _ZTTSt18basic_stringstreamIcSt11char_traitsIcESaIcEE 901
_ZNK6libcp123compiler_triplet_regexp4findERSs _ZTTSt18basic_stringstreamIcSt11char_traitsIcESaIcEE 931
_ZNK6libcp123compiler_triplet_regexp4findERSs _ZTVSt9basic_iosIcSt11char_traitsIcEE 964
_ZNK6libcp123compiler_triplet_regexp4findERSs _ZNSt8ios_baseD2Ev 973
_ZNK6libcp123compiler_triplet_regexp4findERSs stderr 997
_ZNK6libcp123compiler_triplet_regexp4findERSs fprintf 1009
_ZNK6libcp123compiler_triplet_regexp4findERSs xregcomp 1033
_ZNK6libcp123compiler_triplet_regexp4findERSs xregerror 1064
_ZNK6libcp123compiler_triplet_regexp4findERSs xregerror 1095
_ZNK6libcp123compiler_triplet_regexp4findERSs concat 1125
_ZNK6libcp123compiler_triplet_regexp4findERSs _ZNSs4_Rep20_S_empty_rep_storageE 1146
_ZNK6libcp123compiler_triplet_regexp4findERSs _ZNSs12_S_constructIPcEES0_T_S1_RKSaIcESt20forward_iterator_tag 1200
_ZNK6libcp123compiler_triplet_regexp4findERSs _ZNSs6assignERKSs 1228
_ZNK6libcp123compiler_triplet_regexp4findERSs _Z13find_compilerRK17re_pattern_bufferPSs 1255
_ZNK6libcp123compiler_triplet_regexp4findERSs xregfree 1271
_ZNK6libcp123compiler_triplet_regexp4findERSs concat 1297
_ZNK6libcp123compiler_triplet_regexp4findERSs xregfree 1307
_ZNK6libcp123compiler_triplet_regexp4findERSs stderr 1331
_ZNK6libcp123compiler_triplet_regexp4findERSs fprintf 1346
_ZNK6libcp123compiler_triplet_regexp4findERSs __pthread_key_create 1358
_ZNK6libcp123compiler_triplet_regexp4findERSs _ZNSs4_Rep10_M_destroyERKSaIcE 1406
_ZNK6libcp123compiler_triplet_regexp4findERSs __pthread_key_create 1423
_ZNK6libcp123compiler_triplet_regexp4findERSs _ZNSs4_Rep10_M_destroyERKSaIcE 1464
_ZNK6libcp123compiler_triplet_regexp4findERSs _ZNSt9basic_iosIcSt11char_traitsIcEE5clearESt12_Ios_Iostate 1499
_ZNK6libcp123compiler_triplet_regexp4findERSs __pthread_key_create 1509
_ZNK6libcp123compiler_triplet_regexp4findERSs _ZNSs4_Rep10_M_destroyERKSaIcE 1546
_ZNK6libcp123compiler_triplet_regexp4findERSs _ZNSs6assignERKSs 1574
_ZNK6libcp123compiler_triplet_regexp4findERSs _ZTTSt18basic_stringstreamIcSt11char_traitsIcESaIcEE 1635
_ZNK6libcp123compiler_triplet_regexp4findERSs _ZTVSt9basic_iosIcSt11char_traitsIcEE 1671
_ZNK6libcp123compiler_triplet_regexp4findERSs _ZNSt8ios_baseD2Ev 1680
_ZNK6libcp123compiler_triplet_regexp4findERSs _Unwind_Resume 1688
_ZNK6libcp123compiler_triplet_regexp4findERSs _ZNSs4_Rep20_S_empty_rep_storageE 1714
_ZNK6libcp123compiler_triplet_regexp4findERSs _ZNSt18basic_stringstreamIcSt11char_traitsIcESaIcEED1Ev 1740
_ZNK6libcp123compiler_triplet_regexp4findERSs _Unwind_Resume 1748
_ZNK6libcp123compiler_triplet_regexp4findERSs _ZTVSt15basic_stringbufIcSt11char_traitsIcESaIcEE 1769
_ZNK6libcp123compiler_triplet_regexp4findERSs _ZNSs4_Rep20_S_empty_rep_storageE 1780
_ZNK6libcp123compiler_triplet_regexp4findERSs _ZTVSt15basic_streambufIcSt11char_traitsIcEE 1800
_ZNK6libcp123compiler_triplet_regexp4findERSs _ZNSt6localeD1Ev 1809
_ZNK6libcp123compiler_triplet_regexp4findERSs _ZTTSt18basic_stringstreamIcSt11char_traitsIcESaIcEE 1821
_ZNK6libcp123compiler_triplet_regexp4findERSs _ZNSdD2Ev 1826
_ZNK6libcp123compiler_triplet_regexp4findERSs _ZNSs4_Rep20_S_empty_rep_storageE 1852
_ZNK6libcp123compiler_triplet_regexp4findERSs __pthread_key_create 1880
_ZNK6libcp123compiler_triplet_regexp4findERSs _ZNSs4_Rep10_M_destroyERKSaIcE 1914
_ZNK6libcp123compiler_triplet_regexp4findERSs _ZNSs4_Rep20_S_empty_rep_storageE 1945
_ZNK6libcp123compiler_triplet_regexp4findERSs _Unwind_Resume 1967
_ZN6libcp18compilerD0Ev _ZdlPv 1
_ZN17libcp1_connectionD1Ev,_ZN17libcp1_connectionD2Ev _ZTV17libcp1_connection 3
_ZN17libcp1_connectionD1Ev,_ZN17libcp1_connectionD2Ev _ZN10cc1_plugin10connectionD2Ev 8
_ZN17libcp1_connectionD0Ev _ZTV17libcp1_connection 7
_ZN17libcp1_connectionD0Ev _ZN10cc1_plugin10connectionD2Ev 12
_ZN17libcp1_connectionD0Ev _ZdlPv 21
_Z3rpcIyXadL_ZN10cc1_plugin2cp10build_declEEEPKc18gcc_cp_symbol_kindyS3_yS3_jET_P14gcc_cp_contextT1_T2_T3_T4_T5_T6_T7_ _ZN10cc1_plugin2cp10build_declE 38
_Z3rpcIyXadL_ZN10cc1_plugin2cp10build_declEEEPKc18gcc_cp_symbol_kindyS3_yS3_jET_P14gcc_cp_contextT1_T2_T3_T4_T5_T6_T7_ _ZN10cc1_plugin10connection4sendEc 51
_Z3rpcIyXadL_ZN10cc1_plugin2cp10build_declEEEPKc18gcc_cp_symbol_kindyS3_yS3_jET_P14gcc_cp_contextT1_T2_T3_T4_T5_T6_T7_ _ZN10cc1_plugin8marshallEPNS_10connectionEPKc 87
_Z3rpcIyXadL_ZN10cc1_plugin2cp10build_declEEEPKc18gcc_cp_symbol_kindyS3_yS3_jET_P14gcc_cp_contextT1_T2_T3_T4_T5_T6_T7_ _ZN10cc1_plugin16marshall_intlikeEPNS_10connectionEy 104
_Z3rpcIyXadL_ZN10cc1_plugin2cp10build_declEEEPKc18gcc_cp_symbol_kindyS3_yS3_jET_P14gcc_cp_contextT1_T2_T3_T4_T5_T6_T7_ _ZN10cc1_plugin8marshallEPNS_10connectionEPKc 119
_Z3rpcIyXadL_ZN10cc1_plugin2cp10build_declEEEPKc18gcc_cp_symbol_kindyS3_yS3_jET_P14gcc_cp_contextT1_T2_T3_T4_T5_T6_T7_ _ZN10cc1_plugin16marshall_intlikeEPNS_10connectionEy 134
_Z3rpcIyXadL_ZN10cc1_plugin2cp10build_declEEEPKc18gcc_cp_symbol_kindyS3_yS3_jET_P14gcc_cp_contextT1_T2_T3_T4_T5_T6_T7_ _ZN10cc1_plugin16marshall_intlikeEPNS_10connectionEy 149
_Z3rpcIyXadL_ZN10cc1_plugin2cp10build_declEEEPKc18gcc_cp_symbol_kindyS3_yS3_jET_P14gcc_cp_contextT1_T2_T3_T4_T5_T6_T7_ _ZN10cc1_plugin8marshallEPNS_10connectionEPKc 164
_Z3rpcIyXadL_ZN10cc1_plugin2cp10build_declEEEPKc18gcc_cp_symbol_kindyS3_yS3_jET_P14gcc_cp_contextT1_T2_T3_T4_T5_T6_T7_ _ZN10cc1_plugin16marshall_intlikeEPNS_10connectionEy 181
_Z3rpcIyXadL_ZN10cc1_plugin2cp10build_declEEEPKc18gcc_cp_symbol_kindyS3_yS3_jET_P14gcc_cp_contextT1_T2_T3_T4_T5_T6_T7_ _ZN10cc1_plugin8marshallEPNS_10connectionEPKc 202
_Z3rpcIyXadL_ZN10cc1_plugin2cp10build_declEEEPKc18gcc_cp_symbol_kindyS3_yS3_jET_P14gcc_cp_contextT1_T2_T3_T4_T5_T6_T7_ _ZN10cc1_plugin16marshall_intlikeEPNS_10connectionEy 222
_Z3rpcIyXadL_ZN10cc1_plugin2cp10build_declEEEPKc18gcc_cp_symbol_kindyS3_yS3_jET_P14gcc_cp_contextT1_T2_T3_T4_T5_T6_T7_ _ZN10cc1_plugin10connection7do_waitEb 243
_Z3rpcIyXadL_ZN10cc1_plugin2cp10build_declEEEPKc18gcc_cp_symbol_kindyS3_yS3_jET_P14gcc_cp_contextT1_T2_T3_T4_T5_T6_T7_ _ZN10cc1_plugin18unmarshall_intlikeEPNS_10connectionEPy 264
_Z3rpcIyXadL_ZN10cc1_plugin2cp24start_closure_class_typeEEEiy18gcc_cp_symbol_kindPKcjET_P14gcc_cp_contextT1_T2_T3_T4_T5_ _ZN10cc1_plugin2cp24start_closure_class_typeE 38
_Z3rpcIyXadL_ZN10cc1_plugin2cp24start_closure_class_typeEEEiy18gcc_cp_symbol_kindPKcjET_P14gcc_cp_contextT1_T2_T3_T4_T5_ _ZN10cc1_plugin10connection4sendEc 51
_Z3rpcIyXadL_ZN10cc1_plugin2cp24start_closure_class_typeEEEiy18gcc_cp_symbol_kindPKcjET_P14gcc_cp_contextT1_T2_T3_T4_T5_ _ZN10cc1_plugin8marshallEPNS_10connectionEPKc 87
_Z3rpcIyXadL_ZN10cc1_plugin2cp24start_closure_class_typeEEEiy18gcc_cp_symbol_kindPKcjET_P14gcc_cp_contextT1_T2_T3_T4_T5_ _ZN10cc1_plugin16marshall_intlikeEPNS_10connectionEy 104
_Z3rpcIyXadL_ZN10cc1_plugin2cp24start_closure_class_typeEEEiy18gcc_cp_symbol_kindPKcjET_P14gcc_cp_contextT1_T2_T3_T4_T5_ _ZN10cc1_plugin16marshall_intlikeEPNS_10connectionEy 119
_Z3rpcIyXadL_ZN10cc1_plugin2cp24start_closure_class_typeEEEiy18gcc_cp_symbol_kindPKcjET_P14gcc_cp_contextT1_T2_T3_T4_T5_ _ZN10cc1_plugin16marshall_intlikeEPNS_10connectionEy 134
_Z3rpcIyXadL_ZN10cc1_plugin2cp24start_closure_class_typeEEEiy18gcc_cp_symbol_kindPKcjET_P14gcc_cp_contextT1_T2_T3_T4_T5_ _ZN10cc1_plugin16marshall_intlikeEPNS_10connectionEy 149
_Z3rpcIyXadL_ZN10cc1_plugin2cp24start_closure_class_typeEEEiy18gcc_cp_symbol_kindPKcjET_P14gcc_cp_contextT1_T2_T3_T4_T5_ _ZN10cc1_plugin8marshallEPNS_10connectionEPKc 164
_Z3rpcIyXadL_ZN10cc1_plugin2cp24start_closure_class_typeEEEiy18gcc_cp_symbol_kindPKcjET_P14gcc_cp_contextT1_T2_T3_T4_T5_ _ZN10cc1_plugin16marshall_intlikeEPNS_10connectionEy 180
_Z3rpcIyXadL_ZN10cc1_plugin2cp24start_closure_class_typeEEEiy18gcc_cp_symbol_kindPKcjET_P14gcc_cp_contextT1_T2_T3_T4_T5_ _ZN10cc1_plugin10connection7do_waitEb 201
_Z3rpcIyXadL_ZN10cc1_plugin2cp24start_closure_class_typeEEEiy18gcc_cp_symbol_kindPKcjET_P14gcc_cp_contextT1_T2_T3_T4_T5_ _ZN10cc1_plugin18unmarshall_intlikeEPNS_10connectionEPy 222
_Z3rpcIiXadL_ZN10cc1_plugin2cp14build_constantEEEyPKcmS3_jET_P14gcc_cp_contextT1_T2_T3_T4_T5_ _ZN10cc1_plugin2cp14build_constantE 38
_Z3rpcIiXadL_ZN10cc1_plugin2cp14build_constantEEEyPKcmS3_jET_P14gcc_cp_contextT1_T2_T3_T4_T5_ _ZN10cc1_plugin10connection4sendEc 51
_Z3rpcIiXadL_ZN10cc1_plugin2cp14build_constantEEEyPKcmS3_jET_P14gcc_cp_contextT1_T2_T3_T4_T5_ _ZN10cc1_plugin8marshallEPNS_10connectionEPKc 87
_Z3rpcIiXadL_ZN10cc1_plugin2cp14build_constantEEEyPKcmS3_jET_P14gcc_cp_contextT1_T2_T3_T4_T5_ _ZN10cc1_plugin16marshall_intlikeEPNS_10connectionEy 104
_Z3rpcIiXadL_ZN10cc1_plugin2cp14build_constantEEEyPKcmS3_jET_P14gcc_cp_contextT1_T2_T3_T4_T5_ _ZN10cc1_plugin16marshall_intlikeEPNS_10connectionEy 119
_Z3rpcIiXadL_ZN10cc1_plugin2cp14build_constantEEEyPKcmS3_jET_P14gcc_cp_contextT1_T2_T3_T4_T5_ _ZN10cc1_plugin8marshallEPNS_10connectionEPKc 134
_Z3rpcIiXadL_ZN10cc1_plugin2cp14build_constantEEEyPKcmS3_jET_P14gcc_cp_contextT1_T2_T3_T4_T5_ _ZN10cc1_plugin16marshall_intlikeEPNS_10connectionEy 149
_Z3rpcIiXadL_ZN10cc1_plugin2cp14build_constantEEEyPKcmS3_jET_P14gcc_cp_contextT1_T2_T3_T4_T5_ _ZN10cc1_plugin8marshallEPNS_10connectionEPKc 164
_Z3rpcIiXadL_ZN10cc1_plugin2cp14build_constantEEEyPKcmS3_jET_P14gcc_cp_contextT1_T2_T3_T4_T5_ _ZN10cc1_plugin16marshall_intlikeEPNS_10connectionEy 180
_Z3rpcIiXadL_ZN10cc1_plugin2cp14build_constantEEEyPKcmS3_jET_P14gcc_cp_contextT1_T2_T3_T4_T5_ _ZN10cc1_plugin10connection7do_waitEb 201
_Z3rpcIiXadL_ZN10cc1_plugin2cp14build_constantEEEyPKcmS3_jET_P14gcc_cp_contextT1_T2_T3_T4_T5_ _ZN10cc1_plugin18unmarshall_intlikeEPNS_10connectionEPy 222
_Z3rpcIyXadL_ZN10cc1_plugin2cp30build_value_template_parameterEEEyPKcyS3_jET_P14gcc_cp_contextT1_T2_T3_T4_T5_ _ZN10cc1_plugin2cp30build_value_template_parameterE 38
_Z3rpcIyXadL_ZN10cc1_plugin2cp30build_value_template_parameterEEEyPKcyS3_jET_P14gcc_cp_contextT1_T2_T3_T4_T5_ _ZN10cc1_plugin10connection4sendEc 51
_Z3rpcIyXadL_ZN10cc1_plugin2cp30build_value_template_parameterEEEyPKcyS3_jET_P14gcc_cp_contextT1_T2_T3_T4_T5_ _ZN10cc1_plugin8marshallEPNS_10connectionEPKc 87
_Z3rpcIyXadL_ZN10cc1_plugin2cp30build_value_template_parameterEEEyPKcyS3_jET_P14gcc_cp_contextT1_T2_T3_T4_T5_ _ZN10cc1_plugin16marshall_intlikeEPNS_10connectionEy 104
_Z3rpcIyXadL_ZN10cc1_plugin2cp30build_value_template_parameterEEEyPKcyS3_jET_P14gcc_cp_contextT1_T2_T3_T4_T5_ _ZN10cc1_plugin16marshall_intlikeEPNS_10connectionEy 119
_Z3rpcIyXadL_ZN10cc1_plugin2cp30build_value_template_parameterEEEyPKcyS3_jET_P14gcc_cp_contextT1_T2_T3_T4_T5_ _ZN10cc1_plugin8marshallEPNS_10connectionEPKc 134
_Z3rpcIyXadL_ZN10cc1_plugin2cp30build_value_template_parameterEEEyPKcyS3_jET_P14gcc_cp_contextT1_T2_T3_T4_T5_ _ZN10cc1_plugin16marshall_intlikeEPNS_10connectionEy 149
_Z3rpcIyXadL_ZN10cc1_plugin2cp30build_value_template_parameterEEEyPKcyS3_jET_P14gcc_cp_contextT1_T2_T3_T4_T5_ _ZN10cc1_plugin8marshallEPNS_10connectionEPKc 164
_Z3rpcIyXadL_ZN10cc1_plugin2cp30build_value_template_parameterEEEyPKcyS3_jET_P14gcc_cp_contextT1_T2_T3_T4_T5_ _ZN10cc1_plugin16marshall_intlikeEPNS_10connectionEy 180
_Z3rpcIyXadL_ZN10cc1_plugin2cp30build_value_template_parameterEEEyPKcyS3_jET_P14gcc_cp_contextT1_T2_T3_T4_T5_ _ZN10cc1_plugin10connection7do_waitEb 201
_Z3rpcIyXadL_ZN10cc1_plugin2cp30build_value_template_parameterEEEyPKcyS3_jET_P14gcc_cp_contextT1_T2_T3_T4_T5_ _ZN10cc1_plugin18unmarshall_intlikeEPNS_10connectionEPy 222
_Z3rpcIyXadL_ZN10cc1_plugin2cp11build_fieldEEEPKcy18gcc_cp_symbol_kindmmET_P14gcc_cp_contextT1_T2_T3_T4_T5_ _ZN10cc1_plugin2cp11build_fieldE 38
_Z3rpcIyXadL_ZN10cc1_plugin2cp11build_fieldEEEPKcy18gcc_cp_symbol_kindmmET_P14gcc_cp_contextT1_T2_T3_T4_T5_ _ZN10cc1_plugin10connection4sendEc 51
_Z3rpcIyXadL_ZN10cc1_plugin2cp11build_fieldEEEPKcy18gcc_cp_symbol_kindmmET_P14gcc_cp_contextT1_T2_T3_T4_T5_ _ZN10cc1_plugin8marshallEPNS_10connectionEPKc 87
_Z3rpcIyXadL_ZN10cc1_plugin2cp11build_fieldEEEPKcy18gcc_cp_symbol_kindmmET_P14gcc_cp_contextT1_T2_T3_T4_T5_ _ZN10cc1_plugin16marshall_intlikeEPNS_10connectionEy 104
_Z3rpcIyXadL_ZN10cc1_plugin2cp11build_fieldEEEPKcy18gcc_cp_symbol_kindmmET_P14gcc_cp_contextT1_T2_T3_T4_T5_ _ZN10cc1_plugin8marshallEPNS_10connectionEPKc 119
_Z3rpcIyXadL_ZN10cc1_plugin2cp11build_fieldEEEPKcy18gcc_cp_symbol_kindmmET_P14gcc_cp_contextT1_T2_T3_T4_T5_ _ZN10cc1_plugin16marshall_intlikeEPNS_10connectionEy 134
_Z3rpcIyXadL_ZN10cc1_plugin2cp11build_fieldEEEPKcy18gcc_cp_symbol_kindmmET_P14gcc_cp_contextT1_T2_T3_T4_T5_ _ZN10cc1_plugin16marshall_intlikeEPNS_10connectionEy 149
_Z3rpcIyXadL_ZN10cc1_plugin2cp11build_fieldEEEPKcy18gcc_cp_symbol_kindmmET_P14gcc_cp_contextT1_T2_T3_T4_T5_ _ZN10cc1_plugin16marshall_intlikeEPNS_10connectionEy 164
_Z3rpcIyXadL_ZN10cc1_plugin2cp11build_fieldEEEPKcy18gcc_cp_symbol_kindmmET_P14gcc_cp_contextT1_T2_T3_T4_T5_ _ZN10cc1_plugin16marshall_intlikeEPNS_10connectionEy 181
_Z3rpcIyXadL_ZN10cc1_plugin2cp11build_fieldEEEPKcy18gcc_cp_symbol_kindmmET_P14gcc_cp_contextT1_T2_T3_T4_T5_ _ZN10cc1_plugin10connection7do_waitEb 202
_Z3rpcIyXadL_ZN10cc1_plugin2cp11build_fieldEEEPKcy18gcc_cp_symbol_kindmmET_P14gcc_cp_contextT1_T2_T3_T4_T5_ _ZN10cc1_plugin18unmarshall_intlikeEPNS_10connectionEPy 223
_Z3rpcIyXadL_ZN10cc1_plugin2cp15start_enum_typeEEEPKcy18gcc_cp_symbol_kindS3_jET_P14gcc_cp_contextT1_T2_T3_T4_T5_ _ZN10cc1_plugin2cp15start_enum_typeE 38
_Z3rpcIyXadL_ZN10cc1_plugin2cp15start_enum_typeEEEPKcy18gcc_cp_symbol_kindS3_jET_P14gcc_cp_contextT1_T2_T3_T4_T5_ _ZN10cc1_plugin10connection4sendEc 51
_Z3rpcIyXadL_ZN10cc1_plugin2cp15start_enum_typeEEEPKcy18gcc_cp_symbol_kindS3_jET_P14gcc_cp_contextT1_T2_T3_T4_T5_ _ZN10cc1_plugin8marshallEPNS_10connectionEPKc 87
_Z3rpcIyXadL_ZN10cc1_plugin2cp15start_enum_typeEEEPKcy18gcc_cp_symbol_kindS3_jET_P14gcc_cp_contextT1_T2_T3_T4_T5_ _ZN10cc1_plugin16marshall_intlikeEPNS_10connectionEy 104
_Z3rpcIyXadL_ZN10cc1_plugin2cp15start_enum_typeEEEPKcy18gcc_cp_symbol_kindS3_jET_P14gcc_cp_contextT1_T2_T3_T4_T5_ _ZN10cc1_plugin8marshallEPNS_10connectionEPKc 119
_Z3rpcIyXadL_ZN10cc1_plugin2cp15start_enum_typeEEEPKcy18gcc_cp_symbol_kindS3_jET_P14gcc_cp_contextT1_T2_T3_T4_T5_ _ZN10cc1_plugin16marshall_intlikeEPNS_10connectionEy 134
_Z3rpcIyXadL_ZN10cc1_plugin2cp15start_enum_typeEEEPKcy18gcc_cp_symbol_kindS3_jET_P14gcc_cp_contextT1_T2_T3_T4_T5_ _ZN10cc1_plugin16marshall_intlikeEPNS_10connectionEy 149
_Z3rpcIyXadL_ZN10cc1_plugin2cp15start_enum_typeEEEPKcy18gcc_cp_symbol_kindS3_jET_P14gcc_cp_contextT1_T2_T3_T4_T5_ _ZN10cc1_plugin8marshallEPNS_10connectionEPKc 164
_Z3rpcIyXadL_ZN10cc1_plugin2cp15start_enum_typeEEEPKcy18gcc_cp_symbol_kindS3_jET_P14gcc_cp_contextT1_T2_T3_T4_T5_ _ZN10cc1_plugin16marshall_intlikeEPNS_10connectionEy 180
_Z3rpcIyXadL_ZN10cc1_plugin2cp15start_enum_typeEEEPKcy18gcc_cp_symbol_kindS3_jET_P14gcc_cp_contextT1_T2_T3_T4_T5_ _ZN10cc1_plugin10connection7do_waitEb 201
_Z3rpcIyXadL_ZN10cc1_plugin2cp15start_enum_typeEEEPKcy18gcc_cp_symbol_kindS3_jET_P14gcc_cp_contextT1_T2_T3_T4_T5_ _ZN10cc1_plugin18unmarshall_intlikeEPNS_10connectionEPy 222
_Z3rpcIyXadL_ZN10cc1_plugin2cp18build_ternary_exprEEEPKcyyyET_P14gcc_cp_contextT1_T2_T3_T4_ _ZN10cc1_plugin2cp18build_ternary_exprE 38
_Z3rpcIyXadL_ZN10cc1_plugin2cp18build_ternary_exprEEEPKcyyyET_P14gcc_cp_contextT1_T2_T3_T4_ _ZN10cc1_plugin10connection4sendEc 46
_Z3rpcIyXadL_ZN10cc1_plugin2cp18build_ternary_exprEEEPKcyyyET_P14gcc_cp_contextT1_T2_T3_T4_ _ZN10cc1_plugin8marshallEPNS_10connectionEPKc 87
_Z3rpcIyXadL_ZN10cc1_plugin2cp18build_ternary_exprEEEPKcyyyET_P14gcc_cp_contextT1_T2_T3_T4_ _ZN10cc1_plugin16marshall_intlikeEPNS_10connectionEy 104
_Z3rpcIyXadL_ZN10cc1_plugin2cp18build_ternary_exprEEEPKcyyyET_P14gcc_cp_contextT1_T2_T3_T4_ _ZN10cc1_plugin8marshallEPNS_10connectionEPKc 119
_Z3rpcIyXadL_ZN10cc1_plugin2cp18build_ternary_exprEEEPKcyyyET_P14gcc_cp_contextT1_T2_T3_T4_ _ZN10cc1_plugin16marshall_intlikeEPNS_10connectionEy 134
_Z3rpcIyXadL_ZN10cc1_plugin2cp18build_ternary_exprEEEPKcyyyET_P14gcc_cp_contextT1_T2_T3_T4_ _ZN10cc1_plugin16marshall_intlikeEPNS_10connectionEy 149
_Z3rpcIyXadL_ZN10cc1_plugin2cp18build_ternary_exprEEEPKcyyyET_P14gcc_cp_contextT1_T2_T3_T4_ _ZN10cc1_plugin16marshall_intlikeEPNS_10connectionEy 164
_Z3rpcIyXadL_ZN10cc1_plugin2cp18build_ternary_exprEEEPKcyyyET_P14gcc_cp_contextT1_T2_T3_T4_ _ZN10cc1_plugin10connection7do_waitEb 181
_Z3rpcIyXadL_ZN10cc1_plugin2cp18build_ternary_exprEEEPKcyyyET_P14gcc_cp_contextT1_T2_T3_T4_ _ZN10cc1_plugin18unmarshall_intlikeEPNS_10connectionEPy 202
_Z3rpcIyXadL_ZN10cc1_plugin2cp17build_method_typeEEEyy17gcc_cp_qualifiers21gcc_cp_ref_qualifiersET_P14gcc_cp_contextT1_T2_T3_T4_ _ZN10cc1_plugin2cp17build_method_typeE 38
_Z3rpcIyXadL_ZN10cc1_plugin2cp17build_method_typeEEEyy17gcc_cp_qualifiers21gcc_cp_ref_qualifiersET_P14gcc_cp_contextT1_T2_T3_T4_ _ZN10cc1_plugin10connection4sendEc 46
_Z3rpcIyXadL_ZN10cc1_plugin2cp17build_method_typeEEEyy17gcc_cp_qualifiers21gcc_cp_ref_qualifiersET_P14gcc_cp_contextT1_T2_T3_T4_ _ZN10cc1_plugin8marshallEPNS_10connectionEPKc 87
_Z3rpcIyXadL_ZN10cc1_plugin2cp17build_method_typeEEEyy17gcc_cp_qualifiers21gcc_cp_ref_qualifiersET_P14gcc_cp_contextT1_T2_T3_T4_ _ZN10cc1_plugin16marshall_intlikeEPNS_10connectionEy 104
_Z3rpcIyXadL_ZN10cc1_plugin2cp17build_method_typeEEEyy17gcc_cp_qualifiers21gcc_cp_ref_qualifiersET_P14gcc_cp_contextT1_T2_T3_T4_ _ZN10cc1_plugin16marshall_intlikeEPNS_10connectionEy 119
_Z3rpcIyXadL_ZN10cc1_plugin2cp17build_method_typeEEEyy17gcc_cp_qualifiers21gcc_cp_ref_qualifiersET_P14gcc_cp_contextT1_T2_T3_T4_ _ZN10cc1_plugin16marshall_intlikeEPNS_10connectionEy 134
_Z3rpcIyXadL_ZN10cc1_plugin2cp17build_method_typeEEEyy17gcc_cp_qualifiers21gcc_cp_ref_qualifiersET_P14gcc_cp_contextT1_T2_T3_T4_ _ZN10cc1_plugin16marshall_intlikeEPNS_10connectionEy 149
_Z3rpcIyXadL_ZN10cc1_plugin2cp17build_method_typeEEEyy17gcc_cp_qualifiers21gcc_cp_ref_qualifiersET_P14gcc_cp_contextT1_T2_T3_T4_ _ZN10cc1_plugin16marshall_intlikeEPNS_10connectionEy 164
_Z3rpcIyXadL_ZN10cc1_plugin2cp17build_method_typeEEEyy17gcc_cp_qualifiers21gcc_cp_ref_qualifiersET_P14gcc_cp_contextT1_T2_T3_T4_ _ZN10cc1_plugin10connection7do_waitEb 181
_Z3rpcIyXadL_ZN10cc1_plugin2cp17build_method_typeEEEyy17gcc_cp_qualifiers21gcc_cp_ref_qualifiersET_P14gcc_cp_contextT1_T2_T3_T4_ _ZN10cc1_plugin18unmarshall_intlikeEPNS_10connectionEPy 202
_Z3rpcIiXadL_ZN10cc1_plugin2cp17add_static_assertEEEyPKcS3_jET_P14gcc_cp_contextT1_T2_T3_T4_ _ZN10cc1_plugin2cp17add_static_assertE 38
_Z3rpcIiXadL_ZN10cc1_plugin2cp17add_static_assertEEEyPKcS3_jET_P14gcc_cp_contextT1_T2_T3_T4_ _ZN10cc1_plugin10connection4sendEc 46
_Z3rpcIiXadL_ZN10cc1_plugin2cp17add_static_assertEEEyPKcS3_jET_P14gcc_cp_contextT1_T2_T3_T4_ _ZN10cc1_plugin8marshallEPNS_10connectionEPKc 87
_Z3rpcIiXadL_ZN10cc1_plugin2cp17add_static_assertEEEyPKcS3_jET_P14gcc_cp_contextT1_T2_T3_T4_ _ZN10cc1_plugin16marshall_intlikeEPNS_10connectionEy 104
_Z3rpcIiXadL_ZN10cc1_plugin2cp17add_static_assertEEEyPKcS3_jET_P14gcc_cp_contextT1_T2_T3_T4_ _ZN10cc1_plugin16marshall_intlikeEPNS_10connectionEy 119
_Z3rpcIiXadL_ZN10cc1_plugin2cp17add_static_assertEEEyPKcS3_jET_P14gcc_cp_contextT1_T2_T3_T4_ _ZN10cc1_plugin8marshallEPNS_10connectionEPKc 134
_Z3rpcIiXadL_ZN10cc1_plugin2cp17add_static_assertEEEyPKcS3_jET_P14gcc_cp_contextT1_T2_T3_T4_ _ZN10cc1_plugin8marshallEPNS_10connectionEPKc 149
_Z3rpcIiXadL_ZN10cc1_plugin2cp17add_static_assertEEEyPKcS3_jET_P14gcc_cp_contextT1_T2_T3_T4_ _ZN10cc1_plugin16marshall_intlikeEPNS_10connectionEy 164
_Z3rpcIiXadL_ZN10cc1_plugin2cp17add_static_assertEEEyPKcS3_jET_P14gcc_cp_contextT1_T2_T3_T4_ _ZN10cc1_plugin10connection7do_waitEb 181
_Z3rpcIiXadL_ZN10cc1_plugin2cp17add_static_assertEEEyPKcS3_jET_P14gcc_cp_contextT1_T2_T3_T4_ _ZN10cc1_plugin18unmarshall_intlikeEPNS_10connectionEPy 202
_Z3rpcIyXadL_ZN10cc1_plugin2cp19build_function_typeEEEyPK14gcc_type_arrayiET_P14gcc_cp_contextT1_T2_T3_ _ZN10cc1_plugin2cp19build_function_typeE 33
_Z3rpcIyXadL_ZN10cc1_plugin2cp19build_function_typeEEEyPK14gcc_type_arrayiET_P14gcc_cp_contextT1_T2_T3_ _ZN10cc1_plugin10connection4sendEc 41
_Z3rpcIyXadL_ZN10cc1_plugin2cp19build_function_typeEEEyPK14gcc_type_arrayiET_P14gcc_cp_contextT1_T2_T3_ _ZN10cc1_plugin8marshallEPNS_10connectionEPKc 71
_Z3rpcIyXadL_ZN10cc1_plugin2cp19build_function_typeEEEyPK14gcc_type_arrayiET_P14gcc_cp_contextT1_T2_T3_ _ZN10cc1_plugin16marshall_intlikeEPNS_10connectionEy 88
_Z3rpcIyXadL_ZN10cc1_plugin2cp19build_function_typeEEEyPK14gcc_type_arrayiET_P14gcc_cp_contextT1_T2_T3_ _ZN10cc1_plugin16marshall_intlikeEPNS_10connectionEy 103
_Z3rpcIyXadL_ZN10cc1_plugin2cp19build_function_typeEEEyPK14gcc_type_arrayiET_P14gcc_cp_contextT1_T2_T3_ _ZN10cc1_plugin8marshallEPNS_10connectionEPK14gcc_type_array 118
_Z3rpcIyXadL_ZN10cc1_plugin2cp19build_function_typeEEEyPK14gcc_type_arrayiET_P14gcc_cp_contextT1_T2_T3_ _ZN10cc1_plugin16marshall_intlikeEPNS_10connectionEy 133
_Z3rpcIyXadL_ZN10cc1_plugin2cp19build_function_typeEEEyPK14gcc_type_arrayiET_P14gcc_cp_contextT1_T2_T3_ _ZN10cc1_plugin10connection7do_waitEb 150
_Z3rpcIyXadL_ZN10cc1_plugin2cp19build_function_typeEEEyPK14gcc_type_arrayiET_P14gcc_cp_contextT1_T2_T3_ _ZN10cc1_plugin18unmarshall_intlikeEPNS_10connectionEPy 167
_Z3rpcIyXadL_ZN10cc1_plugin2cp19build_enum_constantEEEyPKcmET_P14gcc_cp_contextT1_T2_T3_ _ZN10cc1_plugin2cp19build_enum_constantE 33
_Z3rpcIyXadL_ZN10cc1_plugin2cp19build_enum_constantEEEyPKcmET_P14gcc_cp_contextT1_T2_T3_ _ZN10cc1_plugin10connection4sendEc 41
_Z3rpcIyXadL_ZN10cc1_plugin2cp19build_enum_constantEEEyPKcmET_P14gcc_cp_contextT1_T2_T3_ _ZN10cc1_plugin8marshallEPNS_10connectionEPKc 71
_Z3rpcIyXadL_ZN10cc1_plugin2cp19build_enum_constantEEEyPKcmET_P14gcc_cp_contextT1_T2_T3_ _ZN10cc1_plugin16marshall_intlikeEPNS_10connectionEy 88
_Z3rpcIyXadL_ZN10cc1_plugin2cp19build_enum_constantEEEyPKcmET_P14gcc_cp_contextT1_T2_T3_ _ZN10cc1_plugin16marshall_intlikeEPNS_10connectionEy 103
_Z3rpcIyXadL_ZN10cc1_plugin2cp19build_enum_constantEEEyPKcmET_P14gcc_cp_contextT1_T2_T3_ _ZN10cc1_plugin8marshallEPNS_10connectionEPKc 118
_Z3rpcIyXadL_ZN10cc1_plugin2cp19build_enum_constantEEEyPKcmET_P14gcc_cp_contextT1_T2_T3_ _ZN10cc1_plugin16marshall_intlikeEPNS_10connectionEy 133
_Z3rpcIyXadL_ZN10cc1_plugin2cp19build_enum_constantEEEyPKcmET_P14gcc_cp_contextT1_T2_T3_ _ZN10cc1_plugin10connection7do_waitEb 150
_Z3rpcIyXadL_ZN10cc1_plugin2cp19build_enum_constantEEEyPKcmET_P14gcc_cp_contextT1_T2_T3_ _ZN10cc1_plugin18unmarshall_intlikeEPNS_10connectionEPy 167
_Z3rpcIyXadL_ZN10cc1_plugin2cp12get_int_typeEEEimPKcET_P14gcc_cp_contextT1_T2_T3_ _ZN10cc1_plugin2cp12get_int_typeE 33
_Z3rpcIyXadL_ZN10cc1_plugin2cp12get_int_typeEEEimPKcET_P14gcc_cp_contextT1_T2_T3_ _ZN10cc1_plugin10connection4sendEc 41
_Z3rpcIyXadL_ZN10cc1_plugin2cp12get_int_typeEEEimPKcET_P14gcc_cp_contextT1_T2_T3_ _ZN10cc1_plugin8marshallEPNS_10connectionEPKc 71
_Z3rpcIyXadL_ZN10cc1_plugin2cp12get_int_typeEEEimPKcET_P14gcc_cp_contextT1_T2_T3_ _ZN10cc1_plugin16marshall_intlikeEPNS_10connectionEy 88
_Z3rpcIyXadL_ZN10cc1_plugin2cp12get_int_typeEEEimPKcET_P14gcc_cp_contextT1_T2_T3_ _ZN10cc1_plugin16marshall_intlikeEPNS_10connectionEy 103
_Z3rpcIyXadL_ZN10cc1_plugin2cp12get_int_typeEEEimPKcET_P14gcc_cp_contextT1_T2_T3_ _ZN10cc1_plugin16marshall_intlikeEPNS_10connectionEy 118
_Z3rpcIyXadL_ZN10cc1_plugin2cp12get_int_typeEEEimPKcET_P14gcc_cp_contextT1_T2_T3_ _ZN10cc1_plugin8marshallEPNS_10connectionEPKc 133
_Z3rpcIyXadL_ZN10cc1_plugin2cp12get_int_typeEEEimPKcET_P14gcc_cp_contextT1_T2_T3_ _ZN10cc1_plugin10connection7do_waitEb 150
_Z3rpcIyXadL_ZN10cc1_plugin2cp12get_int_typeEEEimPKcET_P14gcc_cp_contextT1_T2_T3_ _ZN10cc1_plugin18unmarshall_intlikeEPNS_10connectionEPy 167
_Z3rpcIiXadL_ZN10cc1_plugin2cp19add_namespace_aliasEEEPKcyET_P14gcc_cp_contextT1_T2_ _ZN10cc1_plugin2cp19add_namespace_aliasE 28
_Z3rpcIiXadL_ZN10cc1_plugin2cp19add_namespace_aliasEEEPKcyET_P14gcc_cp_contextT1_T2_ _ZN10cc1_plugin10connection4sendEc 36
_Z3rpcIiXadL_ZN10cc1_plugin2cp19add_namespace_aliasEEEPKcyET_P14gcc_cp_contextT1_T2_ _ZN10cc1_plugin8marshallEPNS_10connectionEPKc 71
_Z3rpcIiXadL_ZN10cc1_plugin2cp19add_namespace_aliasEEEPKcyET_P14gcc_cp_contextT1_T2_ _ZN10cc1_plugin16marshall_intlikeEPNS_10connectionEy 88
_Z3rpcIiXadL_ZN10cc1_plugin2cp19add_namespace_aliasEEEPKcyET_P14gcc_cp_contextT1_T2_ _ZN10cc1_plugin8marshallEPNS_10connectionEPKc 103
_Z3rpcIiXadL_ZN10cc1_plugin2cp19add_namespace_aliasEEEPKcyET_P14gcc_cp_contextT1_T2_ _ZN10cc1_plugin16marshall_intlikeEPNS_10connectionEy 118
_Z3rpcIiXadL_ZN10cc1_plugin2cp19add_namespace_aliasEEEPKcyET_P14gcc_cp_contextT1_T2_ _ZN10cc1_plugin10connection7do_waitEb 135
_Z3rpcIiXadL_ZN10cc1_plugin2cp19add_namespace_aliasEEEPKcyET_P14gcc_cp_contextT1_T2_ _ZN10cc1_plugin18unmarshall_intlikeEPNS_10connectionEPy 152
_Z3rpcIyXadL_ZN10cc1_plugin2cp14get_float_typeEEEmPKcET_P14gcc_cp_contextT1_T2_ _ZN10cc1_plugin2cp14get_float_typeE 28
_Z3rpcIyXadL_ZN10cc1_plugin2cp14get_float_typeEEEmPKcET_P14gcc_cp_contextT1_T2_ _ZN10cc1_plugin10connection4sendEc 36
_Z3rpcIyXadL_ZN10cc1_plugin2cp14get_float_typeEEEmPKcET_P14gcc_cp_contextT1_T2_ _ZN10cc1_plugin8marshallEPNS_10connectionEPKc 71
_Z3rpcIyXadL_ZN10cc1_plugin2cp14get_float_typeEEEmPKcET_P14gcc_cp_contextT1_T2_ _ZN10cc1_plugin16marshall_intlikeEPNS_10connectionEy 88
_Z3rpcIyXadL_ZN10cc1_plugin2cp14get_float_typeEEEmPKcET_P14gcc_cp_contextT1_T2_ _ZN10cc1_plugin16marshall_intlikeEPNS_10connectionEy 103
_Z3rpcIyXadL_ZN10cc1_plugin2cp14get_float_typeEEEmPKcET_P14gcc_cp_contextT1_T2_ _ZN10cc1_plugin8marshallEPNS_10connectionEPKc 118
_Z3rpcIyXadL_ZN10cc1_plugin2cp14get_float_typeEEEmPKcET_P14gcc_cp_contextT1_T2_ _ZN10cc1_plugin10connection7do_waitEb 135
_Z3rpcIyXadL_ZN10cc1_plugin2cp14get_float_typeEEEmPKcET_P14gcc_cp_contextT1_T2_ _ZN10cc1_plugin18unmarshall_intlikeEPNS_10connectionEPy 152
_Z3rpcIyXadL_ZN10cc1_plugin2cp18build_literal_exprEEEymET_P14gcc_cp_contextT1_T2_ _ZN10cc1_plugin2cp18build_literal_exprE 28
_Z3rpcIyXadL_ZN10cc1_plugin2cp18build_literal_exprEEEymET_P14gcc_cp_contextT1_T2_ _ZN10cc1_plugin10connection4sendEc 36
_Z3rpcIyXadL_ZN10cc1_plugin2cp18build_literal_exprEEEymET_P14gcc_cp_contextT1_T2_ _ZN10cc1_plugin8marshallEPNS_10connectionEPKc 71
_Z3rpcIyXadL_ZN10cc1_plugin2cp18build_literal_exprEEEymET_P14gcc_cp_contextT1_T2_ _ZN10cc1_plugin16marshall_intlikeEPNS_10connectionEy 88
_Z3rpcIyXadL_ZN10cc1_plugin2cp18build_literal_exprEEEymET_P14gcc_cp_contextT1_T2_ _ZN10cc1_plugin16marshall_intlikeEPNS_10connectionEy 103
_Z3rpcIyXadL_ZN10cc1_plugin2cp18build_literal_exprEEEymET_P14gcc_cp_contextT1_T2_ _ZN10cc1_plugin16marshall_intlikeEPNS_10connectionEy 118
_Z3rpcIyXadL_ZN10cc1_plugin2cp18build_literal_exprEEEymET_P14gcc_cp_contextT1_T2_ _ZN10cc1_plugin10connection7do_waitEb 135
_Z3rpcIyXadL_ZN10cc1_plugin2cp18build_literal_exprEEEymET_P14gcc_cp_contextT1_T2_ _ZN10cc1_plugin18unmarshall_intlikeEPNS_10connectionEPy 152
_Z3rpcIyXadL_ZN10cc1_plugin2cp28build_exception_spec_variantEEEyPK14gcc_type_arrayET_P14gcc_cp_contextT1_T2_ _ZN10cc1_plugin2cp28build_exception_spec_variantE 28
_Z3rpcIyXadL_ZN10cc1_plugin2cp28build_exception_spec_variantEEEyPK14gcc_type_arrayET_P14gcc_cp_contextT1_T2_ _ZN10cc1_plugin10connection4sendEc 36
_Z3rpcIyXadL_ZN10cc1_plugin2cp28build_exception_spec_variantEEEyPK14gcc_type_arrayET_P14gcc_cp_contextT1_T2_ _ZN10cc1_plugin8marshallEPNS_10connectionEPKc 71
_Z3rpcIyXadL_ZN10cc1_plugin2cp28build_exception_spec_variantEEEyPK14gcc_type_arrayET_P14gcc_cp_contextT1_T2_ _ZN10cc1_plugin16marshall_intlikeEPNS_10connectionEy 88
_Z3rpcIyXadL_ZN10cc1_plugin2cp28build_exception_spec_variantEEEyPK14gcc_type_arrayET_P14gcc_cp_contextT1_T2_ _ZN10cc1_plugin16marshall_intlikeEPNS_10connectionEy 103
_Z3rpcIyXadL_ZN10cc1_plugin2cp28build_exception_spec_variantEEEyPK14gcc_type_arrayET_P14gcc_cp_contextT1_T2_ _ZN10cc1_plugin8marshallEPNS_10connectionEPK14gcc_type_array 118
_Z3rpcIyXadL_ZN10cc1_plugin2cp28build_exception_spec_variantEEEyPK14gcc_type_arrayET_P14gcc_cp_contextT1_T2_ _ZN10cc1_plugin10connection7do_waitEb 135
_Z3rpcIyXadL_ZN10cc1_plugin2cp28build_exception_spec_variantEEEyPK14gcc_type_arrayET_P14gcc_cp_contextT1_T2_ _ZN10cc1_plugin18unmarshall_intlikeEPNS_10connectionEPy 152
_Z3rpcIiXadL_ZN10cc1_plugin2cp14add_using_declEEE18gcc_cp_symbol_kindyET_P14gcc_cp_contextT1_T2_ _ZN10cc1_plugin2cp14add_using_declE 28
_Z3rpcIiXadL_ZN10cc1_plugin2cp14add_using_declEEE18gcc_cp_symbol_kindyET_P14gcc_cp_contextT1_T2_ _ZN10cc1_plugin10connection4sendEc 36
_Z3rpcIiXadL_ZN10cc1_plugin2cp14add_using_declEEE18gcc_cp_symbol_kindyET_P14gcc_cp_contextT1_T2_ _ZN10cc1_plugin8marshallEPNS_10connectionEPKc 71
_Z3rpcIiXadL_ZN10cc1_plugin2cp14add_using_declEEE18gcc_cp_symbol_kindyET_P14gcc_cp_contextT1_T2_ _ZN10cc1_plugin16marshall_intlikeEPNS_10connectionEy 88
_Z3rpcIiXadL_ZN10cc1_plugin2cp14add_using_declEEE18gcc_cp_symbol_kindyET_P14gcc_cp_contextT1_T2_ _ZN10cc1_plugin16marshall_intlikeEPNS_10connectionEy 103
_Z3rpcIiXadL_ZN10cc1_plugin2cp14add_using_declEEE18gcc_cp_symbol_kindyET_P14gcc_cp_contextT1_T2_ _ZN10cc1_plugin16marshall_intlikeEPNS_10connectionEy 118
_Z3rpcIiXadL_ZN10cc1_plugin2cp14add_using_declEEE18gcc_cp_symbol_kindyET_P14gcc_cp_contextT1_T2_ _ZN10cc1_plugin10connection7do_waitEb 135
_Z3rpcIiXadL_ZN10cc1_plugin2cp14add_using_declEEE18gcc_cp_symbol_kindyET_P14gcc_cp_contextT1_T2_ _ZN10cc1_plugin18unmarshall_intlikeEPNS_10connectionEPy 152
_Z3rpcIyXadL_ZN10cc1_plugin2cp20build_qualified_typeEEEy17gcc_cp_qualifiersET_P14gcc_cp_contextT1_T2_ _ZN10cc1_plugin2cp20build_qualified_typeE 28
_Z3rpcIyXadL_ZN10cc1_plugin2cp20build_qualified_typeEEEy17gcc_cp_qualifiersET_P14gcc_cp_contextT1_T2_ _ZN10cc1_plugin10connection4sendEc 36
_Z3rpcIyXadL_ZN10cc1_plugin2cp20build_qualified_typeEEEy17gcc_cp_qualifiersET_P14gcc_cp_contextT1_T2_ _ZN10cc1_plugin8marshallEPNS_10connectionEPKc 71
_Z3rpcIyXadL_ZN10cc1_plugin2cp20build_qualified_typeEEEy17gcc_cp_qualifiersET_P14gcc_cp_contextT1_T2_ _ZN10cc1_plugin16marshall_intlikeEPNS_10connectionEy 88
_Z3rpcIyXadL_ZN10cc1_plugin2cp20build_qualified_typeEEEy17gcc_cp_qualifiersET_P14gcc_cp_contextT1_T2_ _ZN10cc1_plugin16marshall_intlikeEPNS_10connectionEy 103
_Z3rpcIyXadL_ZN10cc1_plugin2cp20build_qualified_typeEEEy17gcc_cp_qualifiersET_P14gcc_cp_contextT1_T2_ _ZN10cc1_plugin16marshall_intlikeEPNS_10connectionEy 118
_Z3rpcIyXadL_ZN10cc1_plugin2cp20build_qualified_typeEEEy17gcc_cp_qualifiersET_P14gcc_cp_contextT1_T2_ _ZN10cc1_plugin10connection7do_waitEb 135
_Z3rpcIyXadL_ZN10cc1_plugin2cp20build_qualified_typeEEEy17gcc_cp_qualifiersET_P14gcc_cp_contextT1_T2_ _ZN10cc1_plugin18unmarshall_intlikeEPNS_10connectionEPy 152
_Z3rpcIyXadL_ZN10cc1_plugin2cp20build_reference_typeEEEy21gcc_cp_ref_qualifiersET_P14gcc_cp_contextT1_T2_ _ZN10cc1_plugin2cp20build_reference_typeE 28
_Z3rpcIyXadL_ZN10cc1_plugin2cp20build_reference_typeEEEy21gcc_cp_ref_qualifiersET_P14gcc_cp_contextT1_T2_ _ZN10cc1_plugin10connection4sendEc 36
_Z3rpcIyXadL_ZN10cc1_plugin2cp20build_reference_typeEEEy21gcc_cp_ref_qualifiersET_P14gcc_cp_contextT1_T2_ _ZN10cc1_plugin8marshallEPNS_10connectionEPKc 71
_Z3rpcIyXadL_ZN10cc1_plugin2cp20build_reference_typeEEEy21gcc_cp_ref_qualifiersET_P14gcc_cp_contextT1_T2_ _ZN10cc1_plugin16marshall_intlikeEPNS_10connectionEy 88
_Z3rpcIyXadL_ZN10cc1_plugin2cp20build_reference_typeEEEy21gcc_cp_ref_qualifiersET_P14gcc_cp_contextT1_T2_ _ZN10cc1_plugin16marshall_intlikeEPNS_10connectionEy 103
_Z3rpcIyXadL_ZN10cc1_plugin2cp20build_reference_typeEEEy21gcc_cp_ref_qualifiersET_P14gcc_cp_contextT1_T2_ _ZN10cc1_plugin16marshall_intlikeEPNS_10connectionEy 118
_Z3rpcIyXadL_ZN10cc1_plugin2cp20build_reference_typeEEEy21gcc_cp_ref_qualifiersET_P14gcc_cp_contextT1_T2_ _ZN10cc1_plugin10connection7do_waitEb 135
_Z3rpcIyXadL_ZN10cc1_plugin2cp20build_reference_typeEEEy21gcc_cp_ref_qualifiersET_P14gcc_cp_contextT1_T2_ _ZN10cc1_plugin18unmarshall_intlikeEPNS_10connectionEPy 152
_Z3rpcIiXadL_ZN10cc1_plugin2cp14push_namespaceEEEPKcET_P14gcc_cp_contextT1_ _ZN10cc1_plugin2cp14push_namespaceE 23
_Z3rpcIiXadL_ZN10cc1_plugin2cp14push_namespaceEEEPKcET_P14gcc_cp_contextT1_ _ZN10cc1_plugin10connection4sendEc 31
_Z3rpcIiXadL_ZN10cc1_plugin2cp14push_namespaceEEEPKcET_P14gcc_cp_contextT1_ _ZN10cc1_plugin8marshallEPNS_10connectionEPKc 63
_Z3rpcIiXadL_ZN10cc1_plugin2cp14push_namespaceEEEPKcET_P14gcc_cp_contextT1_ _ZN10cc1_plugin16marshall_intlikeEPNS_10connectionEy 80
_Z3rpcIiXadL_ZN10cc1_plugin2cp14push_namespaceEEEPKcET_P14gcc_cp_contextT1_ _ZN10cc1_plugin8marshallEPNS_10connectionEPKc 95
_Z3rpcIiXadL_ZN10cc1_plugin2cp14push_namespaceEEEPKcET_P14gcc_cp_contextT1_ _ZN10cc1_plugin10connection7do_waitEb 112
_Z3rpcIiXadL_ZN10cc1_plugin2cp14push_namespaceEEEPKcET_P14gcc_cp_contextT1_ _ZN10cc1_plugin18unmarshall_intlikeEPNS_10connectionEPy 129
_ZN6libcp123compiler_triplet_regexpD1Ev,_ZN6libcp123compiler_triplet_regexpD2Ev _ZTVN6libcp123compiler_triplet_regexpE 7
_ZN6libcp123compiler_triplet_regexpD1Ev,_ZN6libcp123compiler_triplet_regexpD2Ev _ZNSs4_Rep20_S_empty_rep_storageE 18
_ZN6libcp123compiler_triplet_regexpD1Ev,_ZN6libcp123compiler_triplet_regexpD2Ev __pthread_key_create 33
_ZN6libcp123compiler_triplet_regexpD1Ev,_ZN6libcp123compiler_triplet_regexpD2Ev _ZNSs4_Rep10_M_destroyERKSaIcE 68
_ZN6libcp124compiler_driver_filenameD1Ev,_ZN6libcp124compiler_driver_filenameD2Ev _ZTVN6libcp124compiler_driver_filenameE 7
_ZN6libcp124compiler_driver_filenameD1Ev,_ZN6libcp124compiler_driver_filenameD2Ev _ZNSs4_Rep20_S_empty_rep_storageE 18
_ZN6libcp124compiler_driver_filenameD1Ev,_ZN6libcp124compiler_driver_filenameD2Ev __pthread_key_create 33
_ZN6libcp124compiler_driver_filenameD1Ev,_ZN6libcp124compiler_driver_filenameD2Ev _ZNSs4_Rep10_M_destroyERKSaIcE 68
_ZN6libcp124compiler_driver_filenameD0Ev _ZTVN6libcp124compiler_driver_filenameE 15
_ZN6libcp124compiler_driver_filenameD0Ev _ZNSs4_Rep20_S_empty_rep_storageE 26
_ZN6libcp124compiler_driver_filenameD0Ev _ZdlPv 36
_ZN6libcp124compiler_driver_filenameD0Ev __pthread_key_create 49
_ZN6libcp124compiler_driver_filenameD0Ev _ZNSs4_Rep10_M_destroyERKSaIcE 80
_ZN6libcp123compiler_triplet_regexpD0Ev _ZTVN6libcp123compiler_triplet_regexpE 15
_ZN6libcp123compiler_triplet_regexpD0Ev _ZNSs4_Rep20_S_empty_rep_storageE 26
_ZN6libcp123compiler_triplet_regexpD0Ev _ZdlPv 36
_ZN6libcp123compiler_triplet_regexpD0Ev __pthread_key_create 49
_ZN6libcp123compiler_triplet_regexpD0Ev _ZNSs4_Rep10_M_destroyERKSaIcE 80
_Z3rpcIiXadL_ZN10cc1_plugin2cp17finish_class_typeEEEmET_P14gcc_cp_contextT1_ _ZN10cc1_plugin2cp17finish_class_typeE 23
_Z3rpcIiXadL_ZN10cc1_plugin2cp17finish_class_typeEEEmET_P14gcc_cp_contextT1_ _ZN10cc1_plugin10connection4sendEc 31
_Z3rpcIiXadL_ZN10cc1_plugin2cp17finish_class_typeEEEmET_P14gcc_cp_contextT1_ _ZN10cc1_plugin8marshallEPNS_10connectionEPKc 63
_Z3rpcIiXadL_ZN10cc1_plugin2cp17finish_class_typeEEEmET_P14gcc_cp_contextT1_ _ZN10cc1_plugin16marshall_intlikeEPNS_10connectionEy 80
_Z3rpcIiXadL_ZN10cc1_plugin2cp17finish_class_typeEEEmET_P14gcc_cp_contextT1_ _ZN10cc1_plugin16marshall_intlikeEPNS_10connectionEy 95
_Z3rpcIiXadL_ZN10cc1_plugin2cp17finish_class_typeEEEmET_P14gcc_cp_contextT1_ _ZN10cc1_plugin10connection7do_waitEb 112
_Z3rpcIiXadL_ZN10cc1_plugin2cp17finish_class_typeEEEmET_P14gcc_cp_contextT1_ _ZN10cc1_plugin18unmarshall_intlikeEPNS_10connectionEPy 129
_Z3rpcIyXadL_ZN10cc1_plugin2cp5errorEEEPKcET_P14gcc_cp_contextT1_ _ZN10cc1_plugin2cp5errorE 23
_Z3rpcIyXadL_ZN10cc1_plugin2cp5errorEEEPKcET_P14gcc_cp_contextT1_ _ZN10cc1_plugin10connection4sendEc 31
_Z3rpcIyXadL_ZN10cc1_plugin2cp5errorEEEPKcET_P14gcc_cp_contextT1_ _ZN10cc1_plugin8marshallEPNS_10connectionEPKc 63
_Z3rpcIyXadL_ZN10cc1_plugin2cp5errorEEEPKcET_P14gcc_cp_contextT1_ _ZN10cc1_plugin16marshall_intlikeEPNS_10connectionEy 80
_Z3rpcIyXadL_ZN10cc1_plugin2cp5errorEEEPKcET_P14gcc_cp_contextT1_ _ZN10cc1_plugin8marshallEPNS_10connectionEPKc 95
_Z3rpcIyXadL_ZN10cc1_plugin2cp5errorEEEPKcET_P14gcc_cp_contextT1_ _ZN10cc1_plugin10connection7do_waitEb 112
_Z3rpcIyXadL_ZN10cc1_plugin2cp5errorEEEPKcET_P14gcc_cp_contextT1_ _ZN10cc1_plugin18unmarshall_intlikeEPNS_10connectionEPy 129
_Z3rpcIyXadL_ZN10cc1_plugin2cp16start_class_typeEEEyPK15gcc_vbase_arrayPKcjET_P14gcc_cp_contextT1_T2_T3_T4_ _ZN10cc1_plugin2cp16start_class_typeE 38
_Z3rpcIyXadL_ZN10cc1_plugin2cp16start_class_typeEEEyPK15gcc_vbase_arrayPKcjET_P14gcc_cp_contextT1_T2_T3_T4_ _ZN10cc1_plugin10connection4sendEc 46
_Z3rpcIyXadL_ZN10cc1_plugin2cp16start_class_typeEEEyPK15gcc_vbase_arrayPKcjET_P14gcc_cp_contextT1_T2_T3_T4_ _ZN10cc1_plugin8marshallEPNS_10connectionEPKc 87
_Z3rpcIyXadL_ZN10cc1_plugin2cp16start_class_typeEEEyPK15gcc_vbase_arrayPKcjET_P14gcc_cp_contextT1_T2_T3_T4_ _ZN10cc1_plugin16marshall_intlikeEPNS_10connectionEy 104
_Z3rpcIyXadL_ZN10cc1_plugin2cp16start_class_typeEEEyPK15gcc_vbase_arrayPKcjET_P14gcc_cp_contextT1_T2_T3_T4_ _ZN10cc1_plugin16marshall_intlikeEPNS_10connectionEy 119
_Z3rpcIyXadL_ZN10cc1_plugin2cp16start_class_typeEEEyPK15gcc_vbase_arrayPKcjET_P14gcc_cp_contextT1_T2_T3_T4_ _ZN10cc1_plugin8marshallEPNS_10connectionEPK15gcc_vbase_array 134
_Z3rpcIyXadL_ZN10cc1_plugin2cp16start_class_typeEEEyPK15gcc_vbase_arrayPKcjET_P14gcc_cp_contextT1_T2_T3_T4_ _ZN10cc1_plugin8marshallEPNS_10connectionEPKc 149
_Z3rpcIyXadL_ZN10cc1_plugin2cp16start_class_typeEEEyPK15gcc_vbase_arrayPKcjET_P14gcc_cp_contextT1_T2_T3_T4_ _ZN10cc1_plugin16marshall_intlikeEPNS_10connectionEy 164
_Z3rpcIyXadL_ZN10cc1_plugin2cp16start_class_typeEEEyPK15gcc_vbase_arrayPKcjET_P14gcc_cp_contextT1_T2_T3_T4_ _ZN10cc1_plugin10connection7do_waitEb 181
_Z3rpcIyXadL_ZN10cc1_plugin2cp16start_class_typeEEEyPK15gcc_vbase_arrayPKcjET_P14gcc_cp_contextT1_T2_T3_T4_ _ZN10cc1_plugin18unmarshall_intlikeEPNS_10connectionEPy 202
_Z3rpcIyXadL_ZN10cc1_plugin2cp24build_dependent_typenameEEEyPKcPK20gcc_cp_template_argsET_P14gcc_cp_contextT1_T2_T3_ _ZN10cc1_plugin2cp24build_dependent_typenameE 33
_Z3rpcIyXadL_ZN10cc1_plugin2cp24build_dependent_typenameEEEyPKcPK20gcc_cp_template_argsET_P14gcc_cp_contextT1_T2_T3_ _ZN10cc1_plugin10connection4sendEc 41
_Z3rpcIyXadL_ZN10cc1_plugin2cp24build_dependent_typenameEEEyPKcPK20gcc_cp_template_argsET_P14gcc_cp_contextT1_T2_T3_ _ZN10cc1_plugin8marshallEPNS_10connectionEPKc 71
_Z3rpcIyXadL_ZN10cc1_plugin2cp24build_dependent_typenameEEEyPKcPK20gcc_cp_template_argsET_P14gcc_cp_contextT1_T2_T3_ _ZN10cc1_plugin16marshall_intlikeEPNS_10connectionEy 88
_Z3rpcIyXadL_ZN10cc1_plugin2cp24build_dependent_typenameEEEyPKcPK20gcc_cp_template_argsET_P14gcc_cp_contextT1_T2_T3_ _ZN10cc1_plugin16marshall_intlikeEPNS_10connectionEy 103
_Z3rpcIyXadL_ZN10cc1_plugin2cp24build_dependent_typenameEEEyPKcPK20gcc_cp_template_argsET_P14gcc_cp_contextT1_T2_T3_ _ZN10cc1_plugin8marshallEPNS_10connectionEPKc 118
_Z3rpcIyXadL_ZN10cc1_plugin2cp24build_dependent_typenameEEEyPKcPK20gcc_cp_template_argsET_P14gcc_cp_contextT1_T2_T3_ _ZN10cc1_plugin8marshallEPNS_10connectionEPK20gcc_cp_template_args 133
_Z3rpcIyXadL_ZN10cc1_plugin2cp24build_dependent_typenameEEEyPKcPK20gcc_cp_template_argsET_P14gcc_cp_contextT1_T2_T3_ _ZN10cc1_plugin10connection7do_waitEb 150
_Z3rpcIyXadL_ZN10cc1_plugin2cp24build_dependent_typenameEEEyPKcPK20gcc_cp_template_argsET_P14gcc_cp_contextT1_T2_T3_ _ZN10cc1_plugin18unmarshall_intlikeEPNS_10connectionEPy 167
_Z3rpcIyXadL_ZN10cc1_plugin2cp20build_dependent_exprEEEy18gcc_cp_symbol_kindPKcyPK20gcc_cp_template_argsET_P14gcc_cp_contextT1_T2_T3_T4_T5_ _ZN10cc1_plugin2cp20build_dependent_exprE 38
_Z3rpcIyXadL_ZN10cc1_plugin2cp20build_dependent_exprEEEy18gcc_cp_symbol_kindPKcyPK20gcc_cp_template_argsET_P14gcc_cp_contextT1_T2_T3_T4_T5_ _ZN10cc1_plugin10connection4sendEc 51
_Z3rpcIyXadL_ZN10cc1_plugin2cp20build_dependent_exprEEEy18gcc_cp_symbol_kindPKcyPK20gcc_cp_template_argsET_P14gcc_cp_contextT1_T2_T3_T4_T5_ _ZN10cc1_plugin8marshallEPNS_10connectionEPKc 87
_Z3rpcIyXadL_ZN10cc1_plugin2cp20build_dependent_exprEEEy18gcc_cp_symbol_kindPKcyPK20gcc_cp_template_argsET_P14gcc_cp_contextT1_T2_T3_T4_T5_ _ZN10cc1_plugin16marshall_intlikeEPNS_10connectionEy 104
_Z3rpcIyXadL_ZN10cc1_plugin2cp20build_dependent_exprEEEy18gcc_cp_symbol_kindPKcyPK20gcc_cp_template_argsET_P14gcc_cp_contextT1_T2_T3_T4_T5_ _ZN10cc1_plugin16marshall_intlikeEPNS_10connectionEy 119
_Z3rpcIyXadL_ZN10cc1_plugin2cp20build_dependent_exprEEEy18gcc_cp_symbol_kindPKcyPK20gcc_cp_template_argsET_P14gcc_cp_contextT1_T2_T3_T4_T5_ _ZN10cc1_plugin16marshall_intlikeEPNS_10connectionEy 134
_Z3rpcIyXadL_ZN10cc1_plugin2cp20build_dependent_exprEEEy18gcc_cp_symbol_kindPKcyPK20gcc_cp_template_argsET_P14gcc_cp_contextT1_T2_T3_T4_T5_ _ZN10cc1_plugin8marshallEPNS_10connectionEPKc 149
_Z3rpcIyXadL_ZN10cc1_plugin2cp20build_dependent_exprEEEy18gcc_cp_symbol_kindPKcyPK20gcc_cp_template_argsET_P14gcc_cp_contextT1_T2_T3_T4_T5_ _ZN10cc1_plugin16marshall_intlikeEPNS_10connectionEy 164
_Z3rpcIyXadL_ZN10cc1_plugin2cp20build_dependent_exprEEEy18gcc_cp_symbol_kindPKcyPK20gcc_cp_template_argsET_P14gcc_cp_contextT1_T2_T3_T4_T5_ _ZN10cc1_plugin8marshallEPNS_10connectionEPK20gcc_cp_template_args 181
_Z3rpcIyXadL_ZN10cc1_plugin2cp20build_dependent_exprEEEy18gcc_cp_symbol_kindPKcyPK20gcc_cp_template_argsET_P14gcc_cp_contextT1_T2_T3_T4_T5_ _ZN10cc1_plugin10connection7do_waitEb 202
_Z3rpcIyXadL_ZN10cc1_plugin2cp20build_dependent_exprEEEy18gcc_cp_symbol_kindPKcyPK20gcc_cp_template_argsET_P14gcc_cp_contextT1_T2_T3_T4_T5_ _ZN10cc1_plugin18unmarshall_intlikeEPNS_10connectionEPy 223
_Z3rpcIyXadL_ZN10cc1_plugin2cp38build_function_template_specializationEEEyPK20gcc_cp_template_argsyPKcjET_P14gcc_cp_contextT1_T2_T3_T4_T5_ _ZN10cc1_plugin2cp38build_function_template_specializationE 38
_Z3rpcIyXadL_ZN10cc1_plugin2cp38build_function_template_specializationEEEyPK20gcc_cp_template_argsyPKcjET_P14gcc_cp_contextT1_T2_T3_T4_T5_ _ZN10cc1_plugin10connection4sendEc 51
_Z3rpcIyXadL_ZN10cc1_plugin2cp38build_function_template_specializationEEEyPK20gcc_cp_template_argsyPKcjET_P14gcc_cp_contextT1_T2_T3_T4_T5_ _ZN10cc1_plugin8marshallEPNS_10connectionEPKc 87
_Z3rpcIyXadL_ZN10cc1_plugin2cp38build_function_template_specializationEEEyPK20gcc_cp_template_argsyPKcjET_P14gcc_cp_contextT1_T2_T3_T4_T5_ _ZN10cc1_plugin16marshall_intlikeEPNS_10connectionEy 104
_Z3rpcIyXadL_ZN10cc1_plugin2cp38build_function_template_specializationEEEyPK20gcc_cp_template_argsyPKcjET_P14gcc_cp_contextT1_T2_T3_T4_T5_ _ZN10cc1_plugin16marshall_intlikeEPNS_10connectionEy 119
_Z3rpcIyXadL_ZN10cc1_plugin2cp38build_function_template_specializationEEEyPK20gcc_cp_template_argsyPKcjET_P14gcc_cp_contextT1_T2_T3_T4_T5_ _ZN10cc1_plugin8marshallEPNS_10connectionEPK20gcc_cp_template_args 134
_Z3rpcIyXadL_ZN10cc1_plugin2cp38build_function_template_specializationEEEyPK20gcc_cp_template_argsyPKcjET_P14gcc_cp_contextT1_T2_T3_T4_T5_ _ZN10cc1_plugin16marshall_intlikeEPNS_10connectionEy 149
_Z3rpcIyXadL_ZN10cc1_plugin2cp38build_function_template_specializationEEEyPK20gcc_cp_template_argsyPKcjET_P14gcc_cp_contextT1_T2_T3_T4_T5_ _ZN10cc1_plugin8marshallEPNS_10connectionEPKc 164
_Z3rpcIyXadL_ZN10cc1_plugin2cp38build_function_template_specializationEEEyPK20gcc_cp_template_argsyPKcjET_P14gcc_cp_contextT1_T2_T3_T4_T5_ _ZN10cc1_plugin16marshall_intlikeEPNS_10connectionEy 180
_Z3rpcIyXadL_ZN10cc1_plugin2cp38build_function_template_specializationEEEyPK20gcc_cp_template_argsyPKcjET_P14gcc_cp_contextT1_T2_T3_T4_T5_ _ZN10cc1_plugin10connection7do_waitEb 201
_Z3rpcIyXadL_ZN10cc1_plugin2cp38build_function_template_specializationEEEyPK20gcc_cp_template_argsyPKcjET_P14gcc_cp_contextT1_T2_T3_T4_T5_ _ZN10cc1_plugin18unmarshall_intlikeEPNS_10connectionEPy 222
_Z3rpcIyXadL_ZN10cc1_plugin2cp35build_class_template_specializationEEEyPK20gcc_cp_template_argsPKcjET_P14gcc_cp_contextT1_T2_T3_T4_ _ZN10cc1_plugin2cp35build_class_template_specializationE 38
_Z3rpcIyXadL_ZN10cc1_plugin2cp35build_class_template_specializationEEEyPK20gcc_cp_template_argsPKcjET_P14gcc_cp_contextT1_T2_T3_T4_ _ZN10cc1_plugin10connection4sendEc 46
_Z3rpcIyXadL_ZN10cc1_plugin2cp35build_class_template_specializationEEEyPK20gcc_cp_template_argsPKcjET_P14gcc_cp_contextT1_T2_T3_T4_ _ZN10cc1_plugin8marshallEPNS_10connectionEPKc 87
_Z3rpcIyXadL_ZN10cc1_plugin2cp35build_class_template_specializationEEEyPK20gcc_cp_template_argsPKcjET_P14gcc_cp_contextT1_T2_T3_T4_ _ZN10cc1_plugin16marshall_intlikeEPNS_10connectionEy 104
_Z3rpcIyXadL_ZN10cc1_plugin2cp35build_class_template_specializationEEEyPK20gcc_cp_template_argsPKcjET_P14gcc_cp_contextT1_T2_T3_T4_ _ZN10cc1_plugin16marshall_intlikeEPNS_10connectionEy 119
_Z3rpcIyXadL_ZN10cc1_plugin2cp35build_class_template_specializationEEEyPK20gcc_cp_template_argsPKcjET_P14gcc_cp_contextT1_T2_T3_T4_ _ZN10cc1_plugin8marshallEPNS_10connectionEPK20gcc_cp_template_args 134
_Z3rpcIyXadL_ZN10cc1_plugin2cp35build_class_template_specializationEEEyPK20gcc_cp_template_argsPKcjET_P14gcc_cp_contextT1_T2_T3_T4_ _ZN10cc1_plugin8marshallEPNS_10connectionEPKc 149
_Z3rpcIyXadL_ZN10cc1_plugin2cp35build_class_template_specializationEEEyPK20gcc_cp_template_argsPKcjET_P14gcc_cp_contextT1_T2_T3_T4_ _ZN10cc1_plugin16marshall_intlikeEPNS_10connectionEy 164
_Z3rpcIyXadL_ZN10cc1_plugin2cp35build_class_template_specializationEEEyPK20gcc_cp_template_argsPKcjET_P14gcc_cp_contextT1_T2_T3_T4_ _ZN10cc1_plugin10connection7do_waitEb 181
_Z3rpcIyXadL_ZN10cc1_plugin2cp35build_class_template_specializationEEEyPK20gcc_cp_template_argsPKcjET_P14gcc_cp_contextT1_T2_T3_T4_ _ZN10cc1_plugin18unmarshall_intlikeEPNS_10connectionEPy 202
_Z3rpcIyXadL_ZN10cc1_plugin2cp32build_dependent_type_template_idEEEyPK20gcc_cp_template_argsET_P14gcc_cp_contextT1_T2_ _ZN10cc1_plugin2cp32build_dependent_type_template_idE 28
_Z3rpcIyXadL_ZN10cc1_plugin2cp32build_dependent_type_template_idEEEyPK20gcc_cp_template_argsET_P14gcc_cp_contextT1_T2_ _ZN10cc1_plugin10connection4sendEc 36
_Z3rpcIyXadL_ZN10cc1_plugin2cp32build_dependent_type_template_idEEEyPK20gcc_cp_template_argsET_P14gcc_cp_contextT1_T2_ _ZN10cc1_plugin8marshallEPNS_10connectionEPKc 71
_Z3rpcIyXadL_ZN10cc1_plugin2cp32build_dependent_type_template_idEEEyPK20gcc_cp_template_argsET_P14gcc_cp_contextT1_T2_ _ZN10cc1_plugin16marshall_intlikeEPNS_10connectionEy 88
_Z3rpcIyXadL_ZN10cc1_plugin2cp32build_dependent_type_template_idEEEyPK20gcc_cp_template_argsET_P14gcc_cp_contextT1_T2_ _ZN10cc1_plugin16marshall_intlikeEPNS_10connectionEy 103
_Z3rpcIyXadL_ZN10cc1_plugin2cp32build_dependent_type_template_idEEEyPK20gcc_cp_template_argsET_P14gcc_cp_contextT1_T2_ _ZN10cc1_plugin8marshallEPNS_10connectionEPK20gcc_cp_template_args 118
_Z3rpcIyXadL_ZN10cc1_plugin2cp32build_dependent_type_template_idEEEyPK20gcc_cp_template_argsET_P14gcc_cp_contextT1_T2_ _ZN10cc1_plugin10connection7do_waitEb 135
_Z3rpcIyXadL_ZN10cc1_plugin2cp32build_dependent_type_template_idEEEyPK20gcc_cp_template_argsET_P14gcc_cp_contextT1_T2_ _ZN10cc1_plugin18unmarshall_intlikeEPNS_10connectionEPy 152
_Z3rpcIyXadL_ZN10cc1_plugin2cp15build_call_exprEEEyiPK20gcc_cp_function_argsET_P14gcc_cp_contextT1_T2_T3_ _ZN10cc1_plugin2cp15build_call_exprE 33
_Z3rpcIyXadL_ZN10cc1_plugin2cp15build_call_exprEEEyiPK20gcc_cp_function_argsET_P14gcc_cp_contextT1_T2_T3_ _ZN10cc1_plugin10connection4sendEc 41
_Z3rpcIyXadL_ZN10cc1_plugin2cp15build_call_exprEEEyiPK20gcc_cp_function_argsET_P14gcc_cp_contextT1_T2_T3_ _ZN10cc1_plugin8marshallEPNS_10connectionEPKc 71
_Z3rpcIyXadL_ZN10cc1_plugin2cp15build_call_exprEEEyiPK20gcc_cp_function_argsET_P14gcc_cp_contextT1_T2_T3_ _ZN10cc1_plugin16marshall_intlikeEPNS_10connectionEy 88
_Z3rpcIyXadL_ZN10cc1_plugin2cp15build_call_exprEEEyiPK20gcc_cp_function_argsET_P14gcc_cp_contextT1_T2_T3_ _ZN10cc1_plugin16marshall_intlikeEPNS_10connectionEy 103
_Z3rpcIyXadL_ZN10cc1_plugin2cp15build_call_exprEEEyiPK20gcc_cp_function_argsET_P14gcc_cp_contextT1_T2_T3_ _ZN10cc1_plugin16marshall_intlikeEPNS_10connectionEy 118
_Z3rpcIyXadL_ZN10cc1_plugin2cp15build_call_exprEEEyiPK20gcc_cp_function_argsET_P14gcc_cp_contextT1_T2_T3_ _ZN10cc1_plugin8marshallEPNS_10connectionEPK20gcc_cp_function_args 133
_Z3rpcIyXadL_ZN10cc1_plugin2cp15build_call_exprEEEyiPK20gcc_cp_function_argsET_P14gcc_cp_contextT1_T2_T3_ _ZN10cc1_plugin10connection7do_waitEb 150
_Z3rpcIyXadL_ZN10cc1_plugin2cp15build_call_exprEEEyiPK20gcc_cp_function_argsET_P14gcc_cp_contextT1_T2_T3_ _ZN10cc1_plugin18unmarshall_intlikeEPNS_10connectionEPy 167
_Z3rpcIyXadL_ZN10cc1_plugin2cp26build_expression_list_exprEEEPKcyPK20gcc_cp_function_argsET_P14gcc_cp_contextT1_T2_T3_ _ZN10cc1_plugin2cp26build_expression_list_exprE 33
_Z3rpcIyXadL_ZN10cc1_plugin2cp26build_expression_list_exprEEEPKcyPK20gcc_cp_function_argsET_P14gcc_cp_contextT1_T2_T3_ _ZN10cc1_plugin10connection4sendEc 41
_Z3rpcIyXadL_ZN10cc1_plugin2cp26build_expression_list_exprEEEPKcyPK20gcc_cp_function_argsET_P14gcc_cp_contextT1_T2_T3_ _ZN10cc1_plugin8marshallEPNS_10connectionEPKc 71
_Z3rpcIyXadL_ZN10cc1_plugin2cp26build_expression_list_exprEEEPKcyPK20gcc_cp_function_argsET_P14gcc_cp_contextT1_T2_T3_ _ZN10cc1_plugin16marshall_intlikeEPNS_10connectionEy 88
_Z3rpcIyXadL_ZN10cc1_plugin2cp26build_expression_list_exprEEEPKcyPK20gcc_cp_function_argsET_P14gcc_cp_contextT1_T2_T3_ _ZN10cc1_plugin8marshallEPNS_10connectionEPKc 103
_Z3rpcIyXadL_ZN10cc1_plugin2cp26build_expression_list_exprEEEPKcyPK20gcc_cp_function_argsET_P14gcc_cp_contextT1_T2_T3_ _ZN10cc1_plugin16marshall_intlikeEPNS_10connectionEy 118
_Z3rpcIyXadL_ZN10cc1_plugin2cp26build_expression_list_exprEEEPKcyPK20gcc_cp_function_argsET_P14gcc_cp_contextT1_T2_T3_ _ZN10cc1_plugin8marshallEPNS_10connectionEPK20gcc_cp_function_args 133
_Z3rpcIyXadL_ZN10cc1_plugin2cp26build_expression_list_exprEEEPKcyPK20gcc_cp_function_argsET_P14gcc_cp_contextT1_T2_T3_ _ZN10cc1_plugin10connection7do_waitEb 150
_Z3rpcIyXadL_ZN10cc1_plugin2cp26build_expression_list_exprEEEPKcyPK20gcc_cp_function_argsET_P14gcc_cp_contextT1_T2_T3_ _ZN10cc1_plugin18unmarshall_intlikeEPNS_10connectionEPy 167
_Z3rpcIyXadL_ZN10cc1_plugin2cp14build_new_exprEEEPKcPK20gcc_cp_function_argsyS6_ET_P14gcc_cp_contextT1_T2_T3_T4_ _ZN10cc1_plugin2cp14build_new_exprE 38
_Z3rpcIyXadL_ZN10cc1_plugin2cp14build_new_exprEEEPKcPK20gcc_cp_function_argsyS6_ET_P14gcc_cp_contextT1_T2_T3_T4_ _ZN10cc1_plugin10connection4sendEc 46
_Z3rpcIyXadL_ZN10cc1_plugin2cp14build_new_exprEEEPKcPK20gcc_cp_function_argsyS6_ET_P14gcc_cp_contextT1_T2_T3_T4_ _ZN10cc1_plugin8marshallEPNS_10connectionEPKc 87
_Z3rpcIyXadL_ZN10cc1_plugin2cp14build_new_exprEEEPKcPK20gcc_cp_function_argsyS6_ET_P14gcc_cp_contextT1_T2_T3_T4_ _ZN10cc1_plugin16marshall_intlikeEPNS_10connectionEy 104
_Z3rpcIyXadL_ZN10cc1_plugin2cp14build_new_exprEEEPKcPK20gcc_cp_function_argsyS6_ET_P14gcc_cp_contextT1_T2_T3_T4_ _ZN10cc1_plugin8marshallEPNS_10connectionEPKc 119
_Z3rpcIyXadL_ZN10cc1_plugin2cp14build_new_exprEEEPKcPK20gcc_cp_function_argsyS6_ET_P14gcc_cp_contextT1_T2_T3_T4_ _ZN10cc1_plugin8marshallEPNS_10connectionEPK20gcc_cp_function_args 134
_Z3rpcIyXadL_ZN10cc1_plugin2cp14build_new_exprEEEPKcPK20gcc_cp_function_argsyS6_ET_P14gcc_cp_contextT1_T2_T3_T4_ _ZN10cc1_plugin16marshall_intlikeEPNS_10connectionEy 149
_Z3rpcIyXadL_ZN10cc1_plugin2cp14build_new_exprEEEPKcPK20gcc_cp_function_argsyS6_ET_P14gcc_cp_contextT1_T2_T3_T4_ _ZN10cc1_plugin8marshallEPNS_10connectionEPK20gcc_cp_function_args 164
_Z3rpcIyXadL_ZN10cc1_plugin2cp14build_new_exprEEEPKcPK20gcc_cp_function_argsyS6_ET_P14gcc_cp_contextT1_T2_T3_T4_ _ZN10cc1_plugin10connection7do_waitEb 181
_Z3rpcIyXadL_ZN10cc1_plugin2cp14build_new_exprEEEPKcPK20gcc_cp_function_argsyS6_ET_P14gcc_cp_contextT1_T2_T3_T4_ _ZN10cc1_plugin18unmarshall_intlikeEPNS_10connectionEPy 202
_ZN10cc1_plugin4callIiyEENS_6statusEPNS_10connectionEPKcPT_T0_ _ZN10cc1_plugin10connection4sendEc 28
_ZN10cc1_plugin4callIiyEENS_6statusEPNS_10connectionEPKcPT_T0_ _ZN10cc1_plugin8marshallEPNS_10connectionEPKc 63
_ZN10cc1_plugin4callIiyEENS_6statusEPNS_10connectionEPKcPT_T0_ _ZN10cc1_plugin16marshall_intlikeEPNS_10connectionEy 80
_ZN10cc1_plugin4callIiyEENS_6statusEPNS_10connectionEPKcPT_T0_ _ZN10cc1_plugin16marshall_intlikeEPNS_10connectionEy 95
_ZN10cc1_plugin4callIiyEENS_6statusEPNS_10connectionEPKcPT_T0_ _ZN10cc1_plugin10connection7do_waitEb 112
_ZN10cc1_plugin4callIiyEENS_6statusEPNS_10connectionEPKcPT_T0_ _ZN10cc1_plugin18unmarshall_intlikeEPNS_10connectionEPy 129
_Z3rpcIiXadL_ZN10cc1_plugin2cp16finish_enum_typeEEEyET_P14gcc_cp_contextT1_ _ZN10cc1_plugin2cp16finish_enum_typeE 14
_Z3rpcIiXadL_ZN10cc1_plugin2cp16finish_enum_typeEEEyET_P14gcc_cp_contextT1_ _ZN10cc1_plugin4callIiyEENS_6statusEPNS_10connectionEPKcPT_T0_ 24
_Z3rpcIiXadL_ZN10cc1_plugin2cp19add_using_namespaceEEEyET_P14gcc_cp_contextT1_ _ZN10cc1_plugin2cp19add_using_namespaceE 14
_Z3rpcIiXadL_ZN10cc1_plugin2cp19add_using_namespaceEEEyET_P14gcc_cp_contextT1_ _ZN10cc1_plugin4callIiyEENS_6statusEPNS_10connectionEPKcPT_T0_ 24
_Z3rpcIiXadL_ZN10cc1_plugin2cp13push_functionEEEyET_P14gcc_cp_contextT1_ _ZN10cc1_plugin2cp13push_functionE 14
_Z3rpcIiXadL_ZN10cc1_plugin2cp13push_functionEEEyET_P14gcc_cp_contextT1_ _ZN10cc1_plugin4callIiyEENS_6statusEPNS_10connectionEPKcPT_T0_ 24
_Z3rpcIiXadL_ZN10cc1_plugin2cp10push_classEEEyET_P14gcc_cp_contextT1_ _ZN10cc1_plugin2cp10push_classE 14
_Z3rpcIiXadL_ZN10cc1_plugin2cp10push_classEEEyET_P14gcc_cp_contextT1_ _ZN10cc1_plugin4callIiyEENS_6statusEPNS_10connectionEPKcPT_T0_ 24
_ZN10cc1_plugin4callIiyyEENS_6statusEPNS_10connectionEPKcPT_T0_T1_ _ZN10cc1_plugin10connection4sendEc 33
_ZN10cc1_plugin4callIiyyEENS_6statusEPNS_10connectionEPKcPT_T0_T1_ _ZN10cc1_plugin8marshallEPNS_10connectionEPKc 71
_ZN10cc1_plugin4callIiyyEENS_6statusEPNS_10connectionEPKcPT_T0_T1_ _ZN10cc1_plugin16marshall_intlikeEPNS_10connectionEy 88
_ZN10cc1_plugin4callIiyyEENS_6statusEPNS_10connectionEPKcPT_T0_T1_ _ZN10cc1_plugin16marshall_intlikeEPNS_10connectionEy 103
_ZN10cc1_plugin4callIiyyEENS_6statusEPNS_10connectionEPKcPT_T0_T1_ _ZN10cc1_plugin16marshall_intlikeEPNS_10connectionEy 118
_ZN10cc1_plugin4callIiyyEENS_6statusEPNS_10connectionEPKcPT_T0_T1_ _ZN10cc1_plugin10connection7do_waitEb 135
_ZN10cc1_plugin4callIiyyEENS_6statusEPNS_10connectionEPKcPT_T0_T1_ _ZN10cc1_plugin18unmarshall_intlikeEPNS_10connectionEPy 152
_Z3rpcIiXadL_ZN10cc1_plugin2cp10add_friendEEEyyET_P14gcc_cp_contextT1_T2_ _ZN10cc1_plugin2cp10add_friendE 14
_Z3rpcIiXadL_ZN10cc1_plugin2cp10add_friendEEEyyET_P14gcc_cp_contextT1_T2_ _ZN10cc1_plugin4callIiyyEENS_6statusEPNS_10connectionEPKcPT_T0_T1_ 27
_Z3rpcIiXadL_ZN10cc1_plugin2cp15reactivate_declEEEyyET_P14gcc_cp_contextT1_T2_ _ZN10cc1_plugin2cp15reactivate_declE 14
_Z3rpcIiXadL_ZN10cc1_plugin2cp15reactivate_declEEEyyET_P14gcc_cp_contextT1_T2_ _ZN10cc1_plugin4callIiyyEENS_6statusEPNS_10connectionEPKcPT_T0_T1_ 27
_Z3rpcIiXadL_ZN10cc1_plugin2cp19start_template_declEEEET_P14gcc_cp_context _ZN10cc1_plugin2cp19start_template_declE 11
_Z3rpcIiXadL_ZN10cc1_plugin2cp19start_template_declEEEET_P14gcc_cp_context _ZN10cc1_plugin4callIiEENS_6statusEPNS_10connectionEPKcPT_ 21
_Z3rpcIiXadL_ZN10cc1_plugin2cp21make_namespace_inlineEEEET_P14gcc_cp_context _ZN10cc1_plugin2cp21make_namespace_inlineE 11
_Z3rpcIiXadL_ZN10cc1_plugin2cp21make_namespace_inlineEEEET_P14gcc_cp_context _ZN10cc1_plugin4callIiEENS_6statusEPNS_10connectionEPKcPT_ 21
_Z3rpcIiXadL_ZN10cc1_plugin2cp17pop_binding_levelEEEET_P14gcc_cp_context _ZN10cc1_plugin2cp17pop_binding_levelE 11
_Z3rpcIiXadL_ZN10cc1_plugin2cp17pop_binding_levelEEEET_P14gcc_cp_context _ZN10cc1_plugin4callIiEENS_6statusEPNS_10connectionEPKcPT_ 21
_Z3rpcIyXadL_ZN10cc1_plugin2cp20get_nullptr_constantEEEET_P14gcc_cp_context _ZN10cc1_plugin2cp20get_nullptr_constantE 11
_Z3rpcIyXadL_ZN10cc1_plugin2cp20get_nullptr_constantEEEET_P14gcc_cp_context _ZN10cc1_plugin4callIyEENS_6statusEPNS_10connectionEPKcPT_ 21
_Z3rpcIyXadL_ZN10cc1_plugin2cp16get_nullptr_typeEEEET_P14gcc_cp_context _ZN10cc1_plugin2cp16get_nullptr_typeE 11
_Z3rpcIyXadL_ZN10cc1_plugin2cp16get_nullptr_typeEEEET_P14gcc_cp_context _ZN10cc1_plugin4callIyEENS_6statusEPNS_10connectionEPKcPT_ 21
_Z3rpcIyXadL_ZN10cc1_plugin2cp13get_bool_typeEEEET_P14gcc_cp_context _ZN10cc1_plugin2cp13get_bool_typeE 11
_Z3rpcIyXadL_ZN10cc1_plugin2cp13get_bool_typeEEEET_P14gcc_cp_context _ZN10cc1_plugin4callIyEENS_6statusEPNS_10connectionEPKcPT_ 21
_Z3rpcIyXadL_ZN10cc1_plugin2cp13get_void_typeEEEET_P14gcc_cp_context _ZN10cc1_plugin2cp13get_void_typeE 11
_Z3rpcIyXadL_ZN10cc1_plugin2cp13get_void_typeEEEET_P14gcc_cp_context _ZN10cc1_plugin4callIyEENS_6statusEPNS_10connectionEPKcPT_ 21
_Z3rpcIyXadL_ZN10cc1_plugin2cp13get_char_typeEEEET_P14gcc_cp_context _ZN10cc1_plugin2cp13get_char_typeE 11
_Z3rpcIyXadL_ZN10cc1_plugin2cp13get_char_typeEEEET_P14gcc_cp_context _ZN10cc1_plugin4callIyEENS_6statusEPNS_10connectionEPKcPT_ 21
_Z3rpcIyXadL_ZN10cc1_plugin2cp30get_current_binding_level_declEEEET_P14gcc_cp_context _ZN10cc1_plugin2cp30get_current_binding_level_declE 11
_Z3rpcIyXadL_ZN10cc1_plugin2cp30get_current_binding_level_declEEEET_P14gcc_cp_context _ZN10cc1_plugin4callIyEENS_6statusEPNS_10connectionEPKcPT_ 21
_ZN10cc1_plugin4callIyPKcyyEENS_6statusEPNS_10connectionES2_PT_T0_T1_T2_ _ZN10cc1_plugin10connection4sendEc 38
_ZN10cc1_plugin4callIyPKcyyEENS_6statusEPNS_10connectionES2_PT_T0_T1_T2_ _ZN10cc1_plugin8marshallEPNS_10connectionEPKc 71
_ZN10cc1_plugin4callIyPKcyyEENS_6statusEPNS_10connectionES2_PT_T0_T1_T2_ _ZN10cc1_plugin16marshall_intlikeEPNS_10connectionEy 88
_ZN10cc1_plugin4callIyPKcyyEENS_6statusEPNS_10connectionES2_PT_T0_T1_T2_ _ZN10cc1_plugin8marshallEPNS_10connectionEPKc 103
_ZN10cc1_plugin4callIyPKcyyEENS_6statusEPNS_10connectionES2_PT_T0_T1_T2_ _ZN10cc1_plugin16marshall_intlikeEPNS_10connectionEy 118
_ZN10cc1_plugin4callIyPKcyyEENS_6statusEPNS_10connectionES2_PT_T0_T1_T2_ _ZN10cc1_plugin16marshall_intlikeEPNS_10connectionEy 133
_ZN10cc1_plugin4callIyPKcyyEENS_6statusEPNS_10connectionES2_PT_T0_T1_T2_ _ZN10cc1_plugin10connection7do_waitEb 150
_ZN10cc1_plugin4callIyPKcyyEENS_6statusEPNS_10connectionES2_PT_T0_T1_T2_ _ZN10cc1_plugin18unmarshall_intlikeEPNS_10connectionEPy 167
_Z3rpcIyXadL_ZN10cc1_plugin2cp15build_cast_exprEEEPKcyyET_P14gcc_cp_contextT1_T2_T3_ _ZN10cc1_plugin2cp15build_cast_exprE 17
_Z3rpcIyXadL_ZN10cc1_plugin2cp15build_cast_exprEEEPKcyyET_P14gcc_cp_contextT1_T2_T3_ _ZN10cc1_plugin4callIyPKcyyEENS_6statusEPNS_10connectionES2_PT_T0_T1_T2_ 30
_Z3rpcIyXadL_ZN10cc1_plugin2cp17build_binary_exprEEEPKcyyET_P14gcc_cp_contextT1_T2_T3_ _ZN10cc1_plugin2cp17build_binary_exprE 17
_Z3rpcIyXadL_ZN10cc1_plugin2cp17build_binary_exprEEEPKcyyET_P14gcc_cp_contextT1_T2_T3_ _ZN10cc1_plugin4callIyPKcyyEENS_6statusEPNS_10connectionES2_PT_T0_T1_T2_ 30
_Z3rpcIyXadL_ZN10cc1_plugin2cp18define_cdtor_cloneEEEPKcyyET_P14gcc_cp_contextT1_T2_T3_ _ZN10cc1_plugin2cp18define_cdtor_cloneE 17
_Z3rpcIyXadL_ZN10cc1_plugin2cp18define_cdtor_cloneEEEPKcyyET_P14gcc_cp_contextT1_T2_T3_ _ZN10cc1_plugin4callIyPKcyyEENS_6statusEPNS_10connectionES2_PT_T0_T1_T2_ 30
_Z3rpcIyXadL_ZN10cc1_plugin2cp18build_complex_typeEEEyET_P14gcc_cp_contextT1_ _ZN10cc1_plugin2cp18build_complex_typeE 14
_Z3rpcIyXadL_ZN10cc1_plugin2cp18build_complex_typeEEEyET_P14gcc_cp_contextT1_ _ZN10cc1_plugin4callIyyEENS_6statusEPNS_10connectionEPKcPT_T0_ 24
_Z3rpcIyXadL_ZN10cc1_plugin2cp17build_lambda_exprEEEyET_P14gcc_cp_contextT1_ _ZN10cc1_plugin2cp17build_lambda_exprE 14
_Z3rpcIyXadL_ZN10cc1_plugin2cp17build_lambda_exprEEEyET_P14gcc_cp_contextT1_ _ZN10cc1_plugin4callIyyEENS_6statusEPNS_10connectionEPKcPT_T0_ 24
_Z3rpcIyXadL_ZN10cc1_plugin2cp13get_expr_typeEEEyET_P14gcc_cp_contextT1_ _ZN10cc1_plugin2cp13get_expr_typeE 14
_Z3rpcIyXadL_ZN10cc1_plugin2cp13get_expr_typeEEEyET_P14gcc_cp_contextT1_ _ZN10cc1_plugin4callIyyEENS_6statusEPNS_10connectionEPKcPT_T0_ 24
_Z3rpcIyXadL_ZN10cc1_plugin2cp18build_pointer_typeEEEyET_P14gcc_cp_contextT1_ _ZN10cc1_plugin2cp18build_pointer_typeE 14
_Z3rpcIyXadL_ZN10cc1_plugin2cp18build_pointer_typeEEEyET_P14gcc_cp_contextT1_ _ZN10cc1_plugin4callIyyEENS_6statusEPNS_10connectionEPKcPT_T0_ 24
_Z3rpcIyXadL_ZN10cc1_plugin2cp13get_type_declEEEyET_P14gcc_cp_contextT1_ _ZN10cc1_plugin2cp13get_type_declE 14
_Z3rpcIyXadL_ZN10cc1_plugin2cp13get_type_declEEEyET_P14gcc_cp_contextT1_ _ZN10cc1_plugin4callIyyEENS_6statusEPNS_10connectionEPKcPT_T0_ 24
_Z3rpcIyXadL_ZN10cc1_plugin2cp13get_decl_typeEEEyET_P14gcc_cp_contextT1_ _ZN10cc1_plugin2cp13get_decl_typeE 14
_Z3rpcIyXadL_ZN10cc1_plugin2cp13get_decl_typeEEEyET_P14gcc_cp_contextT1_ _ZN10cc1_plugin4callIyyEENS_6statusEPNS_10connectionEPKcPT_T0_ 24
_ZN10cc1_plugin4callIyyyEENS_6statusEPNS_10connectionEPKcPT_T0_T1_ _ZN10cc1_plugin10connection4sendEc 33
_ZN10cc1_plugin4callIyyyEENS_6statusEPNS_10connectionEPKcPT_T0_T1_ _ZN10cc1_plugin8marshallEPNS_10connectionEPKc 71
_ZN10cc1_plugin4callIyyyEENS_6statusEPNS_10connectionEPKcPT_T0_T1_ _ZN10cc1_plugin16marshall_intlikeEPNS_10connectionEy 88
_ZN10cc1_plugin4callIyyyEENS_6statusEPNS_10connectionEPKcPT_T0_T1_ _ZN10cc1_plugin16marshall_intlikeEPNS_10connectionEy 103
_ZN10cc1_plugin4callIyyyEENS_6statusEPNS_10connectionEPKcPT_T0_T1_ _ZN10cc1_plugin16marshall_intlikeEPNS_10connectionEy 118
_ZN10cc1_plugin4callIyyyEENS_6statusEPNS_10connectionEPKcPT_T0_T1_ _ZN10cc1_plugin10connection7do_waitEb 135
_ZN10cc1_plugin4callIyyyEENS_6statusEPNS_10connectionEPKcPT_T0_T1_ _ZN10cc1_plugin18unmarshall_intlikeEPNS_10connectionEPy 152
_Z3rpcIyXadL_ZN10cc1_plugin2cp26build_dependent_array_typeEEEyyET_P14gcc_cp_contextT1_T2_ _ZN10cc1_plugin2cp26build_dependent_array_typeE 14
_Z3rpcIyXadL_ZN10cc1_plugin2cp26build_dependent_array_typeEEEyyET_P14gcc_cp_contextT1_T2_ _ZN10cc1_plugin4callIyyyEENS_6statusEPNS_10connectionEPKcPT_T0_T1_ 27
_Z3rpcIyXadL_ZN10cc1_plugin2cp28build_pointer_to_member_typeEEEyyET_P14gcc_cp_contextT1_T2_ _ZN10cc1_plugin2cp28build_pointer_to_member_typeE 14
_Z3rpcIyXadL_ZN10cc1_plugin2cp28build_pointer_to_member_typeEEEyyET_P14gcc_cp_contextT1_T2_ _ZN10cc1_plugin4callIyyyEENS_6statusEPNS_10connectionEPKcPT_T0_T1_ 27
_ZN10cc1_plugin4callIyPKciyS2_jEENS_6statusEPNS_10connectionES2_PT_T0_T1_T2_T3_T4_ _ZN10cc1_plugin10connection4sendEc 38
_ZN10cc1_plugin4callIyPKciyS2_jEENS_6statusEPNS_10connectionES2_PT_T0_T1_T2_T3_T4_ _ZN10cc1_plugin8marshallEPNS_10connectionEPKc 71
_ZN10cc1_plugin4callIyPKciyS2_jEENS_6statusEPNS_10connectionES2_PT_T0_T1_T2_T3_T4_ _ZN10cc1_plugin16marshall_intlikeEPNS_10connectionEy 88
_ZN10cc1_plugin4callIyPKciyS2_jEENS_6statusEPNS_10connectionES2_PT_T0_T1_T2_T3_T4_ _ZN10cc1_plugin8marshallEPNS_10connectionEPKc 103
_ZN10cc1_plugin4callIyPKciyS2_jEENS_6statusEPNS_10connectionES2_PT_T0_T1_T2_T3_T4_ _ZN10cc1_plugin16marshall_intlikeEPNS_10connectionEy 118
_ZN10cc1_plugin4callIyPKciyS2_jEENS_6statusEPNS_10connectionES2_PT_T0_T1_T2_T3_T4_ _ZN10cc1_plugin16marshall_intlikeEPNS_10connectionEy 133
_ZN10cc1_plugin4callIyPKciyS2_jEENS_6statusEPNS_10connectionES2_PT_T0_T1_T2_T3_T4_ _ZN10cc1_plugin8marshallEPNS_10connectionEPKc 150
_ZN10cc1_plugin4callIyPKciyS2_jEENS_6statusEPNS_10connectionES2_PT_T0_T1_T2_T3_T4_ _ZN10cc1_plugin16marshall_intlikeEPNS_10connectionEy 166
_ZN10cc1_plugin4callIyPKciyS2_jEENS_6statusEPNS_10connectionES2_PT_T0_T1_T2_T3_T4_ _ZN10cc1_plugin10connection7do_waitEb 183
_ZN10cc1_plugin4callIyPKciyS2_jEENS_6statusEPNS_10connectionES2_PT_T0_T1_T2_T3_T4_ _ZN10cc1_plugin18unmarshall_intlikeEPNS_10connectionEPy 204
_Z3rpcIyXadL_ZN10cc1_plugin2cp33build_template_template_parameterEEEPKciyS3_jET_P14gcc_cp_contextT1_T2_T3_T4_T5_ _ZN10cc1_plugin2cp33build_template_template_parameterE 21
_Z3rpcIyXadL_ZN10cc1_plugin2cp33build_template_template_parameterEEEPKciyS3_jET_P14gcc_cp_contextT1_T2_T3_T4_T5_ _ZN10cc1_plugin4callIyPKciyS2_jEENS_6statusEPNS_10connectionES2_PT_T0_T1_T2_T3_T4_ 34
_Z3rpcIyXadL_ZN10cc1_plugin2cp29build_type_template_parameterEEEPKciyS3_jET_P14gcc_cp_contextT1_T2_T3_T4_T5_ _ZN10cc1_plugin2cp29build_type_template_parameterE 21
_Z3rpcIyXadL_ZN10cc1_plugin2cp29build_type_template_parameterEEEPKciyS3_jET_P14gcc_cp_contextT1_T2_T3_T4_T5_ _ZN10cc1_plugin4callIyPKciyS2_jEENS_6statusEPNS_10connectionES2_PT_T0_T1_T2_T3_T4_ 34
_ZN10cc1_plugin4callIyyPKcEENS_6statusEPNS_10connectionES2_PT_T0_T1_ _ZN10cc1_plugin10connection4sendEc 33
_ZN10cc1_plugin4callIyyPKcEENS_6statusEPNS_10connectionES2_PT_T0_T1_ _ZN10cc1_plugin8marshallEPNS_10connectionEPKc 71
_ZN10cc1_plugin4callIyyPKcEENS_6statusEPNS_10connectionES2_PT_T0_T1_ _ZN10cc1_plugin16marshall_intlikeEPNS_10connectionEy 88
_ZN10cc1_plugin4callIyyPKcEENS_6statusEPNS_10connectionES2_PT_T0_T1_ _ZN10cc1_plugin16marshall_intlikeEPNS_10connectionEy 103
_ZN10cc1_plugin4callIyyPKcEENS_6statusEPNS_10connectionES2_PT_T0_T1_ _ZN10cc1_plugin8marshallEPNS_10connectionEPKc 118
_ZN10cc1_plugin4callIyyPKcEENS_6statusEPNS_10connectionES2_PT_T0_T1_ _ZN10cc1_plugin10connection7do_waitEb 135
_ZN10cc1_plugin4callIyyPKcEENS_6statusEPNS_10connectionES2_PT_T0_T1_ _ZN10cc1_plugin18unmarshall_intlikeEPNS_10connectionEPy 152
_Z3rpcIyXadL_ZN10cc1_plugin2cp20build_vla_array_typeEEEyPKcET_P14gcc_cp_contextT1_T2_ _ZN10cc1_plugin2cp20build_vla_array_typeE 14
_Z3rpcIyXadL_ZN10cc1_plugin2cp20build_vla_array_typeEEEyPKcET_P14gcc_cp_contextT1_T2_ _ZN10cc1_plugin4callIyyPKcEENS_6statusEPNS_10connectionES2_PT_T0_T1_ 27
_Z3rpcIyXadL_ZN10cc1_plugin2cp30build_dependent_class_templateEEEyPKcET_P14gcc_cp_contextT1_T2_ _ZN10cc1_plugin2cp30build_dependent_class_templateE 14
_Z3rpcIyXadL_ZN10cc1_plugin2cp30build_dependent_class_templateEEEyPKcET_P14gcc_cp_contextT1_T2_ _ZN10cc1_plugin4callIyyPKcEENS_6statusEPNS_10connectionES2_PT_T0_T1_ 27
_Z3rpcIyXadL_ZN10cc1_plugin2cp17build_vector_typeEEEyiET_P14gcc_cp_contextT1_T2_ _ZN10cc1_plugin2cp17build_vector_typeE 14
_Z3rpcIyXadL_ZN10cc1_plugin2cp17build_vector_typeEEEyiET_P14gcc_cp_contextT1_T2_ _ZN10cc1_plugin4callIyyiEENS_6statusEPNS_10connectionEPKcPT_T0_T1_ 27
_Z3rpcIyXadL_ZN10cc1_plugin2cp16build_array_typeEEEyiET_P14gcc_cp_contextT1_T2_ _ZN10cc1_plugin2cp16build_array_typeE 14
_Z3rpcIyXadL_ZN10cc1_plugin2cp16build_array_typeEEEyiET_P14gcc_cp_contextT1_T2_ _ZN10cc1_plugin4callIyyiEENS_6statusEPNS_10connectionEPKcPT_T0_T1_ 27
_Z3rpcIyXadL_ZN10cc1_plugin2cp27get_function_parameter_declEEEyiET_P14gcc_cp_contextT1_T2_ _ZN10cc1_plugin2cp27get_function_parameter_declE 14
_Z3rpcIyXadL_ZN10cc1_plugin2cp27get_function_parameter_declEEEyiET_P14gcc_cp_contextT1_T2_ _ZN10cc1_plugin4callIyyiEENS_6statusEPNS_10connectionEPKcPT_T0_T1_ 27
_Z3rpcIyXadL_ZN10cc1_plugin2cp15build_decl_exprEEEyiET_P14gcc_cp_contextT1_T2_ _ZN10cc1_plugin2cp15build_decl_exprE 14
_Z3rpcIyXadL_ZN10cc1_plugin2cp15build_decl_exprEEEyiET_P14gcc_cp_contextT1_T2_ _ZN10cc1_plugin4callIyyiEENS_6statusEPNS_10connectionEPKcPT_T0_T1_ 27
_ZN10cc1_plugin4callIyPKcyEENS_6statusEPNS_10connectionES2_PT_T0_T1_ _ZN10cc1_plugin10connection4sendEc 33
_ZN10cc1_plugin4callIyPKcyEENS_6statusEPNS_10connectionES2_PT_T0_T1_ _ZN10cc1_plugin8marshallEPNS_10connectionEPKc 71
_ZN10cc1_plugin4callIyPKcyEENS_6statusEPNS_10connectionES2_PT_T0_T1_ _ZN10cc1_plugin16marshall_intlikeEPNS_10connectionEy 88
_ZN10cc1_plugin4callIyPKcyEENS_6statusEPNS_10connectionES2_PT_T0_T1_ _ZN10cc1_plugin8marshallEPNS_10connectionEPKc 103
_ZN10cc1_plugin4callIyPKcyEENS_6statusEPNS_10connectionES2_PT_T0_T1_ _ZN10cc1_plugin16marshall_intlikeEPNS_10connectionEy 118
_ZN10cc1_plugin4callIyPKcyEENS_6statusEPNS_10connectionES2_PT_T0_T1_ _ZN10cc1_plugin10connection7do_waitEb 135
_ZN10cc1_plugin4callIyPKcyEENS_6statusEPNS_10connectionES2_PT_T0_T1_ _ZN10cc1_plugin18unmarshall_intlikeEPNS_10connectionEPy 152
_Z3rpcIyXadL_ZN10cc1_plugin2cp21build_unary_type_exprEEEPKcyET_P14gcc_cp_contextT1_T2_ _ZN10cc1_plugin2cp21build_unary_type_exprE 14
_Z3rpcIyXadL_ZN10cc1_plugin2cp21build_unary_type_exprEEEPKcyET_P14gcc_cp_contextT1_T2_ _ZN10cc1_plugin4callIyPKcyEENS_6statusEPNS_10connectionES2_PT_T0_T1_ 27
_Z3rpcIyXadL_ZN10cc1_plugin2cp16build_unary_exprEEEPKcyET_P14gcc_cp_contextT1_T2_ _ZN10cc1_plugin2cp16build_unary_exprE 14
_Z3rpcIyXadL_ZN10cc1_plugin2cp16build_unary_exprEEEPKcyET_P14gcc_cp_contextT1_T2_ _ZN10cc1_plugin4callIyPKcyEENS_6statusEPNS_10connectionES2_PT_T0_T1_ 27
_nc_retrace_field_ptr _nc_tracing 2
_nc_retrace_field_ptr _tracef 24
_nc_retrace_field _nc_tracing 2
_nc_retrace_field _tracef 24
_nc_retrace_field_type _nc_tracing 2
_nc_retrace_field_type _tracef 24
_nc_retrace_form _nc_tracing 2
_nc_retrace_form _tracef 24
_nc_retrace_form_hook _nc_tracing 6
_nc_retrace_form_hook _nc_fmt_funcptr 34
_nc_retrace_form_hook _tracef 49
set_fieldtype_arg _nc_tracing 16
set_fieldtype_arg __errno_location 80
set_fieldtype_arg _nc_retrace_int 93
set_fieldtype_arg __errno_location 113
set_fieldtype_arg _nc_retrace_int 129
set_fieldtype_arg _nc_fmt_funcptr 168
set_fieldtype_arg _nc_fmt_funcptr 191
set_fieldtype_arg _nc_fmt_funcptr 214
set_fieldtype_arg _tracef 238
field_arg _nc_tracing 2
field_arg _nc_Default_Field 20
field_arg _tracef 51
field_arg _nc_retrace_void_ptr 30
set_field_fore _nc_tracing 2
set_field_fore __errno_location 36
set_field_fore _nc_Synchronize_Attributes 79
set_field_fore _traceattr 99
set_field_fore _tracef 117
set_field_fore _nc_Default_Field 131
set_field_fore _nc_retrace_int 49
field_fore _nc_tracing 2
field_fore _nc_Default_Field 20
field_fore _tracef 51
field_fore _nc_retrace_attr_t 33
set_field_back _nc_tracing 2
set_field_back __errno_location 36
set_field_back _nc_Synchronize_Attributes 79
set_field_back _traceattr 99
set_field_back _tracef 117
set_field_back _nc_Default_Field 131
set_field_back _nc_retrace_int 49
field_back _nc_tracing 2
field_back _nc_Default_Field 20
field_back _tracef 51
field_back _nc_retrace_attr_t 33
set_current_field _nc_tracing 18
set_current_field __errno_location 53
set_current_field __errno_location 123
set_current_field _tracef 166
set_current_field __errno_location 185
set_current_field _nc_Internal_Validation 262
set_current_field _nc_Set_Form_Page 354
set_current_field _nc_Refresh_Current_Field 419
set_current_field _nc_Set_Current_Field 443
set_current_field _nc_retrace_int 79
set_current_field _nc_retrace_int 144
set_current_field _nc_retrace_int 211
unfocus_current_field _nc_tracing 2
unfocus_current_field _nc_Unset_Current_Field 29
unfocus_current_field __errno_location 34
unfocus_current_field _tracef 67
unfocus_current_field __errno_location 81
unfocus_current_field __errno_location 113
unfocus_current_field _nc_retrace_int 48
unfocus_current_field _nc_retrace_int 98
unfocus_current_field _nc_retrace_int 130
current_field _nc_tracing 2
current_field _nc_Default_Form 20
current_field _tracef 51
current_field _nc_retrace_field 30
field_index _nc_tracing 2
field_index _tracef 59
field_index _nc_retrace_int 36
_nc_Make_Argument malloc 45
_nc_Copy_Argument malloc 118
_nc_Free_Argument free 95
_nc_Copy_Type _nc_Copy_Argument 41
_nc_Copy_Type _nc_Free_Argument 96
_nc_Free_Type _nc_Free_Argument 22
free_field _nc_tracing 2
free_field __errno_location 30
free_field _nc_Free_Type 100
free_field free 108
free_field __errno_location 113
free_field _tracef 147
free_field free 170
free_field __errno_location 177
free_field _nc_retrace_int 47
free_field _nc_retrace_int 127
free_field _nc_retrace_int 194
new_field _nc_tracing 32
new_field malloc 106
new_field _nc_tracing 124
new_field _nc_Copy_Type 369
new_field free_field 381
new_field __errno_location 406
new_field _tracef 471
new_field malloc 533
new_field _tracef 667
new_field _nc_retrace_field 429
dup_field _nc_tracing 21
dup_field malloc 72
dup_field _nc_tracing 90
dup_field _nc_Default_Field 104
dup_field _nc_Copy_Type 327
dup_field free_field 344
dup_field __errno_location 358
dup_field _tracef 399
dup_field malloc 448
dup_field _tracef 523
dup_field _nc_retrace_field 377
set_fieldtype_choice _nc_tracing 11
set_fieldtype_choice __errno_location 64
set_fieldtype_choice _nc_retrace_int 77
set_fieldtype_choice __errno_location 97
set_fieldtype_choice _nc_retrace_int 113
set_fieldtype_choice _nc_fmt_funcptr 142
set_fieldtype_choice _nc_fmt_funcptr 165
set_fieldtype_choice _tracef 186
link_fieldtype _nc_tracing 2
link_fieldtype __errno_location 34
link_fieldtype malloc 70
link_fieldtype _nc_tracing 88
link_fieldtype _nc_Default_FieldType 102
link_fieldtype _tracef 294
link_fieldtype _tracef 331
link_fieldtype __errno_location 345
link_fieldtype _nc_retrace_field_type 54
link_fieldtype _nc_retrace_field_type 269
field_info _nc_tracing 34
field_info __errno_location 129
field_info _tracef 191
field_info __errno_location 209
field_info _nc_retrace_int 156
dynamic_field_info _nc_tracing 24
dynamic_field_info __errno_location 72
dynamic_field_info _tracef 124
dynamic_field_info __errno_location 137
dynamic_field_info _nc_retrace_int 95
set_field_just _nc_tracing 2
set_field_just _nc_Default_Field 37
set_field_just _nc_Synchronize_Attributes 61
set_field_just __errno_location 68
set_field_just _tracef 101
set_field_just _nc_retrace_int 81
field_just _nc_tracing 2
field_just _nc_Default_Field 20
field_just _tracef 51
field_just _nc_retrace_int 30
link_field _nc_tracing 21
link_field malloc 72
link_field _nc_tracing 90
link_field _nc_Default_Field 104
link_field _nc_Copy_Type 335
link_field free_field 352
link_field __errno_location 357
link_field __errno_location 390
link_field _tracef 431
link_field _tracef 459
link_field _nc_retrace_field 376
link_field _nc_retrace_field 409
set_max_field _nc_tracing 13
set_max_field __errno_location 121
set_max_field _tracef 205
set_max_field __errno_location 225
set_max_field _nc_retrace_int 140
set_max_field _nc_retrace_int 247
move_field _nc_tracing 2
move_field __errno_location 51
move_field __errno_location 81
move_field _tracef 127
move_field __errno_location 146
move_field _nc_retrace_int 71
move_field _nc_retrace_int 101
move_field _nc_retrace_int 163
new_fieldtype _nc_tracing 8
new_fieldtype malloc 48
new_fieldtype _nc_tracing 66
new_fieldtype _tracef 84
new_fieldtype _nc_retrace_field_type 218
new_fieldtype __errno_location 244
new_fieldtype _nc_fmt_funcptr 278
new_fieldtype _nc_fmt_funcptr 301
new_fieldtype _tracef 319
new_fieldtype __errno_location 337
free_fieldtype _nc_tracing 2
free_fieldtype free 72
free_fieldtype __errno_location 77
free_fieldtype __errno_location 97
free_fieldtype _tracef 139
free_fieldtype __errno_location 153
free_fieldtype _nc_retrace_int 91
free_fieldtype _nc_retrace_int 114
free_fieldtype _nc_retrace_int 170
set_field_opts _nc_tracing 13
set_field_opts _nc_Default_Field 35
set_field_opts _nc_Synchronize_Options 43
set_field_opts __errno_location 50
set_field_opts _tracef 85
set_field_opts _nc_retrace_int 65
field_opts _nc_tracing 2
field_opts _nc_Default_Field 20
field_opts _tracef 59
field_opts _nc_retrace_int 35
field_opts_on _nc_tracing 13
field_opts_on _nc_Default_Field 35
field_opts_on _nc_Synchronize_Options 46
field_opts_on __errno_location 53
field_opts_on _tracef 93
field_opts_on _nc_retrace_int 68
field_opts_off _nc_tracing 13
field_opts_off _nc_Default_Field 33
field_opts_off _nc_Synchronize_Options 48
field_opts_off __errno_location 55
field_opts_off _tracef 93
field_opts_off _nc_retrace_int 70
set_field_pad _nc_tracing 2
set_field_pad _nc_Default_Field 26
set_field_pad __ctype_b_loc 36
set_field_pad _nc_Synchronize_Attributes 70
set_field_pad __errno_location 77
set_field_pad _tracef 109
set_field_pad _nc_retrace_int 90
field_pad _nc_tracing 2
field_pad _nc_Default_Field 20
field_pad _tracef 51
field_pad _nc_retrace_int 29
set_new_page _nc_tracing 13
set_new_page _nc_Default_Field 27
set_new_page __errno_location 39
set_new_page __errno_location 82
set_new_page _tracef 127
set_new_page _nc_retrace_int 61
set_new_page _nc_retrace_int 101
new_page _nc_tracing 2
new_page _nc_Default_Field 20
new_page _tracef 59
new_page _nc_retrace_bool 36
set_field_status _nc_tracing 13
set_field_status _nc_Default_Field 27
set_field_status __errno_location 41
set_field_status _tracef 95
set_field_status _nc_retrace_int 60
field_status _nc_tracing 2
field_status _nc_Default_Field 20
field_status _tracef 51
field_status _nc_retrace_bool 32
set_field_type _nc_tracing 96
set_field_type _nc_Default_Field 122
set_field_type _nc_Free_Type 169
set_field_type _nc_Make_Argument 191
set_field_type __errno_location 224
set_field_type _nc_retrace_int 233
set_field_type _tracef 270
set_field_type _nc_Free_Argument 296
field_type _nc_tracing 2
field_type _nc_Default_Field 20
field_type _tracef 51
field_type _nc_retrace_field_type 30
set_field_userptr _nc_tracing 14
set_field_userptr _nc_Default_Field 28
set_field_userptr __errno_location 37
set_field_userptr _tracef 78
set_field_userptr _nc_retrace_int 56
field_userptr _nc_tracing 2
field_userptr _nc_Default_Field 20
field_userptr _tracef 51
field_userptr _nc_retrace_void_ptr 30
pos_form_cursor _nc_tracing 11
pos_form_cursor _nc_Position_Form_Cursor 40
pos_form_cursor __errno_location 47
pos_form_cursor _tracef 83
pos_form_cursor _nc_retrace_int 62
data_behind _nc_tracing 2
data_behind _tracef 75
data_behind _nc_retrace_bool 59
data_behind _nc_retrace_bool 101
data_ahead _nc_tracing 19
data_ahead wmove 139
data_ahead winch 196
data_ahead wmove 222
data_ahead wmove 317
data_ahead _tracef 353
data_ahead wmove 419
data_ahead winch 468
data_ahead wmove 494
data_ahead _nc_retrace_bool 289
Connect_Fields _nc_tracing 22
Connect_Fields malloc 159
Connect_Fields _nc_tracing 177
Connect_Fields __errno_location 507
Connect_Fields __errno_location 618
Connect_Fields _tracef 646
Connect_Fields __errno_location 656
Connect_Fields _tracef 687
Connect_Fields __errno_location 697
Connect_Fields _nc_retrace_int 537
Disconnect_Fields free 99
free_form _nc_tracing 2
free_form free 41
free_form free 49
free_form __errno_location 54
free_form __errno_location 81
free_form _tracef 123
free_form __errno_location 137
free_form _nc_retrace_int 68
free_form _nc_retrace_int 98
free_form _nc_retrace_int 154
new_form_sp _nc_tracing 2
new_form_sp malloc 59
new_form_sp _nc_tracing 77
new_form_sp _nc_Default_Form 91
new_form_sp __errno_location 302
new_form_sp _tracef 342
new_form_sp free_form 356
new_form_sp _tracef 379
new_form_sp form_driver 407
new_form_sp _nc_retrace_form 289
new_form_sp _nc_retrace_form 318
new_form SP 6
new_form new_form_sp 11
set_form_fields _nc_tracing 2
set_form_fields __errno_location 91
set_form_fields __errno_location 129
set_form_fields _tracef 174
set_form_fields form_driver 207
set_form_fields __errno_location 217
set_form_fields _nc_retrace_int 104
set_form_fields _nc_retrace_int 149
set_form_fields _nc_retrace_int 237
form_fields _nc_tracing 2
form_fields _nc_Default_Form 20
form_fields _tracef 51
form_fields _nc_retrace_field_ptr 30
field_count _nc_tracing 2
field_count _nc_Default_Form 20
field_count _tracef 51
field_count _nc_retrace_int 30
check_pos _nc_tracing 33
check_pos _tracef 71
check_pos _nc_tracing 88
HSC_Horizontal_Half_Line_Backward _nc_tracing 2
HSC_Horizontal_Half_Line_Backward _tracef 24
HSC_Horizontal_Half_Line_Backward _nc_retrace_int 62
HSC_Horizontal_Half_Line_Forward _nc_tracing 2
HSC_Horizontal_Half_Line_Forward _tracef 24
HSC_Horizontal_Half_Line_Forward _nc_retrace_int 60
HSC_Horizontal_Line_Backward _nc_tracing 2
HSC_Horizontal_Line_Backward _tracef 24
HSC_Horizontal_Line_Backward _nc_retrace_int 50
HSC_Horizontal_Line_Forward _nc_tracing 2
HSC_Horizontal_Line_Forward _tracef 24
HSC_Horizontal_Line_Forward _nc_retrace_int 48
HSC_Scroll_Char_Backward _nc_tracing 2
HSC_Scroll_Char_Backward _tracef 24
HSC_Scroll_Char_Backward _nc_retrace_int 45
HSC_Scroll_Char_Forward _nc_tracing 2
HSC_Scroll_Char_Forward _tracef 24
HSC_Scroll_Char_Forward _nc_retrace_int 45
VSC_Scroll_Half_Page_Backward _nc_tracing 2
VSC_Scroll_Half_Page_Backward _tracef 24
VSC_Scroll_Half_Page_Backward _nc_retrace_int 62
VSC_Scroll_Half_Page_Forward _nc_tracing 2
VSC_Scroll_Half_Page_Forward _tracef 24
VSC_Scroll_Half_Page_Forward _nc_retrace_int 60
VSC_Scroll_Page_Backward _nc_tracing 2
VSC_Scroll_Page_Backward _tracef 24
VSC_Scroll_Page_Backward _nc_retrace_int 50
VSC_Scroll_Page_Forward _nc_tracing 2
VSC_Scroll_Page_Forward _tracef 24
VSC_Scroll_Page_Forward _nc_retrace_int 48
VSC_Scroll_Line_Backward _nc_tracing 2
VSC_Scroll_Line_Backward _tracef 24
VSC_Scroll_Line_Backward _nc_retrace_int 45
VSC_Scroll_Line_Forward _nc_tracing 2
VSC_Scroll_Line_Forward _tracef 24
VSC_Scroll_Line_Forward _nc_retrace_int 45
EM_Insert_Mode _nc_tracing 2
EM_Insert_Mode _tracef 24
EM_Insert_Mode _nc_retrace_int 36
EM_Overlay_Mode _nc_tracing 2
EM_Overlay_Mode _tracef 24
EM_Overlay_Mode _nc_retrace_int 36
IFN_Up_Character _nc_tracing 2
IFN_Up_Character _tracef 51
IFN_Up_Character _nc_retrace_int 30
IFN_Up_Character _nc_retrace_int 78
IFN_Left_Character _nc_tracing 11
IFN_Left_Character _tracef 59
IFN_Left_Character _nc_retrace_int 42
IFN_Left_Character _nc_retrace_int 91
IFN_Previous_Line _nc_tracing 2
IFN_Previous_Line _tracef 59
IFN_Previous_Line _nc_retrace_int 37
IFN_Previous_Line _nc_retrace_int 86
IFN_Previous_Character _nc_tracing 11
IFN_Previous_Character _tracef 107
IFN_Previous_Character _nc_retrace_int 42
IFN_Previous_Character _nc_retrace_int 83
IFN_Previous_Character _nc_retrace_int 138
FE_Clear_Field _nc_tracing 2
FE_Clear_Field _tracef 24
FE_Clear_Field werase 47
FE_Clear_Field _nc_retrace_int 55
Undo_Justification wmove 97
Undo_Justification waddnstr 110
Undo_Justification wmove 132
Perform_Justification wmove 116
Perform_Justification waddnstr 133
Check_Char __ctype_b_loc 137
FE_Clear_To_End_Of_Field _nc_tracing 2
FE_Clear_To_End_Of_Field _tracef 24
FE_Clear_To_End_Of_Field wmove 39
FE_Clear_To_End_Of_Field wclrtobot 48
FE_Clear_To_End_Of_Field _nc_retrace_int 56
FE_Clear_To_End_Of_Line _nc_tracing 2
FE_Clear_To_End_Of_Line _tracef 24
FE_Clear_To_End_Of_Line wmove 39
FE_Clear_To_End_Of_Line wclrtoeol 48
FE_Clear_To_End_Of_Line _nc_retrace_int 56
FE_Delete_Line _nc_tracing 2
FE_Delete_Line _tracef 24
FE_Delete_Line winsdelln 45
FE_Delete_Line _nc_retrace_int 53
FE_Delete_Character _nc_tracing 2
FE_Delete_Character _tracef 24
FE_Delete_Character wmove 39
FE_Delete_Character wdelch 48
FE_Delete_Character _nc_retrace_int 56
Buffer_To_Window.isra.2 wmove 173
Buffer_To_Window.isra.2 waddnstr 191
Buffer_To_Window.isra.2 wmove 238
Display_Or_Erase_Field derwin 63
Display_Or_Erase_Field werase 97
Display_Or_Erase_Field wsyncup 152
Display_Or_Erase_Field delwin 160
Display_Or_Erase_Field wbkgdset 194
Display_Or_Erase_Field SP 224
_nc_get_fieldbuffer wmove 95
_nc_get_fieldbuffer winnstr 117
CR_Previous_Choice _nc_tracing 11
CR_Previous_Choice _nc_get_fieldbuffer 50
CR_Previous_Choice wmove 65
CR_Previous_Choice _tracef 123
CR_Previous_Choice _nc_retrace_int 102
CR_Next_Choice _nc_tracing 11
CR_Next_Choice _nc_get_fieldbuffer 50
CR_Next_Choice wmove 65
CR_Next_Choice _tracef 123
CR_Next_Choice _nc_retrace_int 102
IFN_End_Of_Line _nc_tracing 11
IFN_End_Of_Line _nc_get_fieldbuffer 53
IFN_End_Of_Line wmove 68
IFN_End_Of_Line _tracef 211
IFN_End_Of_Line _nc_retrace_int 185
IFN_End_Of_Field _nc_tracing 11
IFN_End_Of_Field _nc_get_fieldbuffer 53
IFN_End_Of_Field wmove 68
IFN_End_Of_Field _tracef 211
IFN_End_Of_Field _nc_retrace_int 179
IFN_Beginning_Of_Line _nc_tracing 11
IFN_Beginning_Of_Line _nc_get_fieldbuffer 53
IFN_Beginning_Of_Line wmove 68
IFN_Beginning_Of_Line _tracef 211
IFN_Beginning_Of_Line _nc_retrace_int 179
IFN_Beginning_Of_Field _nc_tracing 11
IFN_Beginning_Of_Field _nc_get_fieldbuffer 53
IFN_Beginning_Of_Field wmove 68
IFN_Beginning_Of_Field _tracef 203
IFN_Beginning_Of_Field _nc_retrace_int 173
IFN_Next_Word _nc_tracing 42
IFN_Next_Word _nc_get_fieldbuffer 75
IFN_Next_Word wmove 90
IFN_Next_Word _tracef 307
IFN_Next_Word _nc_retrace_int 257
IFN_Previous_Word _nc_tracing 42
IFN_Previous_Word _nc_get_fieldbuffer 73
IFN_Previous_Word wmove 88
IFN_Previous_Word _tracef 347
IFN_Previous_Word _nc_retrace_int 284
FE_Delete_Previous _nc_tracing 19
FE_Delete_Previous wmove 74
FE_Delete_Previous wdelch 84
FE_Delete_Previous wmove 282
FE_Delete_Previous winsdelln 297
FE_Delete_Previous wmove 399
FE_Delete_Previous wdelch 409
FE_Delete_Previous _tracef 451
FE_Delete_Previous _nc_get_fieldbuffer 493
FE_Delete_Previous wmove 513
FE_Delete_Previous wmove 542
FE_Delete_Previous waddnstr 557
FE_Delete_Previous _nc_retrace_int 105
FE_Delete_Word _nc_tracing 48
FE_Delete_Word _nc_get_fieldbuffer 89
FE_Delete_Word wmove 104
FE_Delete_Word wmove 211
FE_Delete_Word wclrtoeol 220
FE_Delete_Word waddnstr 354
FE_Delete_Word _tracef 475
FE_Delete_Word _nc_retrace_int 371
Field_Grown malloc 213
Field_Grown _nc_tracing 231
Field_Grown malloc 541
Field_Grown free 606
Field_Grown newpad 698
Field_Grown delwin 724
Field_Grown wbkgdset 742
Field_Grown werase 762
Field_Grown wtouchln 805
Field_Grown wmove 822
Field_Grown _tracef 842
Field_Grown _nc_get_fieldbuffer 899
Field_Grown wmove 916
Field_Grown free 987
FE_Insert_Line _nc_tracing 2
FE_Insert_Line winsdelln 240
FE_Insert_Line _tracef 267
FE_Insert_Line _nc_get_fieldbuffer 302
FE_Insert_Line wmove 317
FE_Insert_Line _nc_retrace_int 170
FE_Insert_Line _nc_retrace_int 251
Insert_String wmove 262
Insert_String wclrtoeol 272
Insert_String wmove 286
Insert_String winsnstr 302
Insert_String wmove 317
Insert_String winsnstr 337
Insert_String wmove 397
Insert_String winsnstr 413
Insert_String wmove 428
Insert_String winsnstr 448
IFN_Down_Character _nc_tracing 11
IFN_Down_Character _tracef 123
IFN_Down_Character _nc_retrace_int 45
IFN_Down_Character _nc_retrace_int 106
IFN_Right_Character _nc_tracing 11
IFN_Right_Character _tracef 115
IFN_Right_Character _nc_retrace_int 65
IFN_Right_Character _nc_retrace_int 95
IFN_Next_Line _nc_tracing 11
IFN_Next_Line _tracef 139
IFN_Next_Line _nc_retrace_int 52
IFN_Next_Line _nc_retrace_int 114
IFN_Next_Character _nc_tracing 11
IFN_Next_Character _tracef 107
IFN_Next_Character _nc_retrace_int 45
IFN_Next_Character _nc_retrace_int 86
IFN_Next_Character _nc_retrace_int 181
Wrapping_Not_Necessary_Or_Wrapping_Ok wmove 63
Wrapping_Not_Necessary_Or_Wrapping_Ok winch 72
Wrapping_Not_Necessary_Or_Wrapping_Ok wmove 91
Wrapping_Not_Necessary_Or_Wrapping_Ok _nc_get_fieldbuffer 159
Wrapping_Not_Necessary_Or_Wrapping_Ok wmove 243
Wrapping_Not_Necessary_Or_Wrapping_Ok wdelch 252
Wrapping_Not_Necessary_Or_Wrapping_Ok _nc_get_fieldbuffer 267
Wrapping_Not_Necessary_Or_Wrapping_Ok wmove 299
Wrapping_Not_Necessary_Or_Wrapping_Ok wclrtoeol 308
FE_Insert_Character _nc_tracing 2
FE_Insert_Character wmove 90
FE_Insert_Character winch 99
FE_Insert_Character wmove 118
FE_Insert_Character winsch 188
FE_Insert_Character _tracef 227
FE_Insert_Character _nc_retrace_int 62
FE_Insert_Character _nc_retrace_int 207
_nc_Position_Form_Cursor wmove 58
_nc_Position_Form_Cursor wmove 110
_nc_Position_Form_Cursor wcursyncup 118
_nc_Position_Form_Cursor wcursyncup 141
_nc_Position_Form_Cursor SP 172
_nc_Refresh_Current_Field _nc_tracing 19
_nc_Refresh_Current_Field copywin 259
_nc_Refresh_Current_Field wsyncup 273
_nc_Refresh_Current_Field wtouchln 373
_nc_Refresh_Current_Field _nc_Position_Form_Cursor 381
_nc_Refresh_Current_Field _tracef 427
_nc_Refresh_Current_Field wsyncup 446
_nc_Refresh_Current_Field is_linetouched 560
_nc_Refresh_Current_Field is_linetouched 635
_nc_Refresh_Current_Field copywin 761
_nc_Refresh_Current_Field __errno_location 785
_nc_Refresh_Current_Field SP 829
_nc_Refresh_Current_Field __errno_location 881
_nc_Refresh_Current_Field _nc_retrace_int 402
Synchronize_Field werase 114
Synchronize_Field _nc_Refresh_Current_Field 176
_nc_Synchronize_Attributes _nc_tracing 2
_nc_Synchronize_Attributes _tracef 123
_nc_Synchronize_Attributes _nc_get_fieldbuffer 209
_nc_Synchronize_Attributes wmove 224
_nc_Synchronize_Attributes wbkgdset 243
_nc_Synchronize_Attributes werase 265
_nc_Synchronize_Attributes wmove 280
_nc_Synchronize_Attributes copywin 411
_nc_Synchronize_Attributes wsyncup 423
_nc_Synchronize_Attributes _nc_Refresh_Current_Field 454
_nc_Synchronize_Attributes SP 526
_nc_Synchronize_Attributes _nc_retrace_int 101
_nc_Synchronize_Attributes _nc_retrace_int 142
_nc_Synchronize_Options _nc_tracing 17
_nc_Synchronize_Options _tracef 173
_nc_Synchronize_Options _nc_retrace_int 150
_nc_Unset_Current_Field _nc_Refresh_Current_Field 14
_nc_Unset_Current_Field delwin 61
_nc_Unset_Current_Field _nc_get_fieldbuffer 141
_nc_Unset_Current_Field werase 150
_nc_Unset_Current_Field wsyncup 184
_nc_Unset_Current_Field copywin 252
_nc_Unset_Current_Field SP 281
_nc_Unset_Current_Field SP 306
_nc_Set_Current_Field _nc_tracing 2
_nc_Set_Current_Field _tracef 70
_nc_Set_Current_Field _nc_Unset_Current_Field 154
_nc_Set_Current_Field newpad 189
_nc_Set_Current_Field delwin 221
_nc_Set_Current_Field wbkgdset 246
_nc_Set_Current_Field werase 323
_nc_Set_Current_Field wsyncup 346
_nc_Set_Current_Field werase 361
_nc_Set_Current_Field wtouchln 406
_nc_Set_Current_Field derwin 498
_nc_Set_Current_Field SP 599
_nc_Set_Current_Field _nc_retrace_int 48
_nc_Set_Current_Field _nc_retrace_int 453
_nc_Set_Current_Field _nc_retrace_int 522
_nc_Set_Current_Field _nc_retrace_int 568
_nc_Set_Current_Field _nc_retrace_int 582
FN_First_Field _nc_tracing 2
FN_First_Field _tracef 24
FN_First_Field _nc_Set_Current_Field 141
FN_First_Field _nc_retrace_int 149
FN_Down_Field _nc_tracing 2
FN_Down_Field _tracef 24
FN_Down_Field _nc_Set_Current_Field 101
FN_Down_Field _nc_Set_Current_Field 180
FN_Down_Field _nc_Set_Current_Field 216
FN_Down_Field _nc_retrace_int 109
FN_Down_Field _nc_retrace_int 188
FN_Down_Field _nc_retrace_int 224
FN_Up_Field _nc_tracing 2
FN_Up_Field _tracef 24
FN_Up_Field _nc_Set_Current_Field 101
FN_Up_Field _nc_Set_Current_Field 180
FN_Up_Field _nc_Set_Current_Field 216
FN_Up_Field _nc_retrace_int 109
FN_Up_Field _nc_retrace_int 188
FN_Up_Field _nc_retrace_int 224
FN_Right_Field _nc_tracing 2
FN_Right_Field _nc_Set_Current_Field 65
FN_Right_Field _tracef 88
FN_Right_Field _nc_retrace_int 73
FN_Left_Field _nc_tracing 2
FN_Left_Field _nc_Set_Current_Field 65
FN_Left_Field _tracef 88
FN_Left_Field _nc_retrace_int 73
FN_Sorted_Last_Field _nc_tracing 2
FN_Sorted_Last_Field _nc_Set_Current_Field 72
FN_Sorted_Last_Field _tracef 99
FN_Sorted_Last_Field _nc_retrace_int 80
FN_Sorted_First_Field _nc_tracing 2
FN_Sorted_First_Field _nc_Set_Current_Field 72
FN_Sorted_First_Field _tracef 99
FN_Sorted_First_Field _nc_retrace_int 80
FN_Sorted_Previous_Field _nc_tracing 2
FN_Sorted_Previous_Field _nc_Set_Current_Field 56
FN_Sorted_Previous_Field _tracef 83
FN_Sorted_Previous_Field _nc_retrace_int 64
FN_Sorted_Next_Field _nc_tracing 2
FN_Sorted_Next_Field _nc_Set_Current_Field 56
FN_Sorted_Next_Field _tracef 83
FN_Sorted_Next_Field _nc_retrace_int 64
FN_Last_Field _nc_tracing 2
FN_Last_Field _tracef 24
FN_Last_Field _nc_Set_Current_Field 141
FN_Last_Field _nc_retrace_int 149
FN_Previous_Field _nc_tracing 2
FN_Previous_Field _tracef 24
FN_Previous_Field _nc_Set_Current_Field 125
FN_Previous_Field _nc_retrace_int 133
FN_Next_Field _nc_tracing 2
FN_Next_Field _tracef 24
FN_Next_Field _nc_Set_Current_Field 125
FN_Next_Field _nc_retrace_int 133
_nc_Internal_Validation _nc_get_fieldbuffer 35
_nc_Internal_Validation wmove 50
FV_Validation _nc_tracing 2
FV_Validation _nc_Internal_Validation 17
FV_Validation _tracef 59
FV_Validation _nc_retrace_int 32
FV_Validation _nc_retrace_int 44
Inter_Field_Navigation _nc_Internal_Validation 16
FE_New_Line _nc_tracing 26
FE_New_Line wmove 65
FE_New_Line wclrtoeol 74
FE_New_Line _nc_get_fieldbuffer 151
FE_New_Line wmove 166
FE_New_Line wmove 428
FE_New_Line wclrtoeol 437
FE_New_Line wmove 464
FE_New_Line winsdelln 478
FE_New_Line waddnstr 496
FE_New_Line _tracef 531
FE_New_Line wmove 593
FE_New_Line wclrtoeol 602
FE_New_Line _nc_retrace_int 101
FE_New_Line _nc_retrace_int 304
FE_New_Line _nc_retrace_int 512
FE_New_Line _nc_retrace_int 570
FE_New_Line _nc_retrace_int 650
Page_Navigation _nc_Internal_Validation 16
_nc_Set_Form_Page werase 45
_nc_Set_Form_Page SP 208
_nc_Set_Form_Page _nc_Set_Current_Field 150
PN_Last_Page _nc_tracing 2
PN_Last_Page _tracef 24
PN_Last_Page _nc_Set_Form_Page 41
PN_Last_Page _nc_retrace_int 49
PN_First_Page _nc_tracing 2
PN_First_Page _tracef 24
PN_First_Page _nc_Set_Form_Page 36
PN_First_Page _nc_retrace_int 44
PN_Previous_Page _nc_tracing 2
PN_Previous_Page _nc_Set_Form_Page 35
PN_Previous_Page _tracef 67
PN_Previous_Page _nc_retrace_int 43
PN_Next_Page _nc_tracing 2
PN_Next_Page _tracef 24
PN_Next_Page _nc_Set_Form_Page 50
PN_Next_Page _nc_retrace_int 58
form_driver _nc_tracing 21
form_driver __ctype_b_loc 164
form_driver _nc_tracing 216
form_driver waddch 297
form_driver __errno_location 401
form_driver _nc_retrace_int 415
form_driver _tracef 445
form_driver getmouse 506
form_driver __errno_location 527
form_driver __errno_location 545
form_driver _nc_retrace_int 561
form_driver _nc_tracing 586
form_driver __errno_location 657
form_driver _nc_Refresh_Current_Field 668
form_driver _nc_retrace_int 679
form_driver __errno_location 705
form_driver __errno_location 721
form_driver _nc_retrace_int 737
form_driver __errno_location 761
form_driver _nc_retrace_int 777
form_driver _nc_First_Active_Field 804
form_driver __errno_location 813
form_driver _nc_retrace_int 826
form_driver __errno_location 841
form_driver form_request_name 867
form_driver _tracef 882
form_driver __errno_location 897
form_driver _nc_retrace_int 913
form_driver __errno_location 936
form_driver wenclose 960
form_driver stdscr 979
form_driver wmouse_trafo 1008
form_driver SP 1087
form_driver _tracechtype 1106
form_driver _tracef 1124
form_driver werase 1138
form_driver wmove 1168
form_driver winch 1177
form_driver wmove 1196
form_driver winsch 1265
form_driver __errno_location 1337
form_driver _nc_retrace_int 1356
form_driver wenclose 1511
form_driver wmouse_trafo 1555
form_driver _nc_tracing 1644
form_driver _tracef 1672
form_driver __errno_location 1729
form_driver _nc_retrace_int 1745
form_driver _nc_Set_Current_Field 1768
form_driver _nc_Position_Form_Cursor 1786
form_driver __errno_location 1841
form_driver _nc_retrace_int 1858
form_driver __errno_location 1870
form_driver _nc_retrace_int 1883
set_field_buffer _nc_tracing 2
set_field_buffer __errno_location 184
set_field_buffer __errno_location 209
set_field_buffer _nc_visbuf 244
set_field_buffer _tracef 265
set_field_buffer strlen 284
set_field_buffer __errno_location 464
set_field_buffer _nc_retrace_int 201
set_field_buffer _nc_retrace_int 233
field_buffer _nc_tracing 13
field_buffer _tracef 109
field_buffer _nc_retrace_ptr 69
field_buffer _nc_retrace_ptr 89
set_field_init _nc_tracing 10
set_field_init _nc_Default_Form 29
set_field_init __errno_location 43
set_field_init _nc_retrace_int 56
set_field_init _nc_fmt_funcptr 88
set_field_init _tracef 106
field_init _nc_tracing 2
field_init _nc_Default_Form 20
field_init _tracef 51
field_init _nc_retrace_form_hook 30
set_field_term _nc_tracing 10
set_field_term _nc_Default_Form 29
set_field_term __errno_location 43
set_field_term _nc_retrace_int 56
set_field_term _nc_fmt_funcptr 88
set_field_term _tracef 106
field_term _nc_tracing 2
field_term _nc_Default_Form 20
field_term _tracef 51
field_term _nc_retrace_form_hook 30
set_form_init _nc_tracing 10
set_form_init _nc_Default_Form 29
set_form_init __errno_location 43
set_form_init _nc_retrace_int 56
set_form_init _nc_fmt_funcptr 88
set_form_init _tracef 106
form_init _nc_tracing 2
form_init _nc_Default_Form 20
form_init _tracef 51
form_init _nc_retrace_form_hook 30
set_form_term _nc_tracing 10
set_form_term _nc_Default_Form 29
set_form_term __errno_location 43
set_form_term _nc_retrace_int 56
set_form_term _nc_fmt_funcptr 88
set_form_term _tracef 106
form_term _nc_tracing 2
form_term _nc_Default_Form 20
form_term _tracef 51
form_term _nc_retrace_form_hook 30
set_form_opts _nc_tracing 13
set_form_opts _nc_Default_Form 30
set_form_opts __errno_location 38
set_form_opts _tracef 77
set_form_opts _nc_retrace_int 57
form_opts _nc_tracing 2
form_opts _nc_Default_Form 20
form_opts _tracef 51
form_opts _nc_retrace_int 32
form_opts_on _nc_tracing 13
form_opts_on _nc_Default_Form 30
form_opts_on __errno_location 38
form_opts_on _tracef 77
form_opts_on _nc_retrace_int 57
form_opts_off _nc_tracing 13
form_opts_off _nc_Default_Form 30
form_opts_off __errno_location 40
form_opts_off _tracef 77
form_opts_off _nc_retrace_int 59
set_form_page _nc_tracing 2
set_form_page _nc_Internal_Validation 106
set_form_page _nc_Set_Form_Page 166
set_form_page _nc_Refresh_Current_Field 221
set_form_page __errno_location 233
set_form_page __errno_location 257
set_form_page _tracef 301
set_form_page _nc_First_Active_Field 331
set_form_page _nc_retrace_int 248
set_form_page _nc_retrace_int 277
form_page _nc_tracing 2
form_page _nc_Default_Form 20
form_page _tracef 51
form_page _nc_retrace_int 30
post_form _nc_tracing 11
post_form __errno_location 95
post_form _nc_Set_Form_Page 149
post_form _nc_Refresh_Current_Field 224
post_form __errno_location 229
post_form _tracef 267
post_form __errno_location 281
post_form SP 328
post_form __errno_location 369
post_form __errno_location 393
post_form __errno_location 425
post_form _nc_retrace_int 117
post_form _nc_retrace_int 248
post_form _nc_retrace_int 303
post_form _nc_retrace_int 384
post_form _nc_retrace_int 415
post_form _nc_retrace_int 447
unpost_form _nc_tracing 2
unpost_form werase 105
unpost_form delwin 114
unpost_form __errno_location 131
unpost_form _tracef 163
unpost_form __errno_location 177
unpost_form __errno_location 209
unpost_form SP 256
unpost_form __errno_location 273
unpost_form _nc_retrace_int 145
unpost_form _nc_retrace_int 194
unpost_form _nc_retrace_int 226
unpost_form _nc_retrace_int 290
form_request_name _nc_tracing 2
form_request_name __errno_location 49
form_request_name _tracef 82
form_request_name _nc_retrace_cptr 40
form_request_name _nc_retrace_cptr 63
form_request_by_name _nc_tracing 11
form_request_by_name strlen 35
form_request_by_name __ctype_toupper_loc 115
form_request_by_name strcmp 181
form_request_by_name __errno_location 209
form_request_by_name _nc_visbuf 241
form_request_by_name _tracef 256
form_request_by_name _nc_retrace_int 202
form_request_by_name _nc_retrace_int 231
scale_form _nc_tracing 2
scale_form __errno_location 60
scale_form _tracef 105
scale_form __errno_location 113
scale_form __errno_location 145
scale_form _nc_retrace_int 77
scale_form _nc_retrace_int 133
scale_form _nc_retrace_int 165
set_form_sub _nc_tracing 14
set_form_sub __errno_location 45
set_form_sub _tracef 86
set_form_sub _nc_Default_Form 101
set_form_sub SP 119
set_form_sub _nc_screen_of 129
set_form_sub __errno_location 145
set_form_sub _nc_retrace_int 64
set_form_sub _nc_retrace_int 167
form_sub _nc_tracing 2
form_sub _nc_Default_Form 20
form_sub _tracef 59
form_sub SP 84
form_sub _nc_retrace_win 35
set_form_userptr _nc_tracing 14
set_form_userptr _nc_Default_Form 28
set_form_userptr __errno_location 37
set_form_userptr _tracef 78
set_form_userptr _nc_retrace_int 56
form_userptr _nc_tracing 2
form_userptr _nc_Default_Form 20
form_userptr _tracef 51
form_userptr _nc_retrace_void_ptr 30
set_form_win _nc_tracing 14
set_form_win __errno_location 45
set_form_win _tracef 86
set_form_win _nc_Default_Form 101
set_form_win SP 119
set_form_win _nc_screen_of 129
set_form_win __errno_location 145
set_form_win _nc_retrace_int 64
set_form_win _nc_retrace_int 167
form_win _nc_tracing 2
form_win _nc_Default_Form 20
form_win _tracef 59
form_win SP 75
form_win _nc_retrace_win 35
Generic_This_Type malloc 20
Generic_This_Type _nc_tracing 34
Generic_This_Type localeconv 67
Generic_This_Type _tracef 99
Copy_This_Type malloc 20
Copy_This_Type _nc_tracing 34
Copy_This_Type _tracef 99
Check_This_Character __ctype_b_loc 13
Check_This_Field field_buffer 47
Check_This_Field __ctype_b_loc 115
Check_This_Field __ctype_b_loc 247
Check_This_Field strtod 291
Check_This_Field sprintf 353
Check_This_Field set_field_buffer 368
Free_This_Type free 6
_nc_TYPE_ALNUM TYPE_ALNUM 3
_nc_TYPE_ALPHA TYPE_ALPHA 3
Generic_Enum_Type malloc 28
Generic_Enum_Type _nc_tracing 46
Generic_Enum_Type malloc 153
Generic_Enum_Type __strdup 226
Generic_Enum_Type _tracef 267
Copy_Enum_Type malloc 22
Copy_Enum_Type _nc_tracing 40
Copy_Enum_Type malloc 84
Copy_Enum_Type __strdup 121
Copy_Enum_Type _tracef 171
Compare __ctype_toupper_loc 86
Previous_Enum field_buffer 50
Previous_Enum set_field_buffer 219
Next_Enum field_buffer 35
Next_Enum set_field_buffer 171
Check_Enum_Field field_buffer 33
Check_Enum_Field set_field_buffer 225
Free_Enum_Type free 45
Free_Enum_Type free 59
Free_Enum_Type free 73
_nc_TYPE_ENUM TYPE_ENUM 3
GenericArgument malloc 158
_nc_generic_fieldtype _nc_tracing 15
_nc_generic_fieldtype malloc 71
_nc_generic_fieldtype _nc_Default_FieldType 90
_nc_generic_fieldtype _nc_retrace_field_type 225
_nc_generic_fieldtype _nc_fmt_funcptr 291
_nc_generic_fieldtype _nc_fmt_funcptr 317
_nc_generic_fieldtype _nc_fmt_funcptr 340
_nc_generic_fieldtype _nc_fmt_funcptr 363
_nc_generic_fieldtype _nc_fmt_funcptr 386
_nc_generic_fieldtype _tracef 413
_nc_generic_fieldtype __errno_location 438
_nc_set_generic_fieldtype _nc_Free_Type 42
_nc_set_generic_fieldtype _nc_Free_Argument 168
_nc_form_cursor __errno_location 49
_nc_TYPE_INTEGER TYPE_INTEGER 3
Check_IPV4_Character __ctype_b_loc 4
Check_IPV4_Field field_buffer 9
Check_IPV4_Field __ctype_b_loc 17
Check_IPV4_Field __isoc99_sscanf 89
_nc_TYPE_IPV4 TYPE_IPV4 3
_nc_TYPE_NUMERIC TYPE_NUMERIC 3
Generic_RegularExpression_Type calloc 29
Generic_RegularExpression_Type _nc_tracing 43
Generic_RegularExpression_Type malloc 56
Generic_RegularExpression_Type regcomp 80
Generic_RegularExpression_Type _nc_tracing 90
Generic_RegularExpression_Type malloc 103
Generic_RegularExpression_Type free 145
Generic_RegularExpression_Type free 153
Generic_RegularExpression_Type _tracef 187
Generic_RegularExpression_Type _tracef 209
Check_RegularExpression_Field field_buffer 20
Check_RegularExpression_Field regexec 38
Free_RegularExpression_Type free 29
Free_RegularExpression_Type regfree 37
Free_RegularExpression_Type free 45
Free_RegularExpression_Type free 54
_nc_TYPE_REGEXP TYPE_REGEXP 3
set_menu_fore _nc_tracing 13
set_menu_fore __errno_location 62
set_menu_fore __errno_location 89
set_menu_fore _traceattr 123
set_menu_fore _tracef 141
set_menu_fore _nc_Draw_Menu 156
set_menu_fore _nc_Show_Menu 164
set_menu_fore _nc_Default_Menu 177
set_menu_fore _nc_retrace_int 81
set_menu_fore _nc_retrace_int 111
menu_fore _nc_tracing 2
menu_fore _nc_Default_Menu 17
menu_fore _tracef 51
menu_fore _nc_retrace_attr_t 30
set_menu_back _nc_tracing 13
set_menu_back __errno_location 62
set_menu_back __errno_location 89
set_menu_back _traceattr 123
set_menu_back _tracef 141
set_menu_back _nc_Draw_Menu 156
set_menu_back _nc_Show_Menu 164
set_menu_back _nc_Default_Menu 177
set_menu_back _nc_retrace_int 81
set_menu_back _nc_retrace_int 111
menu_back _nc_tracing 2
menu_back _nc_Default_Menu 17
menu_back _tracef 51
menu_back _nc_retrace_attr_t 30
set_menu_grey _nc_tracing 13
set_menu_grey __errno_location 62
set_menu_grey __errno_location 89
set_menu_grey _traceattr 123
set_menu_grey _tracef 141
set_menu_grey _nc_Draw_Menu 156
set_menu_grey _nc_Show_Menu 164
set_menu_grey _nc_Default_Menu 177
set_menu_grey _nc_retrace_int 81
set_menu_grey _nc_retrace_int 111
menu_grey _nc_tracing 2
menu_grey _nc_Default_Menu 17
menu_grey _tracef 51
menu_grey _nc_retrace_attr_t 30
pos_menu_cursor _nc_menu_cursor_pos 42
pos_menu_cursor _nc_tracing 48
pos_menu_cursor wmove 143
pos_menu_cursor wcursyncup 156
pos_menu_cursor wsyncup 164
pos_menu_cursor wmove 196
pos_menu_cursor wcursyncup 209
pos_menu_cursor wsyncup 217
pos_menu_cursor wtouchln 239
pos_menu_cursor __errno_location 244
pos_menu_cursor _nc_retrace_int 255
pos_menu_cursor _tracef 283
pos_menu_cursor SP 323
pos_menu_cursor wmove 351
_nc_Match_Next_Character_In_Item_Name _nc_tracing 22
_nc_Match_Next_Character_In_Item_Name __ctype_toupper_loc 265
_nc_Match_Next_Character_In_Item_Name __errno_location 379
_nc_Match_Next_Character_In_Item_Name __errno_location 565
_nc_Match_Next_Character_In_Item_Name _tracef 598
_nc_Match_Next_Character_In_Item_Name _nc_retrace_int 409
menu_driver _nc_tracing 19
menu_driver __ctype_b_loc 137
menu_driver __errno_location 177
menu_driver _nc_retrace_int 188
menu_driver _tracef 221
menu_driver getmouse 277
menu_driver _nc_New_TopRow_and_CurrentItem 371
menu_driver __errno_location 409
menu_driver _nc_retrace_int 425
menu_driver __errno_location 449
menu_driver _nc_retrace_int 465
menu_driver ungetmouse 646
menu_driver pos_menu_cursor 819
menu_driver _nc_Match_Next_Character_In_Item_Name 968
menu_driver __errno_location 1321
menu_driver _nc_retrace_int 1337
menu_driver _nc_Match_Next_Character_In_Item_Name 1363
menu_driver wenclose 1420
menu_driver stdscr 1452
menu_driver wmouse_trafo 1481
menu_driver __errno_location 1539
menu_driver _nc_retrace_int 1548
menu_driver SP 1595
menu_driver _nc_Match_Next_Character_In_Item_Name 1636
menu_driver wmove 1757
menu_driver _nc_Post_Item 1769
menu_driver _nc_Show_Menu 1777
menu_driver SP 1807
menu_driver wenclose 1855
menu_driver wmouse_trafo 1905
menu_driver _nc_menu_cursor_pos 1979
menu_driver _nc_New_TopRow_and_CurrentItem 2148
set_menu_format _nc_tracing 2
set_menu_format _nc_Calculate_Item_Length_and_Width 230
set_menu_format __errno_location 235
set_menu_format _tracef 287
set_menu_format __errno_location 313
set_menu_format __errno_location 345
set_menu_format _nc_Default_Menu 385
set_menu_format _nc_Default_Menu 400
set_menu_format __errno_location 417
set_menu_format _nc_retrace_int 252
set_menu_format _nc_retrace_int 333
set_menu_format _nc_retrace_int 365
set_menu_format _nc_retrace_int 437
menu_format _nc_Default_Menu 9
menu_format _nc_Default_Menu 49
_nc_Show_Menu.part.0 mvderwin 22
_nc_Show_Menu.part.0 copywin 98
_nc_Show_Menu.part.0 SP 132
_nc_Show_Menu.part.0 pos_menu_cursor 111
_nc_Connect_Items _nc_tracing 205
_nc_Connect_Items malloc 228
_nc_Connect_Items set_menu_format 262
_nc_Connect_Items free 340
_nc_Connect_Items _tracef 395
_nc_Disconnect_Items free 63
_nc_Calculate_Item_Length_and_Width _nc_tracing 83
_nc_Calculate_Item_Length_and_Width _tracef 110
_nc_New_TopRow_and_CurrentItem wmove 331
_nc_New_TopRow_and_CurrentItem _nc_Post_Item 342
_nc_New_TopRow_and_CurrentItem wmove 383
_nc_New_TopRow_and_CurrentItem _nc_Post_Item 395
_nc_New_TopRow_and_CurrentItem pos_menu_cursor 186
set_menu_init _nc_tracing 10
set_menu_init _nc_Default_Menu 26
set_menu_init __errno_location 47
set_menu_init _nc_retrace_int 60
set_menu_init _nc_fmt_funcptr 96
set_menu_init _tracef 114
menu_init _nc_tracing 2
menu_init _nc_Default_Menu 17
menu_init _tracef 59
menu_init _nc_retrace_menu_hook 34
set_menu_term _nc_tracing 10
set_menu_term _nc_Default_Menu 26
set_menu_term __errno_location 47
set_menu_term _nc_retrace_int 60
set_menu_term _nc_fmt_funcptr 96
set_menu_term _tracef 114
menu_term _nc_tracing 2
menu_term _nc_Default_Menu 17
menu_term _tracef 59
menu_term _nc_retrace_menu_hook 34
set_item_init _nc_tracing 10
set_item_init _nc_Default_Menu 26
set_item_init __errno_location 47
set_item_init _nc_retrace_int 60
set_item_init _nc_fmt_funcptr 96
set_item_init _tracef 114
item_init _nc_tracing 2
item_init _nc_Default_Menu 17
item_init _tracef 59
item_init _nc_retrace_menu_hook 34
set_item_term _nc_tracing 10
set_item_term _nc_Default_Menu 26
set_item_term __errno_location 47
set_item_term _nc_retrace_int 60
set_item_term _nc_fmt_funcptr 96
set_item_term _tracef 114
item_term _nc_tracing 2
item_term _nc_Default_Menu 17
item_term _tracef 59
item_term _nc_retrace_menu_hook 34
set_current_item _nc_tracing 2
set_current_item __errno_location 39
set_current_item _tracef 78
set_current_item _nc_New_TopRow_and_CurrentItem 204
set_current_item __errno_location 209
set_current_item __errno_location 257
set_current_item _nc_Link_Items 292
set_current_item _nc_retrace_int 59
set_current_item _nc_retrace_int 226
set_current_item _nc_retrace_int 277
current_item _nc_tracing 2
current_item _tracef 51
current_item _nc_retrace_item 31
current_item _nc_retrace_item 68
item_index _nc_tracing 2
item_index _tracef 59
item_index _nc_retrace_int 36
item_name _nc_tracing 2
item_name _tracef 43
item_name _nc_retrace_cptr 23
item_name _nc_retrace_cptr 56
item_description _nc_tracing 2
item_description _tracef 43
item_description _nc_retrace_cptr 24
item_description _nc_retrace_cptr 56
Is_Printable_String __ctype_b_loc 17
new_item _nc_tracing 2
new_item _tracef 52
new_item __errno_location 67
new_item calloc 119
new_item _nc_Default_Item 138
new_item _nc_Default_Item 152
new_item _nc_Default_Item 163
new_item _nc_Default_Item 174
new_item _nc_Default_Item 185
new_item _nc_Default_Item 196
new_item _nc_Default_Item 207
new_item _nc_Default_Item 218
new_item _nc_Default_Item 229
new_item _nc_Default_Item 240
new_item _nc_Default_Item 251
new_item _nc_Default_Item 262
new_item strlen 271
new_item strlen 336
new_item __errno_location 361
new_item _nc_retrace_item 87
free_item _nc_tracing 2
free_item __errno_location 26
free_item _tracef 59
free_item free 76
free_item __errno_location 81
free_item __errno_location 105
free_item _nc_retrace_int 43
free_item _nc_retrace_int 95
free_item _nc_retrace_int 122
set_menu_mark _nc_tracing 2
set_menu_mark free 116
set_menu_mark _nc_Calculate_Item_Length_and_Width 133
set_menu_mark __errno_location 138
set_menu_mark __errno_location 176
set_menu_mark _nc_Draw_Menu 209
set_menu_mark _nc_Show_Menu 217
set_menu_mark _nc_visbuf 228
set_menu_mark _tracef 246
set_menu_mark strlen 276
set_menu_mark __strdup 292
set_menu_mark _nc_Default_Menu 311
set_menu_mark strlen 352
set_menu_mark __errno_location 361
set_menu_mark _nc_Default_Menu 385
set_menu_mark _nc_retrace_int 159
set_menu_mark _nc_retrace_int 200
menu_mark _nc_tracing 2
menu_mark _nc_Default_Menu 17
menu_mark _tracef 59
menu_mark _nc_retrace_ptr 34
set_item_opts _nc_tracing 13
set_item_opts __errno_location 61
set_item_opts _tracef 117
set_item_opts _nc_Default_Item 133
set_item_opts wmove 177
set_item_opts _nc_Post_Item 188
set_item_opts _nc_Show_Menu 196
set_item_opts _nc_retrace_int 80
item_opts_off _nc_tracing 13
item_opts_off _nc_Default_Item 32
item_opts_off set_item_opts 51
item_opts_off _tracef 85
item_opts_off __errno_location 98
item_opts_off _nc_retrace_int 64
item_opts_off _nc_retrace_int 120
item_opts_on _nc_tracing 13
item_opts_on _nc_Default_Item 24
item_opts_on set_item_opts 44
item_opts_on _tracef 77
item_opts_on _nc_retrace_int 57
item_opts _nc_tracing 2
item_opts _nc_Default_Item 17
item_opts _tracef 51
item_opts _nc_retrace_item_opts 33
set_top_row _nc_tracing 13
set_top_row _nc_New_TopRow_and_CurrentItem 136
set_top_row __errno_location 141
set_top_row __errno_location 169
set_top_row _tracef 213
set_top_row __errno_location 249
set_top_row _nc_Link_Items 284
set_top_row __errno_location 305
set_top_row _nc_retrace_int 160
set_top_row _nc_retrace_int 191
set_top_row _nc_retrace_int 271
set_top_row _nc_retrace_int 327
top_row _nc_tracing 2
top_row _tracef 75
top_row _nc_retrace_int 39
top_row _nc_retrace_int 55
set_item_userptr _nc_tracing 14
set_item_userptr _nc_Default_Item 25
set_item_userptr __errno_location 38
set_item_userptr _tracef 78
set_item_userptr _nc_retrace_int 57
item_userptr _nc_tracing 2
item_userptr _nc_Default_Item 17
item_userptr _tracef 51
item_userptr _nc_retrace_void_ptr 31
set_item_value _nc_tracing 2
set_item_value __errno_location 81
set_item_value __errno_location 113
set_item_value _tracef 175
set_item_value _nc_Default_Item 191
set_item_value wmove 230
set_item_value _nc_Post_Item 241
set_item_value _nc_Show_Menu 249
set_item_value _nc_retrace_int 98
set_item_value _nc_retrace_int 133
item_value _nc_tracing 2
item_value _nc_Default_Item 17
item_value _tracef 51
item_value _nc_retrace_bool 31
item_visible _nc_tracing 2
item_visible _tracef 91
item_visible _nc_retrace_bool 68
item_visible _nc_retrace_bool 111
set_menu_items _nc_tracing 14
set_menu_items _nc_Disconnect_Items 70
set_menu_items _nc_Connect_Items 86
set_menu_items __errno_location 99
set_menu_items _tracef 142
set_menu_items __errno_location 153
set_menu_items __errno_location 185
set_menu_items __errno_location 217
set_menu_items _nc_retrace_int 118
set_menu_items _nc_retrace_int 175
set_menu_items _nc_retrace_int 207
set_menu_items _nc_retrace_int 239
menu_items _nc_tracing 2
menu_items _tracef 43
menu_items _nc_retrace_item_ptr 24
menu_items _nc_retrace_item_ptr 56
item_count _nc_tracing 2
item_count _tracef 51
item_count _nc_retrace_int 29
new_menu_sp calloc 21
new_menu_sp _nc_tracing 27
new_menu_sp _nc_Default_Menu 43
new_menu_sp _nc_Connect_Items 118
new_menu_sp _tracef 158
new_menu_sp free 185
new_menu_sp __errno_location 190
new_menu_sp _nc_retrace_menu 134
new_menu_sp _nc_retrace_menu 206
new_menu SP 6
new_menu new_menu_sp 11
free_menu _nc_tracing 2
free_menu _nc_Disconnect_Items 44
free_menu free 72
free_menu free 80
free_menu __errno_location 85
free_menu _tracef 123
free_menu __errno_location 137
free_menu __errno_location 161
free_menu _nc_retrace_int 99
free_menu _nc_retrace_int 154
free_menu _nc_retrace_int 178
set_menu_opts _nc_tracing 2
set_menu_opts set_menu_format 103
set_menu_opts __errno_location 166
set_menu_opts _tracef 208
set_menu_opts _nc_Default_Menu 228
set_menu_opts _nc_Calculate_Item_Length_and_Width 244
set_menu_opts __errno_location 257
set_menu_opts _nc_retrace_int 183
set_menu_opts _nc_retrace_int 277
menu_opts_off _nc_tracing 13
menu_opts_off _nc_Default_Menu 24
menu_opts_off set_menu_opts 49
menu_opts_off _tracef 85
menu_opts_off _nc_retrace_int 62
menu_opts_on _nc_tracing 13
menu_opts_on _nc_Default_Menu 24
menu_opts_on set_menu_opts 47
menu_opts_on _tracef 77
menu_opts_on _nc_retrace_int 60
menu_opts _nc_tracing 2
menu_opts _nc_Default_Menu 17
menu_opts _tracef 59
menu_opts _nc_retrace_menu_opts 36
set_menu_pad _nc_tracing 13
set_menu_pad __ctype_b_loc 21
set_menu_pad __errno_location 58
set_menu_pad _tracef 101
set_menu_pad __errno_location 113
set_menu_pad _nc_Draw_Menu 148
set_menu_pad _nc_Show_Menu 156
set_menu_pad _nc_Default_Menu 171
set_menu_pad _nc_retrace_int 77
set_menu_pad _nc_retrace_int 135
menu_pad _nc_tracing 2
menu_pad _nc_Default_Menu 17
menu_pad _tracef 51
menu_pad _nc_retrace_int 31
menu_pattern _nc_tracing 2
menu_pattern _tracef 59
menu_pattern _nc_retrace_ptr 36
menu_pattern _nc_retrace_ptr 72
set_menu_pattern _nc_tracing 20
set_menu_pattern __ctype_b_loc 132
set_menu_pattern _nc_Match_Next_Character_In_Item_Name 156
set_menu_pattern pos_menu_cursor 212
set_menu_pattern __errno_location 217
set_menu_pattern _nc_retrace_int 233
set_menu_pattern _nc_visbuf 260
set_menu_pattern _tracef 278
set_menu_pattern __errno_location 297
set_menu_pattern _nc_retrace_int 313
set_menu_pattern pos_menu_cursor 340
set_menu_pattern __errno_location 345
set_menu_pattern _nc_retrace_int 358
set_menu_pattern __errno_location 385
set_menu_pattern _nc_retrace_int 401
set_menu_pattern _nc_New_TopRow_and_CurrentItem 474
set_menu_pattern __errno_location 479
set_menu_pattern _nc_retrace_int 492
set_menu_pattern _nc_Link_Items 516
set_menu_pattern __errno_location 559
set_menu_pattern _nc_retrace_int 575
_nc_Post_Item wattr_on 55
_nc_Post_Item waddch 106
_nc_Post_Item wattr_off 126
_nc_Post_Item wattr_on 181
_nc_Post_Item waddnstr 213
_nc_Post_Item _nc_Calculate_Text_Width 221
_nc_Post_Item waddch 250
_nc_Post_Item waddch 362
_nc_Post_Item waddch 391
_nc_Post_Item _nc_Calculate_Text_Width 458
_nc_Post_Item waddch 490
_nc_Post_Item wattr_on 578
_nc_Post_Item wmove 717
_nc_Post_Item waddch 736
_nc_Post_Item wattr_on 791
_nc_Post_Item waddnstr 812
_nc_Post_Item wattr_on 827
_nc_Post_Item wattr_on 851
_nc_Post_Item waddnstr 913
_nc_Post_Item wmove 988
_nc_Post_Item wattr_off 1017
_nc_Post_Item wattr_off 1068
_nc_Post_Item wattr_off 1099
_nc_Post_Item wattr_on 1123
_nc_Post_Item wattr_off 1154
_nc_Post_Item wmove 1179
_nc_Post_Item waddch 1206
_nc_Post_Item waddnstr 1316
_nc_Post_Item wattr_off 1332
_nc_Post_Item wattr_off 1053
_nc_Draw_Menu wbkgdset 50
_nc_Draw_Menu werase 59
_nc_Draw_Menu wbkgdset 70
_nc_Draw_Menu wmove 123
_nc_Draw_Menu _nc_Post_Item 167
_nc_Draw_Menu wattr_on 182
_nc_Draw_Menu wmove 250
_nc_Draw_Menu waddch 286
_nc_Draw_Menu wmove 333
_nc_Draw_Menu wattr_off 363
post_menu _nc_tracing 2
post_menu newpad 120
post_menu subpad 167
post_menu _nc_Draw_Menu 260
post_menu _nc_Show_Menu 334
post_menu __errno_location 339
post_menu _tracef 379
post_menu SP 408
post_menu __errno_location 449
post_menu __errno_location 481
post_menu _nc_Link_Items 516
post_menu __errno_location 537
post_menu __errno_location 569
post_menu __errno_location 601
post_menu _nc_retrace_int 356
post_menu _nc_retrace_int 469
post_menu _nc_retrace_int 501
post_menu _nc_retrace_int 557
post_menu _nc_retrace_int 589
post_menu _nc_retrace_int 621
unpost_menu _nc_tracing 11
unpost_menu werase 139
unpost_menu wsyncup 147
unpost_menu delwin 156
unpost_menu delwin 173
unpost_menu __errno_location 194
unpost_menu _tracef 235
unpost_menu __errno_location 249
unpost_menu __errno_location 281
unpost_menu SP 328
unpost_menu __errno_location 353
unpost_menu _nc_retrace_int 213
unpost_menu _nc_retrace_int 271
unpost_menu _nc_retrace_int 303
unpost_menu _nc_retrace_int 375
menu_request_name _nc_tracing 2
menu_request_name __errno_location 57
menu_request_name _tracef 90
menu_request_name _nc_retrace_cptr 46
menu_request_name _nc_retrace_cptr 71
menu_request_by_name _nc_tracing 11
menu_request_by_name strlen 35
menu_request_by_name __ctype_toupper_loc 115
menu_request_by_name strcmp 167
menu_request_by_name __errno_location 190
menu_request_by_name _nc_visbuf 225
menu_request_by_name _tracef 240
menu_request_by_name _nc_retrace_int 212
menu_request_by_name _nc_retrace_int 269
scale_menu _nc_tracing 2
scale_menu __errno_location 71
scale_menu _tracef 113
scale_menu __errno_location 129
scale_menu __errno_location 161
scale_menu _nc_retrace_int 88
scale_menu _nc_retrace_int 149
scale_menu _nc_retrace_int 181
set_menu_spacing _nc_tracing 23
set_menu_spacing _nc_Default_Menu 38
set_menu_spacing TABSIZE 69
set_menu_spacing _nc_Calculate_Item_Length_and_Width 157
set_menu_spacing __errno_location 162
set_menu_spacing __errno_location 193
set_menu_spacing _tracef 242
set_menu_spacing __errno_location 257
set_menu_spacing _nc_retrace_int 185
set_menu_spacing _nc_retrace_int 219
set_menu_spacing _nc_retrace_int 283
menu_spacing _nc_tracing 24
menu_spacing _nc_Default_Menu 35
menu_spacing __errno_location 82
menu_spacing _tracef 132
menu_spacing _nc_retrace_int 105
set_menu_sub _nc_tracing 14
set_menu_sub _nc_screen_of 40
set_menu_sub _nc_Calculate_Item_Length_and_Width 57
set_menu_sub __errno_location 62
set_menu_sub __errno_location 89
set_menu_sub _tracef 134
set_menu_sub _nc_Default_Menu 146
set_menu_sub _nc_retrace_int 81
set_menu_sub _nc_retrace_int 111
menu_sub _nc_Default_Menu 5
menu_sub _nc_tracing 18
menu_sub _tracef 59
menu_sub SP 84
menu_sub _nc_retrace_win 36
_nc_retrace_item _nc_tracing 2
_nc_retrace_item _tracef 24
_nc_retrace_item_ptr _nc_tracing 2
_nc_retrace_item_ptr _tracef 24
_nc_retrace_item_opts _nc_tracing 2
_nc_retrace_item_opts _tracef 22
_nc_retrace_menu _nc_tracing 2
_nc_retrace_menu _tracef 24
_nc_retrace_menu_hook _nc_tracing 6
_nc_retrace_menu_hook _nc_fmt_funcptr 34
_nc_retrace_menu_hook _tracef 49
_nc_retrace_menu_opts _nc_tracing 2
_nc_retrace_menu_opts _tracef 22
set_menu_userptr _nc_tracing 14
set_menu_userptr _nc_Default_Menu 25
set_menu_userptr __errno_location 41
set_menu_userptr _tracef 78
set_menu_userptr _nc_retrace_int 60
menu_userptr _nc_tracing 2
menu_userptr _nc_Default_Menu 17
menu_userptr _tracef 59
menu_userptr _nc_retrace_void_ptr 34
set_menu_win _nc_tracing 14
set_menu_win _nc_screen_of 40
set_menu_win _nc_Calculate_Item_Length_and_Width 57
set_menu_win __errno_location 62
set_menu_win __errno_location 89
set_menu_win _tracef 134
set_menu_win _nc_Default_Menu 146
set_menu_win _nc_retrace_int 81
set_menu_win _nc_retrace_int 111
menu_win _nc_Default_Menu 5
menu_win _nc_tracing 18
menu_win _tracef 59
menu_win SP 75
menu_win _nc_retrace_win 36
menu_win _nc_retrace_win 88
_nc_linedump_sp malloc 30
_nc_linedump_sp sprintf 145
_nc_linedump_sp _nc_tracing 168
_nc_linedump_sp _tracef 211
_nc_linedump_sp free 189
_nc_scroll_optimize_sp _nc_tracing 2
_nc_scroll_optimize_sp _nc_doalloc 65
_nc_scroll_optimize_sp _nc_hash_map_sp 96
_nc_scroll_optimize_sp _nc_tracing 102
_nc_scroll_optimize_sp _nc_scrolln_sp 311
_nc_scroll_optimize_sp _nc_tracing 320
_nc_scroll_optimize_sp _tracef 348
_nc_scroll_optimize_sp _nc_tracing 359
_nc_scroll_optimize_sp _nc_scrolln_sp 570
_nc_scroll_optimize_sp _nc_tracing 579
_nc_scroll_optimize_sp _tracef 635
_nc_scroll_optimize_sp _tracef 664
_nc_scroll_optimize_sp _tracef 702
_nc_scroll_optimize_sp _nc_tracing 708
_nc_scroll_optimize_sp _nc_linedump_sp 741
_nc_scroll_optimize_sp _nc_tracing 747
_nc_scroll_optimize_sp _tracef 767
_nc_scroll_optimize_sp _tracef 733
_nc_scroll_optimize SP 3
_nc_scroll_optimize _nc_scroll_optimize_sp 8
_nc_linedump SP 3
_nc_linedump _nc_linedump_sp 8
update_cost_from_blank.isra.2 cur_term 3
update_cost_from_blank.isra.2 stdscr 25
grow_hunks _nc_tracing 764
grow_hunks _nc_tracing 1340
grow_hunks _tracef 1670
grow_hunks _tracef 1694
grow_hunks _nc_tracing 1938
grow_hunks _tracef 1971
grow_hunks _nc_tracing 2026
grow_hunks _tracef 2051
_nc_hash_map_sp free 51
_nc_hash_map_sp malloc 74
_nc_hash_map_sp memset 289
_nc_hash_map_sp _nc_tracing 558
_nc_hash_map_sp _tracef 876
_nc_hash_map_sp free 928
_nc_hash_map_sp calloc 977
_nc_hash_map_sp calloc 1228
_nc_hash_map_sp calloc 1277
_nc_hash_map SP 3
_nc_hash_map _nc_hash_map_sp 8
_nc_make_oldhash SP 5
_nc_make_oldhash _nc_make_oldhash_sp 10
_nc_scroll_oldhash_sp memmove 89
_nc_scroll_oldhash_sp memmove 286
_nc_scroll_oldhash SP 9
_nc_scroll_oldhash _nc_scroll_oldhash_sp 14
_nc_render _nc_tracing 82
_nc_render _tracechtype2 100
_nc_render _traceattr 115
_nc_render _tracechtype2 133
_nc_render _tracef 177
_nc_waddch_nosync _nc_screen_of 25
_nc_waddch_nosync unctrl_sp 35
_nc_waddch_nosync __ctype_b_loc 62
_nc_waddch_nosync _nc_tracing 258
_nc_waddch_nosync _tracechtype2 274
_nc_waddch_nosync _traceattr 293
_nc_waddch_nosync _tracechtype2 315
_nc_waddch_nosync _tracef 369
_nc_waddch_nosync _nc_tracing 422
_nc_waddch_nosync _tracechtype 676
_nc_waddch_nosync _tracef 703
_nc_waddch_nosync wscrl 771
_nc_waddch_nosync wclrtoeol 844
_nc_waddch_nosync wscrl 887
_nc_waddch_nosync TABSIZE 922
_nc_waddch_nosync _nc_tracing 1122
_nc_waddch_nosync _tracechtype2 1138
_nc_waddch_nosync _traceattr 1160
_nc_waddch_nosync _tracechtype2 1184
_nc_waddch_nosync _tracef 1241
_nc_waddch_nosync _nc_tracing 1299
_nc_waddch_nosync _tracechtype 1497
_nc_waddch_nosync _tracef 1524
_nc_waddch_nosync wscrl 1597
_nc_waddch_nosync wclrtoeol 1668
_nc_waddch_nosync _nc_tracing 1858
_nc_waddch_nosync _tracechtype2 1874
_nc_waddch_nosync _traceattr 1896
_nc_waddch_nosync _tracechtype2 1920
_nc_waddch_nosync _tracef 1977
_nc_waddch_nosync _nc_tracing 2033
_nc_waddch_nosync _tracechtype 2233
_nc_waddch_nosync _tracef 2260
_nc_waddch_nosync wscrl 2387
_nc_waddch_nosync wscrl 2431
waddch _nc_tracing 22
waddch _nc_screen_of 53
waddch unctrl_sp 63
waddch __ctype_b_loc 90
waddch _tracechtype 283
waddch _tracef 301
waddch _nc_tracing 407
waddch _tracechtype2 423
waddch _traceattr 442
waddch _tracechtype2 464
waddch _tracef 518
waddch _nc_tracing 575
waddch _nc_synchook 612
waddch _nc_tracing 618
waddch _tracef 638
waddch _tracechtype 804
waddch _tracef 831
waddch wscrl 899
waddch wclrtoeol 964
waddch wscrl 1007
waddch TABSIZE 1050
waddch _nc_tracing 1250
waddch _tracechtype2 1266
waddch _traceattr 1288
waddch _tracechtype2 1312
waddch _tracef 1369
waddch _nc_tracing 1427
waddch _tracechtype 1625
waddch _tracef 1652
waddch wscrl 1725
waddch wclrtoeol 1796
waddch _nc_tracing 1986
waddch _tracechtype2 2002
waddch _traceattr 2024
waddch _tracechtype2 2048
waddch _tracef 2105
waddch _nc_tracing 2161
waddch _tracechtype 2361
waddch _tracef 2388
waddch wscrl 2535
waddch wscrl 2569
wechochar _nc_tracing 22
wechochar _nc_screen_of 53
wechochar unctrl_sp 63
wechochar __ctype_b_loc 90
wechochar _tracechtype 283
wechochar _tracef 301
wechochar _nc_tracing 407
wechochar _tracechtype2 423
wechochar _traceattr 442
wechochar _tracechtype2 464
wechochar _tracef 518
wechochar _nc_tracing 575
wechochar _nc_synchook 618
wechochar _nc_tracing 630
wechochar _tracef 650
wechochar _tracechtype 820
wechochar _tracef 847
wechochar wscrl 915
wechochar wclrtoeol 980
wechochar wscrl 1023
wechochar TABSIZE 1066
wechochar _nc_tracing 1266
wechochar _tracechtype2 1282
wechochar _traceattr 1304
wechochar _tracechtype2 1328
wechochar _tracef 1385
wechochar _nc_tracing 1443
wechochar _tracechtype 1641
wechochar _tracef 1668
wechochar wscrl 1741
wechochar wclrtoeol 1812
wechochar _nc_tracing 2002
wechochar _tracechtype2 2018
wechochar _traceattr 2040
wechochar _tracechtype2 2064
wechochar _tracef 2121
wechochar _nc_tracing 2177
wechochar _tracechtype 2377
wechochar _tracef 2404
wechochar wscrl 2551
wechochar wscrl 2585
waddnstr _nc_tracing 22
waddnstr _tracef 93
waddnstr _nc_synchook 118
waddnstr _nc_tracing 125
waddnstr _tracef 148
waddnstr _nc_waddch_nosync 168
waddnstr _nc_tracing 201
waddnstr _tracef 237
waddnstr _nc_visbufn 270
waddnstr _tracef 291
waddnstr _nc_tracing 298
waddnstr _traceattr 316
waddnstr _tracef 331
waddnstr _nc_tracing 341
waddnstr strlen 355
waddnstr _nc_retrace_int 254
waddchnstr _nc_tracing 2
waddchnstr _nc_synchook 192
waddchnstr _tracef 240
waddchnstr _nc_retrace_int 203
waddchnstr _nc_retrace_int 266
beep_sp _nc_tracing 10
beep_sp cur_term 20
beep_sp _nc_putp_flush_sp 56
beep_sp _nc_putp_flush_sp 101
beep_sp _nc_flush 110
beep_sp _tracef 139
beep_sp _nc_retrace_int 68
beep_sp _nc_retrace_int 124
beep SP 3
beep beep_sp 8
wbkgdset _nc_tracing 2
wbkgdset _tracechtype 171
wbkgdset _tracef 189
wbkgdset _nc_tracing 198
wbkgdset _traceattr 220
wbkgdset _tracef 235
wbkgdset _nc_tracing 241
wbkgdset _traceattr 257
wbkgdset _tracef 272
wbkgdset _nc_tracing 278
wbkgdset _tracef 136
wbkgd _nc_tracing 21
wbkgd SP 38
wbkgd memcmp 101
wbkgd _nc_tracing 145
wbkgd _tracef 355
wbkgd wtouchln 624
wbkgd _nc_synchook 632
wbkgd _nc_tracing 659
wbkgd _tracef 672
wbkgd _tracechtype 681
wbkgd _tracef 699
wbkgd _traceattr 742
wbkgd _tracechar 755
wbkgd _tracef 778
wbkgd _nc_tracing 784
wbkgd _tracechtype 825
wbkgd _tracef 843
wbkgd _nc_tracing 849
wbkgd _traceattr 962
wbkgd _tracechar 973
wbkgd _tracef 998
wbkgd _nc_tracing 1004
wbkgd _traceattr 1037
wbkgd _tracef 1052
wbkgd _nc_tracing 1058
wbkgd _traceattr 1093
wbkgd _tracef 1108
wbkgd _nc_tracing 1114
wbkgd _nc_retrace_int 653
wborder _nc_tracing 33
wborder acs_map 99
wborder _nc_render 107
wborder acs_map 123
wborder _nc_render 131
wborder acs_map 148
wborder _nc_render 156
wborder acs_map 173
wborder _nc_render 181
wborder acs_map 198
wborder _nc_render 206
wborder acs_map 223
wborder _nc_render 231
wborder acs_map 249
wborder _nc_render 257
wborder _nc_render 281
wborder _nc_tracing 287
wborder _nc_synchook 479
wborder acs_map 514
wborder _tracechtype2 536
wborder _tracechtype2 555
wborder _tracechtype2 574
wborder _tracechtype2 592
wborder _tracechtype2 610
wborder _tracechtype2 628
wborder _tracechtype2 646
wborder _tracechtype2 663
wborder _tracef 720
wborder _tracechtype2 744
wborder _tracechtype2 763
wborder _tracechtype2 782
wborder _tracechtype2 800
wborder _tracechtype2 818
wborder _tracechtype2 836
wborder _tracechtype2 854
wborder _tracechtype2 871
wborder _tracef 928
wborder _nc_retrace_int 500
wchgat _nc_tracing 2
wchgat _nc_tracing 145
wchgat _traceattr 323
wchgat _tracef 347
wchgat _traceattr 364
wchgat _tracef 379
wchgat _nc_retrace_int 299
wclear _nc_tracing 2
wclear werase 17
wclear _tracef 59
wclear _nc_retrace_int 34
clearok _nc_tracing 13
clearok _tracef 63
clearok _nc_retrace_int 38
clearok _nc_retrace_int 84
wclrtobot _nc_tracing 2
wclrtobot _nc_synchook 164
wclrtobot _tracef 201
wclrtobot _nc_tracing 212
wclrtobot _tracef 259
wclrtobot _nc_retrace_int 175
wclrtobot _nc_retrace_int 278
wclrtoeol _nc_tracing 2
wclrtoeol _nc_synchook 128
wclrtoeol _tracef 195
wclrtoeol _nc_retrace_int 136
wclrtoeol _nc_retrace_int 151
reset_color_pair cur_term 3
reset_color_pair _nc_putp_sp 35
set_foreground_color cur_term 15
set_foreground_color _nc_tputs_trace 38
set_foreground_color tparm 55
set_foreground_color _nc_tputs_trace 94
set_foreground_color tputs_sp 80
set_background_color cur_term 15
set_background_color _nc_tputs_trace 38
set_background_color tparm 55
set_background_color _nc_tputs_trace 94
set_background_color tputs_sp 80
_nc_change_pair.part.1 _nc_make_oldhash_sp 209
_nc_reset_colors_sp _nc_tracing 2
_nc_reset_colors_sp cur_term 42
_nc_reset_colors_sp _nc_putp_sp 74
_nc_reset_colors_sp _tracef 107
_nc_reset_colors_sp _nc_retrace_bool 85
_nc_reset_colors SP 3
_nc_reset_colors _nc_reset_colors_sp 8
_nc_reserve_pairs _nc_doalloc 88
_nc_reserve_pairs memset 129
_nc_reserve_pairs calloc 160
_nc_reserve_pairs _nc_err_abort 179
start_color_sp _nc_tracing 15
start_color_sp _nc_retrace_int 50
start_color_sp cur_term 75
start_color_sp COLOR_PAIRS 156
start_color_sp COLORS 165
start_color_sp tigetflag 261
start_color_sp _nc_tracing 332
start_color_sp _tracef 379
start_color_sp _nc_retrace_int 406
start_color_sp _nc_outch_sp 434
start_color_sp _nc_outch_sp 450
start_color_sp _nc_reserve_pairs 481
start_color_sp COLORS 495
start_color_sp calloc 521
start_color_sp cur_term 562
start_color_sp COLORS 569
start_color_sp COLORS 669
start_color_sp COLOR_PAIRS 842
start_color_sp COLORS 848
start_color_sp _tracef 860
start_color_sp tigetnum 882
start_color_sp free 936
start_color_sp tigetstr 966
start_color_sp __isoc99_sscanf 1044
start_color SP 3
start_color start_color_sp 8
_nc_init_pair _nc_tracing 27
_nc_init_pair cur_term 89
_nc_init_pair _nc_reserve_pairs 128
_nc_init_pair COLORS 197
_nc_init_pair cur_term 350
_nc_init_pair _nc_tracing 432
_nc_init_pair tparm 495
_nc_init_pair _nc_putp_sp 511
_nc_init_pair COLORS 578
_nc_init_pair COLORS 604
_nc_init_pair _tracef 699
_nc_init_pair _tracef 870
_nc_init_pair cur_term 877
_nc_init_pair _nc_retrace_int 548
init_pair_sp _nc_init_pair 10
init_pair SP 12
init_pair _nc_init_pair 17
_nc_init_color _nc_tracing 2
_nc_init_color cur_term 61
_nc_init_color COLORS 122
_nc_init_color tparm 269
_nc_init_color _nc_putp_sp 285
_nc_init_color _tracef 373
_nc_init_color _nc_retrace_int 321
_nc_init_color _nc_retrace_int 342
init_color_sp _nc_init_color 14
init_color SP 12
init_color _nc_init_color 23
can_change_color_sp _nc_tracing 2
can_change_color_sp cur_term 28
can_change_color_sp _nc_retrace_int 47
can_change_color_sp _tracef 75
can_change_color_sp _nc_retrace_int 91
can_change_color SP 3
can_change_color can_change_color_sp 8
has_colors_sp _nc_tracing 2
has_colors_sp cur_term 28
has_colors_sp _nc_retrace_int 80
has_colors_sp _tracef 107
has_colors_sp _nc_retrace_int 123
has_colors SP 3
has_colors has_colors_sp 8
color_content_sp _nc_tracing 35
color_content_sp cur_term 58
color_content_sp COLORS 94
color_content_sp _nc_tracing 170
color_content_sp _tracef 211
color_content_sp _nc_retrace_int 228
color_content_sp _tracef 412
color_content_sp _nc_retrace_int 550
color_content SP 9
color_content color_content_sp 23
_nc_pair_content _nc_tracing 2
_nc_pair_content _nc_reserve_pairs 100
_nc_pair_content _nc_tracing 163
_nc_pair_content _tracef 211
_nc_pair_content _tracef 237
_nc_pair_content _nc_retrace_int 188
pair_content_sp _nc_pair_content 26
pair_content SP 9
pair_content pair_content_sp 20
_nc_do_color_sp cur_term 113
_nc_do_color_sp _nc_tputs_trace 141
_nc_do_color_sp tparm 150
_nc_do_color_sp tputs_sp 169
_nc_do_color_sp _nc_pair_content 190
_nc_do_color_sp _nc_tracing 272
_nc_do_color_sp _nc_pair_content 353
_nc_do_color_sp _tracef 448
_nc_do_color_sp tputs_sp 552
_nc_do_color_sp tputs_sp 600
_nc_do_color SP 10
_nc_do_color _nc_outc_wrapper 39
_nc_do_color _nc_do_color_sp 59
wcolor_set _nc_tracing 2
wcolor_set SP 58
wcolor_set _nc_tracing 79
wcolor_set _tracef 133
wcolor_set _tracef 172
wcolor_set _nc_retrace_int 37
wcolor_set _nc_retrace_int 113
wcolor_set _nc_retrace_int 154
wdelch _nc_tracing 2
wdelch _nc_synchook 157
wdelch _tracef 203
wdelch _nc_retrace_int 165
delwin _nc_tracing 11
delwin _nc_globals 39
delwin _nc_screen_of 125
delwin wtouchln 162
delwin _nc_freewin 170
delwin _tracef 203
delwin _nc_retrace_int 185
delwin _nc_retrace_int 230
echo_sp _nc_tracing 2
echo_sp _tracef 51
echo_sp _nc_retrace_int 32
echo_sp _nc_retrace_int 67
echo SP 3
echo echo_sp 8
noecho_sp _nc_tracing 2
noecho_sp _tracef 51
noecho_sp _nc_retrace_int 32
noecho_sp _nc_retrace_int 67
noecho SP 3
noecho noecho_sp 8
endwin_sp _nc_tracing 2
endwin_sp _nc_screen_wrap 43
endwin_sp _nc_mvcur_wrap 48
endwin_sp reset_shell_mode_sp 56
endwin_sp _tracef 83
endwin_sp _nc_retrace_int 64
endwin SP 3
endwin endwin_sp 8
werase _nc_tracing 2
werase _nc_synchook 140
werase _tracef 163
werase _nc_retrace_int 148
flash_sp _nc_tracing 2
flash_sp cur_term 33
flash_sp _nc_putp_flush_sp 62
flash_sp _nc_putp_flush_sp 98
flash_sp _tracef 123
flash_sp _nc_retrace_int 70
flash_sp _nc_retrace_int 106
flash SP 3
flash flash_sp 8
addch _nc_tracing 2
addch _tracechtype2 17
addch _tracef 32
addch stdscr 39
addch waddch 46
addch _nc_retrace_int 54
addchnstr _nc_tracing 13
addchnstr _tracef 33
addchnstr stdscr 40
addchnstr waddchnstr 50
addchnstr _nc_retrace_int 63
addchstr _nc_tracing 2
addchstr _tracef 24
addchstr stdscr 31
addchstr waddchnstr 44
addchstr _nc_retrace_int 52
addnstr _nc_tracing 13
addnstr _nc_visbuf2 26
addnstr _tracef 43
addnstr stdscr 50
addnstr waddnstr 60
addnstr _nc_retrace_int 73
addstr _nc_tracing 2
addstr _nc_visbuf2 19
addstr _tracef 34
addstr stdscr 41
addstr waddnstr 54
addstr _nc_retrace_int 62
attroff _nc_tracing 2
attroff _traceattr2 17
attroff _tracef 32
attroff stdscr 39
attroff wattr_off 48
attroff _nc_retrace_int 56
attron _nc_tracing 2
attron _traceattr2 17
attron _tracef 32
attron stdscr 39
attron wattr_on 48
attron _nc_retrace_int 56
attrset _nc_tracing 2
attrset stdscr 15
attrset _traceattr2 53
attrset _tracef 68
attrset _nc_retrace_int_attr_t 36
attr_get _nc_tracing 14
attr_get stdscr 24
attr_get _tracef 97
attr_get _nc_retrace_int 70
attr_off _nc_tracing 13
attr_off _traceattr2 25
attr_off _tracef 43
attr_off stdscr 50
attr_off wattr_off 60
attr_off _nc_retrace_int 73
attr_on _nc_tracing 13
attr_on _traceattr2 25
attr_on _tracef 43
attr_on stdscr 50
attr_on wattr_on 60
attr_on _nc_retrace_int 73
attr_set _nc_tracing 18
attr_set stdscr 28
attr_set _traceattr2 90
attr_set _tracef 116
attr_set _nc_retrace_int 73
bkgd _nc_tracing 2
bkgd _tracechtype2 17
bkgd _tracef 32
bkgd stdscr 39
bkgd wbkgd 46
bkgd _nc_retrace_int 54
bkgdset _nc_tracing 2
bkgdset stdscr 15
bkgdset wbkgdset 22
bkgdset _nc_tracing 28
bkgdset _tracechtype2 61
bkgdset _tracef 76
bkgdset _tracef 49
border _nc_tracing 32
border _tracechtype2 78
border _tracechtype2 105
border _tracechtype2 123
border _tracechtype2 141
border _tracechtype2 159
border _tracechtype2 177
border _tracechtype2 194
border _tracechtype2 208
border _tracef 259
border stdscr 284
border wborder 308
border _nc_retrace_int 329
box _nc_tracing 19
box _tracechtype2 34
box _tracechtype2 49
box _tracef 70
box wborder 100
box _nc_retrace_int 117
chgat _nc_tracing 2
chgat _traceattr2 33
chgat _tracef 57
chgat stdscr 64
chgat wchgat 80
chgat _nc_retrace_int 95
clear _nc_tracing 6
clear _tracef 21
clear stdscr 28
clear wclear 33
clear _nc_retrace_int 44
clrtobot _nc_tracing 6
clrtobot _tracef 21
clrtobot stdscr 28
clrtobot wclrtobot 33
clrtobot _nc_retrace_int 44
clrtoeol _nc_tracing 6
clrtoeol _tracef 21
clrtoeol stdscr 28
clrtoeol wclrtoeol 33
clrtoeol _nc_retrace_int 44
color_set _nc_tracing 17
color_set _tracef 35
color_set stdscr 42
color_set wcolor_set 53
color_set _nc_retrace_int 66
COLOR_PAIR _nc_tracing 2
COLOR_PAIR _tracef 22
COLOR_PAIR _nc_retrace_int 34
delch _nc_tracing 6
delch _tracef 21
delch stdscr 28
delch wdelch 33
delch _nc_retrace_int 44
deleteln _nc_tracing 6
deleteln _tracef 21
deleteln stdscr 28
deleteln winsdelln 38
deleteln _nc_retrace_int 49
echochar _nc_tracing 2
echochar _tracechtype2 17
echochar _tracef 32
echochar stdscr 39
echochar wechochar 46
echochar _nc_retrace_int 54
erase _nc_tracing 6
erase _tracef 21
erase stdscr 28
erase werase 33
erase _nc_retrace_int 44
getbkgd _nc_tracing 2
getbkgd _tracef 43
getbkgd _nc_retrace_chtype 23
getbkgd _nc_retrace_chtype 56
getch _nc_tracing 6
getch _tracef 21
getch stdscr 28
getch wgetch 33
getch _nc_retrace_int 44
getnstr _nc_tracing 13
getnstr _nc_visbuf2 26
getnstr _tracef 43
getnstr stdscr 50
getnstr wgetnstr 60
getnstr _nc_retrace_int 73
getstr _nc_tracing 2
getstr _nc_visbuf2 19
getstr _tracef 34
getstr stdscr 41
getstr wgetnstr 54
getstr _nc_retrace_int 62
hline _nc_tracing 12
hline _tracechtype2 24
hline _tracef 41
hline stdscr 48
hline whline 57
hline _nc_retrace_int 70
inch _nc_tracing 6
inch _tracef 21
inch stdscr 28
inch winch 33
inch _nc_retrace_chtype 44
inchnstr _nc_tracing 13
inchnstr _tracef 33
inchnstr stdscr 40
inchnstr winchnstr 50
inchnstr _nc_retrace_int 63
inchstr _nc_tracing 2
inchstr _tracef 24
inchstr stdscr 31
inchstr winchnstr 44
inchstr _nc_retrace_int 52
innstr stdscr 8
innstr winnstr 13
insch _nc_tracing 2
insch _tracechtype2 17
insch _tracef 32
insch stdscr 39
insch winsch 46
insch _nc_retrace_int 54
insdelln _nc_tracing 2
insdelln _tracef 22
insdelln stdscr 29
insdelln winsdelln 36
insdelln _nc_retrace_int 44
insertln _nc_tracing 6
insertln _tracef 21
insertln stdscr 28
insertln winsdelln 38
insertln _nc_retrace_int 49
insnstr _nc_tracing 13
insnstr _nc_visbuf2 26
insnstr _tracef 43
insnstr stdscr 50
insnstr winsnstr 60
insnstr _nc_retrace_int 73
insstr _nc_tracing 2
insstr _nc_visbuf2 19
insstr _tracef 34
insstr stdscr 41
insstr winsnstr 54
insstr _nc_retrace_int 62
instr _nc_tracing 2
instr _nc_visbuf2 19
instr _tracef 34
instr stdscr 41
instr winnstr 54
instr _nc_retrace_int 62
move _nc_tracing 12
move _tracef 31
move stdscr 38
move wmove 47
move _nc_retrace_int 60
mvaddch _nc_tracing 2
mvaddch stdscr 23
mvaddch wmove 32
mvaddch stdscr 44
mvaddch waddch 52
mvaddch _tracechtype2 80
mvaddch _tracef 99
mvaddch _nc_retrace_int 63
mvaddchnstr _nc_tracing 22
mvaddchnstr stdscr 32
mvaddchnstr wmove 41
