_ZN6__asan14AsanDeactivateEv _ZN11__sanitizer11CheckFailedEPKciS1_yy 72
_ZN6__asan14AsanDeactivateEv _ZN11__sanitizer6ReportEPKcz 104
_ZN6__asan14AsanDeactivateEv _ZN6__asan19GetAllocatorOptionsEPNS_16AllocatorOptionsE 124
_ZN6__asan14AsanDeactivateEv _ZN6__asan20GetMallocContextSizeEv 128
_ZN6__asan14AsanDeactivateEv _ZN6__asan15CanPoisonMemoryEv 136
_ZN6__asan14AsanDeactivateEv _ZN6__asan18SetCanPoisonMemoryEb 172
_ZN6__asan14AsanDeactivateEv _ZN6__asan20SetMallocContextSizeEj 180
_ZN6__asan14AsanDeactivateEv _ZN11__sanitizer20ReInitializeCoverageEbPKc 192
_ZN6__asan14AsanDeactivateEv _ZN6__asan21ReInitializeAllocatorERKNS_16AllocatorOptionsE 244
_ZN6__asan14AsanDeactivateEv .LC22 268
_ZN6__asan14AsanDeactivateEv .LC21 272
_ZN6__asan14AsanDeactivateEv _ZN11__sanitizer17current_verbosityE 276
_ZN6__asan14AsanDeactivateEv .LC23 280
_ZN6__asan14AsanDeactivateEv _ZN11__sanitizer21common_flags_dont_useE 288
_ZN6__asan12AsanActivateEv _ZN11__sanitizer6ReportEPKcz 64
_ZN6__asan12AsanActivateEv _ZN11__sanitizer17UpdateProcessNameEv 72
_ZN6__asan12AsanActivateEv _ZN6__asan20AsanDeactivatedFlags27OverrideFromActivationFlagsEv 88
_ZN6__asan12AsanActivateEv _ZN6__asan18SetCanPoisonMemoryEb 96
_ZN6__asan12AsanActivateEv _ZN6__asan20SetMallocContextSizeEj 104
_ZN6__asan12AsanActivateEv _ZN11__sanitizer20ReInitializeCoverageEbPKc 116
_ZN6__asan12AsanActivateEv _ZN6__asan21ReInitializeAllocatorERKNS_16AllocatorOptionsE 124
_ZN6__asan12AsanActivateEv _ZN11__sanitizer6ReportEPKcz 156
_ZN6__asan12AsanActivateEv _ZN11__sanitizer6ReportEPKcz 220
_ZN6__asan12AsanActivateEv _ZN11__sanitizer17current_verbosityE 240
_ZN6__asan12AsanActivateEv .LC24 244
_ZN6__asan12AsanActivateEv .LC25 252
_ZN6__asan12AsanActivateEv .LC26 256
_ZN11__sanitizer11FlagHandlerIPKcE5ParseES2_ _ZN11__sanitizer15internal_strdupEPKc 12
_ZN11__sanitizer11FlagHandlerIiE5ParseEPKc _ZN11__sanitizer23internal_simple_strtollEPKcPPci 24
_ZN11__sanitizer11FlagHandlerIiE5ParseEPKc _ZN11__sanitizer6PrintfEPKcz 68
_ZN11__sanitizer11FlagHandlerIiE5ParseEPKc .LC1 84
_ZN11__sanitizer11FlagHandlerIbE5ParseEPKc _ZN11__sanitizer15internal_strcmpEPKcS1_ 24
_ZN11__sanitizer11FlagHandlerIbE5ParseEPKc _ZN11__sanitizer15internal_strcmpEPKcS1_ 48
_ZN11__sanitizer11FlagHandlerIbE5ParseEPKc _ZN11__sanitizer15internal_strcmpEPKcS1_ 72
_ZN11__sanitizer11FlagHandlerIbE5ParseEPKc _ZN11__sanitizer15internal_strcmpEPKcS1_ 96
_ZN11__sanitizer11FlagHandlerIbE5ParseEPKc _ZN11__sanitizer15internal_strcmpEPKcS1_ 120
_ZN11__sanitizer11FlagHandlerIbE5ParseEPKc _ZN11__sanitizer15internal_strcmpEPKcS1_ 144
_ZN11__sanitizer11FlagHandlerIbE5ParseEPKc _ZN11__sanitizer6PrintfEPKcz 168
_ZN11__sanitizer11FlagHandlerIbE5ParseEPKc .LC2 216
_ZN11__sanitizer11FlagHandlerIbE5ParseEPKc .LC3 220
_ZN11__sanitizer11FlagHandlerIbE5ParseEPKc .LC4 224
_ZN11__sanitizer11FlagHandlerIbE5ParseEPKc .LC7 228
_ZN11__sanitizer11FlagHandlerIbE5ParseEPKc .LC5 232
_ZN11__sanitizer11FlagHandlerIbE5ParseEPKc .LC6 236
_ZN11__sanitizer11FlagHandlerIbE5ParseEPKc .LC8 240
_ZN11__sanitizerL12RegisterFlagIiEEvPNS_10FlagParserEPKcS4_PT_.constprop.3 _ZN11__sanitizer17LowLevelAllocator8AllocateEm 44
_ZN11__sanitizerL12RegisterFlagIiEEvPNS_10FlagParserEPKcS4_PT_.constprop.3 _ZN11__sanitizer10FlagParser15RegisterHandlerEPKcPNS_15FlagHandlerBaseES2_ 92
_ZN11__sanitizerL12RegisterFlagIiEEvPNS_10FlagParserEPKcS4_PT_.constprop.3 _ZN11__sanitizer10FlagParser5AllocE 100
_ZN11__sanitizerL12RegisterFlagIiEEvPNS_10FlagParserEPKcS4_PT_.constprop.3 _ZTVN11__sanitizer11FlagHandlerIiEE 104
_ZN11__sanitizerL12RegisterFlagIiEEvPNS_10FlagParserEPKcS4_PT_.constprop.3 .LC8 108
_ZN11__sanitizerL12RegisterFlagIbEEvPNS_10FlagParserEPKcS4_PT_.constprop.4 _ZN11__sanitizer17LowLevelAllocator8AllocateEm 44
_ZN11__sanitizerL12RegisterFlagIbEEvPNS_10FlagParserEPKcS4_PT_.constprop.4 _ZN11__sanitizer10FlagParser15RegisterHandlerEPKcPNS_15FlagHandlerBaseES2_ 92
_ZN11__sanitizerL12RegisterFlagIbEEvPNS_10FlagParserEPKcS4_PT_.constprop.4 _ZN11__sanitizer10FlagParser5AllocE 100
_ZN11__sanitizerL12RegisterFlagIbEEvPNS_10FlagParserEPKcS4_PT_.constprop.4 _ZTVN11__sanitizer11FlagHandlerIbEE 104
_ZN11__sanitizerL12RegisterFlagIbEEvPNS_10FlagParserEPKcS4_PT_.constprop.4 .LC8 108
_ZN6__asan9FakeStack17AddrIsInFakeStackEm _ZN6__asan9FakeStack17AddrIsInFakeStackEmPmS1_ 12
_ZN6__asan20AsanDeactivatedFlags23RegisterActivationFlagsEPN11__sanitizer10FlagParserEPNS_5FlagsEPNS1_11CommonFlagsE _ZN11__sanitizerL12RegisterFlagIiEEvPNS_10FlagParserEPKcS4_PT_.constprop.3 36
_ZN6__asan20AsanDeactivatedFlags23RegisterActivationFlagsEPN11__sanitizer10FlagParserEPNS_5FlagsEPNS1_11CommonFlagsE _ZN11__sanitizerL12RegisterFlagIiEEvPNS_10FlagParserEPKcS4_PT_.constprop.3 56
_ZN6__asan20AsanDeactivatedFlags23RegisterActivationFlagsEPN11__sanitizer10FlagParserEPNS_5FlagsEPNS1_11CommonFlagsE _ZN11__sanitizerL12RegisterFlagIiEEvPNS_10FlagParserEPKcS4_PT_.constprop.3 76
_ZN6__asan20AsanDeactivatedFlags23RegisterActivationFlagsEPN11__sanitizer10FlagParserEPNS_5FlagsEPNS1_11CommonFlagsE _ZN11__sanitizerL12RegisterFlagIbEEvPNS_10FlagParserEPKcS4_PT_.constprop.4 96
_ZN6__asan20AsanDeactivatedFlags23RegisterActivationFlagsEPN11__sanitizer10FlagParserEPNS_5FlagsEPNS1_11CommonFlagsE _ZN11__sanitizerL12RegisterFlagIbEEvPNS_10FlagParserEPKcS4_PT_.constprop.4 116
_ZN6__asan20AsanDeactivatedFlags23RegisterActivationFlagsEPN11__sanitizer10FlagParserEPNS_5FlagsEPNS1_11CommonFlagsE _ZN11__sanitizerL12RegisterFlagIbEEvPNS_10FlagParserEPKcS4_PT_.constprop.4 136
_ZN6__asan20AsanDeactivatedFlags23RegisterActivationFlagsEPN11__sanitizer10FlagParserEPNS_5FlagsEPNS1_11CommonFlagsE _ZN11__sanitizerL12RegisterFlagIiEEvPNS_10FlagParserEPKcS4_PT_.constprop.3 156
_ZN6__asan20AsanDeactivatedFlags23RegisterActivationFlagsEPN11__sanitizer10FlagParserEPNS_5FlagsEPNS1_11CommonFlagsE _ZN11__sanitizerL12RegisterFlagIbEEvPNS_10FlagParserEPKcS4_PT_.constprop.4 176
_ZN6__asan20AsanDeactivatedFlags23RegisterActivationFlagsEPN11__sanitizer10FlagParserEPNS_5FlagsEPNS1_11CommonFlagsE _ZN11__sanitizer17LowLevelAllocator8AllocateEm 204
_ZN6__asan20AsanDeactivatedFlags23RegisterActivationFlagsEPN11__sanitizer10FlagParserEPNS_5FlagsEPNS1_11CommonFlagsE _ZN11__sanitizer10FlagParser15RegisterHandlerEPKcPNS_15FlagHandlerBaseES2_ 256
_ZN6__asan20AsanDeactivatedFlags23RegisterActivationFlagsEPN11__sanitizer10FlagParserEPNS_5FlagsEPNS1_11CommonFlagsE _ZN11__sanitizerL12RegisterFlagIiEEvPNS_10FlagParserEPKcS4_PT_.constprop.3 276
_ZN6__asan20AsanDeactivatedFlags23RegisterActivationFlagsEPN11__sanitizer10FlagParserEPNS_5FlagsEPNS1_11CommonFlagsE _ZN11__sanitizerL12RegisterFlagIbEEvPNS_10FlagParserEPKcS4_PT_.constprop.4 296
_ZN6__asan20AsanDeactivatedFlags23RegisterActivationFlagsEPN11__sanitizer10FlagParserEPNS_5FlagsEPNS1_11CommonFlagsE _ZN11__sanitizer20RegisterIncludeFlagsEPNS_10FlagParserEPNS_11CommonFlagsE 316
_ZN6__asan20AsanDeactivatedFlags23RegisterActivationFlagsEPN11__sanitizer10FlagParserEPNS_5FlagsEPNS1_11CommonFlagsE .LC9 324
_ZN6__asan20AsanDeactivatedFlags23RegisterActivationFlagsEPN11__sanitizer10FlagParserEPNS_5FlagsEPNS1_11CommonFlagsE .LC10 328
_ZN6__asan20AsanDeactivatedFlags23RegisterActivationFlagsEPN11__sanitizer10FlagParserEPNS_5FlagsEPNS1_11CommonFlagsE .LC11 332
_ZN6__asan20AsanDeactivatedFlags23RegisterActivationFlagsEPN11__sanitizer10FlagParserEPNS_5FlagsEPNS1_11CommonFlagsE .LC12 336
_ZN6__asan20AsanDeactivatedFlags23RegisterActivationFlagsEPN11__sanitizer10FlagParserEPNS_5FlagsEPNS1_11CommonFlagsE .LC13 340
_ZN6__asan20AsanDeactivatedFlags23RegisterActivationFlagsEPN11__sanitizer10FlagParserEPNS_5FlagsEPNS1_11CommonFlagsE .LC14 344
_ZN6__asan20AsanDeactivatedFlags23RegisterActivationFlagsEPN11__sanitizer10FlagParserEPNS_5FlagsEPNS1_11CommonFlagsE .LC15 348
_ZN6__asan20AsanDeactivatedFlags23RegisterActivationFlagsEPN11__sanitizer10FlagParserEPNS_5FlagsEPNS1_11CommonFlagsE .LC16 352
_ZN6__asan20AsanDeactivatedFlags23RegisterActivationFlagsEPN11__sanitizer10FlagParserEPNS_5FlagsEPNS1_11CommonFlagsE _ZN11__sanitizer10FlagParser5AllocE 356
_ZN6__asan20AsanDeactivatedFlags23RegisterActivationFlagsEPN11__sanitizer10FlagParserEPNS_5FlagsEPNS1_11CommonFlagsE _ZTVN11__sanitizer11FlagHandlerIPKcEE 360
_ZN6__asan20AsanDeactivatedFlags23RegisterActivationFlagsEPN11__sanitizer10FlagParserEPNS_5FlagsEPNS1_11CommonFlagsE .LC17 364
_ZN6__asan20AsanDeactivatedFlags23RegisterActivationFlagsEPN11__sanitizer10FlagParserEPNS_5FlagsEPNS1_11CommonFlagsE .LC8 368
_ZN6__asan20AsanDeactivatedFlags23RegisterActivationFlagsEPN11__sanitizer10FlagParserEPNS_5FlagsEPNS1_11CommonFlagsE .LC18 372
_ZN6__asan20AsanDeactivatedFlags23RegisterActivationFlagsEPN11__sanitizer10FlagParserEPNS_5FlagsEPNS1_11CommonFlagsE .LC19 376
_ZN6__asan20AsanDeactivatedFlags27OverrideFromActivationFlagsEv _ZN11__sanitizer10FlagParserC1Ev 28
_ZN6__asan20AsanDeactivatedFlags27OverrideFromActivationFlagsEv _ZN6__asan20AsanDeactivatedFlags23RegisterActivationFlagsEPN11__sanitizer10FlagParserEPNS_5FlagsEPNS1_11CommonFlagsE 48
_ZN6__asan20AsanDeactivatedFlags27OverrideFromActivationFlagsEv _ZN6__asan16AllocatorOptions6CopyToEPNS_5FlagsEPN11__sanitizer11CommonFlagsE 64
_ZN6__asan20AsanDeactivatedFlags27OverrideFromActivationFlagsEv _ZN11__sanitizer6GetEnvEPKc 140
_ZN6__asan20AsanDeactivatedFlags27OverrideFromActivationFlagsEv _ZN11__sanitizer10FlagParser11ParseStringEPKc 156
_ZN6__asan20AsanDeactivatedFlags27OverrideFromActivationFlagsEv _ZN11__sanitizer10FlagParser11ParseStringEPKc 172
_ZN6__asan20AsanDeactivatedFlags27OverrideFromActivationFlagsEv _ZN11__sanitizer23ReportUnrecognizedFlagsEv 196
_ZN6__asan20AsanDeactivatedFlags27OverrideFromActivationFlagsEv _ZN11__sanitizer10FlagParser21PrintFlagDescriptionsEv 216
_ZN6__asan20AsanDeactivatedFlags27OverrideFromActivationFlagsEv _ZN6__asan16AllocatorOptions7SetFromEPKNS_5FlagsEPKN11__sanitizer11CommonFlagsE 232
_ZN6__asan20AsanDeactivatedFlags27OverrideFromActivationFlagsEv .LC20 280
_ZN6__asan20AsanDeactivatedFlags27OverrideFromActivationFlagsEv _ZN11__sanitizer17current_verbosityE 284
_ZN6__asanL10RZLog2SizeEj _ZN11__sanitizer11CheckFailedEPKciS1_yy 60
_ZN6__asanL10RZLog2SizeEj .LC1 80
_ZN6__asanL10RZLog2SizeEj .LC0 84
_ZN6__asanL19GetStackTraceFromIdEj _ZN11__sanitizer11CheckFailedEPKciS1_yy 48
_ZN6__asanL19GetStackTraceFromIdEj _ZN11__sanitizer13StackDepotGetEj 56
_ZN6__asanL19GetStackTraceFromIdEj .LC1 124
_ZN6__asanL19GetStackTraceFromIdEj .LC2 132
_ZN6__asanL19GetStackTraceFromIdEj .LC1 136
_ZN6__asanL19GetStackTraceFromIdEj .LC3 140
_ZN11__sanitizer12SizeClassMapILm17ELm64ELm14EE7ClassIDEm.part.3 _ZN11__sanitizer26MostSignificantSetBitIndexEm 8
_ZNK6__asan20AsanMapUnmapCallback5OnMapEmm _ZN6__asan12PoisonShadowEmmh 20
_ZNK6__asan20AsanMapUnmapCallback5OnMapEmm _ZN6__asan21GetCurrentThreadStatsEv 24
_ZNK6__asan20AsanMapUnmapCallback7OnUnmapEmm _ZN6__asan12PoisonShadowEmmh 24
_ZNK6__asan20AsanMapUnmapCallback7OnUnmapEmm _ZN6__asan29FlushUnneededASanShadowMemoryEmm 36
_ZNK6__asan20AsanMapUnmapCallback7OnUnmapEmm _ZN6__asan21GetCurrentThreadStatsEv 40
_ZN6__asan17GetAllocatorCacheEPNS_28AsanThreadLocalMallocStorageE _ZN11__sanitizer11CheckFailedEPKciS1_yy 48
_ZN6__asan17GetAllocatorCacheEPNS_28AsanThreadLocalMallocStorageE .LC1 64
_ZN6__asan17GetAllocatorCacheEPNS_28AsanThreadLocalMallocStorageE .LC11 68
_ZN6__asan18GetQuarantineCacheEPNS_28AsanThreadLocalMallocStorageE _ZN11__sanitizer11CheckFailedEPKciS1_yy 48
_ZN6__asan18GetQuarantineCacheEPNS_28AsanThreadLocalMallocStorageE .LC1 56
_ZN6__asan18GetQuarantineCacheEPNS_28AsanThreadLocalMallocStorageE .LC11 60
_ZN6__asan19InitializeAllocatorERKNS_16AllocatorOptionsE _ZN11__sanitizer15internal_memsetEPvim 40
_ZN6__asan19InitializeAllocatorERKNS_16AllocatorOptionsE _ZN11__sanitizer17GetPageSizeCachedEv 44
_ZN6__asan19InitializeAllocatorERKNS_16AllocatorOptionsE _ZN11__sanitizer15internal_memsetEPvim 84
_ZN6__asan19InitializeAllocatorERKNS_16AllocatorOptionsE _ZN11__sanitizer15internal_memsetEPvim 108
_ZN6__asan19InitializeAllocatorERKNS_16AllocatorOptionsE _ZN11__sanitizer15internal_memsetEPvim 124
_ZN6__asan19InitializeAllocatorERKNS_16AllocatorOptionsE _ZN6__asan9Allocator14SharedInitCodeERKNS_16AllocatorOptionsE 144
_ZN6__asan21ReInitializeAllocatorERKNS_16AllocatorOptionsE __sync_synchronize 32
_ZN6__asan21ReInitializeAllocatorERKNS_16AllocatorOptionsE __sync_synchronize 40
_ZN6__asan21ReInitializeAllocatorERKNS_16AllocatorOptionsE _ZN6__asan9Allocator14SharedInitCodeERKNS_16AllocatorOptionsE 60
_ZN6__asan19GetAllocatorOptionsEPNS_16AllocatorOptionsE __sync_synchronize 24
_ZN6__asan19GetAllocatorOptionsEPNS_16AllocatorOptionsE __sync_synchronize 48
_ZN6__asan19GetAllocatorOptionsEPNS_16AllocatorOptionsE __sync_synchronize 60
_ZN6__asan19GetAllocatorOptionsEPNS_16AllocatorOptionsE __sync_synchronize 72
_ZN6__asan19GetAllocatorOptionsEPNS_16AllocatorOptionsE __sync_synchronize 96
_ZN6__asan27PrintInternalAllocatorStatsEv _ZN11__sanitizer6PrintfEPKcz 60
_ZN6__asan27PrintInternalAllocatorStatsEv _ZN11__sanitizer6PrintfEPKcz 104
_ZN6__asan27PrintInternalAllocatorStatsEv _ZN11__sanitizer6PrintfEPKcz 136
_ZN6__asan27PrintInternalAllocatorStatsEv .LC18 144
_ZN6__asan27PrintInternalAllocatorStatsEv .LC17 148
_ZN6__asan27PrintInternalAllocatorStatsEv .LC19 152
_ZN6__asan32AsanSoftRssLimitExceededCallbackEb __sync_synchronize 8
_ZN6__lsan12ForEachChunkEPFvmPvES0_ _ZN11__sanitizer11FlatByteMapILy4096EEixEm 36
_ZN6__lsan12ForEachChunkEPFvmPvES0_ _ZN11__sanitizer12SizeClassMapILm17ELm64ELm14EE4SizeEm 48
_ZN6__lsan12ForEachChunkEPFvmPvES0_ __aeabi_uidiv 68
_ZN6__lsan12ForEachChunkEPFvmPvES0_ _ZN11__sanitizer18LargeMmapAllocatorIN6__asan20AsanMapUnmapCallbackEE7GetUserEPNS3_6HeaderE 168
_ZN6__asan13AsanChunkView8UsedSizeEv _ZN6__asan9AsanChunk8UsedSizeEb 8
_ZN6__asan13AsanChunkView3EndEv _ZN6__asan13AsanChunkView8UsedSizeEv 8
_ZNK6__lsan12LsanMetadata14requested_sizeEv _ZN6__asan9AsanChunk8UsedSizeEb 8
_ZN6__asan22FindHeapChunkByAddressEm _ZN6__asan9Allocator22FindHeapChunkByAddressEm 16
_ZN6__asan23asan_malloc_usable_sizeEPvmm _ZN6__asan9Allocator14AllocationSizeEm 48
_ZN6__asan23asan_malloc_usable_sizeEPvmm _ZN6__asan16GetCurrentThreadEv 152
_ZN6__asan23asan_malloc_usable_sizeEPvmm _ZN11__sanitizer18BufferedStackTrace6UnwindEjmmPvmmb 228
_ZN6__asan23asan_malloc_usable_sizeEPvmm _ZN11__sanitizer18BufferedStackTrace6UnwindEjmmPvmmb 300
_ZN6__asan23asan_malloc_usable_sizeEPvmm _ZN6__asan30ReportMallocUsableSizeNotOwnedEmPN11__sanitizer18BufferedStackTraceE 312
_ZN6__asan23asan_malloc_usable_sizeEPvmm _ZN6__asan28asan_flags_dont_use_directlyE 332
_ZN6__asan23asan_malloc_usable_sizeEPvmm _ZN11__sanitizer21common_flags_dont_useE 336
_ZN6__asan23asan_malloc_usable_sizeEPvmm _ZN6__asan11asan_initedE 340
_ZN6__asan12asan_mz_sizeEPKv _ZN6__asan9Allocator14AllocationSizeEm 12
__sanitizer_get_ownership _ZN6__asan9Allocator14AllocationSizeEm 16
__sanitizer_get_allocated_size _ZN6__asan9Allocator14AllocationSizeEm 40
__sanitizer_get_allocated_size _ZN11__sanitizer10StackTrace12GetCurrentPcEv 84
__sanitizer_get_allocated_size _ZN6__asan16GetCurrentThreadEv 128
__sanitizer_get_allocated_size _ZN11__sanitizer18BufferedStackTrace6UnwindEjmmPvmmb 204
__sanitizer_get_allocated_size _ZN11__sanitizer18BufferedStackTrace6UnwindEjmmPvmmb 276
__sanitizer_get_allocated_size _ZN6__asan39ReportSanitizerGetAllocatedSizeNotOwnedEmPN11__sanitizer18BufferedStackTraceE 288
__sanitizer_get_allocated_size _ZN11__sanitizer21common_flags_dont_useE 312
__sanitizer_get_allocated_size _ZN6__asan11asan_initedE 316
_ZN6__lsan18IgnoreObjectLockedEPKv _ZN6__asan9Allocator18GetAsanChunkByAddrEm 20
_ZN6__lsan18IgnoreObjectLockedEPKv _ZN6__asan9AsanChunk8UsedSizeEb 68
_ZN6__lsan15PointsIntoChunkEPv _ZN11__sanitizer17CombinedAllocatorINS_20SizeClassAllocator32ILm0ELy4294967296ELm16ENS_12SizeClassMapILm17ELm64ELm14EEELm20ENS_11FlatByteMapILy4096EEEN6__asan20AsanMapUnmapCallbackEEENS_28SizeClassAllocatorLocalCacheIS8_EENS_18LargeMmapAllocatorIS7_EEE23GetBlockBeginFastLockedEPv 24
_ZN6__lsan15PointsIntoChunkEPv _ZN6__asan9Allocator12GetAsanChunkEPv 36
_ZN6__lsan15PointsIntoChunkEPv _ZN6__asan9AsanChunk8UsedSizeEb 76
_ZN6__lsan15PointsIntoChunkEPv _ZN6__asan9AsanChunk8UsedSizeEb 108
_ZN6__lsan12GetUserBeginEm _ZN11__sanitizer17CombinedAllocatorINS_20SizeClassAllocator32ILm0ELy4294967296ELm16ENS_12SizeClassMapILm17ELm64ELm14EEELm20ENS_11FlatByteMapILy4096EEEN6__asan20AsanMapUnmapCallbackEEENS_28SizeClassAllocatorLocalCacheIS8_EENS_18LargeMmapAllocatorIS7_EEE23GetBlockBeginFastLockedEPv 20
_ZN6__lsan12GetUserBeginEm _ZN6__asan9Allocator12GetAsanChunkEPv 32
_ZN6__lsan12GetUserBeginEm _ZN11__sanitizer11CheckFailedEPKciS1_yy 80
_ZN6__lsan12GetUserBeginEm .LC1 100
_ZN6__lsan12GetUserBeginEm .LC34 104
_ZN6__lsan13LockAllocatorEv _ZN11__sanitizer20SizeClassAllocator32ILm0ELy4294967296ELm16ENS_12SizeClassMapILm17ELm64ELm14EEELm20ENS_11FlatByteMapILy4096EEEN6__asan20AsanMapUnmapCallbackEE9ForceLockEv 16
_ZN6__lsan13LockAllocatorEv _ZN11__sanitizer15StaticSpinMutex4LockEv 32
_ZN6__asan18asan_mz_force_lockEv _ZN11__sanitizer20SizeClassAllocator32ILm0ELy4294967296ELm16ENS_12SizeClassMapILm17ELm64ELm14EEELm20ENS_11FlatByteMapILy4096EEEN6__asan20AsanMapUnmapCallbackEE9ForceLockEv 16
_ZN6__asan18asan_mz_force_lockEv _ZN11__sanitizer15StaticSpinMutex4LockEv 28
_ZN6__asan18asan_mz_force_lockEv _ZN11__sanitizer15StaticSpinMutex4LockEv 44
_ZN6__asan20asan_mz_force_unlockEv __sync_synchronize 4
_ZN6__asan20asan_mz_force_unlockEv __sync_synchronize 28
_ZN6__asan20asan_mz_force_unlockEv _ZN11__sanitizer20SizeClassAllocator32ILm0ELy4294967296ELm16ENS_12SizeClassMapILm17ELm64ELm14EEELm20ENS_11FlatByteMapILy4096EEEN6__asan20AsanMapUnmapCallbackEE11ForceUnlockEv 44
_ZN6__lsan15UnlockAllocatorEv __sync_synchronize 4
_ZN6__lsan15UnlockAllocatorEv _ZN11__sanitizer20SizeClassAllocator32ILm0ELy4294967296ELm16ENS_12SizeClassMapILm17ELm64ELm14EEELm20ENS_11FlatByteMapILy4096EEEN6__asan20AsanMapUnmapCallbackEE11ForceUnlockEv 32
_ZN6__asan28AsanThreadLocalMallocStorage10CommitBackEv _ZN6__asan17GetAllocatorCacheEPNS_28AsanThreadLocalMallocStorageE 12
_ZN6__asan28AsanThreadLocalMallocStorage10CommitBackEv _ZN6__asan18GetQuarantineCacheEPNS_28AsanThreadLocalMallocStorageE 32
_ZN6__asan28AsanThreadLocalMallocStorage10CommitBackEv _ZN11__sanitizer10QuarantineIN6__asan18QuarantineCallbackENS1_9AsanChunkEE5DrainEPNS_15QuarantineCacheIS2_EES2_ 64
_ZN6__asan28AsanThreadLocalMallocStorage10CommitBackEv _ZN11__sanitizer28SizeClassAllocatorLocalCacheINS_20SizeClassAllocator32ILm0ELy4294967296ELm16ENS_12SizeClassMapILm17ELm64ELm14EEELm20ENS_11FlatByteMapILy4096EEEN6__asan20AsanMapUnmapCallbackEEEE5DrainEPS8_m 96
_ZN6__asan13asan_memalignEmmPN11__sanitizer18BufferedStackTraceENS_9AllocTypeE _ZN6__asan9Allocator8AllocateEmmPN11__sanitizer18BufferedStackTraceENS_9AllocTypeEb 28
_ZN6__asan11asan_mallocEmPN11__sanitizer18BufferedStackTraceE _ZN6__asan9Allocator8AllocateEmmPN11__sanitizer18BufferedStackTraceENS_9AllocTypeEb 36
_ZN6__asan11asan_callocEmmPN11__sanitizer18BufferedStackTraceE _ZN11__sanitizer35CallocShouldReturnNullDueToOverflowEmm 28
_ZN6__asan11asan_callocEmmPN11__sanitizer18BufferedStackTraceE _ZN11__sanitizer17CombinedAllocatorINS_20SizeClassAllocator32ILm0ELy4294967296ELm16ENS_12SizeClassMapILm17ELm64ELm14EEELm20ENS_11FlatByteMapILy4096EEEN6__asan20AsanMapUnmapCallbackEEENS_28SizeClassAllocatorLocalCacheIS8_EENS_18LargeMmapAllocatorIS7_EEE15ReturnNullOrDieEv 60
_ZN6__asan11asan_callocEmmPN11__sanitizer18BufferedStackTraceE _ZN6__asan9Allocator8AllocateEmmPN11__sanitizer18BufferedStackTraceENS_9AllocTypeEb 104
_ZN6__asan11asan_callocEmmPN11__sanitizer18BufferedStackTraceE _ZN11__sanitizer20SizeClassAllocator32ILm0ELy4294967296ELm16ENS_12SizeClassMapILm17ELm64ELm14EEELm20ENS_11FlatByteMapILy4096EEEN6__asan20AsanMapUnmapCallbackEE13PointerIsMineEPKv 124
_ZN6__asan11asan_callocEmmPN11__sanitizer18BufferedStackTraceE _ZN14__interception11real_memsetE 188
_ZN6__asan11asan_vallocEmPN11__sanitizer18BufferedStackTraceE _ZN11__sanitizer17GetPageSizeCachedEv 12
_ZN6__asan11asan_vallocEmPN11__sanitizer18BufferedStackTraceE _ZN6__asan9Allocator8AllocateEmmPN11__sanitizer18BufferedStackTraceENS_9AllocTypeEb 48
_ZN6__asan12asan_pvallocEmPN11__sanitizer18BufferedStackTraceE _ZN11__sanitizer17GetPageSizeCachedEv 12
_ZN6__asan12asan_pvallocEmPN11__sanitizer18BufferedStackTraceE _ZN11__sanitizer9RoundUpToEmm 28
_ZN6__asan12asan_pvallocEmPN11__sanitizer18BufferedStackTraceE _ZN6__asan9Allocator8AllocateEmmPN11__sanitizer18BufferedStackTraceENS_9AllocTypeEb 72
_ZN6__asan19asan_posix_memalignEPPvmmPN11__sanitizer18BufferedStackTraceE _ZN6__asan9Allocator8AllocateEmmPN11__sanitizer18BufferedStackTraceENS_9AllocTypeEb 44
_ZN6__asan19asan_posix_memalignEPPvmmPN11__sanitizer18BufferedStackTraceE _ZN11__sanitizer11CheckFailedEPKciS1_yy 96
_ZN6__asan19asan_posix_memalignEPPvmmPN11__sanitizer18BufferedStackTraceE .LC1 120
_ZN6__asan19asan_posix_memalignEPPvmmPN11__sanitizer18BufferedStackTraceE .LC73 124
_ZN6__asan9asan_freeEPvPN11__sanitizer18BufferedStackTraceENS_9AllocTypeE _ZN6__asan9Allocator10DeallocateEPvmPN11__sanitizer18BufferedStackTraceENS_9AllocTypeE 28
_ZN6__asan15asan_sized_freeEPvmPN11__sanitizer18BufferedStackTraceENS_9AllocTypeE _ZN6__asan9Allocator10DeallocateEPvmPN11__sanitizer18BufferedStackTraceENS_9AllocTypeE 28
_ZN6__asan12asan_reallocEPvmPN11__sanitizer18BufferedStackTraceE _ZN6__asan9Allocator8AllocateEmmPN11__sanitizer18BufferedStackTraceENS_9AllocTypeEb 40
_ZN6__asan12asan_reallocEPvmPN11__sanitizer18BufferedStackTraceE _ZN6__asan9Allocator10DeallocateEPvmPN11__sanitizer18BufferedStackTraceENS_9AllocTypeE 88
_ZN6__asan12asan_reallocEPvmPN11__sanitizer18BufferedStackTraceE _ZN6__asan9Allocator10ReallocateEPvmPN11__sanitizer18BufferedStackTraceE 124
_ZN6__asanL10RZSize2LogEj _ZN11__sanitizer11CheckFailedEPKciS1_yy 60
_ZN6__asanL10RZSize2LogEj _ZN6__asanL10RZLog2SizeEj 188
_ZN6__asanL10RZSize2LogEj .LC1 252
_ZN6__asanL10RZSize2LogEj .LC4 256
_ZN6__asanL10RZSize2LogEj .LC1 260
_ZN6__asanL10RZSize2LogEj .LC5 264
_ZN6__asanL10RZSize2LogEj .LC1 268
_ZN6__asanL10RZSize2LogEj .LC6 272
_ZN6__asanL10RZSize2LogEj .LC7 276
_ZN6__asanL10RZSize2LogEj .LC1 280
_ZN11__sanitizer15StaticSpinMutex8LockSlowEv _ZN11__sanitizer20internal_sched_yieldEv 44
_ZN11__sanitizer15StaticSpinMutex8LockSlowEv __sync_lock_test_and_set_1 60
_ZN11__sanitizer15StaticSpinMutex4LockEv __sync_lock_test_and_set_1 12
_ZN11__sanitizer15StaticSpinMutex4LockEv _ZN11__sanitizer15StaticSpinMutex8LockSlowEv 32
_ZN11__sanitizer26MostSignificantSetBitIndexEm _ZN11__sanitizer11CheckFailedEPKciS1_yy 48
_ZN11__sanitizer26MostSignificantSetBitIndexEm .LC1 68
_ZN11__sanitizer26MostSignificantSetBitIndexEm .LC0 72
_ZN11__sanitizer9RoundUpToEmm _ZN11__sanitizer11CheckFailedEPKciS1_yy 52
_ZN11__sanitizer9RoundUpToEmm .LC1 80
_ZN11__sanitizer9RoundUpToEmm .LC2 84
_ZNK6__asan9Allocator12CheckOptionsERKNS_16AllocatorOptionsE _ZN11__sanitizer11CheckFailedEPKciS1_yy 68
_ZNK6__asan9Allocator12CheckOptionsERKNS_16AllocatorOptionsE .LC1 292
_ZNK6__asan9Allocator12CheckOptionsERKNS_16AllocatorOptionsE .LC12 296
_ZNK6__asan9Allocator12CheckOptionsERKNS_16AllocatorOptionsE .LC1 300
_ZNK6__asan9Allocator12CheckOptionsERKNS_16AllocatorOptionsE .LC13 304
_ZNK6__asan9Allocator12CheckOptionsERKNS_16AllocatorOptionsE .LC1 308
_ZNK6__asan9Allocator12CheckOptionsERKNS_16AllocatorOptionsE .LC14 312
_ZNK6__asan9Allocator12CheckOptionsERKNS_16AllocatorOptionsE .LC1 316
_ZNK6__asan9Allocator12CheckOptionsERKNS_16AllocatorOptionsE .LC15 320
_ZNK6__asan9Allocator12CheckOptionsERKNS_16AllocatorOptionsE .LC1 324
_ZNK6__asan9Allocator12CheckOptionsERKNS_16AllocatorOptionsE .LC16 328
_ZN6__asan9Allocator14SharedInitCodeERKNS_16AllocatorOptionsE _ZNK6__asan9Allocator12CheckOptionsERKNS_16AllocatorOptionsE 12
_ZN6__asan9Allocator14SharedInitCodeERKNS_16AllocatorOptionsE __sync_synchronize 20
_ZN6__asan9Allocator14SharedInitCodeERKNS_16AllocatorOptionsE __aeabi_uidiv 44
_ZN6__asan9Allocator14SharedInitCodeERKNS_16AllocatorOptionsE __sync_synchronize 52
_ZN6__asan9Allocator14SharedInitCodeERKNS_16AllocatorOptionsE __sync_synchronize 72
_ZN6__asan9Allocator14SharedInitCodeERKNS_16AllocatorOptionsE __sync_synchronize 88
_ZN6__asan9Allocator14SharedInitCodeERKNS_16AllocatorOptionsE __sync_synchronize 104
_ZN11__sanitizer17GenericScopedLockINS_15StaticSpinMutexEED1Ev,_ZN11__sanitizer17GenericScopedLockINS_15StaticSpinMutexEED2Ev __sync_synchronize 12
_ZN11__sanitizer17CombinedAllocatorINS_20SizeClassAllocator32ILm0ELy4294967296ELm16ENS_12SizeClassMapILm17ELm64ELm14EEELm20ENS_11FlatByteMapILy4096EEEN6__asan20AsanMapUnmapCallbackEEENS_28SizeClassAllocatorLocalCacheIS8_EENS_18LargeMmapAllocatorIS7_EEE15ReturnNullOrDieEv __sync_synchronize 12
_ZN11__sanitizer17CombinedAllocatorINS_20SizeClassAllocator32ILm0ELy4294967296ELm16ENS_12SizeClassMapILm17ELm64ELm14EEELm20ENS_11FlatByteMapILy4096EEEN6__asan20AsanMapUnmapCallbackEEENS_28SizeClassAllocatorLocalCacheIS8_EENS_18LargeMmapAllocatorIS7_EEE15ReturnNullOrDieEv _ZN11__sanitizer31ReportAllocatorCannotReturnNullEv 28
_ZN11__sanitizer12SizeClassMapILm17ELm64ELm14EE7ClassIDEm _ZN11__sanitizer12SizeClassMapILm17ELm64ELm14EE7ClassIDEm.part.3 28
_ZN11__sanitizer18LargeMmapAllocatorIN6__asan20AsanMapUnmapCallbackEE7GetUserEPNS3_6HeaderE _ZN11__sanitizer11CheckFailedEPKciS1_yy 56
_ZN11__sanitizer18LargeMmapAllocatorIN6__asan20AsanMapUnmapCallbackEE7GetUserEPNS3_6HeaderE .LC21 72
_ZN11__sanitizer18LargeMmapAllocatorIN6__asan20AsanMapUnmapCallbackEE7GetUserEPNS3_6HeaderE .LC20 76
_ZN11__sanitizer18LargeMmapAllocatorIN6__asan20AsanMapUnmapCallbackEE23GetBlockBeginFastLockedEPv _ZN11__sanitizer11CheckFailedEPKciS1_yy 68
_ZN11__sanitizer18LargeMmapAllocatorIN6__asan20AsanMapUnmapCallbackEE23GetBlockBeginFastLockedEPv _ZN11__sanitizer9SortArrayEPmm 116
_ZN11__sanitizer18LargeMmapAllocatorIN6__asan20AsanMapUnmapCallbackEE23GetBlockBeginFastLockedEPv _ZN11__sanitizer18LargeMmapAllocatorIN6__asan20AsanMapUnmapCallbackEE7GetUserEPNS3_6HeaderE 428
_ZN11__sanitizer18LargeMmapAllocatorIN6__asan20AsanMapUnmapCallbackEE23GetBlockBeginFastLockedEPv .LC23 432
_ZN11__sanitizer18LargeMmapAllocatorIN6__asan20AsanMapUnmapCallbackEE23GetBlockBeginFastLockedEPv .LC22 436
_ZN11__sanitizer18LargeMmapAllocatorIN6__asan20AsanMapUnmapCallbackEE23GetBlockBeginFastLockedEPv .LC24 440
_ZN11__sanitizer18LargeMmapAllocatorIN6__asan20AsanMapUnmapCallbackEE23GetBlockBeginFastLockedEPv .LC21 444
_ZN11__sanitizer18LargeMmapAllocatorIN6__asan20AsanMapUnmapCallbackEE13GetBlockBeginEPKv _ZN11__sanitizer15StaticSpinMutex4LockEv 28
_ZN11__sanitizer18LargeMmapAllocatorIN6__asan20AsanMapUnmapCallbackEE13GetBlockBeginEPKv _ZN11__sanitizer11CheckFailedEPKciS1_yy 160
_ZN11__sanitizer18LargeMmapAllocatorIN6__asan20AsanMapUnmapCallbackEE13GetBlockBeginEPKv _ZN11__sanitizer18LargeMmapAllocatorIN6__asan20AsanMapUnmapCallbackEE7GetUserEPNS3_6HeaderE 296
_ZN11__sanitizer18LargeMmapAllocatorIN6__asan20AsanMapUnmapCallbackEE13GetBlockBeginEPKv _ZN11__sanitizer17GenericScopedLockINS_15StaticSpinMutexEED1Ev 308
_ZN11__sanitizer18LargeMmapAllocatorIN6__asan20AsanMapUnmapCallbackEE13GetBlockBeginEPKv .LC21 328
_ZN11__sanitizer18LargeMmapAllocatorIN6__asan20AsanMapUnmapCallbackEE13GetBlockBeginEPKv .LC25 332
_ZN11__sanitizer18LargeMmapAllocatorIN6__asan20AsanMapUnmapCallbackEE13GetBlockBeginEPKv .LC21 340
_ZN11__sanitizer18LargeMmapAllocatorIN6__asan20AsanMapUnmapCallbackEE13GetBlockBeginEPKv .LC26 344
_ZN11__sanitizer18LargeMmapAllocatorIN6__asan20AsanMapUnmapCallbackEE13GetBlockBeginEPKv .LC21 352
_ZN11__sanitizer18LargeMmapAllocatorIN6__asan20AsanMapUnmapCallbackEE13GetBlockBeginEPKv .LC27 356
_ZN11__sanitizer11FlatByteMapILy4096EEixEm _ZN11__sanitizer11CheckFailedEPKciS1_yy 56
_ZN11__sanitizer11FlatByteMapILy4096EEixEm .LC9 72
_ZN11__sanitizer11FlatByteMapILy4096EEixEm .LC19 76
_ZN11__sanitizer20SizeClassAllocator32ILm0ELy4294967296ELm16ENS_12SizeClassMapILm17ELm64ELm14EEELm20ENS_11FlatByteMapILy4096EEEN6__asan20AsanMapUnmapCallbackEE13PointerIsMineEPKv _ZN11__sanitizer11FlatByteMapILy4096EEixEm 8
_ZN11__sanitizer20SizeClassAllocator32ILm0ELy4294967296ELm16ENS_12SizeClassMapILm17ELm64ELm14EEELm20ENS_11FlatByteMapILy4096EEEN6__asan20AsanMapUnmapCallbackEE13GetBlockBeginEPKv _ZN11__sanitizer20SizeClassAllocator32ILm0ELy4294967296ELm16ENS_12SizeClassMapILm17ELm64ELm14EEELm20ENS_11FlatByteMapILy4096EEEN6__asan20AsanMapUnmapCallbackEE13PointerIsMineEPKv 12
_ZN11__sanitizer20SizeClassAllocator32ILm0ELy4294967296ELm16ENS_12SizeClassMapILm17ELm64ELm14EEELm20ENS_11FlatByteMapILy4096EEEN6__asan20AsanMapUnmapCallbackEE13GetBlockBeginEPKv _ZN11__sanitizer11CheckFailedEPKciS1_yy 60
_ZN11__sanitizer20SizeClassAllocator32ILm0ELy4294967296ELm16ENS_12SizeClassMapILm17ELm64ELm14EEELm20ENS_11FlatByteMapILy4096EEEN6__asan20AsanMapUnmapCallbackEE13GetBlockBeginEPKv _ZN11__sanitizer11FlatByteMapILy4096EEixEm 72
_ZN11__sanitizer20SizeClassAllocator32ILm0ELy4294967296ELm16ENS_12SizeClassMapILm17ELm64ELm14EEELm20ENS_11FlatByteMapILy4096EEEN6__asan20AsanMapUnmapCallbackEE13GetBlockBeginEPKv _ZN11__sanitizer12SizeClassMapILm17ELm64ELm14EE4SizeEm 76
_ZN11__sanitizer20SizeClassAllocator32ILm0ELy4294967296ELm16ENS_12SizeClassMapILm17ELm64ELm14EEELm20ENS_11FlatByteMapILy4096EEEN6__asan20AsanMapUnmapCallbackEE13GetBlockBeginEPKv __aeabi_uidiv 100
_ZN11__sanitizer20SizeClassAllocator32ILm0ELy4294967296ELm16ENS_12SizeClassMapILm17ELm64ELm14EEELm20ENS_11FlatByteMapILy4096EEEN6__asan20AsanMapUnmapCallbackEE13GetBlockBeginEPKv .LC21 116
_ZN11__sanitizer20SizeClassAllocator32ILm0ELy4294967296ELm16ENS_12SizeClassMapILm17ELm64ELm14EEELm20ENS_11FlatByteMapILy4096EEEN6__asan20AsanMapUnmapCallbackEE13GetBlockBeginEPKv .LC29 120
_ZN11__sanitizer17CombinedAllocatorINS_20SizeClassAllocator32ILm0ELy4294967296ELm16ENS_12SizeClassMapILm17ELm64ELm14EEELm20ENS_11FlatByteMapILy4096EEEN6__asan20AsanMapUnmapCallbackEEENS_28SizeClassAllocatorLocalCacheIS8_EENS_18LargeMmapAllocatorIS7_EEE23GetBlockBeginFastLockedEPv _ZN11__sanitizer20SizeClassAllocator32ILm0ELy4294967296ELm16ENS_12SizeClassMapILm17ELm64ELm14EEELm20ENS_11FlatByteMapILy4096EEEN6__asan20AsanMapUnmapCallbackEE13PointerIsMineEPKv 12
_ZN11__sanitizer17CombinedAllocatorINS_20SizeClassAllocator32ILm0ELy4294967296ELm16ENS_12SizeClassMapILm17ELm64ELm14EEELm20ENS_11FlatByteMapILy4096EEEN6__asan20AsanMapUnmapCallbackEEENS_28SizeClassAllocatorLocalCacheIS8_EENS_18LargeMmapAllocatorIS7_EEE23GetBlockBeginFastLockedEPv _ZN11__sanitizer20SizeClassAllocator32ILm0ELy4294967296ELm16ENS_12SizeClassMapILm17ELm64ELm14EEELm20ENS_11FlatByteMapILy4096EEEN6__asan20AsanMapUnmapCallbackEE13GetBlockBeginEPKv 36
_ZN11__sanitizer17CombinedAllocatorINS_20SizeClassAllocator32ILm0ELy4294967296ELm16ENS_12SizeClassMapILm17ELm64ELm14EEELm20ENS_11FlatByteMapILy4096EEEN6__asan20AsanMapUnmapCallbackEEENS_28SizeClassAllocatorLocalCacheIS8_EENS_18LargeMmapAllocatorIS7_EEE23GetBlockBeginFastLockedEPv _ZN11__sanitizer18LargeMmapAllocatorIN6__asan20AsanMapUnmapCallbackEE23GetBlockBeginFastLockedEPv 48
_ZN11__sanitizer17CombinedAllocatorINS_20SizeClassAllocator32ILm0ELy4294967296ELm16ENS_12SizeClassMapILm17ELm64ELm14EEELm20ENS_11FlatByteMapILy4096EEEN6__asan20AsanMapUnmapCallbackEEENS_28SizeClassAllocatorLocalCacheIS8_EENS_18LargeMmapAllocatorIS7_EEE13GetBlockBeginEPKv _ZN11__sanitizer20SizeClassAllocator32ILm0ELy4294967296ELm16ENS_12SizeClassMapILm17ELm64ELm14EEELm20ENS_11FlatByteMapILy4096EEEN6__asan20AsanMapUnmapCallbackEE13PointerIsMineEPKv 12
_ZN11__sanitizer17CombinedAllocatorINS_20SizeClassAllocator32ILm0ELy4294967296ELm16ENS_12SizeClassMapILm17ELm64ELm14EEELm20ENS_11FlatByteMapILy4096EEEN6__asan20AsanMapUnmapCallbackEEENS_28SizeClassAllocatorLocalCacheIS8_EENS_18LargeMmapAllocatorIS7_EEE13GetBlockBeginEPKv _ZN11__sanitizer20SizeClassAllocator32ILm0ELy4294967296ELm16ENS_12SizeClassMapILm17ELm64ELm14EEELm20ENS_11FlatByteMapILy4096EEEN6__asan20AsanMapUnmapCallbackEE13GetBlockBeginEPKv 36
_ZN11__sanitizer17CombinedAllocatorINS_20SizeClassAllocator32ILm0ELy4294967296ELm16ENS_12SizeClassMapILm17ELm64ELm14EEELm20ENS_11FlatByteMapILy4096EEEN6__asan20AsanMapUnmapCallbackEEENS_28SizeClassAllocatorLocalCacheIS8_EENS_18LargeMmapAllocatorIS7_EEE13GetBlockBeginEPKv _ZN11__sanitizer18LargeMmapAllocatorIN6__asan20AsanMapUnmapCallbackEE13GetBlockBeginEPKv 48
_ZN6__asan9AsanChunk8AllocBegEb _ZN11__sanitizer17CombinedAllocatorINS_20SizeClassAllocator32ILm0ELy4294967296ELm16ENS_12SizeClassMapILm17ELm64ELm14EEELm20ENS_11FlatByteMapILy4096EEEN6__asan20AsanMapUnmapCallbackEEENS_28SizeClassAllocatorLocalCacheIS8_EENS_18LargeMmapAllocatorIS7_EEE23GetBlockBeginFastLockedEPv 32
_ZN6__asan9AsanChunk8AllocBegEb _ZN11__sanitizer17CombinedAllocatorINS_20SizeClassAllocator32ILm0ELy4294967296ELm16ENS_12SizeClassMapILm17ELm64ELm14EEELm20ENS_11FlatByteMapILy4096EEEN6__asan20AsanMapUnmapCallbackEEENS_28SizeClassAllocatorLocalCacheIS8_EENS_18LargeMmapAllocatorIS7_EEE13GetBlockBeginEPKv 44
_ZN6__asan9AsanChunk8AllocBegEb _ZN6__asanL10RZLog2SizeEj 64
_ZN11__sanitizer28SizeClassAllocatorLocalCacheINS_20SizeClassAllocator32ILm0ELy4294967296ELm16ENS_12SizeClassMapILm17ELm64ELm14EEELm20ENS_11FlatByteMapILy4096EEEN6__asan20AsanMapUnmapCallbackEEEE9InitCacheEv _ZN11__sanitizer12SizeClassMapILm17ELm64ELm14EE4SizeEm 36
_ZN11__sanitizer28SizeClassAllocatorLocalCacheINS_20SizeClassAllocator32ILm0ELy4294967296ELm16ENS_12SizeClassMapILm17ELm64ELm14EEELm20ENS_11FlatByteMapILy4096EEEN6__asan20AsanMapUnmapCallbackEEEE9InitCacheEv __aeabi_uidiv 48
_ZN11__sanitizer18LargeMmapAllocatorIN6__asan20AsanMapUnmapCallbackEE9GetHeaderEm _ZN11__sanitizer11CheckFailedEPKciS1_yy 56
_ZN11__sanitizer18LargeMmapAllocatorIN6__asan20AsanMapUnmapCallbackEE9GetHeaderEm .LC21 72
_ZN11__sanitizer18LargeMmapAllocatorIN6__asan20AsanMapUnmapCallbackEE9GetHeaderEm .LC30 76
_ZN11__sanitizer17CombinedAllocatorINS_20SizeClassAllocator32ILm0ELy4294967296ELm16ENS_12SizeClassMapILm17ELm64ELm14EEELm20ENS_11FlatByteMapILy4096EEEN6__asan20AsanMapUnmapCallbackEEENS_28SizeClassAllocatorLocalCacheIS8_EENS_18LargeMmapAllocatorIS7_EEE11GetMetaDataEPKv _ZN11__sanitizer20SizeClassAllocator32ILm0ELy4294967296ELm16ENS_12SizeClassMapILm17ELm64ELm14EEELm20ENS_11FlatByteMapILy4096EEEN6__asan20AsanMapUnmapCallbackEE13PointerIsMineEPKv 20
_ZN11__sanitizer17CombinedAllocatorINS_20SizeClassAllocator32ILm0ELy4294967296ELm16ENS_12SizeClassMapILm17ELm64ELm14EEELm20ENS_11FlatByteMapILy4096EEEN6__asan20AsanMapUnmapCallbackEEENS_28SizeClassAllocatorLocalCacheIS8_EENS_18LargeMmapAllocatorIS7_EEE11GetMetaDataEPKv _ZN11__sanitizer11FlatByteMapILy4096EEixEm 44
_ZN11__sanitizer17CombinedAllocatorINS_20SizeClassAllocator32ILm0ELy4294967296ELm16ENS_12SizeClassMapILm17ELm64ELm14EEELm20ENS_11FlatByteMapILy4096EEEN6__asan20AsanMapUnmapCallbackEEENS_28SizeClassAllocatorLocalCacheIS8_EENS_18LargeMmapAllocatorIS7_EEE11GetMetaDataEPKv _ZN11__sanitizer12SizeClassMapILm17ELm64ELm14EE4SizeEm 48
_ZN11__sanitizer17CombinedAllocatorINS_20SizeClassAllocator32ILm0ELy4294967296ELm16ENS_12SizeClassMapILm17ELm64ELm14EEELm20ENS_11FlatByteMapILy4096EEEN6__asan20AsanMapUnmapCallbackEEENS_28SizeClassAllocatorLocalCacheIS8_EENS_18LargeMmapAllocatorIS7_EEE11GetMetaDataEPKv __aeabi_uidiv 72
_ZN11__sanitizer17CombinedAllocatorINS_20SizeClassAllocator32ILm0ELy4294967296ELm16ENS_12SizeClassMapILm17ELm64ELm14EEELm20ENS_11FlatByteMapILy4096EEEN6__asan20AsanMapUnmapCallbackEEENS_28SizeClassAllocatorLocalCacheIS8_EENS_18LargeMmapAllocatorIS7_EEE11GetMetaDataEPKv _ZN11__sanitizer6PrintfEPKcz 140
_ZN11__sanitizer17CombinedAllocatorINS_20SizeClassAllocator32ILm0ELy4294967296ELm16ENS_12SizeClassMapILm17ELm64ELm14EEELm20ENS_11FlatByteMapILy4096EEEN6__asan20AsanMapUnmapCallbackEEENS_28SizeClassAllocatorLocalCacheIS8_EENS_18LargeMmapAllocatorIS7_EEE11GetMetaDataEPKv _ZN11__sanitizer11CheckFailedEPKciS1_yy 196
_ZN11__sanitizer17CombinedAllocatorINS_20SizeClassAllocator32ILm0ELy4294967296ELm16ENS_12SizeClassMapILm17ELm64ELm14EEELm20ENS_11FlatByteMapILy4096EEEN6__asan20AsanMapUnmapCallbackEEENS_28SizeClassAllocatorLocalCacheIS8_EENS_18LargeMmapAllocatorIS7_EEE11GetMetaDataEPKv _ZN11__sanitizer18LargeMmapAllocatorIN6__asan20AsanMapUnmapCallbackEE9GetHeaderEm 208
_ZN11__sanitizer17CombinedAllocatorINS_20SizeClassAllocator32ILm0ELy4294967296ELm16ENS_12SizeClassMapILm17ELm64ELm14EEELm20ENS_11FlatByteMapILy4096EEEN6__asan20AsanMapUnmapCallbackEEENS_28SizeClassAllocatorLocalCacheIS8_EENS_18LargeMmapAllocatorIS7_EEE11GetMetaDataEPKv _ZN11__sanitizer17SanitizerToolNameE 224
_ZN11__sanitizer17CombinedAllocatorINS_20SizeClassAllocator32ILm0ELy4294967296ELm16ENS_12SizeClassMapILm17ELm64ELm14EEELm20ENS_11FlatByteMapILy4096EEEN6__asan20AsanMapUnmapCallbackEEENS_28SizeClassAllocatorLocalCacheIS8_EENS_18LargeMmapAllocatorIS7_EEE11GetMetaDataEPKv .LC31 228
_ZN11__sanitizer17CombinedAllocatorINS_20SizeClassAllocator32ILm0ELy4294967296ELm16ENS_12SizeClassMapILm17ELm64ELm14EEELm20ENS_11FlatByteMapILy4096EEEN6__asan20AsanMapUnmapCallbackEEENS_28SizeClassAllocatorLocalCacheIS8_EENS_18LargeMmapAllocatorIS7_EEE11GetMetaDataEPKv .LC21 232
_ZN11__sanitizer17CombinedAllocatorINS_20SizeClassAllocator32ILm0ELy4294967296ELm16ENS_12SizeClassMapILm17ELm64ELm14EEELm20ENS_11FlatByteMapILy4096EEEN6__asan20AsanMapUnmapCallbackEEENS_28SizeClassAllocatorLocalCacheIS8_EENS_18LargeMmapAllocatorIS7_EEE11GetMetaDataEPKv .LC32 236
_ZN6__asan9AsanChunk8UsedSizeEb _ZN6__asan9AsanChunk8AllocBegEb 16
_ZN6__asan9AsanChunk8UsedSizeEb _ZN11__sanitizer17CombinedAllocatorINS_20SizeClassAllocator32ILm0ELy4294967296ELm16ENS_12SizeClassMapILm17ELm64ELm14EEELm20ENS_11FlatByteMapILy4096EEEN6__asan20AsanMapUnmapCallbackEEENS_28SizeClassAllocatorLocalCacheIS8_EENS_18LargeMmapAllocatorIS7_EEE11GetMetaDataEPKv 32
_ZN6__asan9Allocator12GetAsanChunkEPv _ZN11__sanitizer20SizeClassAllocator32ILm0ELy4294967296ELm16ENS_12SizeClassMapILm17ELm64ELm14EEELm20ENS_11FlatByteMapILy4096EEEN6__asan20AsanMapUnmapCallbackEE13PointerIsMineEPKv 16
_ZN6__asan9Allocator12GetAsanChunkEPv _ZN11__sanitizer17CombinedAllocatorINS_20SizeClassAllocator32ILm0ELy4294967296ELm16ENS_12SizeClassMapILm17ELm64ELm14EEELm20ENS_11FlatByteMapILy4096EEEN6__asan20AsanMapUnmapCallbackEEENS_28SizeClassAllocatorLocalCacheIS8_EENS_18LargeMmapAllocatorIS7_EEE11GetMetaDataEPKv 36
_ZN6__asan9Allocator18GetAsanChunkByAddrEm _ZN11__sanitizer17CombinedAllocatorINS_20SizeClassAllocator32ILm0ELy4294967296ELm16ENS_12SizeClassMapILm17ELm64ELm14EEELm20ENS_11FlatByteMapILy4096EEEN6__asan20AsanMapUnmapCallbackEEENS_28SizeClassAllocatorLocalCacheIS8_EENS_18LargeMmapAllocatorIS7_EEE13GetBlockBeginEPKv 8
_ZN6__asan9Allocator18GetAsanChunkByAddrEm _ZN6__asan9Allocator12GetAsanChunkEPv 24
_ZN6__asan9Allocator22FindHeapChunkByAddressEm _ZN6__asan9Allocator18GetAsanChunkByAddrEm 16
_ZN6__asan9Allocator22FindHeapChunkByAddressEm _ZN11__sanitizer17GetPageSizeCachedEv 48
_ZN6__asan9Allocator22FindHeapChunkByAddressEm _ZN6__asan9Allocator18GetAsanChunkByAddrEm 68
_ZN6__asan9Allocator22FindHeapChunkByAddressEm _ZN6__asan13AsanChunkView3EndEv 108
_ZN6__asan9Allocator22FindHeapChunkByAddressEm _ZN6__asan13AsanChunkView3EndEv 128
_ZN6__asan9Allocator22FindHeapChunkByAddressEm _ZN6__asan13AsanChunkView3EndEv 192
_ZN6__asan9Allocator22FindHeapChunkByAddressEm _ZN6__asan13AsanChunkView3EndEv 208
_ZN6__asan9Allocator22FindHeapChunkByAddressEm _ZN11__sanitizer11CheckFailedEPKciS1_yy 284
_ZN6__asan9Allocator22FindHeapChunkByAddressEm .LC1 288
_ZN6__asan9Allocator22FindHeapChunkByAddressEm .LC33 292
_ZN6__asan9Allocator14AllocationSizeEm _ZN6__asan9Allocator18GetAsanChunkByAddrEm 8
_ZN6__asan9Allocator14AllocationSizeEm _ZN6__asan9AsanChunk8UsedSizeEb 52
_ZN11__sanitizer17CombinedAllocatorINS_20SizeClassAllocator32ILm0ELy4294967296ELm16ENS_12SizeClassMapILm17ELm64ELm14EEELm20ENS_11FlatByteMapILy4096EEEN6__asan20AsanMapUnmapCallbackEEENS_28SizeClassAllocatorLocalCacheIS8_EENS_18LargeMmapAllocatorIS7_EEE24GetActuallyAllocatedSizeEPv _ZN11__sanitizer20SizeClassAllocator32ILm0ELy4294967296ELm16ENS_12SizeClassMapILm17ELm64ELm14EEELm20ENS_11FlatByteMapILy4096EEEN6__asan20AsanMapUnmapCallbackEE13PointerIsMineEPKv 12
_ZN11__sanitizer17CombinedAllocatorINS_20SizeClassAllocator32ILm0ELy4294967296ELm16ENS_12SizeClassMapILm17ELm64ELm14EEELm20ENS_11FlatByteMapILy4096EEEN6__asan20AsanMapUnmapCallbackEEENS_28SizeClassAllocatorLocalCacheIS8_EENS_18LargeMmapAllocatorIS7_EEE24GetActuallyAllocatedSizeEPv _ZN11__sanitizer11FlatByteMapILy4096EEixEm 32
_ZN11__sanitizer17CombinedAllocatorINS_20SizeClassAllocator32ILm0ELy4294967296ELm16ENS_12SizeClassMapILm17ELm64ELm14EEELm20ENS_11FlatByteMapILy4096EEEN6__asan20AsanMapUnmapCallbackEEENS_28SizeClassAllocatorLocalCacheIS8_EENS_18LargeMmapAllocatorIS7_EEE24GetActuallyAllocatedSizeEPv _ZN11__sanitizer12SizeClassMapILm17ELm64ELm14EE4SizeEm 40
_ZN11__sanitizer17CombinedAllocatorINS_20SizeClassAllocator32ILm0ELy4294967296ELm16ENS_12SizeClassMapILm17ELm64ELm14EEELm20ENS_11FlatByteMapILy4096EEEN6__asan20AsanMapUnmapCallbackEEENS_28SizeClassAllocatorLocalCacheIS8_EENS_18LargeMmapAllocatorIS7_EEE24GetActuallyAllocatedSizeEPv _ZN11__sanitizer18LargeMmapAllocatorIN6__asan20AsanMapUnmapCallbackEE9GetHeaderEm 52
_ZN11__sanitizer17CombinedAllocatorINS_20SizeClassAllocator32ILm0ELy4294967296ELm16ENS_12SizeClassMapILm17ELm64ELm14EEELm20ENS_11FlatByteMapILy4096EEEN6__asan20AsanMapUnmapCallbackEEENS_28SizeClassAllocatorLocalCacheIS8_EENS_18LargeMmapAllocatorIS7_EEE24GetActuallyAllocatedSizeEPv _ZN11__sanitizer9RoundUpToEmm 72
_ZN11__sanitizer18LargeMmapAllocatorIN6__asan20AsanMapUnmapCallbackEE8AllocateEPNS_14AllocatorStatsEmm _ZN11__sanitizer11CheckFailedEPKciS1_yy 64
_ZN11__sanitizer18LargeMmapAllocatorIN6__asan20AsanMapUnmapCallbackEE8AllocateEPNS_14AllocatorStatsEmm _ZN11__sanitizer9RoundUpToEmm 92
_ZN11__sanitizer18LargeMmapAllocatorIN6__asan20AsanMapUnmapCallbackEE8AllocateEPNS_14AllocatorStatsEmm __sync_synchronize 124
_ZN11__sanitizer18LargeMmapAllocatorIN6__asan20AsanMapUnmapCallbackEE8AllocateEPNS_14AllocatorStatsEmm _ZN11__sanitizer31ReportAllocatorCannotReturnNullEv 144
_ZN11__sanitizer18LargeMmapAllocatorIN6__asan20AsanMapUnmapCallbackEE8AllocateEPNS_14AllocatorStatsEmm _ZN11__sanitizer9MmapOrDieEmPKc 160
_ZN11__sanitizer18LargeMmapAllocatorIN6__asan20AsanMapUnmapCallbackEE8AllocateEPNS_14AllocatorStatsEmm _ZNK6__asan20AsanMapUnmapCallback5OnMapEmm 244
_ZN11__sanitizer18LargeMmapAllocatorIN6__asan20AsanMapUnmapCallbackEE8AllocateEPNS_14AllocatorStatsEmm _ZN11__sanitizer18LargeMmapAllocatorIN6__asan20AsanMapUnmapCallbackEE9GetHeaderEm 500
_ZN11__sanitizer18LargeMmapAllocatorIN6__asan20AsanMapUnmapCallbackEE8AllocateEPNS_14AllocatorStatsEmm _ZN11__sanitizer26MostSignificantSetBitIndexEm 524
_ZN11__sanitizer18LargeMmapAllocatorIN6__asan20AsanMapUnmapCallbackEE8AllocateEPNS_14AllocatorStatsEmm _ZN11__sanitizer15StaticSpinMutex4LockEv 600
_ZN11__sanitizer18LargeMmapAllocatorIN6__asan20AsanMapUnmapCallbackEE8AllocateEPNS_14AllocatorStatsEmm _ZN11__sanitizer17GenericScopedLockINS_15StaticSpinMutexEED1Ev 780
_ZN11__sanitizer18LargeMmapAllocatorIN6__asan20AsanMapUnmapCallbackEE8AllocateEPNS_14AllocatorStatsEmm .LC21 796
_ZN11__sanitizer18LargeMmapAllocatorIN6__asan20AsanMapUnmapCallbackEE8AllocateEPNS_14AllocatorStatsEmm .LC35 800
_ZN11__sanitizer18LargeMmapAllocatorIN6__asan20AsanMapUnmapCallbackEE8AllocateEPNS_14AllocatorStatsEmm .LC36 808
_ZN11__sanitizer18LargeMmapAllocatorIN6__asan20AsanMapUnmapCallbackEE8AllocateEPNS_14AllocatorStatsEmm .LC21 812
_ZN11__sanitizer18LargeMmapAllocatorIN6__asan20AsanMapUnmapCallbackEE8AllocateEPNS_14AllocatorStatsEmm .LC37 816
_ZN11__sanitizer18LargeMmapAllocatorIN6__asan20AsanMapUnmapCallbackEE8AllocateEPNS_14AllocatorStatsEmm .LC21 824
_ZN11__sanitizer18LargeMmapAllocatorIN6__asan20AsanMapUnmapCallbackEE8AllocateEPNS_14AllocatorStatsEmm .LC38 828
_ZN11__sanitizer18LargeMmapAllocatorIN6__asan20AsanMapUnmapCallbackEE8AllocateEPNS_14AllocatorStatsEmm .LC21 836
_ZN11__sanitizer18LargeMmapAllocatorIN6__asan20AsanMapUnmapCallbackEE8AllocateEPNS_14AllocatorStatsEmm .LC39 840
_ZN11__sanitizer18LargeMmapAllocatorIN6__asan20AsanMapUnmapCallbackEE8AllocateEPNS_14AllocatorStatsEmm .LC21 848
_ZN11__sanitizer18LargeMmapAllocatorIN6__asan20AsanMapUnmapCallbackEE8AllocateEPNS_14AllocatorStatsEmm .LC40 852
_ZN11__sanitizer18LargeMmapAllocatorIN6__asan20AsanMapUnmapCallbackEE8AllocateEPNS_14AllocatorStatsEmm .LC21 856
_ZN11__sanitizer18LargeMmapAllocatorIN6__asan20AsanMapUnmapCallbackEE8AllocateEPNS_14AllocatorStatsEmm .LC41 860
_ZN11__sanitizer18LargeMmapAllocatorIN6__asan20AsanMapUnmapCallbackEE8AllocateEPNS_14AllocatorStatsEmm .LC21 868
_ZN11__sanitizer18LargeMmapAllocatorIN6__asan20AsanMapUnmapCallbackEE8AllocateEPNS_14AllocatorStatsEmm .LC42 872
_ZN11__sanitizer18LargeMmapAllocatorIN6__asan20AsanMapUnmapCallbackEE8AllocateEPNS_14AllocatorStatsEmm .LC21 884
_ZN11__sanitizer18LargeMmapAllocatorIN6__asan20AsanMapUnmapCallbackEE8AllocateEPNS_14AllocatorStatsEmm .LC43 888
_ZN11__sanitizer20SizeClassAllocator32ILm0ELy4294967296ELm16ENS_12SizeClassMapILm17ELm64ELm14EEELm20ENS_11FlatByteMapILy4096EEEN6__asan20AsanMapUnmapCallbackEE16GetSizeClassInfoEm _ZN11__sanitizer11CheckFailedEPKciS1_yy 60
_ZN11__sanitizer20SizeClassAllocator32ILm0ELy4294967296ELm16ENS_12SizeClassMapILm17ELm64ELm14EEELm20ENS_11FlatByteMapILy4096EEEN6__asan20AsanMapUnmapCallbackEE16GetSizeClassInfoEm .LC21 80
_ZN11__sanitizer20SizeClassAllocator32ILm0ELy4294967296ELm16ENS_12SizeClassMapILm17ELm64ELm14EEELm20ENS_11FlatByteMapILy4096EEEN6__asan20AsanMapUnmapCallbackEE16GetSizeClassInfoEm .LC44 84
_ZN11__sanitizer20SizeClassAllocator32ILm0ELy4294967296ELm16ENS_12SizeClassMapILm17ELm64ELm14EEELm20ENS_11FlatByteMapILy4096EEEN6__asan20AsanMapUnmapCallbackEE9ForceLockEv _ZN11__sanitizer20SizeClassAllocator32ILm0ELy4294967296ELm16ENS_12SizeClassMapILm17ELm64ELm14EEELm20ENS_11FlatByteMapILy4096EEEN6__asan20AsanMapUnmapCallbackEE16GetSizeClassInfoEm 20
_ZN11__sanitizer20SizeClassAllocator32ILm0ELy4294967296ELm16ENS_12SizeClassMapILm17ELm64ELm14EEELm20ENS_11FlatByteMapILy4096EEEN6__asan20AsanMapUnmapCallbackEE9ForceLockEv _ZN11__sanitizer15StaticSpinMutex4LockEv 28
_ZN11__sanitizer20SizeClassAllocator32ILm0ELy4294967296ELm16ENS_12SizeClassMapILm17ELm64ELm14EEELm20ENS_11FlatByteMapILy4096EEEN6__asan20AsanMapUnmapCallbackEE11ForceUnlockEv _ZN11__sanitizer20SizeClassAllocator32ILm0ELy4294967296ELm16ENS_12SizeClassMapILm17ELm64ELm14EEELm20ENS_11FlatByteMapILy4096EEEN6__asan20AsanMapUnmapCallbackEE16GetSizeClassInfoEm 24
_ZN11__sanitizer20SizeClassAllocator32ILm0ELy4294967296ELm16ENS_12SizeClassMapILm17ELm64ELm14EEELm20ENS_11FlatByteMapILy4096EEEN6__asan20AsanMapUnmapCallbackEE11ForceUnlockEv __sync_synchronize 32
_ZN11__sanitizer20SizeClassAllocator32ILm0ELy4294967296ELm16ENS_12SizeClassMapILm17ELm64ELm14EEELm20ENS_11FlatByteMapILy4096EEEN6__asan20AsanMapUnmapCallbackEE15DeallocateBatchEPNS_14AllocatorStatsEmPNS2_13TransferBatchE.isra.19 _ZN11__sanitizer11CheckFailedEPKciS1_yy 68
_ZN11__sanitizer20SizeClassAllocator32ILm0ELy4294967296ELm16ENS_12SizeClassMapILm17ELm64ELm14EEELm20ENS_11FlatByteMapILy4096EEEN6__asan20AsanMapUnmapCallbackEE15DeallocateBatchEPNS_14AllocatorStatsEmPNS2_13TransferBatchE.isra.19 _ZN11__sanitizer20SizeClassAllocator32ILm0ELy4294967296ELm16ENS_12SizeClassMapILm17ELm64ELm14EEELm20ENS_11FlatByteMapILy4096EEEN6__asan20AsanMapUnmapCallbackEE16GetSizeClassInfoEm 72
_ZN11__sanitizer20SizeClassAllocator32ILm0ELy4294967296ELm16ENS_12SizeClassMapILm17ELm64ELm14EEELm20ENS_11FlatByteMapILy4096EEEN6__asan20AsanMapUnmapCallbackEE15DeallocateBatchEPNS_14AllocatorStatsEmPNS2_13TransferBatchE.isra.19 _ZN11__sanitizer15StaticSpinMutex4LockEv 84
_ZN11__sanitizer20SizeClassAllocator32ILm0ELy4294967296ELm16ENS_12SizeClassMapILm17ELm64ELm14EEELm20ENS_11FlatByteMapILy4096EEEN6__asan20AsanMapUnmapCallbackEE15DeallocateBatchEPNS_14AllocatorStatsEmPNS2_13TransferBatchE.isra.19 _ZN11__sanitizer17GenericScopedLockINS_15StaticSpinMutexEED1Ev 188
_ZN11__sanitizer20SizeClassAllocator32ILm0ELy4294967296ELm16ENS_12SizeClassMapILm17ELm64ELm14EEELm20ENS_11FlatByteMapILy4096EEEN6__asan20AsanMapUnmapCallbackEE15DeallocateBatchEPNS_14AllocatorStatsEmPNS2_13TransferBatchE.isra.19 .LC21 200
_ZN11__sanitizer20SizeClassAllocator32ILm0ELy4294967296ELm16ENS_12SizeClassMapILm17ELm64ELm14EEELm20ENS_11FlatByteMapILy4096EEEN6__asan20AsanMapUnmapCallbackEE15DeallocateBatchEPNS_14AllocatorStatsEmPNS2_13TransferBatchE.isra.19 .LC44 204
_ZN11__sanitizer20SizeClassAllocator32ILm0ELy4294967296ELm16ENS_12SizeClassMapILm17ELm64ELm14EEELm20ENS_11FlatByteMapILy4096EEEN6__asan20AsanMapUnmapCallbackEE15DeallocateBatchEPNS_14AllocatorStatsEmPNS2_13TransferBatchE.isra.19 .LC21 212
_ZN11__sanitizer20SizeClassAllocator32ILm0ELy4294967296ELm16ENS_12SizeClassMapILm17ELm64ELm14EEELm20ENS_11FlatByteMapILy4096EEEN6__asan20AsanMapUnmapCallbackEE15DeallocateBatchEPNS_14AllocatorStatsEmPNS2_13TransferBatchE.isra.19 .LC45 216
_ZN11__sanitizer12SizeClassMapILm17ELm64ELm14EE38SizeClassRequiresSeparateTransferBatchEm _ZN11__sanitizer12SizeClassMapILm17ELm64ELm14EE4SizeEm 8
_ZN11__sanitizer12SizeClassMapILm17ELm64ELm14EE38SizeClassRequiresSeparateTransferBatchEm __aeabi_uidiv 36
_ZN11__sanitizer13IntrusiveListINS_15QuarantineBatchEE9pop_frontEv _ZN11__sanitizer11CheckFailedEPKciS1_yy 52
_ZN11__sanitizer13IntrusiveListINS_15QuarantineBatchEE9pop_frontEv .LC47 92
_ZN11__sanitizer13IntrusiveListINS_15QuarantineBatchEE9pop_frontEv .LC46 96
_ZN11__sanitizer20SizeClassAllocator32ILm0ELy4294967296ELm16ENS_12SizeClassMapILm17ELm64ELm14EEELm20ENS_11FlatByteMapILy4096EEEN6__asan20AsanMapUnmapCallbackEE14AllocateRegionEPNS_14AllocatorStatsEm _ZN11__sanitizer11CheckFailedEPKciS1_yy 64
_ZN11__sanitizer20SizeClassAllocator32ILm0ELy4294967296ELm16ENS_12SizeClassMapILm17ELm64ELm14EEELm20ENS_11FlatByteMapILy4096EEEN6__asan20AsanMapUnmapCallbackEE14AllocateRegionEPNS_14AllocatorStatsEm _ZN11__sanitizer16MmapAlignedOrDieEmmPKc 92
_ZN11__sanitizer20SizeClassAllocator32ILm0ELy4294967296ELm16ENS_12SizeClassMapILm17ELm64ELm14EEELm20ENS_11FlatByteMapILy4096EEEN6__asan20AsanMapUnmapCallbackEE14AllocateRegionEPNS_14AllocatorStatsEm _ZNK6__asan20AsanMapUnmapCallback5OnMapEmm 112
_ZN11__sanitizer20SizeClassAllocator32ILm0ELy4294967296ELm16ENS_12SizeClassMapILm17ELm64ELm14EEELm20ENS_11FlatByteMapILy4096EEEN6__asan20AsanMapUnmapCallbackEE14AllocateRegionEPNS_14AllocatorStatsEm .LC21 264
_ZN11__sanitizer20SizeClassAllocator32ILm0ELy4294967296ELm16ENS_12SizeClassMapILm17ELm64ELm14EEELm20ENS_11FlatByteMapILy4096EEEN6__asan20AsanMapUnmapCallbackEE14AllocateRegionEPNS_14AllocatorStatsEm .LC44 268
_ZN11__sanitizer20SizeClassAllocator32ILm0ELy4294967296ELm16ENS_12SizeClassMapILm17ELm64ELm14EEELm20ENS_11FlatByteMapILy4096EEEN6__asan20AsanMapUnmapCallbackEE14AllocateRegionEPNS_14AllocatorStatsEm .LC48 276
_ZN11__sanitizer20SizeClassAllocator32ILm0ELy4294967296ELm16ENS_12SizeClassMapILm17ELm64ELm14EEELm20ENS_11FlatByteMapILy4096EEEN6__asan20AsanMapUnmapCallbackEE14AllocateRegionEPNS_14AllocatorStatsEm .LC21 280
_ZN11__sanitizer20SizeClassAllocator32ILm0ELy4294967296ELm16ENS_12SizeClassMapILm17ELm64ELm14EEELm20ENS_11FlatByteMapILy4096EEEN6__asan20AsanMapUnmapCallbackEE14AllocateRegionEPNS_14AllocatorStatsEm .LC49 284
_ZN11__sanitizer20SizeClassAllocator32ILm0ELy4294967296ELm16ENS_12SizeClassMapILm17ELm64ELm14EEELm20ENS_11FlatByteMapILy4096EEEN6__asan20AsanMapUnmapCallbackEE14AllocateRegionEPNS_14AllocatorStatsEm .LC21 292
_ZN11__sanitizer20SizeClassAllocator32ILm0ELy4294967296ELm16ENS_12SizeClassMapILm17ELm64ELm14EEELm20ENS_11FlatByteMapILy4096EEEN6__asan20AsanMapUnmapCallbackEE14AllocateRegionEPNS_14AllocatorStatsEm .LC50 296
_ZN11__sanitizer20SizeClassAllocator32ILm0ELy4294967296ELm16ENS_12SizeClassMapILm17ELm64ELm14EEELm20ENS_11FlatByteMapILy4096EEEN6__asan20AsanMapUnmapCallbackEE16PopulateFreeListEPNS_14AllocatorStatsEPNS_28SizeClassAllocatorLocalCacheIS7_EEPNS7_13SizeClassInfoEm _ZN11__sanitizer12SizeClassMapILm17ELm64ELm14EE4SizeEm 32
_ZN11__sanitizer20SizeClassAllocator32ILm0ELy4294967296ELm16ENS_12SizeClassMapILm17ELm64ELm14EEELm20ENS_11FlatByteMapILy4096EEEN6__asan20AsanMapUnmapCallbackEE16PopulateFreeListEPNS_14AllocatorStatsEPNS_28SizeClassAllocatorLocalCacheIS7_EEPNS7_13SizeClassInfoEm _ZN11__sanitizer20SizeClassAllocator32ILm0ELy4294967296ELm16ENS_12SizeClassMapILm17ELm64ELm14EEELm20ENS_11FlatByteMapILy4096EEEN6__asan20AsanMapUnmapCallbackEE14AllocateRegionEPNS_14AllocatorStatsEm 52
_ZN11__sanitizer20SizeClassAllocator32ILm0ELy4294967296ELm16ENS_12SizeClassMapILm17ELm64ELm14EEELm20ENS_11FlatByteMapILy4096EEEN6__asan20AsanMapUnmapCallbackEE16PopulateFreeListEPNS_14AllocatorStatsEPNS_28SizeClassAllocatorLocalCacheIS7_EEPNS7_13SizeClassInfoEm __aeabi_uidiv 68
_ZN11__sanitizer20SizeClassAllocator32ILm0ELy4294967296ELm16ENS_12SizeClassMapILm17ELm64ELm14EEELm20ENS_11FlatByteMapILy4096EEEN6__asan20AsanMapUnmapCallbackEE16PopulateFreeListEPNS_14AllocatorStatsEPNS_28SizeClassAllocatorLocalCacheIS7_EEPNS7_13SizeClassInfoEm __aeabi_uidiv 96
_ZN11__sanitizer20SizeClassAllocator32ILm0ELy4294967296ELm16ENS_12SizeClassMapILm17ELm64ELm14EEELm20ENS_11FlatByteMapILy4096EEEN6__asan20AsanMapUnmapCallbackEE16PopulateFreeListEPNS_14AllocatorStatsEPNS_28SizeClassAllocatorLocalCacheIS7_EEPNS7_13SizeClassInfoEm _ZN11__sanitizer12SizeClassMapILm17ELm64ELm14EE38SizeClassRequiresSeparateTransferBatchEm 156
_ZN11__sanitizer20SizeClassAllocator32ILm0ELy4294967296ELm16ENS_12SizeClassMapILm17ELm64ELm14EEELm20ENS_11FlatByteMapILy4096EEEN6__asan20AsanMapUnmapCallbackEE16PopulateFreeListEPNS_14AllocatorStatsEPNS_28SizeClassAllocatorLocalCacheIS7_EEPNS7_13SizeClassInfoEm _ZN11__sanitizer12SizeClassMapILm17ELm64ELm14EE7ClassIDEm.part.3 176
_ZN11__sanitizer20SizeClassAllocator32ILm0ELy4294967296ELm16ENS_12SizeClassMapILm17ELm64ELm14EEELm20ENS_11FlatByteMapILy4096EEEN6__asan20AsanMapUnmapCallbackEE16PopulateFreeListEPNS_14AllocatorStatsEPNS_28SizeClassAllocatorLocalCacheIS7_EEPNS7_13SizeClassInfoEm _ZN11__sanitizer28SizeClassAllocatorLocalCacheINS_20SizeClassAllocator32ILm0ELy4294967296ELm16ENS_12SizeClassMapILm17ELm64ELm14EEELm20ENS_11FlatByteMapILy4096EEEN6__asan20AsanMapUnmapCallbackEEEE8AllocateEPS8_m 192
_ZN11__sanitizer20SizeClassAllocator32ILm0ELy4294967296ELm16ENS_12SizeClassMapILm17ELm64ELm14EEELm20ENS_11FlatByteMapILy4096EEEN6__asan20AsanMapUnmapCallbackEE16PopulateFreeListEPNS_14AllocatorStatsEPNS_28SizeClassAllocatorLocalCacheIS7_EEPNS7_13SizeClassInfoEm _ZN11__sanitizer11CheckFailedEPKciS1_yy 272
_ZN11__sanitizer20SizeClassAllocator32ILm0ELy4294967296ELm16ENS_12SizeClassMapILm17ELm64ELm14EEELm20ENS_11FlatByteMapILy4096EEEN6__asan20AsanMapUnmapCallbackEE16PopulateFreeListEPNS_14AllocatorStatsEPNS_28SizeClassAllocatorLocalCacheIS7_EEPNS7_13SizeClassInfoEm .LC21 472
_ZN11__sanitizer20SizeClassAllocator32ILm0ELy4294967296ELm16ENS_12SizeClassMapILm17ELm64ELm14EEELm20ENS_11FlatByteMapILy4096EEEN6__asan20AsanMapUnmapCallbackEE16PopulateFreeListEPNS_14AllocatorStatsEPNS_28SizeClassAllocatorLocalCacheIS7_EEPNS7_13SizeClassInfoEm .LC45 476
_ZN11__sanitizer20SizeClassAllocator32ILm0ELy4294967296ELm16ENS_12SizeClassMapILm17ELm64ELm14EEELm20ENS_11FlatByteMapILy4096EEEN6__asan20AsanMapUnmapCallbackEE16PopulateFreeListEPNS_14AllocatorStatsEPNS_28SizeClassAllocatorLocalCacheIS7_EEPNS7_13SizeClassInfoEm .LC21 484
_ZN11__sanitizer20SizeClassAllocator32ILm0ELy4294967296ELm16ENS_12SizeClassMapILm17ELm64ELm14EEELm20ENS_11FlatByteMapILy4096EEEN6__asan20AsanMapUnmapCallbackEE16PopulateFreeListEPNS_14AllocatorStatsEPNS_28SizeClassAllocatorLocalCacheIS7_EEPNS7_13SizeClassInfoEm .LC45 488
_ZN11__sanitizer20SizeClassAllocator32ILm0ELy4294967296ELm16ENS_12SizeClassMapILm17ELm64ELm14EEELm20ENS_11FlatByteMapILy4096EEEN6__asan20AsanMapUnmapCallbackEE13AllocateBatchEPNS_14AllocatorStatsEPNS_28SizeClassAllocatorLocalCacheIS7_EEm _ZN11__sanitizer11CheckFailedEPKciS1_yy 64
_ZN11__sanitizer20SizeClassAllocator32ILm0ELy4294967296ELm16ENS_12SizeClassMapILm17ELm64ELm14EEELm20ENS_11FlatByteMapILy4096EEEN6__asan20AsanMapUnmapCallbackEE13AllocateBatchEPNS_14AllocatorStatsEPNS_28SizeClassAllocatorLocalCacheIS7_EEm _ZN11__sanitizer20SizeClassAllocator32ILm0ELy4294967296ELm16ENS_12SizeClassMapILm17ELm64ELm14EEELm20ENS_11FlatByteMapILy4096EEEN6__asan20AsanMapUnmapCallbackEE16GetSizeClassInfoEm 88
_ZN11__sanitizer20SizeClassAllocator32ILm0ELy4294967296ELm16ENS_12SizeClassMapILm17ELm64ELm14EEELm20ENS_11FlatByteMapILy4096EEEN6__asan20AsanMapUnmapCallbackEE13AllocateBatchEPNS_14AllocatorStatsEPNS_28SizeClassAllocatorLocalCacheIS7_EEm _ZN11__sanitizer15StaticSpinMutex4LockEv 100
_ZN11__sanitizer20SizeClassAllocator32ILm0ELy4294967296ELm16ENS_12SizeClassMapILm17ELm64ELm14EEELm20ENS_11FlatByteMapILy4096EEEN6__asan20AsanMapUnmapCallbackEE13AllocateBatchEPNS_14AllocatorStatsEPNS_28SizeClassAllocatorLocalCacheIS7_EEm _ZN11__sanitizer20SizeClassAllocator32ILm0ELy4294967296ELm16ENS_12SizeClassMapILm17ELm64ELm14EEELm20ENS_11FlatByteMapILy4096EEEN6__asan20AsanMapUnmapCallbackEE16PopulateFreeListEPNS_14AllocatorStatsEPNS_28SizeClassAllocatorLocalCacheIS7_EEPNS7_13SizeClassInfoEm 136
_ZN11__sanitizer20SizeClassAllocator32ILm0ELy4294967296ELm16ENS_12SizeClassMapILm17ELm64ELm14EEELm20ENS_11FlatByteMapILy4096EEEN6__asan20AsanMapUnmapCallbackEE13AllocateBatchEPNS_14AllocatorStatsEPNS_28SizeClassAllocatorLocalCacheIS7_EEm _ZN11__sanitizer17GenericScopedLockINS_15StaticSpinMutexEED1Ev 224
_ZN11__sanitizer20SizeClassAllocator32ILm0ELy4294967296ELm16ENS_12SizeClassMapILm17ELm64ELm14EEELm20ENS_11FlatByteMapILy4096EEEN6__asan20AsanMapUnmapCallbackEE13AllocateBatchEPNS_14AllocatorStatsEPNS_28SizeClassAllocatorLocalCacheIS7_EEm .LC21 240
_ZN11__sanitizer20SizeClassAllocator32ILm0ELy4294967296ELm16ENS_12SizeClassMapILm17ELm64ELm14EEELm20ENS_11FlatByteMapILy4096EEEN6__asan20AsanMapUnmapCallbackEE13AllocateBatchEPNS_14AllocatorStatsEPNS_28SizeClassAllocatorLocalCacheIS7_EEm .LC44 244
_ZN11__sanitizer20SizeClassAllocator32ILm0ELy4294967296ELm16ENS_12SizeClassMapILm17ELm64ELm14EEELm20ENS_11FlatByteMapILy4096EEEN6__asan20AsanMapUnmapCallbackEE13AllocateBatchEPNS_14AllocatorStatsEPNS_28SizeClassAllocatorLocalCacheIS7_EEm .LC21 252
_ZN11__sanitizer20SizeClassAllocator32ILm0ELy4294967296ELm16ENS_12SizeClassMapILm17ELm64ELm14EEELm20ENS_11FlatByteMapILy4096EEEN6__asan20AsanMapUnmapCallbackEE13AllocateBatchEPNS_14AllocatorStatsEPNS_28SizeClassAllocatorLocalCacheIS7_EEm .LC51 256
_ZN11__sanitizer28SizeClassAllocatorLocalCacheINS_20SizeClassAllocator32ILm0ELy4294967296ELm16ENS_12SizeClassMapILm17ELm64ELm14EEELm20ENS_11FlatByteMapILy4096EEEN6__asan20AsanMapUnmapCallbackEEEE6RefillEPS8_m _ZN11__sanitizer28SizeClassAllocatorLocalCacheINS_20SizeClassAllocator32ILm0ELy4294967296ELm16ENS_12SizeClassMapILm17ELm64ELm14EEELm20ENS_11FlatByteMapILy4096EEEN6__asan20AsanMapUnmapCallbackEEEE9InitCacheEv 20
_ZN11__sanitizer28SizeClassAllocatorLocalCacheINS_20SizeClassAllocator32ILm0ELy4294967296ELm16ENS_12SizeClassMapILm17ELm64ELm14EEELm20ENS_11FlatByteMapILy4096EEEN6__asan20AsanMapUnmapCallbackEEEE6RefillEPS8_m _ZN11__sanitizer20SizeClassAllocator32ILm0ELy4294967296ELm16ENS_12SizeClassMapILm17ELm64ELm14EEELm20ENS_11FlatByteMapILy4096EEEN6__asan20AsanMapUnmapCallbackEE13AllocateBatchEPNS_14AllocatorStatsEPNS_28SizeClassAllocatorLocalCacheIS7_EEm 44
_ZN11__sanitizer28SizeClassAllocatorLocalCacheINS_20SizeClassAllocator32ILm0ELy4294967296ELm16ENS_12SizeClassMapILm17ELm64ELm14EEELm20ENS_11FlatByteMapILy4096EEEN6__asan20AsanMapUnmapCallbackEEEE6RefillEPS8_m _ZN11__sanitizer11CheckFailedEPKciS1_yy 96
_ZN11__sanitizer28SizeClassAllocatorLocalCacheINS_20SizeClassAllocator32ILm0ELy4294967296ELm16ENS_12SizeClassMapILm17ELm64ELm14EEELm20ENS_11FlatByteMapILy4096EEEN6__asan20AsanMapUnmapCallbackEEEE6RefillEPS8_m _ZN11__sanitizer12SizeClassMapILm17ELm64ELm14EE38SizeClassRequiresSeparateTransferBatchEm 156
_ZN11__sanitizer28SizeClassAllocatorLocalCacheINS_20SizeClassAllocator32ILm0ELy4294967296ELm16ENS_12SizeClassMapILm17ELm64ELm14EEELm20ENS_11FlatByteMapILy4096EEEN6__asan20AsanMapUnmapCallbackEEEE6RefillEPS8_m _ZN11__sanitizer12SizeClassMapILm17ELm64ELm14EE7ClassIDEm.part.3 172
_ZN11__sanitizer28SizeClassAllocatorLocalCacheINS_20SizeClassAllocator32ILm0ELy4294967296ELm16ENS_12SizeClassMapILm17ELm64ELm14EEELm20ENS_11FlatByteMapILy4096EEEN6__asan20AsanMapUnmapCallbackEEEE6RefillEPS8_m _ZN11__sanitizer28SizeClassAllocatorLocalCacheINS_20SizeClassAllocator32ILm0ELy4294967296ELm16ENS_12SizeClassMapILm17ELm64ELm14EEELm20ENS_11FlatByteMapILy4096EEEN6__asan20AsanMapUnmapCallbackEEEE10DeallocateEPS8_mPv 200
_ZN11__sanitizer28SizeClassAllocatorLocalCacheINS_20SizeClassAllocator32ILm0ELy4294967296ELm16ENS_12SizeClassMapILm17ELm64ELm14EEELm20ENS_11FlatByteMapILy4096EEEN6__asan20AsanMapUnmapCallbackEEEE6RefillEPS8_m .LC21 212
_ZN11__sanitizer28SizeClassAllocatorLocalCacheINS_20SizeClassAllocator32ILm0ELy4294967296ELm16ENS_12SizeClassMapILm17ELm64ELm14EEELm20ENS_11FlatByteMapILy4096EEEN6__asan20AsanMapUnmapCallbackEEEE6RefillEPS8_m .LC45 216
_ZN11__sanitizer28SizeClassAllocatorLocalCacheINS_20SizeClassAllocator32ILm0ELy4294967296ELm16ENS_12SizeClassMapILm17ELm64ELm14EEELm20ENS_11FlatByteMapILy4096EEEN6__asan20AsanMapUnmapCallbackEEEE8AllocateEPS8_m _ZN11__sanitizer11CheckFailedEPKciS1_yy 56
_ZN11__sanitizer28SizeClassAllocatorLocalCacheINS_20SizeClassAllocator32ILm0ELy4294967296ELm16ENS_12SizeClassMapILm17ELm64ELm14EEELm20ENS_11FlatByteMapILy4096EEEN6__asan20AsanMapUnmapCallbackEEEE8AllocateEPS8_m _ZN11__sanitizer12SizeClassMapILm17ELm64ELm14EE4SizeEm 120
_ZN11__sanitizer28SizeClassAllocatorLocalCacheINS_20SizeClassAllocator32ILm0ELy4294967296ELm16ENS_12SizeClassMapILm17ELm64ELm14EEELm20ENS_11FlatByteMapILy4096EEEN6__asan20AsanMapUnmapCallbackEEEE8AllocateEPS8_m _ZN11__sanitizer28SizeClassAllocatorLocalCacheINS_20SizeClassAllocator32ILm0ELy4294967296ELm16ENS_12SizeClassMapILm17ELm64ELm14EEELm20ENS_11FlatByteMapILy4096EEEN6__asan20AsanMapUnmapCallbackEEEE6RefillEPS8_m 172
_ZN11__sanitizer28SizeClassAllocatorLocalCacheINS_20SizeClassAllocator32ILm0ELy4294967296ELm16ENS_12SizeClassMapILm17ELm64ELm14EEELm20ENS_11FlatByteMapILy4096EEEN6__asan20AsanMapUnmapCallbackEEEE8AllocateEPS8_m .LC21 228
_ZN11__sanitizer28SizeClassAllocatorLocalCacheINS_20SizeClassAllocator32ILm0ELy4294967296ELm16ENS_12SizeClassMapILm17ELm64ELm14EEELm20ENS_11FlatByteMapILy4096EEEN6__asan20AsanMapUnmapCallbackEEEE8AllocateEPS8_m .LC52 232
_ZN11__sanitizer28SizeClassAllocatorLocalCacheINS_20SizeClassAllocator32ILm0ELy4294967296ELm16ENS_12SizeClassMapILm17ELm64ELm14EEELm20ENS_11FlatByteMapILy4096EEEN6__asan20AsanMapUnmapCallbackEEEE8AllocateEPS8_m .LC21 240
_ZN11__sanitizer28SizeClassAllocatorLocalCacheINS_20SizeClassAllocator32ILm0ELy4294967296ELm16ENS_12SizeClassMapILm17ELm64ELm14EEELm20ENS_11FlatByteMapILy4096EEEN6__asan20AsanMapUnmapCallbackEEEE8AllocateEPS8_m .LC44 244
_ZN11__sanitizer28SizeClassAllocatorLocalCacheINS_20SizeClassAllocator32ILm0ELy4294967296ELm16ENS_12SizeClassMapILm17ELm64ELm14EEELm20ENS_11FlatByteMapILy4096EEEN6__asan20AsanMapUnmapCallbackEEEE5DrainEPS8_m _ZN11__sanitizer28SizeClassAllocatorLocalCacheINS_20SizeClassAllocator32ILm0ELy4294967296ELm16ENS_12SizeClassMapILm17ELm64ELm14EEELm20ENS_11FlatByteMapILy4096EEEN6__asan20AsanMapUnmapCallbackEEEE9InitCacheEv 16
_ZN11__sanitizer28SizeClassAllocatorLocalCacheINS_20SizeClassAllocator32ILm0ELy4294967296ELm16ENS_12SizeClassMapILm17ELm64ELm14EEELm20ENS_11FlatByteMapILy4096EEEN6__asan20AsanMapUnmapCallbackEEEE5DrainEPS8_m _ZN11__sanitizer12SizeClassMapILm17ELm64ELm14EE38SizeClassRequiresSeparateTransferBatchEm 24
_ZN11__sanitizer28SizeClassAllocatorLocalCacheINS_20SizeClassAllocator32ILm0ELy4294967296ELm16ENS_12SizeClassMapILm17ELm64ELm14EEELm20ENS_11FlatByteMapILy4096EEEN6__asan20AsanMapUnmapCallbackEEEE5DrainEPS8_m _ZN11__sanitizer12SizeClassMapILm17ELm64ELm14EE7ClassIDEm.part.3 40
_ZN11__sanitizer28SizeClassAllocatorLocalCacheINS_20SizeClassAllocator32ILm0ELy4294967296ELm16ENS_12SizeClassMapILm17ELm64ELm14EEELm20ENS_11FlatByteMapILy4096EEEN6__asan20AsanMapUnmapCallbackEEEE5DrainEPS8_m _ZN11__sanitizer28SizeClassAllocatorLocalCacheINS_20SizeClassAllocator32ILm0ELy4294967296ELm16ENS_12SizeClassMapILm17ELm64ELm14EEELm20ENS_11FlatByteMapILy4096EEEN6__asan20AsanMapUnmapCallbackEEEE8AllocateEPS8_m 56
_ZN11__sanitizer28SizeClassAllocatorLocalCacheINS_20SizeClassAllocator32ILm0ELy4294967296ELm16ENS_12SizeClassMapILm17ELm64ELm14EEELm20ENS_11FlatByteMapILy4096EEEN6__asan20AsanMapUnmapCallbackEEEE5DrainEPS8_m _ZN11__sanitizer11CheckFailedEPKciS1_yy 244
_ZN11__sanitizer28SizeClassAllocatorLocalCacheINS_20SizeClassAllocator32ILm0ELy4294967296ELm16ENS_12SizeClassMapILm17ELm64ELm14EEELm20ENS_11FlatByteMapILy4096EEEN6__asan20AsanMapUnmapCallbackEEEE5DrainEPS8_m _ZN11__sanitizer20SizeClassAllocator32ILm0ELy4294967296ELm16ENS_12SizeClassMapILm17ELm64ELm14EEELm20ENS_11FlatByteMapILy4096EEEN6__asan20AsanMapUnmapCallbackEE15DeallocateBatchEPNS_14AllocatorStatsEmPNS2_13TransferBatchE.isra.19 264
_ZN11__sanitizer28SizeClassAllocatorLocalCacheINS_20SizeClassAllocator32ILm0ELy4294967296ELm16ENS_12SizeClassMapILm17ELm64ELm14EEELm20ENS_11FlatByteMapILy4096EEEN6__asan20AsanMapUnmapCallbackEEEE5DrainEPS8_m .LC21 268
_ZN11__sanitizer28SizeClassAllocatorLocalCacheINS_20SizeClassAllocator32ILm0ELy4294967296ELm16ENS_12SizeClassMapILm17ELm64ELm14EEELm20ENS_11FlatByteMapILy4096EEEN6__asan20AsanMapUnmapCallbackEEEE5DrainEPS8_m .LC45 272
_ZN11__sanitizer28SizeClassAllocatorLocalCacheINS_20SizeClassAllocator32ILm0ELy4294967296ELm16ENS_12SizeClassMapILm17ELm64ELm14EEELm20ENS_11FlatByteMapILy4096EEEN6__asan20AsanMapUnmapCallbackEEEE10DeallocateEPS8_mPv _ZN11__sanitizer11CheckFailedEPKciS1_yy 56
_ZN11__sanitizer28SizeClassAllocatorLocalCacheINS_20SizeClassAllocator32ILm0ELy4294967296ELm16ENS_12SizeClassMapILm17ELm64ELm14EEELm20ENS_11FlatByteMapILy4096EEEN6__asan20AsanMapUnmapCallbackEEEE10DeallocateEPS8_mPv _ZN11__sanitizer28SizeClassAllocatorLocalCacheINS_20SizeClassAllocator32ILm0ELy4294967296ELm16ENS_12SizeClassMapILm17ELm64ELm14EEELm20ENS_11FlatByteMapILy4096EEEN6__asan20AsanMapUnmapCallbackEEEE9InitCacheEv 116
_ZN11__sanitizer28SizeClassAllocatorLocalCacheINS_20SizeClassAllocator32ILm0ELy4294967296ELm16ENS_12SizeClassMapILm17ELm64ELm14EEELm20ENS_11FlatByteMapILy4096EEEN6__asan20AsanMapUnmapCallbackEEEE10DeallocateEPS8_mPv _ZN11__sanitizer12SizeClassMapILm17ELm64ELm14EE4SizeEm 124
_ZN11__sanitizer28SizeClassAllocatorLocalCacheINS_20SizeClassAllocator32ILm0ELy4294967296ELm16ENS_12SizeClassMapILm17ELm64ELm14EEELm20ENS_11FlatByteMapILy4096EEEN6__asan20AsanMapUnmapCallbackEEEE10DeallocateEPS8_mPv _ZN11__sanitizer28SizeClassAllocatorLocalCacheINS_20SizeClassAllocator32ILm0ELy4294967296ELm16ENS_12SizeClassMapILm17ELm64ELm14EEELm20ENS_11FlatByteMapILy4096EEEN6__asan20AsanMapUnmapCallbackEEEE5DrainEPS8_m 232
_ZN11__sanitizer28SizeClassAllocatorLocalCacheINS_20SizeClassAllocator32ILm0ELy4294967296ELm16ENS_12SizeClassMapILm17ELm64ELm14EEELm20ENS_11FlatByteMapILy4096EEEN6__asan20AsanMapUnmapCallbackEEEE10DeallocateEPS8_mPv .LC21 272
_ZN11__sanitizer28SizeClassAllocatorLocalCacheINS_20SizeClassAllocator32ILm0ELy4294967296ELm16ENS_12SizeClassMapILm17ELm64ELm14EEELm20ENS_11FlatByteMapILy4096EEEN6__asan20AsanMapUnmapCallbackEEEE10DeallocateEPS8_mPv .LC52 276
_ZN11__sanitizer28SizeClassAllocatorLocalCacheINS_20SizeClassAllocator32ILm0ELy4294967296ELm16ENS_12SizeClassMapILm17ELm64ELm14EEELm20ENS_11FlatByteMapILy4096EEEN6__asan20AsanMapUnmapCallbackEEEE10DeallocateEPS8_mPv .LC21 284
_ZN11__sanitizer28SizeClassAllocatorLocalCacheINS_20SizeClassAllocator32ILm0ELy4294967296ELm16ENS_12SizeClassMapILm17ELm64ELm14EEELm20ENS_11FlatByteMapILy4096EEEN6__asan20AsanMapUnmapCallbackEEEE10DeallocateEPS8_mPv .LC44 288
_ZN11__sanitizer28SizeClassAllocatorLocalCacheINS_20SizeClassAllocator32ILm0ELy4294967296ELm16ENS_12SizeClassMapILm17ELm64ELm14EEELm20ENS_11FlatByteMapILy4096EEEN6__asan20AsanMapUnmapCallbackEEEE10DeallocateEPS8_mPv .LC21 296
_ZN11__sanitizer28SizeClassAllocatorLocalCacheINS_20SizeClassAllocator32ILm0ELy4294967296ELm16ENS_12SizeClassMapILm17ELm64ELm14EEELm20ENS_11FlatByteMapILy4096EEEN6__asan20AsanMapUnmapCallbackEEEE10DeallocateEPS8_mPv .LC53 300
_ZN11__sanitizer17CombinedAllocatorINS_20SizeClassAllocator32ILm0ELy4294967296ELm16ENS_12SizeClassMapILm17ELm64ELm14EEELm20ENS_11FlatByteMapILy4096EEEN6__asan20AsanMapUnmapCallbackEEENS_28SizeClassAllocatorLocalCacheIS8_EENS_18LargeMmapAllocatorIS7_EEE10DeallocateEPSA_Pv _ZN11__sanitizer20SizeClassAllocator32ILm0ELy4294967296ELm16ENS_12SizeClassMapILm17ELm64ELm14EEELm20ENS_11FlatByteMapILy4096EEEN6__asan20AsanMapUnmapCallbackEE13PointerIsMineEPKv 28
_ZN11__sanitizer17CombinedAllocatorINS_20SizeClassAllocator32ILm0ELy4294967296ELm16ENS_12SizeClassMapILm17ELm64ELm14EEELm20ENS_11FlatByteMapILy4096EEEN6__asan20AsanMapUnmapCallbackEEENS_28SizeClassAllocatorLocalCacheIS8_EENS_18LargeMmapAllocatorIS7_EEE10DeallocateEPSA_Pv _ZN11__sanitizer11FlatByteMapILy4096EEixEm 48
_ZN11__sanitizer17CombinedAllocatorINS_20SizeClassAllocator32ILm0ELy4294967296ELm16ENS_12SizeClassMapILm17ELm64ELm14EEELm20ENS_11FlatByteMapILy4096EEEN6__asan20AsanMapUnmapCallbackEEENS_28SizeClassAllocatorLocalCacheIS8_EENS_18LargeMmapAllocatorIS7_EEE10DeallocateEPSA_Pv _ZN11__sanitizer28SizeClassAllocatorLocalCacheINS_20SizeClassAllocator32ILm0ELy4294967296ELm16ENS_12SizeClassMapILm17ELm64ELm14EEELm20ENS_11FlatByteMapILy4096EEEN6__asan20AsanMapUnmapCallbackEEEE10DeallocateEPS8_mPv 68
_ZN11__sanitizer17CombinedAllocatorINS_20SizeClassAllocator32ILm0ELy4294967296ELm16ENS_12SizeClassMapILm17ELm64ELm14EEELm20ENS_11FlatByteMapILy4096EEEN6__asan20AsanMapUnmapCallbackEEENS_28SizeClassAllocatorLocalCacheIS8_EENS_18LargeMmapAllocatorIS7_EEE10DeallocateEPSA_Pv _ZN11__sanitizer18LargeMmapAllocatorIN6__asan20AsanMapUnmapCallbackEE9GetHeaderEm 92
_ZN11__sanitizer17CombinedAllocatorINS_20SizeClassAllocator32ILm0ELy4294967296ELm16ENS_12SizeClassMapILm17ELm64ELm14EEELm20ENS_11FlatByteMapILy4096EEEN6__asan20AsanMapUnmapCallbackEEENS_28SizeClassAllocatorLocalCacheIS8_EENS_18LargeMmapAllocatorIS7_EEE10DeallocateEPSA_Pv _ZN11__sanitizer15StaticSpinMutex4LockEv 116
_ZN11__sanitizer17CombinedAllocatorINS_20SizeClassAllocator32ILm0ELy4294967296ELm16ENS_12SizeClassMapILm17ELm64ELm14EEELm20ENS_11FlatByteMapILy4096EEEN6__asan20AsanMapUnmapCallbackEEENS_28SizeClassAllocatorLocalCacheIS8_EENS_18LargeMmapAllocatorIS7_EEE10DeallocateEPSA_Pv _ZN11__sanitizer11CheckFailedEPKciS1_yy 184
_ZN11__sanitizer17CombinedAllocatorINS_20SizeClassAllocator32ILm0ELy4294967296ELm16ENS_12SizeClassMapILm17ELm64ELm14EEELm20ENS_11FlatByteMapILy4096EEEN6__asan20AsanMapUnmapCallbackEEENS_28SizeClassAllocatorLocalCacheIS8_EENS_18LargeMmapAllocatorIS7_EEE10DeallocateEPSA_Pv _ZN11__sanitizer17GenericScopedLockINS_15StaticSpinMutexEED1Ev 348
_ZN11__sanitizer17CombinedAllocatorINS_20SizeClassAllocator32ILm0ELy4294967296ELm16ENS_12SizeClassMapILm17ELm64ELm14EEELm20ENS_11FlatByteMapILy4096EEEN6__asan20AsanMapUnmapCallbackEEENS_28SizeClassAllocatorLocalCacheIS8_EENS_18LargeMmapAllocatorIS7_EEE10DeallocateEPSA_Pv _ZNK6__asan20AsanMapUnmapCallback7OnUnmapEmm 360
_ZN11__sanitizer17CombinedAllocatorINS_20SizeClassAllocator32ILm0ELy4294967296ELm16ENS_12SizeClassMapILm17ELm64ELm14EEELm20ENS_11FlatByteMapILy4096EEEN6__asan20AsanMapUnmapCallbackEEENS_28SizeClassAllocatorLocalCacheIS8_EENS_18LargeMmapAllocatorIS7_EEE10DeallocateEPSA_Pv _ZN11__sanitizer10UnmapOrDieEPvm 368
_ZN11__sanitizer17CombinedAllocatorINS_20SizeClassAllocator32ILm0ELy4294967296ELm16ENS_12SizeClassMapILm17ELm64ELm14EEELm20ENS_11FlatByteMapILy4096EEEN6__asan20AsanMapUnmapCallbackEEENS_28SizeClassAllocatorLocalCacheIS8_EENS_18LargeMmapAllocatorIS7_EEE10DeallocateEPSA_Pv .LC54 380
_ZN11__sanitizer17CombinedAllocatorINS_20SizeClassAllocator32ILm0ELy4294967296ELm16ENS_12SizeClassMapILm17ELm64ELm14EEELm20ENS_11FlatByteMapILy4096EEEN6__asan20AsanMapUnmapCallbackEEENS_28SizeClassAllocatorLocalCacheIS8_EENS_18LargeMmapAllocatorIS7_EEE10DeallocateEPSA_Pv .LC21 384
_ZN11__sanitizer17CombinedAllocatorINS_20SizeClassAllocator32ILm0ELy4294967296ELm16ENS_12SizeClassMapILm17ELm64ELm14EEELm20ENS_11FlatByteMapILy4096EEEN6__asan20AsanMapUnmapCallbackEEENS_28SizeClassAllocatorLocalCacheIS8_EENS_18LargeMmapAllocatorIS7_EEE10DeallocateEPSA_Pv .LC55 392
_ZN11__sanitizer17CombinedAllocatorINS_20SizeClassAllocator32ILm0ELy4294967296ELm16ENS_12SizeClassMapILm17ELm64ELm14EEELm20ENS_11FlatByteMapILy4096EEEN6__asan20AsanMapUnmapCallbackEEENS_28SizeClassAllocatorLocalCacheIS8_EENS_18LargeMmapAllocatorIS7_EEE10DeallocateEPSA_Pv .LC21 396
_ZN6__asan18QuarantineCallback7RecycleEPNS_9AsanChunkE _ZN11__sanitizer11CheckFailedEPKciS1_yy 64
_ZN6__asan18QuarantineCallback7RecycleEPNS_9AsanChunkE _ZN6__asan9AsanChunk8UsedSizeEb 204
_ZN6__asan18QuarantineCallback7RecycleEPNS_9AsanChunkE _ZN11__sanitizer9RoundUpToEmm 212
_ZN6__asan18QuarantineCallback7RecycleEPNS_9AsanChunkE _ZN6__asan12PoisonShadowEmmh 228
_ZN6__asan18QuarantineCallback7RecycleEPNS_9AsanChunkE _ZN6__asan9AsanChunk8AllocBegEb 240
_ZN6__asan18QuarantineCallback7RecycleEPNS_9AsanChunkE _ZN6__asan21GetCurrentThreadStatsEv 380
_ZN6__asan18QuarantineCallback7RecycleEPNS_9AsanChunkE _ZN6__asan9AsanChunk8UsedSizeEb 408
_ZN6__asan18QuarantineCallback7RecycleEPNS_9AsanChunkE _ZN11__sanitizer17CombinedAllocatorINS_20SizeClassAllocator32ILm0ELy4294967296ELm16ENS_12SizeClassMapILm17ELm64ELm14EEELm20ENS_11FlatByteMapILy4096EEEN6__asan20AsanMapUnmapCallbackEEENS_28SizeClassAllocatorLocalCacheIS8_EENS_18LargeMmapAllocatorIS7_EEE10DeallocateEPSA_Pv 448
_ZN6__asan18QuarantineCallback7RecycleEPNS_9AsanChunkE .LC1 464
_ZN6__asan18QuarantineCallback7RecycleEPNS_9AsanChunkE .LC56 468
_ZN6__asan18QuarantineCallback7RecycleEPNS_9AsanChunkE .LC1 472
_ZN6__asan18QuarantineCallback7RecycleEPNS_9AsanChunkE .LC57 476
_ZN6__asan18QuarantineCallback7RecycleEPNS_9AsanChunkE .LC1 480
_ZN6__asan18QuarantineCallback7RecycleEPNS_9AsanChunkE .LC58 484
_ZN6__asan18QuarantineCallback7RecycleEPNS_9AsanChunkE .LC1 488
_ZN6__asan18QuarantineCallback7RecycleEPNS_9AsanChunkE .LC59 492
_ZN6__asan18QuarantineCallback7RecycleEPNS_9AsanChunkE .LC1 496
_ZN6__asan18QuarantineCallback7RecycleEPNS_9AsanChunkE .LC60 500
_ZN11__sanitizer10QuarantineIN6__asan18QuarantineCallbackENS1_9AsanChunkEE9DoRecycleEPNS_15QuarantineCacheIS2_EES2_.isra.21 _ZN11__sanitizer13IntrusiveListINS_15QuarantineBatchEE9pop_frontEv 44
_ZN11__sanitizer10QuarantineIN6__asan18QuarantineCallbackENS1_9AsanChunkEE9DoRecycleEPNS_15QuarantineCacheIS2_EES2_.isra.21 _ZN6__asan18QuarantineCallback7RecycleEPNS_9AsanChunkE 124
_ZN11__sanitizer10QuarantineIN6__asan18QuarantineCallbackENS1_9AsanChunkEE9DoRecycleEPNS_15QuarantineCacheIS2_EES2_.isra.21 _ZN11__sanitizer17CombinedAllocatorINS_20SizeClassAllocator32ILm0ELy4294967296ELm16ENS_12SizeClassMapILm17ELm64ELm14EEELm20ENS_11FlatByteMapILy4096EEEN6__asan20AsanMapUnmapCallbackEEENS_28SizeClassAllocatorLocalCacheIS8_EENS_18LargeMmapAllocatorIS7_EEE10DeallocateEPSA_Pv 152
_ZN11__sanitizer10QuarantineIN6__asan18QuarantineCallbackENS1_9AsanChunkEE7RecycleES2_ __sync_synchronize 40
_ZN11__sanitizer10QuarantineIN6__asan18QuarantineCallbackENS1_9AsanChunkEE7RecycleES2_ _ZN11__sanitizer15StaticSpinMutex4LockEv 52
_ZN11__sanitizer10QuarantineIN6__asan18QuarantineCallbackENS1_9AsanChunkEE7RecycleES2_ _ZN11__sanitizer13IntrusiveListINS_15QuarantineBatchEE9pop_frontEv 100
_ZN11__sanitizer10QuarantineIN6__asan18QuarantineCallbackENS1_9AsanChunkEE7RecycleES2_ _ZN11__sanitizer17GenericScopedLockINS_15StaticSpinMutexEED1Ev 192
_ZN11__sanitizer10QuarantineIN6__asan18QuarantineCallbackENS1_9AsanChunkEE7RecycleES2_ __sync_synchronize 196
_ZN11__sanitizer10QuarantineIN6__asan18QuarantineCallbackENS1_9AsanChunkEE7RecycleES2_ _ZN11__sanitizer10QuarantineIN6__asan18QuarantineCallbackENS1_9AsanChunkEE9DoRecycleEPNS_15QuarantineCacheIS2_EES2_.isra.21 216
_ZN11__sanitizer10QuarantineIN6__asan18QuarantineCallbackENS1_9AsanChunkEE5DrainEPNS_15QuarantineCacheIS2_EES2_ _ZN11__sanitizer15StaticSpinMutex4LockEv 28
_ZN11__sanitizer10QuarantineIN6__asan18QuarantineCallbackENS1_9AsanChunkEE5DrainEPNS_15QuarantineCacheIS2_EES2_ _ZN11__sanitizer11CheckFailedEPKciS1_yy 88
_ZN11__sanitizer10QuarantineIN6__asan18QuarantineCallbackENS1_9AsanChunkEE5DrainEPNS_15QuarantineCacheIS2_EES2_ _ZN11__sanitizer17GenericScopedLockINS_15StaticSpinMutexEED1Ev 192
_ZN11__sanitizer10QuarantineIN6__asan18QuarantineCallbackENS1_9AsanChunkEE5DrainEPNS_15QuarantineCacheIS2_EES2_ __sync_synchronize 204
_ZN11__sanitizer10QuarantineIN6__asan18QuarantineCallbackENS1_9AsanChunkEE5DrainEPNS_15QuarantineCacheIS2_EES2_ __sync_lock_test_and_set_1 224
_ZN11__sanitizer10QuarantineIN6__asan18QuarantineCallbackENS1_9AsanChunkEE5DrainEPNS_15QuarantineCacheIS2_EES2_ _ZN11__sanitizer10QuarantineIN6__asan18QuarantineCallbackENS1_9AsanChunkEE7RecycleES2_ 244
_ZN11__sanitizer10QuarantineIN6__asan18QuarantineCallbackENS1_9AsanChunkEE5DrainEPNS_15QuarantineCacheIS2_EES2_ .LC47 256
_ZN11__sanitizer10QuarantineIN6__asan18QuarantineCallbackENS1_9AsanChunkEE5DrainEPNS_15QuarantineCacheIS2_EES2_ .LC61 260
_ZN11__sanitizer17CombinedAllocatorINS_20SizeClassAllocator32ILm0ELy4294967296ELm16ENS_12SizeClassMapILm17ELm64ELm14EEELm20ENS_11FlatByteMapILy4096EEEN6__asan20AsanMapUnmapCallbackEEENS_28SizeClassAllocatorLocalCacheIS8_EENS_18LargeMmapAllocatorIS7_EEE8AllocateEPSA_mmbb _ZN11__sanitizer17CombinedAllocatorINS_20SizeClassAllocator32ILm0ELy4294967296ELm16ENS_12SizeClassMapILm17ELm64ELm14EEELm20ENS_11FlatByteMapILy4096EEEN6__asan20AsanMapUnmapCallbackEEENS_28SizeClassAllocatorLocalCacheIS8_EENS_18LargeMmapAllocatorIS7_EEE15ReturnNullOrDieEv 44
_ZN11__sanitizer17CombinedAllocatorINS_20SizeClassAllocator32ILm0ELy4294967296ELm16ENS_12SizeClassMapILm17ELm64ELm14EEELm20ENS_11FlatByteMapILy4096EEEN6__asan20AsanMapUnmapCallbackEEENS_28SizeClassAllocatorLocalCacheIS8_EENS_18LargeMmapAllocatorIS7_EEE8AllocateEPSA_mmbb __sync_synchronize 76
_ZN11__sanitizer17CombinedAllocatorINS_20SizeClassAllocator32ILm0ELy4294967296ELm16ENS_12SizeClassMapILm17ELm64ELm14EEELm20ENS_11FlatByteMapILy4096EEEN6__asan20AsanMapUnmapCallbackEEENS_28SizeClassAllocatorLocalCacheIS8_EENS_18LargeMmapAllocatorIS7_EEE8AllocateEPSA_mmbb _ZN11__sanitizer9RoundUpToEmm 108
_ZN11__sanitizer17CombinedAllocatorINS_20SizeClassAllocator32ILm0ELy4294967296ELm16ENS_12SizeClassMapILm17ELm64ELm14EEELm20ENS_11FlatByteMapILy4096EEEN6__asan20AsanMapUnmapCallbackEEENS_28SizeClassAllocatorLocalCacheIS8_EENS_18LargeMmapAllocatorIS7_EEE8AllocateEPSA_mmbb _ZN11__sanitizer12SizeClassMapILm17ELm64ELm14EE7ClassIDEm 140
_ZN11__sanitizer17CombinedAllocatorINS_20SizeClassAllocator32ILm0ELy4294967296ELm16ENS_12SizeClassMapILm17ELm64ELm14EEELm20ENS_11FlatByteMapILy4096EEEN6__asan20AsanMapUnmapCallbackEEENS_28SizeClassAllocatorLocalCacheIS8_EENS_18LargeMmapAllocatorIS7_EEE8AllocateEPSA_mmbb _ZN11__sanitizer28SizeClassAllocatorLocalCacheINS_20SizeClassAllocator32ILm0ELy4294967296ELm16ENS_12SizeClassMapILm17ELm64ELm14EEELm20ENS_11FlatByteMapILy4096EEEN6__asan20AsanMapUnmapCallbackEEEE8AllocateEPS8_m 156
_ZN11__sanitizer17CombinedAllocatorINS_20SizeClassAllocator32ILm0ELy4294967296ELm16ENS_12SizeClassMapILm17ELm64ELm14EEELm20ENS_11FlatByteMapILy4096EEEN6__asan20AsanMapUnmapCallbackEEENS_28SizeClassAllocatorLocalCacheIS8_EENS_18LargeMmapAllocatorIS7_EEE8AllocateEPSA_mmbb _ZN11__sanitizer9RoundUpToEmm 204
_ZN11__sanitizer17CombinedAllocatorINS_20SizeClassAllocator32ILm0ELy4294967296ELm16ENS_12SizeClassMapILm17ELm64ELm14EEELm20ENS_11FlatByteMapILy4096EEEN6__asan20AsanMapUnmapCallbackEEENS_28SizeClassAllocatorLocalCacheIS8_EENS_18LargeMmapAllocatorIS7_EEE8AllocateEPSA_mmbb _ZN11__sanitizer24internal_bzero_aligned16EPvm 216
_ZN11__sanitizer17CombinedAllocatorINS_20SizeClassAllocator32ILm0ELy4294967296ELm16ENS_12SizeClassMapILm17ELm64ELm14EEELm20ENS_11FlatByteMapILy4096EEEN6__asan20AsanMapUnmapCallbackEEENS_28SizeClassAllocatorLocalCacheIS8_EENS_18LargeMmapAllocatorIS7_EEE8AllocateEPSA_mmbb _ZN11__sanitizer18LargeMmapAllocatorIN6__asan20AsanMapUnmapCallbackEE8AllocateEPNS_14AllocatorStatsEmm 252
_ZN11__sanitizer17CombinedAllocatorINS_20SizeClassAllocator32ILm0ELy4294967296ELm16ENS_12SizeClassMapILm17ELm64ELm14EEELm20ENS_11FlatByteMapILy4096EEEN6__asan20AsanMapUnmapCallbackEEENS_28SizeClassAllocatorLocalCacheIS8_EENS_18LargeMmapAllocatorIS7_EEE8AllocateEPSA_mmbb _ZN11__sanitizer11CheckFailedEPKciS1_yy 324
_ZN11__sanitizer17CombinedAllocatorINS_20SizeClassAllocator32ILm0ELy4294967296ELm16ENS_12SizeClassMapILm17ELm64ELm14EEELm20ENS_11FlatByteMapILy4096EEEN6__asan20AsanMapUnmapCallbackEEENS_28SizeClassAllocatorLocalCacheIS8_EENS_18LargeMmapAllocatorIS7_EEE8AllocateEPSA_mmbb .LC21 336
_ZN11__sanitizer17CombinedAllocatorINS_20SizeClassAllocator32ILm0ELy4294967296ELm16ENS_12SizeClassMapILm17ELm64ELm14EEELm20ENS_11FlatByteMapILy4096EEEN6__asan20AsanMapUnmapCallbackEEENS_28SizeClassAllocatorLocalCacheIS8_EENS_18LargeMmapAllocatorIS7_EEE8AllocateEPSA_mmbb .LC62 340
_ZN6__asan9Allocator8AllocateEmmPN11__sanitizer18BufferedStackTraceENS_9AllocTypeEb _ZN6__asan15AsanInitFromRtlEv 52
_ZN6__asan9Allocator8AllocateEmmPN11__sanitizer18BufferedStackTraceENS_9AllocTypeEb _ZN11__sanitizer11CheckFailedEPKciS1_yy 104
_ZN6__asan9Allocator8AllocateEmmPN11__sanitizer18BufferedStackTraceENS_9AllocTypeEb __sync_synchronize 272
_ZN6__asan9Allocator8AllocateEmmPN11__sanitizer18BufferedStackTraceENS_9AllocTypeEb __sync_synchronize 280
_ZN6__asan9Allocator8AllocateEmmPN11__sanitizer18BufferedStackTraceENS_9AllocTypeEb _ZN6__asanL10RZSize2LogEj 288
_ZN6__asan9Allocator8AllocateEmmPN11__sanitizer18BufferedStackTraceENS_9AllocTypeEb _ZN6__asanL10RZSize2LogEj 304
_ZN6__asan9Allocator8AllocateEmmPN11__sanitizer18BufferedStackTraceENS_9AllocTypeEb _ZN6__asanL10RZLog2SizeEj 328
_ZN6__asan9Allocator8AllocateEmmPN11__sanitizer18BufferedStackTraceENS_9AllocTypeEb _ZN11__sanitizer9RoundUpToEmm 352
_ZN6__asan9Allocator8AllocateEmmPN11__sanitizer18BufferedStackTraceENS_9AllocTypeEb _ZN11__sanitizer6ReportEPKcz 472
_ZN6__asan9Allocator8AllocateEmmPN11__sanitizer18BufferedStackTraceENS_9AllocTypeEb _ZN11__sanitizer17CombinedAllocatorINS_20SizeClassAllocator32ILm0ELy4294967296ELm16ENS_12SizeClassMapILm17ELm64ELm14EEELm20ENS_11FlatByteMapILy4096EEEN6__asan20AsanMapUnmapCallbackEEENS_28SizeClassAllocatorLocalCacheIS8_EENS_18LargeMmapAllocatorIS7_EEE15ReturnNullOrDieEv 480
_ZN6__asan9Allocator8AllocateEmmPN11__sanitizer18BufferedStackTraceENS_9AllocTypeEb _ZN6__asan16GetCurrentThreadEv 500
_ZN6__asan9Allocator8AllocateEmmPN11__sanitizer18BufferedStackTraceENS_9AllocTypeEb _ZN6__asan17GetAllocatorCacheEPNS_28AsanThreadLocalMallocStorageE 520
_ZN6__asan9Allocator8AllocateEmmPN11__sanitizer18BufferedStackTraceENS_9AllocTypeEb _ZN11__sanitizer17CombinedAllocatorINS_20SizeClassAllocator32ILm0ELy4294967296ELm16ENS_12SizeClassMapILm17ELm64ELm14EEELm20ENS_11FlatByteMapILy4096EEEN6__asan20AsanMapUnmapCallbackEEENS_28SizeClassAllocatorLocalCacheIS8_EENS_18LargeMmapAllocatorIS7_EEE8AllocateEPSA_mmbb 552
_ZN6__asan9Allocator8AllocateEmmPN11__sanitizer18BufferedStackTraceENS_9AllocTypeEb _ZN6__asan15CanPoisonMemoryEv 588
_ZN6__asan9Allocator8AllocateEmmPN11__sanitizer18BufferedStackTraceENS_9AllocTypeEb _ZN11__sanitizer9RoundUpToEmm 636
_ZN6__asan9Allocator8AllocateEmmPN11__sanitizer18BufferedStackTraceENS_9AllocTypeEb _ZN11__sanitizer15StaticSpinMutex4LockEv 720
_ZN6__asan9Allocator8AllocateEmmPN11__sanitizer18BufferedStackTraceENS_9AllocTypeEb _ZN11__sanitizer17CombinedAllocatorINS_20SizeClassAllocator32ILm0ELy4294967296ELm16ENS_12SizeClassMapILm17ELm64ELm14EEELm20ENS_11FlatByteMapILy4096EEEN6__asan20AsanMapUnmapCallbackEEENS_28SizeClassAllocatorLocalCacheIS8_EENS_18LargeMmapAllocatorIS7_EEE8AllocateEPSA_mmbb 756
_ZN6__asan9Allocator8AllocateEmmPN11__sanitizer18BufferedStackTraceENS_9AllocTypeEb _ZN11__sanitizer17GenericScopedLockINS_15StaticSpinMutexEED1Ev 768
_ZN6__asan9Allocator8AllocateEmmPN11__sanitizer18BufferedStackTraceENS_9AllocTypeEb _ZN11__sanitizer20SizeClassAllocator32ILm0ELy4294967296ELm16ENS_12SizeClassMapILm17ELm64ELm14EEELm20ENS_11FlatByteMapILy4096EEEN6__asan20AsanMapUnmapCallbackEE13PointerIsMineEPKv 1044
_ZN6__asan9Allocator8AllocateEmmPN11__sanitizer18BufferedStackTraceENS_9AllocTypeEb _ZN11__sanitizer17CombinedAllocatorINS_20SizeClassAllocator32ILm0ELy4294967296ELm16ENS_12SizeClassMapILm17ELm64ELm14EEELm20ENS_11FlatByteMapILy4096EEEN6__asan20AsanMapUnmapCallbackEEENS_28SizeClassAllocatorLocalCacheIS8_EENS_18LargeMmapAllocatorIS7_EEE11GetMetaDataEPKv 1112
_ZN6__asan9Allocator8AllocateEmmPN11__sanitizer18BufferedStackTraceENS_9AllocTypeEb _ZN11__sanitizer13StackDepotPutENS_10StackTraceE 1128
_ZN6__asan9Allocator8AllocateEmmPN11__sanitizer18BufferedStackTraceENS_9AllocTypeEb _ZN6__asan15CanPoisonMemoryEv 1144
_ZN6__asan9Allocator8AllocateEmmPN11__sanitizer18BufferedStackTraceENS_9AllocTypeEb _ZN6__asan21GetCurrentThreadStatsEv 1156
_ZN6__asan9Allocator8AllocateEmmPN11__sanitizer18BufferedStackTraceENS_9AllocTypeEb _ZN11__sanitizer12SizeClassMapILm17ELm64ELm14EE7ClassIDEm 1228
_ZN6__asan9Allocator8AllocateEmmPN11__sanitizer18BufferedStackTraceENS_9AllocTypeEb __sync_synchronize 1316
_ZN6__asan9Allocator8AllocateEmmPN11__sanitizer18BufferedStackTraceENS_9AllocTypeEb __sanitizer_malloc_hook 1352
_ZN6__asan9Allocator8AllocateEmmPN11__sanitizer18BufferedStackTraceENS_9AllocTypeEb _ZN6__asan12PoisonShadowEmmh 1372
_ZN6__asan9Allocator8AllocateEmmPN11__sanitizer18BufferedStackTraceENS_9AllocTypeEb _ZN11__sanitizer17CombinedAllocatorINS_20SizeClassAllocator32ILm0ELy4294967296ELm16ENS_12SizeClassMapILm17ELm64ELm14EEELm20ENS_11FlatByteMapILy4096EEEN6__asan20AsanMapUnmapCallbackEEENS_28SizeClassAllocatorLocalCacheIS8_EENS_18LargeMmapAllocatorIS7_EEE24GetActuallyAllocatedSizeEPv 1396
_ZN6__asan9Allocator8AllocateEmmPN11__sanitizer18BufferedStackTraceENS_9AllocTypeEb _ZN6__asan12PoisonShadowEmmh 1412
_ZN6__asan9Allocator8AllocateEmmPN11__sanitizer18BufferedStackTraceENS_9AllocTypeEb _ZN11__sanitizer20SizeClassAllocator32ILm0ELy4294967296ELm16ENS_12SizeClassMapILm17ELm64ELm14EEELm20ENS_11FlatByteMapILy4096EEEN6__asan20AsanMapUnmapCallbackEE13PointerIsMineEPKv 1432
_ZN6__asan9Allocator8AllocateEmmPN11__sanitizer18BufferedStackTraceENS_9AllocTypeEb _ZN6__asan11asan_initedE 1700
_ZN6__asan9Allocator8AllocateEmmPN11__sanitizer18BufferedStackTraceENS_9AllocTypeEb .LC1 1704
_ZN6__asan9Allocator8AllocateEmmPN11__sanitizer18BufferedStackTraceENS_9AllocTypeEb .LC63 1708
_ZN6__asan9Allocator8AllocateEmmPN11__sanitizer18BufferedStackTraceENS_9AllocTypeEb .LC1 1716
_ZN6__asan9Allocator8AllocateEmmPN11__sanitizer18BufferedStackTraceENS_9AllocTypeEb .LC35 1720
_ZN6__asan9Allocator8AllocateEmmPN11__sanitizer18BufferedStackTraceENS_9AllocTypeEb .LC1 1728
_ZN6__asan9Allocator8AllocateEmmPN11__sanitizer18BufferedStackTraceENS_9AllocTypeEb .LC64 1732
_ZN6__asan9Allocator8AllocateEmmPN11__sanitizer18BufferedStackTraceENS_9AllocTypeEb .LC65 1740
_ZN6__asan9Allocator8AllocateEmmPN11__sanitizer18BufferedStackTraceENS_9AllocTypeEb .LC1 1744
_ZN6__asan9Allocator8AllocateEmmPN11__sanitizer18BufferedStackTraceENS_9AllocTypeEb .LC66 1748
_ZN6__asan9Allocator8AllocateEmmPN11__sanitizer18BufferedStackTraceENS_9AllocTypeEb .LC1 1756
_ZN6__asan9Allocator8AllocateEmmPN11__sanitizer18BufferedStackTraceENS_9AllocTypeEb .LC67 1760
_ZN6__asan9Allocator8AllocateEmmPN11__sanitizer18BufferedStackTraceENS_9AllocTypeEb .LC1 1764
_ZN6__asan9Allocator8AllocateEmmPN11__sanitizer18BufferedStackTraceENS_9AllocTypeEb .LC68 1768
_ZN6__asan9Allocator8AllocateEmmPN11__sanitizer18BufferedStackTraceENS_9AllocTypeEb .LC1 1776
_ZN6__asan9Allocator8AllocateEmmPN11__sanitizer18BufferedStackTraceENS_9AllocTypeEb .LC70 1780
_ZN6__asan9Allocator8AllocateEmmPN11__sanitizer18BufferedStackTraceENS_9AllocTypeEb _ZN6__asan28asan_flags_dont_use_directlyE 1788
_ZN6__asan9Allocator8AllocateEmmPN11__sanitizer18BufferedStackTraceENS_9AllocTypeEb _ZN14__interception11real_memsetE 1792
_ZN6__asan9Allocator8AllocateEmmPN11__sanitizer18BufferedStackTraceENS_9AllocTypeEb __sanitizer_malloc_hook 1796
_ZN6__asan9Allocator8AllocateEmmPN11__sanitizer18BufferedStackTraceENS_9AllocTypeEb .LC1 1800
_ZN6__asan9Allocator8AllocateEmmPN11__sanitizer18BufferedStackTraceENS_9AllocTypeEb .LC69 1804
_ZN6__asan9Allocator8AllocateEmmPN11__sanitizer18BufferedStackTraceENS_9AllocTypeEb _ZN6__asan10kMidMemBegE 1812
_ZN6__asan9Allocator8AllocateEmmPN11__sanitizer18BufferedStackTraceENS_9AllocTypeEb _ZN6__asan10kMidMemEndE 1816
_ZN6__asan9Allocator8AllocateEmmPN11__sanitizer18BufferedStackTraceENS_9AllocTypeEb _ZN6__asan11kHighMemEndE 1820
_ZN6__asan9Allocator8AllocateEmmPN11__sanitizer18BufferedStackTraceENS_9AllocTypeEb .LC72 1824
_ZN6__asan9Allocator8AllocateEmmPN11__sanitizer18BufferedStackTraceENS_9AllocTypeEb .LC71 1828
_ZN11__sanitizer15QuarantineCacheIN6__asan18QuarantineCallbackEE10AllocBatchES2_ _ZN11__sanitizer17CombinedAllocatorINS_20SizeClassAllocator32ILm0ELy4294967296ELm16ENS_12SizeClassMapILm17ELm64ELm14EEELm20ENS_11FlatByteMapILy4096EEEN6__asan20AsanMapUnmapCallbackEEENS_28SizeClassAllocatorLocalCacheIS8_EENS_18LargeMmapAllocatorIS7_EEE8AllocateEPSA_mmbb 40
_ZN11__sanitizer15QuarantineCacheIN6__asan18QuarantineCallbackEE10AllocBatchES2_ _ZN11__sanitizer11CheckFailedEPKciS1_yy 88
_ZN11__sanitizer15QuarantineCacheIN6__asan18QuarantineCallbackEE10AllocBatchES2_ .LC75 160
_ZN11__sanitizer15QuarantineCacheIN6__asan18QuarantineCallbackEE10AllocBatchES2_ .LC74 164
_ZN11__sanitizer15QuarantineCacheIN6__asan18QuarantineCallbackEE7EnqueueES2_Pvm _ZN11__sanitizer11CheckFailedEPKciS1_yy 96
_ZN11__sanitizer15QuarantineCacheIN6__asan18QuarantineCallbackEE7EnqueueES2_Pvm _ZN11__sanitizer15QuarantineCacheIN6__asan18QuarantineCallbackEE10AllocBatchES2_ 156
_ZN11__sanitizer15QuarantineCacheIN6__asan18QuarantineCallbackEE7EnqueueES2_Pvm .LC75 172
_ZN11__sanitizer15QuarantineCacheIN6__asan18QuarantineCallbackEE7EnqueueES2_Pvm .LC74 176
_ZN6__asan9Allocator15QuarantineChunkEPNS_9AsanChunkEPvPN11__sanitizer18BufferedStackTraceENS_9AllocTypeE _ZN11__sanitizer11CheckFailedEPKciS1_yy 76
_ZN6__asan9Allocator15QuarantineChunkEPNS_9AsanChunkEPvPN11__sanitizer18BufferedStackTraceENS_9AllocTypeE __sync_synchronize 116
_ZN6__asan9Allocator15QuarantineChunkEPNS_9AsanChunkEPvPN11__sanitizer18BufferedStackTraceENS_9AllocTypeE _ZN6__asan23ReportAllocTypeMismatchEmPN11__sanitizer18BufferedStackTraceENS_9AllocTypeES3_ 156
_ZN6__asan9Allocator15QuarantineChunkEPNS_9AsanChunkEPvPN11__sanitizer18BufferedStackTraceENS_9AllocTypeE _ZN6__asan16GetCurrentThreadEv 160
_ZN6__asan9Allocator15QuarantineChunkEPNS_9AsanChunkEPvPN11__sanitizer18BufferedStackTraceENS_9AllocTypeE _ZN11__sanitizer13StackDepotPutENS_10StackTraceE 208
_ZN6__asan9Allocator15QuarantineChunkEPNS_9AsanChunkEPvPN11__sanitizer18BufferedStackTraceENS_9AllocTypeE _ZN6__asan9AsanChunk8UsedSizeEb 224
_ZN6__asan9Allocator15QuarantineChunkEPNS_9AsanChunkEPvPN11__sanitizer18BufferedStackTraceENS_9AllocTypeE _ZN11__sanitizer9RoundUpToEmm 232
_ZN6__asan9Allocator15QuarantineChunkEPNS_9AsanChunkEPvPN11__sanitizer18BufferedStackTraceENS_9AllocTypeE _ZN6__asan12PoisonShadowEmmh 248
_ZN6__asan9Allocator15QuarantineChunkEPNS_9AsanChunkEPvPN11__sanitizer18BufferedStackTraceENS_9AllocTypeE _ZN6__asan21GetCurrentThreadStatsEv 252
_ZN6__asan9Allocator15QuarantineChunkEPNS_9AsanChunkEPvPN11__sanitizer18BufferedStackTraceENS_9AllocTypeE _ZN6__asan9AsanChunk8UsedSizeEb 280
_ZN6__asan9Allocator15QuarantineChunkEPNS_9AsanChunkEPvPN11__sanitizer18BufferedStackTraceENS_9AllocTypeE _ZN6__asan17GetAllocatorCacheEPNS_28AsanThreadLocalMallocStorageE 312
_ZN6__asan9Allocator15QuarantineChunkEPNS_9AsanChunkEPvPN11__sanitizer18BufferedStackTraceENS_9AllocTypeE _ZN6__asan18GetQuarantineCacheEPNS_28AsanThreadLocalMallocStorageE 324
_ZN6__asan9Allocator15QuarantineChunkEPNS_9AsanChunkEPvPN11__sanitizer18BufferedStackTraceENS_9AllocTypeE _ZN6__asan9AsanChunk8UsedSizeEb 340
_ZN6__asan9Allocator15QuarantineChunkEPNS_9AsanChunkEPvPN11__sanitizer18BufferedStackTraceENS_9AllocTypeE _ZN11__sanitizer15QuarantineCacheIN6__asan18QuarantineCallbackEE7EnqueueES2_Pvm 360
_ZN6__asan9Allocator15QuarantineChunkEPNS_9AsanChunkEPvPN11__sanitizer18BufferedStackTraceENS_9AllocTypeE _ZN11__sanitizer10QuarantineIN6__asan18QuarantineCallbackENS1_9AsanChunkEE5DrainEPNS_15QuarantineCacheIS2_EES2_ 396
_ZN6__asan9Allocator15QuarantineChunkEPNS_9AsanChunkEPvPN11__sanitizer18BufferedStackTraceENS_9AllocTypeE _ZN11__sanitizer15StaticSpinMutex4LockEv 420
_ZN6__asan9Allocator15QuarantineChunkEPNS_9AsanChunkEPvPN11__sanitizer18BufferedStackTraceENS_9AllocTypeE _ZN6__asan9AsanChunk8UsedSizeEb 432
_ZN6__asan9Allocator15QuarantineChunkEPNS_9AsanChunkEPvPN11__sanitizer18BufferedStackTraceENS_9AllocTypeE _ZN11__sanitizer15QuarantineCacheIN6__asan18QuarantineCallbackEE7EnqueueES2_Pvm 468
_ZN6__asan9Allocator15QuarantineChunkEPNS_9AsanChunkEPvPN11__sanitizer18BufferedStackTraceENS_9AllocTypeE _ZN11__sanitizer10QuarantineIN6__asan18QuarantineCallbackENS1_9AsanChunkEE5DrainEPNS_15QuarantineCacheIS2_EES2_ 500
_ZN6__asan9Allocator15QuarantineChunkEPNS_9AsanChunkEPvPN11__sanitizer18BufferedStackTraceENS_9AllocTypeE _ZN11__sanitizer17GenericScopedLockINS_15StaticSpinMutexEED1Ev 508
_ZN6__asan9Allocator15QuarantineChunkEPNS_9AsanChunkEPvPN11__sanitizer18BufferedStackTraceENS_9AllocTypeE .LC1 516
_ZN6__asan9Allocator15QuarantineChunkEPNS_9AsanChunkEPvPN11__sanitizer18BufferedStackTraceENS_9AllocTypeE .LC56 520
_ZN6__asan9Allocator10DeallocateEPvmPN11__sanitizer18BufferedStackTraceENS_9AllocTypeE _ZN6__asan9AsanChunk8UsedSizeEb 76
_ZN6__asan9Allocator10DeallocateEPvmPN11__sanitizer18BufferedStackTraceENS_9AllocTypeE __sanitizer_free_hook 108
_ZN6__asan9Allocator10DeallocateEPvmPN11__sanitizer18BufferedStackTraceENS_9AllocTypeE __sync_val_compare_and_swap_1 124
_ZN6__asan9Allocator10DeallocateEPvmPN11__sanitizer18BufferedStackTraceENS_9AllocTypeE _ZN11__sanitizer11CheckFailedEPKciS1_yy 196
_ZN6__asan9Allocator10DeallocateEPvmPN11__sanitizer18BufferedStackTraceENS_9AllocTypeE _ZN6__asan21ReportFreeNotMallocedEmPN11__sanitizer18BufferedStackTraceE 208
_ZN6__asan9Allocator10DeallocateEPvmPN11__sanitizer18BufferedStackTraceENS_9AllocTypeE _ZN6__asan9Allocator15QuarantineChunkEPNS_9AsanChunkEPvPN11__sanitizer18BufferedStackTraceENS_9AllocTypeE 244
_ZN6__asan9Allocator10DeallocateEPvmPN11__sanitizer18BufferedStackTraceENS_9AllocTypeE _ZN6__asan27ReportNewDeleteSizeMismatchEmmPN11__sanitizer18BufferedStackTraceE 260
_ZN6__asan9Allocator10DeallocateEPvmPN11__sanitizer18BufferedStackTraceENS_9AllocTypeE _ZN6__asan16ReportDoubleFreeEmPN11__sanitizer18BufferedStackTraceE 284
_ZN6__asan9Allocator10DeallocateEPvmPN11__sanitizer18BufferedStackTraceENS_9AllocTypeE _ZN6__asan28asan_flags_dont_use_directlyE 304
_ZN6__asan9Allocator10DeallocateEPvmPN11__sanitizer18BufferedStackTraceENS_9AllocTypeE __sanitizer_free_hook 308
_ZN6__asan9Allocator10DeallocateEPvmPN11__sanitizer18BufferedStackTraceENS_9AllocTypeE .LC1 312
_ZN6__asan9Allocator10DeallocateEPvmPN11__sanitizer18BufferedStackTraceENS_9AllocTypeE .LC76 316
_ZN6__asan9Allocator10ReallocateEPvmPN11__sanitizer18BufferedStackTraceE _ZN11__sanitizer11CheckFailedEPKciS1_yy 60
_ZN6__asan9Allocator10ReallocateEPvmPN11__sanitizer18BufferedStackTraceE _ZN6__asan21GetCurrentThreadStatsEv 84
_ZN6__asan9Allocator10ReallocateEPvmPN11__sanitizer18BufferedStackTraceE _ZN6__asan9Allocator8AllocateEmmPN11__sanitizer18BufferedStackTraceENS_9AllocTypeEb 140
_ZN6__asan9Allocator10ReallocateEPvmPN11__sanitizer18BufferedStackTraceE _ZN6__asan16ReportDoubleFreeEmPN11__sanitizer18BufferedStackTraceE 180
_ZN6__asan9Allocator10ReallocateEPvmPN11__sanitizer18BufferedStackTraceE _ZN6__asan21ReportFreeNotMallocedEmPN11__sanitizer18BufferedStackTraceE 244
_ZN6__asan9Allocator10ReallocateEPvmPN11__sanitizer18BufferedStackTraceE _ZN6__asan9AsanChunk8UsedSizeEb 260
_ZN6__asan9Allocator10ReallocateEPvmPN11__sanitizer18BufferedStackTraceE _ZN6__asan9Allocator10DeallocateEPvmPN11__sanitizer18BufferedStackTraceENS_9AllocTypeE 316
_ZN6__asan9Allocator10ReallocateEPvmPN11__sanitizer18BufferedStackTraceE .LC1 336
_ZN6__asan9Allocator10ReallocateEPvmPN11__sanitizer18BufferedStackTraceE .LC77 340
_ZN6__asan9Allocator10ReallocateEPvmPN11__sanitizer18BufferedStackTraceE _ZN14__interception11real_memcpyE 344
_ZN6__asan9Allocator10ReallocateEPvmPN11__sanitizer18BufferedStackTraceE .LC1 348
_ZN6__asan9Allocator10ReallocateEPvmPN11__sanitizer18BufferedStackTraceE .LC78 352
_ZN6__asanL12AsanGetStackEmPmjPjb _ZN6__asan22FindHeapChunkByAddressEm 20
_ZN6__asanL12AsanGetStackEmPmjPjb _ZN6__asan13AsanChunkView7IsValidEv 36
_ZN6__asanL12AsanGetStackEmPmjPjb _ZN6__asan13AsanChunkView8AllocTidEv 68
_ZN6__asanL12AsanGetStackEmPmjPjb _ZN6__asan13AsanChunkView13GetAllocStackEv 88
_ZN6__asanL12AsanGetStackEmPmjPjb _ZN6__asan13AsanChunkView8AllocTidEv 112
_ZN6__asanL12AsanGetStackEmPmjPjb _ZN6__asan13AsanChunkView7FreeTidEv 184
_ZN6__asanL12AsanGetStackEmPmjPjb _ZN6__asan13AsanChunkView12GetFreeStackEv 204
_ZN6__asanL12AsanGetStackEmPmjPjb _ZN6__asan13AsanChunkView7FreeTidEv 228
_ZN6__asan21GetInfoForHeapAddressEmPNS_18AddressDescriptionE _ZN6__asan22FindHeapChunkByAddressEm 8
_ZN6__asan21GetInfoForHeapAddressEmPNS_18AddressDescriptionE _ZN6__asan13AsanChunkView7IsValidEv 44
_ZN6__asan21GetInfoForHeapAddressEmPNS_18AddressDescriptionE _ZN6__asan13AsanChunkView3BegEv 80
_ZN6__asan21GetInfoForHeapAddressEmPNS_18AddressDescriptionE _ZN6__asan13AsanChunkView8UsedSizeEv 92
_ZN6__asan21GetInfoForHeapAddressEmPNS_18AddressDescriptionE .LC0 112
_ZN6__asan21GetInfoForHeapAddressEmPNS_18AddressDescriptionE .LC1 116
_ZN6__asan18GetInfoForStackVarEmPNS_18AddressDescriptionEPNS_10AsanThreadE _ZN6__asan10AsanThread25GetStackFrameAccessByAddrEmPNS0_16StackFrameAccessE 60
_ZN6__asan18GetInfoForStackVarEmPNS_18AddressDescriptionEPNS_10AsanThreadE _ZN11__sanitizer9MmapOrDieEmPKc 96
_ZN6__asan18GetInfoForStackVarEmPNS_18AddressDescriptionEPNS_10AsanThreadE _ZN6__asan21ParseFrameDescriptionEPKcPN11__sanitizer18InternalMmapVectorINS_13StackVarDescrEEE 116
_ZN6__asan18GetInfoForStackVarEmPNS_18AddressDescriptionEPNS_10AsanThreadE _ZN11__sanitizer24InternalMmapVectorNoCtorIN6__asan13StackVarDescrEEixEm 152
_ZN6__asan18GetInfoForStackVarEmPNS_18AddressDescriptionEPNS_10AsanThreadE _ZN11__sanitizer16internal_strncatEPcPKcm 196
_ZN6__asan18GetInfoForStackVarEmPNS_18AddressDescriptionEPNS_10AsanThreadE _ZN11__sanitizer24InternalMmapVectorNoCtorIN6__asan13StackVarDescrEEixEm 208
_ZN6__asan18GetInfoForStackVarEmPNS_18AddressDescriptionEPNS_10AsanThreadE _ZN11__sanitizer24InternalMmapVectorNoCtorIN6__asan13StackVarDescrEEixEm 240
_ZN6__asan18GetInfoForStackVarEmPNS_18AddressDescriptionEPNS_10AsanThreadE _ZN11__sanitizer10UnmapOrDieEPvm 264
_ZN6__asan18GetInfoForStackVarEmPNS_18AddressDescriptionEPNS_10AsanThreadE .LC4 284
_ZN6__asan18GetInfoForStackVarEmPNS_18AddressDescriptionEPNS_10AsanThreadE .LC5 288
_ZN6__asan17AsanLocateAddressEmPNS_18AddressDescriptionE _ZN6__asan23DescribeAddressIfShadowEmPNS_18AddressDescriptionEb 16
_ZN6__asan17AsanLocateAddressEmPNS_18AddressDescriptionE _ZN6__asan25GetInfoForAddressIfGlobalEmPNS_18AddressDescriptionE 36
_ZN6__asan17AsanLocateAddressEmPNS_18AddressDescriptionE _ZN6__asan18asanThreadRegistryEv 48
_ZN6__asan17AsanLocateAddressEmPNS_18AddressDescriptionE _ZN11__sanitizer13BlockingMutex4LockEv 56
_ZN6__asan17AsanLocateAddressEmPNS_18AddressDescriptionE _ZN6__asan24FindThreadByStackAddressEm 64
_ZN6__asan17AsanLocateAddressEmPNS_18AddressDescriptionE _ZN6__asan18asanThreadRegistryEv 72
_ZN6__asan17AsanLocateAddressEmPNS_18AddressDescriptionE _ZN11__sanitizer13BlockingMutex6UnlockEv 80
_ZN6__asan17AsanLocateAddressEmPNS_18AddressDescriptionE _ZN6__asan18GetInfoForStackVarEmPNS_18AddressDescriptionEPNS_10AsanThreadE 108
_ZN6__asan17AsanLocateAddressEmPNS_18AddressDescriptionE _ZN6__asan21GetInfoForHeapAddressEmPNS_18AddressDescriptionE 124
__asan_locate_address memset 44
__asan_locate_address _ZN6__asan17AsanLocateAddressEmPNS_18AddressDescriptionE 64
_ZN11__sanitizer24InternalMmapVectorNoCtorIN6__asan13StackVarDescrEEixEm _ZN11__sanitizer11CheckFailedEPKciS1_yy 64
_ZN11__sanitizer24InternalMmapVectorNoCtorIN6__asan13StackVarDescrEEixEm .LC12 84
_ZN11__sanitizer24InternalMmapVectorNoCtorIN6__asan13StackVarDescrEEixEm .LC96 88
_ZN6__asanL11MemToShadowEm _ZN11__sanitizer11CheckFailedEPKciS1_yy 56
_ZN6__asanL11MemToShadowEm .LC1 76
_ZN6__asanL11MemToShadowEm .LC0 80
_ZN6__asanL16GetFakeStackFastEv __tls_get_addr 16
_ZN6__asanL16GetFakeStackFastEv _ZN6__asan16GetCurrentThreadEv 60
_ZN6__asanL16GetFakeStackFastEv _ZN6__asan10AsanThread32AsyncSignalSafeLazyInitFakeStackEv 100
_ZN6__asanL16GetFakeStackFastEv .LANCHOR0 112
_ZN6__asanL16GetFakeStackFastEv .LANCHOR0 120
_ZN6__asanL16GetFakeStackFastEv __asan_option_detect_stack_use_after_return 124
_ZN6__asan9FakeStack6CreateEm _ZN6__asan9FakeStack12RequiredSizeEm 32
_ZN6__asan9FakeStack6CreateEm _ZN11__sanitizer18MmapNoReserveOrDieEmPKc 72
_ZN6__asan9FakeStack6CreateEm _ZN6__asan22GetCurrentTidOrInvalidEv 104
_ZN6__asan9FakeStack6CreateEm _ZN11__sanitizer6ReportEPKcz 148
_ZN6__asan9FakeStack6CreateEm _ZN11__sanitizer9MmapOrDieEmPKc 172
_ZN6__asan9FakeStack6CreateEm _ZN6__asan28asan_flags_dont_use_directlyE 184
_ZN6__asan9FakeStack6CreateEm .LC2 188
_ZN6__asan9FakeStack6CreateEm _ZN11__sanitizer17current_verbosityE 192
_ZN6__asan9FakeStack6CreateEm .LC3 196
_ZN6__asan9FakeStack6CreateEm .LC2 200
_ZN6__asan9FakeStack9PoisonAllEh _ZN6__asan9FakeStack12RequiredSizeEm 16
_ZN6__asan9FakeStack9PoisonAllEh _ZN6__asan12PoisonShadowEmmh 36
_ZN6__asan9FakeStack7DestroyEi _ZN6__asan9FakeStack9PoisonAllEh 24
_ZN6__asan9FakeStack7DestroyEi _ZN11__sanitizer9MmapOrDieEmPKc 68
_ZN6__asan9FakeStack7DestroyEi _ZN11__sanitizer20InternalScopedString6appendEPKcz 140
_ZN6__asan9FakeStack7DestroyEi _ZN11__sanitizer6ReportEPKcz 172
_ZN6__asan9FakeStack7DestroyEi _ZN11__sanitizer10UnmapOrDieEPvm 184
_ZN6__asan9FakeStack7DestroyEi _ZN6__asan9FakeStack12RequiredSizeEm 192
_ZN6__asan9FakeStack7DestroyEi _ZN6__asan29FlushUnneededASanShadowMemoryEmm 208
_ZN6__asan9FakeStack7DestroyEi _ZN11__sanitizer10UnmapOrDieEPvm 220
_ZN6__asan9FakeStack7DestroyEi _ZN11__sanitizer17current_verbosityE 236
_ZN6__asan9FakeStack7DestroyEi .LC4 240
_ZN6__asan9FakeStack7DestroyEi .LC5 248
_ZN6__asan9FakeStack7DestroyEi .LC6 252
_ZN6__asan9FakeStack17AddrIsInFakeStackEmPmS1_ _ZN6__asan9FakeStack8GetFrameEmmm 40
_ZN6__asan9FakeStack17AddrIsInFakeStackEmPmS1_ _ZN6__asan9FakeStack12RequiredSizeEm 52
_ZN6__asan9FakeStack17AddrIsInFakeStackEmPmS1_ _ZN11__sanitizer11CheckFailedEPKciS1_yy 160
_ZN6__asan9FakeStack17AddrIsInFakeStackEmPmS1_ .LC8 272
_ZN6__asan9FakeStack17AddrIsInFakeStackEmPmS1_ .LC9 276
_ZN6__asan9FakeStack17AddrIsInFakeStackEmPmS1_ .LC8 280
_ZN6__asan9FakeStack17AddrIsInFakeStackEmPmS1_ .LC10 284
_ZN6__asan9FakeStack2GCEm _ZN6__asan9FakeStack8GetFrameEmmm 116
_ZN6__asan9FakeStack16ForEachFakeFrameEPFvmmPvES1_ _ZN6__asan9FakeStack8GetFrameEmmm 124
_ZN6__asan15GetTLSFakeStackEv __tls_get_addr 12
_ZN6__asan15GetTLSFakeStackEv .LANCHOR0 28
_ZN6__asan15GetTLSFakeStackEv .LANCHOR0 32
_ZN6__asan15SetTLSFakeStackEPNS_9FakeStackE __tls_get_addr 16
_ZN6__asan15SetTLSFakeStackEPNS_9FakeStackE .LANCHOR0 32
_ZN6__asan15SetTLSFakeStackEPNS_9FakeStackE .LANCHOR0 36
__asan_stack_malloc_0 _ZN6__asan9FakeStack2GCEm 40
__asan_stack_malloc_0 _ZN6__asan9FakeStack8GetFrameEmmm 128
__asan_stack_free_0 _ZN6__asan9FakeStack10DeallocateEmm 12
__asan_stack_malloc_1 _ZN6__asan9FakeStack2GCEm 40
__asan_stack_malloc_1 _ZN6__asan9FakeStack8GetFrameEmmm 140
__asan_stack_free_1 _ZN6__asan9FakeStack10DeallocateEmm 12
__asan_stack_malloc_2 _ZN6__asan9FakeStack2GCEm 56
__asan_stack_malloc_2 _ZN6__asan9FakeStack8GetFrameEmmm 160
__asan_stack_free_2 _ZN6__asan9FakeStack10DeallocateEmm 12
__asan_stack_malloc_3 _ZN6__asan9FakeStack2GCEm 56
__asan_stack_malloc_3 _ZN6__asan9FakeStack8GetFrameEmmm 160
__asan_stack_free_3 _ZN6__asan9FakeStack10DeallocateEmm 12
__asan_stack_malloc_4 _ZN6__asan9FakeStack2GCEm 56
__asan_stack_malloc_4 _ZN6__asan9FakeStack8GetFrameEmmm 160
__asan_stack_free_4 _ZN6__asan9FakeStack10DeallocateEmm 12
__asan_stack_malloc_5 _ZN6__asan9FakeStack2GCEm 56
__asan_stack_malloc_5 _ZN6__asan9FakeStack8GetFrameEmmm 160
__asan_stack_free_5 _ZN6__asan9FakeStack10DeallocateEmm 12
__asan_stack_malloc_6 _ZN6__asan9FakeStack2GCEm 56
__asan_stack_malloc_6 _ZN6__asan9FakeStack8GetFrameEmmm 160
__asan_stack_free_6 _ZN6__asan9FakeStack10DeallocateEmm 12
__asan_stack_malloc_7 _ZN6__asan9FakeStack2GCEm 44
__asan_stack_malloc_7 _ZN6__asan9FakeStack8GetFrameEmmm 148
__asan_stack_malloc_7 _ZN6__asan12PoisonShadowEmmh 184
__asan_stack_free_7 _ZN6__asan9FakeStack10DeallocateEmm 16
__asan_stack_free_7 _ZN6__asan12PoisonShadowEmmh 44
__asan_stack_malloc_8 _ZN6__asan9FakeStack2GCEm 44
__asan_stack_malloc_8 _ZN6__asan9FakeStack8GetFrameEmmm 148
__asan_stack_malloc_8 _ZN6__asan12PoisonShadowEmmh 184
__asan_stack_free_8 _ZN6__asan9FakeStack10DeallocateEmm 16
__asan_stack_free_8 _ZN6__asan12PoisonShadowEmmh 44
__asan_stack_malloc_9 _ZN6__asan9FakeStack2GCEm 44
__asan_stack_malloc_9 _ZN6__asan9FakeStack8GetFrameEmmm 144
__asan_stack_malloc_9 _ZN6__asan12PoisonShadowEmmh 180
__asan_stack_free_9 _ZN6__asan9FakeStack10DeallocateEmm 16
__asan_stack_free_9 _ZN6__asan12PoisonShadowEmmh 44
__asan_stack_malloc_10 _ZN6__asan9FakeStack2GCEm 44
__asan_stack_malloc_10 _ZN6__asan9FakeStack8GetFrameEmmm 148
__asan_stack_malloc_10 _ZN6__asan12PoisonShadowEmmh 184
__asan_stack_free_10 _ZN6__asan9FakeStack10DeallocateEmm 16
__asan_stack_free_10 _ZN6__asan12PoisonShadowEmmh 44
__asan_addr_is_in_fake_stack _ZN6__asan9FakeStack17AddrIsInFakeStackEmPmS1_ 40
__asan_alloca_poison _ZN14__interception11real_memsetE 236
__asan_alloca_poison _ZN6__asan28asan_flags_dont_use_directlyE 240
__asan_allocas_unpoison _ZN14__interception11real_memsetE 92
_ZN6__asan9FakeStack12RequiredSizeEm __aeabi_llsl 28
_ZN6__asan9FakeStack8AllocateEmmm _ZN11__sanitizer11CheckFailedEPKciS1_yy 68
_ZN6__asan9FakeStack8AllocateEmmm _ZN6__asan9FakeStack2GCEm 96
_ZN6__asan9FakeStack8AllocateEmmm _ZN6__asan9FakeStack8GetFrameEmmm 220
_ZN6__asan9FakeStack8AllocateEmmm .LC8 264
_ZN6__asan9FakeStack8AllocateEmmm .LC7 268
_ZN11__sanitizerL12RegisterFlagIiEEvPNS_10FlagParserEPKcS4_PT_ _ZN11__sanitizer17LowLevelAllocator8AllocateEm 48
_ZN11__sanitizerL12RegisterFlagIiEEvPNS_10FlagParserEPKcS4_PT_ _ZN11__sanitizer10FlagParser15RegisterHandlerEPKcPNS_15FlagHandlerBaseES2_ 92
_ZN11__sanitizerL12RegisterFlagIiEEvPNS_10FlagParserEPKcS4_PT_ _ZN11__sanitizer10FlagParser5AllocE 100
_ZN11__sanitizerL12RegisterFlagIiEEvPNS_10FlagParserEPKcS4_PT_ _ZTVN11__sanitizer11FlagHandlerIiEE 104
_ZN11__sanitizerL12RegisterFlagIbEEvPNS_10FlagParserEPKcS4_PT_ _ZN11__sanitizer17LowLevelAllocator8AllocateEm 48
_ZN11__sanitizerL12RegisterFlagIbEEvPNS_10FlagParserEPKcS4_PT_ _ZN11__sanitizer10FlagParser15RegisterHandlerEPKcPNS_15FlagHandlerBaseES2_ 92
_ZN11__sanitizerL12RegisterFlagIbEEvPNS_10FlagParserEPKcS4_PT_ _ZN11__sanitizer10FlagParser5AllocE 100
_ZN11__sanitizerL12RegisterFlagIbEEvPNS_10FlagParserEPKcS4_PT_ _ZTVN11__sanitizer11FlagHandlerIbEE 104
_ZN6__asan5Flags11SetDefaultsEv .LC8 200
_ZN6__asan15InitializeFlagsEv _ZN11__sanitizer11CommonFlags11SetDefaultsEv 32
_ZN6__asan15InitializeFlagsEv _ZN11__sanitizer11CommonFlags8CopyFromERKS0_ 44
_ZN6__asan15InitializeFlagsEv _ZN11__sanitizer6GetEnvEPKc 64
_ZN6__asan15InitializeFlagsEv _ZN11__sanitizer11CommonFlags8CopyFromERKS0_ 112
_ZN6__asan15InitializeFlagsEv _ZN6__asan5Flags11SetDefaultsEv 120
_ZN6__asan15InitializeFlagsEv _ZN11__sanitizer10FlagParserC1Ev 128
_ZN6__asan15InitializeFlagsEv _ZN11__sanitizer17LowLevelAllocator8AllocateEm 1160
_ZN6__asan15InitializeFlagsEv _ZN11__sanitizer10FlagParser15RegisterHandlerEPKcPNS_15FlagHandlerBaseES2_ 1212
_ZN6__asan15InitializeFlagsEv _ZN11__sanitizer19RegisterCommonFlagsEPNS_10FlagParserEPNS_11CommonFlagsE 1260
_ZN6__asan15InitializeFlagsEv _ZN11__sanitizer10FlagParser11ParseStringEPKc 1272
_ZN6__asan15InitializeFlagsEv __asan_default_options 1296
_ZN6__asan15InitializeFlagsEv _ZN11__sanitizer10FlagParser11ParseStringEPKc 1308
_ZN6__asan15InitializeFlagsEv _ZN11__sanitizer6GetEnvEPKc 1320
_ZN6__asan15InitializeFlagsEv _ZN11__sanitizer10FlagParser11ParseStringEPKc 1332
_ZN6__asan15InitializeFlagsEv _ZN11__sanitizer10FlagParser11ParseStringEPKc 1368
_ZN6__asan15InitializeFlagsEv _ZN11__sanitizer23ReportUnrecognizedFlagsEv 1400
_ZN6__asan15InitializeFlagsEv _ZN11__sanitizer10FlagParser21PrintFlagDescriptionsEv 1420
_ZN6__asan15InitializeFlagsEv _ZN11__sanitizer6ReportEPKcz 1456
_ZN6__asan15InitializeFlagsEv _ZN11__sanitizer3DieEv 1460
_ZN6__asan15InitializeFlagsEv _ZN11__sanitizer11CheckFailedEPKciS1_yy 1540
_ZN6__asan15InitializeFlagsEv _ZN11__sanitizer21common_flags_dont_useE 1980
_ZN6__asan15InitializeFlagsEv .LC9 1984
_ZN6__asan15InitializeFlagsEv .LC10 1992
_ZN6__asan15InitializeFlagsEv .LC11 1996
_ZN6__asan15InitializeFlagsEv .LC12 2000
_ZN6__asan15InitializeFlagsEv .LC13 2004
_ZN6__asan15InitializeFlagsEv .LC14 2008
_ZN6__asan15InitializeFlagsEv .LC15 2012
_ZN6__asan15InitializeFlagsEv .LC16 2016
_ZN6__asan15InitializeFlagsEv .LC17 2020
_ZN6__asan15InitializeFlagsEv .LC18 2024
_ZN6__asan15InitializeFlagsEv .LC19 2028
_ZN6__asan15InitializeFlagsEv .LC20 2032
_ZN6__asan15InitializeFlagsEv .LC21 2036
_ZN6__asan15InitializeFlagsEv .LC22 2040
_ZN6__asan15InitializeFlagsEv .LC23 2044
_ZN6__asan15InitializeFlagsEv .LC24 2048
_ZN6__asan15InitializeFlagsEv .LC25 2052
_ZN6__asan15InitializeFlagsEv .LC26 2056
_ZN6__asan15InitializeFlagsEv .LC27 2060
_ZN6__asan15InitializeFlagsEv .LC28 2064
_ZN6__asan15InitializeFlagsEv .LC29 2068
_ZN6__asan15InitializeFlagsEv .LC30 2072
_ZN6__asan15InitializeFlagsEv .LC31 2076
_ZN6__asan15InitializeFlagsEv .LC32 2080
_ZN6__asan15InitializeFlagsEv .LC33 2084
_ZN6__asan15InitializeFlagsEv .LC34 2088
_ZN6__asan15InitializeFlagsEv .LC35 2092
_ZN6__asan15InitializeFlagsEv .LC36 2096
_ZN6__asan15InitializeFlagsEv .LC37 2100
_ZN6__asan15InitializeFlagsEv .LC38 2104
_ZN6__asan15InitializeFlagsEv .LC39 2108
_ZN6__asan15InitializeFlagsEv .LC40 2112
_ZN6__asan15InitializeFlagsEv .LC41 2116
_ZN6__asan15InitializeFlagsEv .LC42 2120
_ZN6__asan15InitializeFlagsEv .LC43 2124
_ZN6__asan15InitializeFlagsEv .LC44 2128
_ZN6__asan15InitializeFlagsEv .LC45 2132
_ZN6__asan15InitializeFlagsEv .LC46 2136
_ZN6__asan15InitializeFlagsEv .LC47 2140
_ZN6__asan15InitializeFlagsEv .LC48 2144
_ZN6__asan15InitializeFlagsEv .LC49 2148
_ZN6__asan15InitializeFlagsEv .LC50 2152
_ZN6__asan15InitializeFlagsEv .LC51 2156
_ZN6__asan15InitializeFlagsEv .LC52 2160
_ZN6__asan15InitializeFlagsEv .LC53 2164
_ZN6__asan15InitializeFlagsEv .LC54 2168
_ZN6__asan15InitializeFlagsEv .LC55 2172
_ZN6__asan15InitializeFlagsEv .LC56 2176
_ZN6__asan15InitializeFlagsEv .LC57 2180
_ZN6__asan15InitializeFlagsEv .LC58 2184
_ZN6__asan15InitializeFlagsEv .LC59 2188
_ZN6__asan15InitializeFlagsEv .LC60 2192
_ZN6__asan15InitializeFlagsEv .LC61 2196
_ZN6__asan15InitializeFlagsEv .LC62 2200
_ZN6__asan15InitializeFlagsEv .LC63 2204
_ZN6__asan15InitializeFlagsEv .LC64 2208
_ZN6__asan15InitializeFlagsEv .LC65 2212
_ZN6__asan15InitializeFlagsEv .LC66 2216
_ZN6__asan15InitializeFlagsEv .LC67 2220
_ZN6__asan15InitializeFlagsEv .LC68 2224
_ZN6__asan15InitializeFlagsEv .LC69 2228
_ZN6__asan15InitializeFlagsEv .LC70 2232
_ZN6__asan15InitializeFlagsEv .LC71 2236
_ZN6__asan15InitializeFlagsEv .LC72 2240
_ZN6__asan15InitializeFlagsEv .LC73 2244
_ZN6__asan15InitializeFlagsEv .LC74 2248
_ZN6__asan15InitializeFlagsEv .LC75 2252
_ZN6__asan15InitializeFlagsEv .LC76 2256
_ZN6__asan15InitializeFlagsEv .LC77 2260
_ZN6__asan15InitializeFlagsEv .LC78 2264
_ZN6__asan15InitializeFlagsEv .LC79 2268
_ZN6__asan15InitializeFlagsEv .LC80 2272
_ZN6__asan15InitializeFlagsEv .LC81 2276
_ZN6__asan15InitializeFlagsEv _ZN11__sanitizer10FlagParser5AllocE 2280
_ZN6__asan15InitializeFlagsEv _ZTVN11__sanitizer11FlagHandlerIPKcEE 2284
_ZN6__asan15InitializeFlagsEv .LC83 2288
_ZN6__asan15InitializeFlagsEv .LC82 2292
_ZN6__asan15InitializeFlagsEv .LC84 2296
_ZN6__asan15InitializeFlagsEv .LC85 2300
_ZN6__asan15InitializeFlagsEv .LC8 2304
_ZN6__asan15InitializeFlagsEv __asan_default_options 2308
_ZN6__asan15InitializeFlagsEv .LC86 2312
_ZN6__asan15InitializeFlagsEv _ZN11__sanitizer17current_verbosityE 2320
_ZN6__asan15InitializeFlagsEv _ZN11__sanitizer17SanitizerToolNameE 2324
_ZN6__asan15InitializeFlagsEv .LC87 2328
_ZN6__asan15InitializeFlagsEv .LC89 2336
_ZN6__asan15InitializeFlagsEv .LC88 2340
_ZN6__asan15InitializeFlagsEv .LC90 2348
_ZN6__asan15InitializeFlagsEv .LC89 2352
_ZN6__asan15InitializeFlagsEv .LC89 2356
_ZN6__asan15InitializeFlagsEv .LC91 2360
_ZN6__asan15InitializeFlagsEv .LC92 2364
_ZN6__asan15InitializeFlagsEv .LC89 2368
_ZN6__asan15InitializeFlagsEv .LC89 2372
_ZN6__asan15InitializeFlagsEv .LC93 2376
_ZN6__asan15InitializeFlagsEv .LC89 2380
_ZN6__asan15InitializeFlagsEv .LC94 2384
_ZN6__asan15InitializeFlagsEv .LC89 2388
_ZN6__asan15InitializeFlagsEv .LC95 2392
_ZN6__asan15InitializeFlagsEv .LC96 2396
_ZN6__asanL12ReportGlobalERK13__asan_globalPKc _ZN11__sanitizer6ReportEPKcz 68
_ZN6__asanL12ReportGlobalERK13__asan_globalPKc _ZN11__sanitizer6ReportEPKcz 116
_ZN6__asanL12ReportGlobalERK13__asan_globalPKc .LC0 128
_ZN6__asanL12ReportGlobalERK13__asan_globalPKc .LC1 132
_ZN6__asanL11AddrIsInMemEm _ZN6__asan10kMidMemBegE 168
_ZN6__asanL11AddrIsInMemEm _ZN6__asan10kMidMemEndE 172
_ZN6__asanL11AddrIsInMemEm _ZN6__asan11kHighMemEndE 176
_ZN6__asan20GetGlobalsForAddressEmP13__asan_globalPji _ZN11__sanitizer13BlockingMutex4LockEv 76
_ZN6__asan20GetGlobalsForAddressEmP13__asan_globalPji _ZN11__sanitizer17GenericScopedLockINS_13BlockingMutexEED1Ev 328
_ZN6__asan20GetGlobalsForAddressEmP13__asan_globalPji _ZN11__sanitizer13BlockingMutex11CheckLockedEv 420
_ZN6__asan20GetGlobalsForAddressEmP13__asan_globalPji _ZN11__sanitizer11CheckFailedEPKciS1_yy 472
_ZN6__asan20GetGlobalsForAddressEmP13__asan_globalPji _ZN6__asan28asan_flags_dont_use_directlyE 480
_ZN6__asan20GetGlobalsForAddressEmP13__asan_globalPji .LC7 492
_ZN6__asan20GetGlobalsForAddressEmP13__asan_globalPji .LC3 496
_ZN6__asan20GetGlobalsForAddressEmP13__asan_globalPji .LC10 500
_ZN6__asan20GetGlobalsForAddressEmP13__asan_globalPji .LC9 508
_ZN6__asan20GetGlobalsForAddressEmP13__asan_globalPji .LC8 512
_ZN6__asan25GetInfoForAddressIfGlobalEmPNS_18AddressDescriptionE memset 32
_ZN6__asan25GetInfoForAddressIfGlobalEmPNS_18AddressDescriptionE _ZN6__asan20GetGlobalsForAddressEmP13__asan_globalPji 52
_ZN6__asan25GetInfoForAddressIfGlobalEmPNS_18AddressDescriptionE _ZN11__sanitizer16internal_strncpyEPcPKcm 76
_ZN6__asan25GetInfoForAddressIfGlobalEmPNS_18AddressDescriptionE .LC11 120
__asan_unregister_globals _ZN11__sanitizer13BlockingMutex4LockEv 56
__asan_unregister_globals _ZN11__sanitizer11CheckFailedEPKciS1_yy 156
__asan_unregister_globals _ZN6__asan15CanPoisonMemoryEv 396
__asan_unregister_globals _ZN11__sanitizer17GetPageSizeCachedEv 480
__asan_unregister_globals _ZN11__sanitizer9RoundUpToEmm 496
__asan_unregister_globals _ZN6__asan24ReserveShadowMemoryRangeEmmPKc 636
__asan_unregister_globals _ZN11__sanitizer17GenericScopedLockINS_13BlockingMutexEED1Ev 664
__asan_unregister_globals _ZN6__asan28asan_flags_dont_use_directlyE 680
__asan_unregister_globals .LC13 688
__asan_unregister_globals _ZN6__asan11asan_initedE 692
__asan_unregister_globals .LC9 696
__asan_unregister_globals .LC12 700
__asan_unregister_globals .LC9 704
__asan_unregister_globals .LC14 708
__asan_unregister_globals .LC9 712
__asan_unregister_globals .LC15 716
__asan_unregister_globals .LC9 720
__asan_unregister_globals .LC16 724
__asan_unregister_globals .LC9 728
__asan_unregister_globals .LC17 732
__asan_unregister_globals _ZN11__sanitizer21common_flags_dont_useE 736
__asan_unregister_globals _ZN14__interception11real_memsetE 740
_ZN6__asan21StopInitOrderCheckingEv _ZN11__sanitizer13BlockingMutex4LockEv 28
_ZN6__asan21StopInitOrderCheckingEv _ZN11__sanitizer17GenericScopedLockINS_13BlockingMutexEED1Ev 76
_ZN6__asan21StopInitOrderCheckingEv _ZN6__asan24ReserveShadowMemoryRangeEmmPKc 172
_ZN6__asan21StopInitOrderCheckingEv _ZN11__sanitizer9RoundUpToEmm 184
_ZN6__asan21StopInitOrderCheckingEv _ZN11__sanitizer24InternalMmapVectorNoCtorIN6__asan13DynInitGlobalEEixEm 352
_ZN6__asan21StopInitOrderCheckingEv _ZN11__sanitizer17GetPageSizeCachedEv 440
_ZN6__asan21StopInitOrderCheckingEv _ZN11__sanitizer9RoundUpToEmm 456
_ZN6__asan21StopInitOrderCheckingEv _ZN6__asan28asan_flags_dont_use_directlyE 556
_ZN6__asan21StopInitOrderCheckingEv _ZN11__sanitizer21common_flags_dont_useE 560
_ZN6__asan21StopInitOrderCheckingEv _ZN14__interception11real_memsetE 564
__asan_before_dynamic_init _ZN6__asan15CanPoisonMemoryEv 40
__asan_before_dynamic_init _ZN11__sanitizer13BlockingMutex4LockEv 148
__asan_before_dynamic_init _ZN11__sanitizer6PrintfEPKcz 176
__asan_before_dynamic_init _ZN11__sanitizer24InternalMmapVectorNoCtorIN6__asan13DynInitGlobalEEixEm 232
__asan_before_dynamic_init _ZN11__sanitizer17GenericScopedLockINS_13BlockingMutexEED1Ev 356
__asan_before_dynamic_init _ZN11__sanitizer11CheckFailedEPKciS1_yy 408
__asan_before_dynamic_init _ZN6__asan28asan_flags_dont_use_directlyE 416
__asan_before_dynamic_init _ZN6__asan11asan_initedE 424
__asan_before_dynamic_init .LC9 428
__asan_before_dynamic_init .LC12 432
__asan_before_dynamic_init .LC23 436
__asan_before_dynamic_init _ZN14__interception11real_memsetE 448
__asan_before_dynamic_init .LC9 452
__asan_before_dynamic_init .LC22 456
__asan_after_dynamic_init _ZN6__asan15CanPoisonMemoryEv 40
__asan_after_dynamic_init _ZN11__sanitizer13BlockingMutex4LockEv 88
__asan_after_dynamic_init _ZN11__sanitizer24InternalMmapVectorNoCtorIN6__asan13DynInitGlobalEEixEm 148
__asan_after_dynamic_init _ZN11__sanitizer17GetPageSizeCachedEv 248
__asan_after_dynamic_init _ZN11__sanitizer9RoundUpToEmm 264
__asan_after_dynamic_init _ZN6__asan24ReserveShadowMemoryRangeEmmPKc 396
__asan_after_dynamic_init _ZN11__sanitizer9RoundUpToEmm 408
__asan_after_dynamic_init _ZN11__sanitizer17GenericScopedLockINS_13BlockingMutexEED1Ev 560
__asan_after_dynamic_init _ZN11__sanitizer11CheckFailedEPKciS1_yy 624
__asan_after_dynamic_init _ZN6__asan28asan_flags_dont_use_directlyE 632
__asan_after_dynamic_init _ZN11__sanitizer21common_flags_dont_useE 644
__asan_after_dynamic_init _ZN14__interception11real_memsetE 648
__asan_after_dynamic_init _ZN6__asan11asan_initedE 652
__asan_after_dynamic_init .LC9 656
__asan_after_dynamic_init .LC12 660
__asan_register_globals _ZN6__asan20GetMallocContextSizeEv 92
__asan_register_globals _ZN6__asan20GetMallocContextSizeEv 104
__asan_register_globals _ZN6__asan20GetMallocContextSizeEv 112
__asan_register_globals _ZN11__sanitizer10StackTrace12GetCurrentPcEv 128
__asan_register_globals _ZN6__asan20GetMallocContextSizeEv 136
__asan_register_globals _ZN11__sanitizer13StackDepotPutENS_10StackTraceE 152
__asan_register_globals _ZN11__sanitizer13BlockingMutex4LockEv 176
__asan_register_globals _ZN11__sanitizer17LowLevelAllocator8AllocateEm 200
__asan_register_globals _ZN11__sanitizer9MmapOrDieEmPKc 228
__asan_register_globals _ZN11__sanitizer24InternalMmapVectorNoCtorIN6__asan22GlobalRegistrationSiteEE9push_backERKS2_ 284
__asan_register_globals _ZN11__sanitizer10StackTrace12GetCurrentPcEv 336
__asan_register_globals _ZN6__asan16GetCurrentThreadEv 384
__asan_register_globals _ZN11__sanitizer18BufferedStackTrace6UnwindEjmmPvmmb 464
__asan_register_globals _ZN6__asan20GetMallocContextSizeEv 476
__asan_register_globals _ZN11__sanitizer10StackTrace12GetCurrentPcEv 484
__asan_register_globals _ZN6__asan16GetCurrentThreadEv 528
__asan_register_globals _ZN11__sanitizer18BufferedStackTrace6UnwindEjmmPvmmb 604
__asan_register_globals _ZN6__asan15CanPoisonMemoryEv 860
__asan_register_globals _ZN11__sanitizer9RoundUpToEmm 880
__asan_register_globals _ZN11__sanitizer17LowLevelAllocator8AllocateEm 1032
__asan_register_globals _ZN11__sanitizer17LowLevelAllocator8AllocateEm 1088
__asan_register_globals _ZN11__sanitizer9MmapOrDieEmPKc 1124
__asan_register_globals memset 1156
__asan_register_globals _ZN11__sanitizer24InternalMmapVectorNoCtorIN6__asan13DynInitGlobalEE9push_backERKS2_ 1200
__asan_register_globals _ZN11__sanitizer17GenericScopedLockINS_13BlockingMutexEED1Ev 1224
__asan_register_globals _ZN11__sanitizer18BufferedStackTrace6UnwindEjmmPvmmb 1292
__asan_register_globals _ZN11__sanitizer18BufferedStackTrace6UnwindEjmmPvmmb 1356
__asan_register_globals _ZNK11__sanitizer10StackTrace5PrintEv 1368
__asan_register_globals _ZN11__sanitizer6PrintfEPKcz 1392
__asan_register_globals _ZN11__sanitizer11CheckFailedEPKciS1_yy 1488
__asan_register_globals _ZN6__asan28asan_flags_dont_use_directlyE 1496
__asan_register_globals .LC24 1504
__asan_register_globals _ZN11__sanitizer21common_flags_dont_useE 1512
__asan_register_globals _ZN6__asan11asan_initedE 1516
__asan_register_globals .LC9 1520
__asan_register_globals .LC14 1524
__asan_register_globals .LC9 1528
__asan_register_globals .LC15 1532
__asan_register_globals .LC9 1536
__asan_register_globals .LC16 1540
__asan_register_globals .LC9 1544
__asan_register_globals .LC17 1548
__asan_register_globals _ZN14__interception11real_memsetE 1552
__asan_register_globals .LC24 1556
__asan_register_globals .LC25 1564
__asan_register_globals .LC26 1572
__asan_register_globals .LC9 1576
__asan_register_globals .LC12 1580
_ZN11__sanitizer19RoundUpToPowerOfTwoEm _ZN11__sanitizer11CheckFailedEPKciS1_yy 52
_ZN11__sanitizer19RoundUpToPowerOfTwoEm __aeabi_llsr 92
_ZN11__sanitizer19RoundUpToPowerOfTwoEm __aeabi_llsl 164
_ZN11__sanitizer19RoundUpToPowerOfTwoEm __aeabi_llsl 224
_ZN11__sanitizer19RoundUpToPowerOfTwoEm .LC0 236
_ZN11__sanitizer19RoundUpToPowerOfTwoEm .LC1 240
_ZN11__sanitizer19RoundUpToPowerOfTwoEm .LC1 248
_ZN11__sanitizer19RoundUpToPowerOfTwoEm .LC2 252
_ZN11__sanitizer19RoundUpToPowerOfTwoEm .LC3 260
_ZN11__sanitizer19RoundUpToPowerOfTwoEm .LC1 264
_ZN11__sanitizer17GenericScopedLockINS_13BlockingMutexEED1Ev,_ZN11__sanitizer17GenericScopedLockINS_13BlockingMutexEED2Ev _ZN11__sanitizer13BlockingMutex6UnlockEv 12
_ZN11__sanitizer24InternalMmapVectorNoCtorIN6__asan13DynInitGlobalEE9push_backERKS2_ _ZN11__sanitizer11CheckFailedEPKciS1_yy 76
_ZN11__sanitizer24InternalMmapVectorNoCtorIN6__asan13DynInitGlobalEE9push_backERKS2_ _ZN11__sanitizer19RoundUpToPowerOfTwoEm 96
_ZN11__sanitizer24InternalMmapVectorNoCtorIN6__asan13DynInitGlobalEE9push_backERKS2_ _ZN11__sanitizer9MmapOrDieEmPKc 208
_ZN11__sanitizer24InternalMmapVectorNoCtorIN6__asan13DynInitGlobalEE9push_backERKS2_ _ZN11__sanitizer15internal_memcpyEPvPKvm 228
_ZN11__sanitizer24InternalMmapVectorNoCtorIN6__asan13DynInitGlobalEE9push_backERKS2_ _ZN11__sanitizer10UnmapOrDieEPvm 248
_ZN11__sanitizer24InternalMmapVectorNoCtorIN6__asan13DynInitGlobalEE9push_backERKS2_ .LC18 304
_ZN11__sanitizer24InternalMmapVectorNoCtorIN6__asan13DynInitGlobalEE9push_backERKS2_ .LC3 308
_ZN11__sanitizer24InternalMmapVectorNoCtorIN6__asan13DynInitGlobalEE9push_backERKS2_ .LC3 316
_ZN11__sanitizer24InternalMmapVectorNoCtorIN6__asan13DynInitGlobalEE9push_backERKS2_ .LC19 320
_ZN11__sanitizer24InternalMmapVectorNoCtorIN6__asan13DynInitGlobalEE9push_backERKS2_ .LC3 328
_ZN11__sanitizer24InternalMmapVectorNoCtorIN6__asan13DynInitGlobalEE9push_backERKS2_ .LC20 332
_ZN11__sanitizer24InternalMmapVectorNoCtorIN6__asan13DynInitGlobalEE9push_backERKS2_ .LC21 340
_ZN11__sanitizer24InternalMmapVectorNoCtorIN6__asan13DynInitGlobalEEixEm _ZN11__sanitizer11CheckFailedEPKciS1_yy 64
_ZN11__sanitizer24InternalMmapVectorNoCtorIN6__asan13DynInitGlobalEEixEm .LC3 84
_ZN11__sanitizer24InternalMmapVectorNoCtorIN6__asan13DynInitGlobalEEixEm .LC10 88
_ZN11__sanitizer24InternalMmapVectorNoCtorIN6__asan22GlobalRegistrationSiteEE9push_backERKS2_ _ZN11__sanitizer11CheckFailedEPKciS1_yy 76
_ZN11__sanitizer24InternalMmapVectorNoCtorIN6__asan22GlobalRegistrationSiteEE9push_backERKS2_ _ZN11__sanitizer19RoundUpToPowerOfTwoEm 96
_ZN11__sanitizer24InternalMmapVectorNoCtorIN6__asan22GlobalRegistrationSiteEE9push_backERKS2_ _ZN11__sanitizer9MmapOrDieEmPKc 212
_ZN11__sanitizer24InternalMmapVectorNoCtorIN6__asan22GlobalRegistrationSiteEE9push_backERKS2_ _ZN11__sanitizer15internal_memcpyEPvPKvm 232
_ZN11__sanitizer24InternalMmapVectorNoCtorIN6__asan22GlobalRegistrationSiteEE9push_backERKS2_ _ZN11__sanitizer10UnmapOrDieEPvm 252
_ZN11__sanitizer24InternalMmapVectorNoCtorIN6__asan22GlobalRegistrationSiteEE9push_backERKS2_ .LC18 300
_ZN11__sanitizer24InternalMmapVectorNoCtorIN6__asan22GlobalRegistrationSiteEE9push_backERKS2_ .LC3 304
_ZN11__sanitizer24InternalMmapVectorNoCtorIN6__asan22GlobalRegistrationSiteEE9push_backERKS2_ .LC3 312
_ZN11__sanitizer24InternalMmapVectorNoCtorIN6__asan22GlobalRegistrationSiteEE9push_backERKS2_ .LC19 316
_ZN11__sanitizer24InternalMmapVectorNoCtorIN6__asan22GlobalRegistrationSiteEE9push_backERKS2_ .LC3 324
_ZN11__sanitizer24InternalMmapVectorNoCtorIN6__asan22GlobalRegistrationSiteEE9push_backERKS2_ .LC20 328
_ZN11__sanitizer24InternalMmapVectorNoCtorIN6__asan22GlobalRegistrationSiteEE9push_backERKS2_ .LC21 336
_ZL19wrapped_gl_closedirPv __tls_get_addr 16
_ZL19wrapped_gl_closedirPv .LANCHOR1 44
_ZL19wrapped_gl_closedirPv .LANCHOR1 48
_ZL18wrapped_gl_readdirPv __tls_get_addr 16
_ZL18wrapped_gl_readdirPv .LANCHOR1 44
_ZL18wrapped_gl_readdirPv .LANCHOR1 48
_ZL18wrapped_gl_opendirPKc __tls_get_addr 16
_ZL18wrapped_gl_opendirPKc .LANCHOR1 44
_ZL18wrapped_gl_opendirPKc .LANCHOR1 48
_ZL16wrapped_gl_lstatPKcPv __tls_get_addr 20
_ZL16wrapped_gl_lstatPKcPv .LANCHOR1 52
_ZL16wrapped_gl_lstatPKcPv .LANCHOR1 56
_ZL15wrapped_gl_statPKcPv __tls_get_addr 20
_ZL15wrapped_gl_statPKcPv .LANCHOR1 52
_ZL15wrapped_gl_statPKcPv .LANCHOR1 56
_ZL22wrapped_scandir_filterPKN11__sanitizer18__sanitizer_direntE __tls_get_addr 16
_ZL22wrapped_scandir_filterPKN11__sanitizer18__sanitizer_direntE .LANCHOR1 44
_ZL22wrapped_scandir_filterPKN11__sanitizer18__sanitizer_direntE .LANCHOR1 48
_ZL22wrapped_scandir_comparPPKN11__sanitizer18__sanitizer_direntES3_ __tls_get_addr 20
_ZL22wrapped_scandir_comparPPKN11__sanitizer18__sanitizer_direntES3_ .LANCHOR1 52
_ZL22wrapped_scandir_comparPPKN11__sanitizer18__sanitizer_direntES3_ .LANCHOR1 56
_ZL24wrapped_scandir64_filterPKN11__sanitizer20__sanitizer_dirent64E __tls_get_addr 16
_ZL24wrapped_scandir64_filterPKN11__sanitizer20__sanitizer_dirent64E .LANCHOR1 44
_ZL24wrapped_scandir64_filterPKN11__sanitizer20__sanitizer_dirent64E .LANCHOR1 48
_ZL24wrapped_scandir64_comparPPKN11__sanitizer20__sanitizer_dirent64ES3_ __tls_get_addr 20
_ZL24wrapped_scandir64_comparPPKN11__sanitizer20__sanitizer_dirent64ES3_ .LANCHOR1 52
_ZL24wrapped_scandir64_comparPPKN11__sanitizer20__sanitizer_dirent64ES3_ .LANCHOR1 56
__interceptor_sem_init,sem_init _ZN6__asan15AsanInitFromRtlEv 80
__interceptor_sem_init,sem_init _ZN6__asan20asan_init_is_runningE 140
__interceptor_sem_init,sem_init _ZN6__asan11asan_initedE 148
__cxa_atexit,__interceptor___cxa_atexit _ZN11__sanitizer11CheckFailedEPKciS1_yy 76
__cxa_atexit,__interceptor___cxa_atexit _ZN6__asan15AsanInitFromRtlEv 108
__cxa_atexit,__interceptor___cxa_atexit _ZN6__asan20asan_init_is_runningE 184
__cxa_atexit,__interceptor___cxa_atexit .LC3 188
__cxa_atexit,__interceptor___cxa_atexit .LC2 192
__cxa_atexit,__interceptor___cxa_atexit _ZN6__asan11asan_initedE 200
_ZL12parse_numberPKcPi _ZN11__sanitizer14internal_atollEPKc 12
_ZL14char_is_one_ofcPKc _ZN11__sanitizer15internal_strchrEPKci 16
_ZN6__asanL16MaybeRealStrnlenEPKcm _ZN11__sanitizer16internal_strnlenEPKcm 24
__interceptor___tls_get_addr,__tls_get_addr _ZN6__asan15AsanInitFromRtlEv 72
__interceptor___tls_get_addr,__tls_get_addr _ZN6__asan16GetCurrentThreadEv 100
__interceptor___tls_get_addr,__tls_get_addr _ZN11__sanitizer20DTLS_on_tls_get_addrEPvS0_mm 128
__interceptor___tls_get_addr,__tls_get_addr _ZN6__asan20asan_init_is_runningE 144
__interceptor___tls_get_addr,__tls_get_addr _ZN6__asan11asan_initedE 152
__interceptor_fopencookie,fopencookie _ZN6__asan15AsanInitFromRtlEv 132
__interceptor_fopencookie,fopencookie _ZN11__sanitizer13InternalAllocEmPNS_28SizeClassAllocatorLocalCacheINS_20SizeClassAllocator32ILm0ELy4294967296ELm0ENS_12SizeClassMapILm17ELm64ELm14EEELm20ENS_11FlatByteMapILy4096EEENS_20NoOpMapUnmapCallbackEEEEE 144
__interceptor_fopencookie,fopencookie _ZN6__asan20asan_init_is_runningE 232
__interceptor_fopencookie,fopencookie _ZN6__asan11asan_initedE 240
_ZL13wrapped_closePv _ZN11__sanitizer12InternalFreeEPvPNS_28SizeClassAllocatorLocalCacheINS_20SizeClassAllocator32ILm0ELy4294967296ELm0ENS_12SizeClassMapILm17ELm64ELm14EEELm20ENS_11FlatByteMapILy4096EEENS_20NoOpMapUnmapCallbackEEEEE 44
_ZL11AtCxaAtexitPv _ZN6__asan21StopInitOrderCheckingEv 0
__interceptor_pthread_create,pthread_create _ZN6__asan27EnsureMainThreadIDIsCorrectEv 36
__interceptor_pthread_create,pthread_create _ZN6__asan21StopInitOrderCheckingEv 64
__interceptor_pthread_create,pthread_create _ZN11__sanitizer10StackTrace12GetCurrentPcEv 100
__interceptor_pthread_create,pthread_create _ZN6__asan16GetCurrentThreadEv 132
__interceptor_pthread_create,pthread_create _ZN6__asan22GetCurrentTidOrInvalidEv 260
__interceptor_pthread_create,pthread_create _ZN6__asan10AsanThread6CreateEPFPvS1_ES1_jPN11__sanitizer10StackTraceEb 296
__interceptor_pthread_create,pthread_create __sync_synchronize 304
__interceptor_pthread_create,pthread_create __sync_synchronize 316
__interceptor_pthread_create,pthread_create _ZN11__sanitizer20internal_sched_yieldEv 328
__interceptor_pthread_create,pthread_create _ZN11__sanitizer18BufferedStackTrace6UnwindEjmmPvmmb 380
__interceptor_pthread_create,pthread_create _ZN6__asan28asan_flags_dont_use_directlyE 408
__interceptor_pthread_create,pthread_create _ZN6__asan11asan_initedE 412
_ZL17asan_thread_startPv __sync_synchronize 12
_ZL17asan_thread_startPv _ZN11__sanitizer20internal_sched_yieldEv 24
_ZL17asan_thread_startPv _ZN6__asan16SetCurrentThreadEPNS_10AsanThreadE 36
_ZL17asan_thread_startPv _ZN11__sanitizer6GetTidEv 40
_ZL17asan_thread_startPv _ZN6__asan10AsanThread11ThreadStartEmPN11__sanitizer16atomic_uintptr_tE 60
__interceptor_signal,signal _ZN11__sanitizer14IsDeadlySignalEi 16
__interceptor_signal,signal _ZN11__sanitizer21common_flags_dont_useE 84
_ZL32ClearShadowMemoryForContextStackmm _ZN11__sanitizer17GetPageSizeCachedEv 16
_ZL32ClearShadowMemoryForContextStackmm _ZN11__sanitizer11CheckFailedEPKciS1_yy 80
_ZL32ClearShadowMemoryForContextStackmm _ZN6__asan12PoisonShadowEmmh 276
_ZL32ClearShadowMemoryForContextStackmm .LC5 284
_ZL32ClearShadowMemoryForContextStackmm .LC4 288
_ZL32ClearShadowMemoryForContextStackmm _ZN6__asan10kMidMemBegE 296
_ZL32ClearShadowMemoryForContextStackmm _ZN6__asan10kMidMemEndE 300
_ZL32ClearShadowMemoryForContextStackmm _ZN6__asan11kHighMemEndE 304
__interceptor_swapcontext,swapcontext _ZN11__sanitizer6ReportEPKcz 40
__interceptor_swapcontext,swapcontext _ZN6__asan16ReadContextStackEPvPmS1_ 64
__interceptor_swapcontext,swapcontext .LC6 128
__interceptor_longjmp,longjmp __asan_handle_no_return 12
__interceptor__longjmp,_longjmp __asan_handle_no_return 12
__interceptor_siglongjmp,siglongjmp __asan_handle_no_return 12
__cxa_throw,__interceptor___cxa_throw _ZN11__sanitizer11CheckFailedEPKciS1_yy 64
__cxa_throw,__interceptor___cxa_throw __asan_handle_no_return 80
__cxa_throw,__interceptor___cxa_throw .LC3 116
__cxa_throw,__interceptor___cxa_throw .LC7 120
__interceptor_fork,fork _ZN11__sanitizer11CheckFailedEPKciS1_yy 72
__interceptor_fork,fork _ZN6__asan15AsanInitFromRtlEv 96
__interceptor_fork,fork _ZN11__sanitizer13CovBeforeForkEv 120
__interceptor_fork,fork _ZN11__sanitizer12CovAfterForkEi 156
__interceptor_fork,fork _ZN6__asan20asan_init_is_runningE 176
__interceptor_fork,fork .LC3 180
__interceptor_fork,fork .LC2 184
__interceptor_fork,fork _ZN6__asan11asan_initedE 192
__interceptor_fork,fork _ZN11__sanitizer21common_flags_dont_useE 196
__interceptor_textdomain,textdomain _ZN6__asan15AsanInitFromRtlEv 92
__interceptor_textdomain,textdomain _ZN11__sanitizer10StackTrace12GetCurrentPcEv 180
__interceptor_textdomain,textdomain _ZN6__asan16GetCurrentThreadEv 212
__interceptor_textdomain,textdomain _ZN11__sanitizer18BufferedStackTrace6UnwindEjmmPvmmb 292
__interceptor_textdomain,textdomain _ZN11__sanitizer18BufferedStackTrace6UnwindEjmmPvmmb 360
__interceptor_textdomain,textdomain _ZN6__asan32ReportStringFunctionSizeOverflowEmmPN11__sanitizer18BufferedStackTraceE 376
__interceptor_textdomain,textdomain __asan_region_is_poisoned 408
__interceptor_textdomain,textdomain _ZN6__asan23IsInterceptorSuppressedEPKc 448
__interceptor_textdomain,textdomain _ZN6__asan31HaveStackTraceBasedSuppressionsEv 460
__interceptor_textdomain,textdomain _ZN11__sanitizer10StackTrace12GetCurrentPcEv 480
__interceptor_textdomain,textdomain _ZN6__asan18ReportGenericErrorEmmmmbmjb 512
__interceptor_textdomain,textdomain _ZN11__sanitizer10StackTrace12GetCurrentPcEv 540
__interceptor_textdomain,textdomain _ZN6__asan16GetCurrentThreadEv 572
__interceptor_textdomain,textdomain _ZN11__sanitizer18BufferedStackTrace6UnwindEjmmPvmmb 648
__interceptor_textdomain,textdomain _ZN11__sanitizer18BufferedStackTrace6UnwindEjmmPvmmb 716
__interceptor_textdomain,textdomain _ZN6__asan22IsStackTraceSuppressedEPKN11__sanitizer10StackTraceE 724
__interceptor_textdomain,textdomain _ZN6__asan20asan_init_is_runningE 744
__interceptor_textdomain,textdomain _ZN6__asan11asan_initedE 752
__interceptor_textdomain,textdomain _ZN11__sanitizer21common_flags_dont_useE 756
__interceptor_textdomain,textdomain .LC8 768
_ZL11StrstrCheckPvPcPKcS2_ _ZN11__sanitizer10StackTrace12GetCurrentPcEv 172
_ZL11StrstrCheckPvPcPKcS2_ _ZN6__asan16GetCurrentThreadEv 216
_ZL11StrstrCheckPvPcPKcS2_ _ZN11__sanitizer18BufferedStackTrace6UnwindEjmmPvmmb 296
_ZL11StrstrCheckPvPcPKcS2_ _ZN11__sanitizer18BufferedStackTrace6UnwindEjmmPvmmb 364
_ZL11StrstrCheckPvPcPKcS2_ _ZN6__asan32ReportStringFunctionSizeOverflowEmmPN11__sanitizer18BufferedStackTraceE 384
_ZL11StrstrCheckPvPcPKcS2_ __asan_region_is_poisoned 416
_ZL11StrstrCheckPvPcPKcS2_ _ZN11__sanitizer10StackTrace12GetCurrentPcEv 476
_ZL11StrstrCheckPvPcPKcS2_ _ZN6__asan16GetCurrentThreadEv 516
_ZL11StrstrCheckPvPcPKcS2_ _ZN11__sanitizer18BufferedStackTrace6UnwindEjmmPvmmb 592
_ZL11StrstrCheckPvPcPKcS2_ _ZN6__asan23IsInterceptorSuppressedEPKc 624
_ZL11StrstrCheckPvPcPKcS2_ _ZN6__asan31HaveStackTraceBasedSuppressionsEv 636
_ZL11StrstrCheckPvPcPKcS2_ _ZN11__sanitizer10StackTrace12GetCurrentPcEv 648
_ZL11StrstrCheckPvPcPKcS2_ _ZN6__asan18ReportGenericErrorEmmmmbmjb 684
_ZL11StrstrCheckPvPcPKcS2_ _ZN11__sanitizer10StackTrace12GetCurrentPcEv 720
_ZL11StrstrCheckPvPcPKcS2_ _ZN6__asan16GetCurrentThreadEv 768
_ZL11StrstrCheckPvPcPKcS2_ _ZN11__sanitizer18BufferedStackTrace6UnwindEjmmPvmmb 848
_ZL11StrstrCheckPvPcPKcS2_ _ZN11__sanitizer18BufferedStackTrace6UnwindEjmmPvmmb 916
_ZL11StrstrCheckPvPcPKcS2_ _ZN6__asan22IsStackTraceSuppressedEPKN11__sanitizer10StackTraceE 928
_ZL11StrstrCheckPvPcPKcS2_ _ZN11__sanitizer18BufferedStackTrace6UnwindEjmmPvmmb 1000
_ZL11StrstrCheckPvPcPKcS2_ _ZN6__asan32ReportStringFunctionSizeOverflowEmmPN11__sanitizer18BufferedStackTraceE 1016
_ZL11StrstrCheckPvPcPKcS2_ __asan_region_is_poisoned 1048
_ZL11StrstrCheckPvPcPKcS2_ _ZN6__asan23IsInterceptorSuppressedEPKc 1088
_ZL11StrstrCheckPvPcPKcS2_ _ZN6__asan31HaveStackTraceBasedSuppressionsEv 1100
_ZL11StrstrCheckPvPcPKcS2_ _ZN11__sanitizer10StackTrace12GetCurrentPcEv 1112
_ZL11StrstrCheckPvPcPKcS2_ _ZN6__asan18ReportGenericErrorEmmmmbmjb 1148
_ZL11StrstrCheckPvPcPKcS2_ _ZN11__sanitizer10StackTrace12GetCurrentPcEv 1184
_ZL11StrstrCheckPvPcPKcS2_ _ZN6__asan16GetCurrentThreadEv 1224
_ZL11StrstrCheckPvPcPKcS2_ _ZN11__sanitizer18BufferedStackTrace6UnwindEjmmPvmmb 1300
_ZL11StrstrCheckPvPcPKcS2_ _ZN11__sanitizer18BufferedStackTrace6UnwindEjmmPvmmb 1372
_ZL11StrstrCheckPvPcPKcS2_ _ZN6__asan22IsStackTraceSuppressedEPKN11__sanitizer10StackTraceE 1380
_ZL11StrstrCheckPvPcPKcS2_ _ZN11__sanitizer21common_flags_dont_useE 1404
_ZL11StrstrCheckPvPcPKcS2_ _ZN6__asan11asan_initedE 1408
__interceptor_strstr,strstr _ZN11__sanitizer15internal_strstrEPKcS1_ 32
__interceptor_strstr,strstr _ZN6__asan11asan_initedE 180
__interceptor_strstr,strstr .LC9 184
__interceptor_strstr,strstr _ZN6__asan20asan_init_is_runningE 188
__interceptor_strstr,strstr _ZN11__sanitizer21common_flags_dont_useE 200
__interceptor_strcasestr,strcasestr _ZN6__asan15AsanInitFromRtlEv 104
__interceptor_strcasestr,strcasestr .LC10 180
__interceptor_strcasestr,strcasestr _ZN6__asan20asan_init_is_runningE 188
__interceptor_strcasestr,strcasestr _ZN6__asan11asan_initedE 196
__interceptor_strcasestr,strcasestr _ZN11__sanitizer21common_flags_dont_useE 204
__interceptor_strspn,strspn _ZN6__asan15AsanInitFromRtlEv 104
__interceptor_strspn,strspn _ZN11__sanitizer10StackTrace12GetCurrentPcEv 216
__interceptor_strspn,strspn _ZN6__asan16GetCurrentThreadEv 252
__interceptor_strspn,strspn _ZN11__sanitizer18BufferedStackTrace6UnwindEjmmPvmmb 348
__interceptor_strspn,strspn _ZN11__sanitizer18BufferedStackTrace6UnwindEjmmPvmmb 424
__interceptor_strspn,strspn _ZN6__asan32ReportStringFunctionSizeOverflowEmmPN11__sanitizer18BufferedStackTraceE 444
__interceptor_strspn,strspn __asan_region_is_poisoned 476
__interceptor_strspn,strspn _ZN11__sanitizer10StackTrace12GetCurrentPcEv 572
__interceptor_strspn,strspn _ZN6__asan16GetCurrentThreadEv 604
__interceptor_strspn,strspn _ZN11__sanitizer18BufferedStackTrace6UnwindEjmmPvmmb 692
__interceptor_strspn,strspn _ZN6__asan23IsInterceptorSuppressedEPKc 716
__interceptor_strspn,strspn _ZN6__asan31HaveStackTraceBasedSuppressionsEv 728
__interceptor_strspn,strspn _ZN11__sanitizer10StackTrace12GetCurrentPcEv 740
__interceptor_strspn,strspn _ZN6__asan18ReportGenericErrorEmmmmbmjb 776
__interceptor_strspn,strspn _ZN11__sanitizer10StackTrace12GetCurrentPcEv 812
__interceptor_strspn,strspn _ZN6__asan16GetCurrentThreadEv 848
__interceptor_strspn,strspn _ZN11__sanitizer18BufferedStackTrace6UnwindEjmmPvmmb 936
__interceptor_strspn,strspn _ZN11__sanitizer18BufferedStackTrace6UnwindEjmmPvmmb 1008
__interceptor_strspn,strspn _ZN6__asan22IsStackTraceSuppressedEPKN11__sanitizer10StackTraceE 1020
__interceptor_strspn,strspn _ZN11__sanitizer18BufferedStackTrace6UnwindEjmmPvmmb 1092
__interceptor_strspn,strspn _ZN6__asan32ReportStringFunctionSizeOverflowEmmPN11__sanitizer18BufferedStackTraceE 1108
__interceptor_strspn,strspn __asan_region_is_poisoned 1140
__interceptor_strspn,strspn _ZN6__asan23IsInterceptorSuppressedEPKc 1164
__interceptor_strspn,strspn _ZN6__asan31HaveStackTraceBasedSuppressionsEv 1176
__interceptor_strspn,strspn _ZN11__sanitizer10StackTrace12GetCurrentPcEv 1196
__interceptor_strspn,strspn _ZN6__asan18ReportGenericErrorEmmmmbmjb 1228
__interceptor_strspn,strspn _ZN11__sanitizer10StackTrace12GetCurrentPcEv 1256
__interceptor_strspn,strspn _ZN6__asan16GetCurrentThreadEv 1288
__interceptor_strspn,strspn _ZN11__sanitizer18BufferedStackTrace6UnwindEjmmPvmmb 1364
__interceptor_strspn,strspn _ZN11__sanitizer18BufferedStackTrace6UnwindEjmmPvmmb 1432
__interceptor_strspn,strspn _ZN6__asan22IsStackTraceSuppressedEPKN11__sanitizer10StackTraceE 1440
__interceptor_strspn,strspn _ZN6__asan20asan_init_is_runningE 1460
__interceptor_strspn,strspn _ZN6__asan11asan_initedE 1468
__interceptor_strspn,strspn _ZN11__sanitizer21common_flags_dont_useE 1476
__interceptor_strspn,strspn .LC11 1484
__interceptor_strspn,strspn .LC11 1488
__interceptor_strcspn,strcspn _ZN6__asan15AsanInitFromRtlEv 104
__interceptor_strcspn,strcspn _ZN11__sanitizer10StackTrace12GetCurrentPcEv 216
__interceptor_strcspn,strcspn _ZN6__asan16GetCurrentThreadEv 252
__interceptor_strcspn,strcspn _ZN11__sanitizer18BufferedStackTrace6UnwindEjmmPvmmb 348
__interceptor_strcspn,strcspn _ZN11__sanitizer18BufferedStackTrace6UnwindEjmmPvmmb 424
__interceptor_strcspn,strcspn _ZN6__asan32ReportStringFunctionSizeOverflowEmmPN11__sanitizer18BufferedStackTraceE 444
__interceptor_strcspn,strcspn __asan_region_is_poisoned 476
__interceptor_strcspn,strcspn _ZN11__sanitizer10StackTrace12GetCurrentPcEv 572
__interceptor_strcspn,strcspn _ZN6__asan16GetCurrentThreadEv 604
__interceptor_strcspn,strcspn _ZN11__sanitizer18BufferedStackTrace6UnwindEjmmPvmmb 692
__interceptor_strcspn,strcspn _ZN6__asan23IsInterceptorSuppressedEPKc 716
__interceptor_strcspn,strcspn _ZN6__asan31HaveStackTraceBasedSuppressionsEv 728
__interceptor_strcspn,strcspn _ZN11__sanitizer10StackTrace12GetCurrentPcEv 740
__interceptor_strcspn,strcspn _ZN6__asan18ReportGenericErrorEmmmmbmjb 776
__interceptor_strcspn,strcspn _ZN11__sanitizer10StackTrace12GetCurrentPcEv 812
__interceptor_strcspn,strcspn _ZN6__asan16GetCurrentThreadEv 848
__interceptor_strcspn,strcspn _ZN11__sanitizer18BufferedStackTrace6UnwindEjmmPvmmb 936
__interceptor_strcspn,strcspn _ZN11__sanitizer18BufferedStackTrace6UnwindEjmmPvmmb 1008
__interceptor_strcspn,strcspn _ZN6__asan22IsStackTraceSuppressedEPKN11__sanitizer10StackTraceE 1020
__interceptor_strcspn,strcspn _ZN11__sanitizer18BufferedStackTrace6UnwindEjmmPvmmb 1092
__interceptor_strcspn,strcspn _ZN6__asan32ReportStringFunctionSizeOverflowEmmPN11__sanitizer18BufferedStackTraceE 1108
__interceptor_strcspn,strcspn __asan_region_is_poisoned 1140
__interceptor_strcspn,strcspn _ZN6__asan23IsInterceptorSuppressedEPKc 1164
__interceptor_strcspn,strcspn _ZN6__asan31HaveStackTraceBasedSuppressionsEv 1176
__interceptor_strcspn,strcspn _ZN11__sanitizer10StackTrace12GetCurrentPcEv 1196
__interceptor_strcspn,strcspn _ZN6__asan18ReportGenericErrorEmmmmbmjb 1228
__interceptor_strcspn,strcspn _ZN11__sanitizer10StackTrace12GetCurrentPcEv 1256
__interceptor_strcspn,strcspn _ZN6__asan16GetCurrentThreadEv 1288
__interceptor_strcspn,strcspn _ZN11__sanitizer18BufferedStackTrace6UnwindEjmmPvmmb 1364
__interceptor_strcspn,strcspn _ZN11__sanitizer18BufferedStackTrace6UnwindEjmmPvmmb 1432
__interceptor_strcspn,strcspn _ZN6__asan22IsStackTraceSuppressedEPKN11__sanitizer10StackTraceE 1440
__interceptor_strcspn,strcspn _ZN6__asan20asan_init_is_runningE 1460
__interceptor_strcspn,strcspn _ZN6__asan11asan_initedE 1468
__interceptor_strcspn,strcspn _ZN11__sanitizer21common_flags_dont_useE 1476
__interceptor_strcspn,strcspn .LC12 1484
__interceptor_strcspn,strcspn .LC12 1488
__interceptor_strpbrk,strpbrk _ZN6__asan15AsanInitFromRtlEv 104
__interceptor_strpbrk,strpbrk _ZN11__sanitizer10StackTrace12GetCurrentPcEv 216
__interceptor_strpbrk,strpbrk _ZN6__asan16GetCurrentThreadEv 252
__interceptor_strpbrk,strpbrk _ZN11__sanitizer18BufferedStackTrace6UnwindEjmmPvmmb 348
__interceptor_strpbrk,strpbrk _ZN11__sanitizer18BufferedStackTrace6UnwindEjmmPvmmb 452
__interceptor_strpbrk,strpbrk _ZN6__asan32ReportStringFunctionSizeOverflowEmmPN11__sanitizer18BufferedStackTraceE 472
__interceptor_strpbrk,strpbrk __asan_region_is_poisoned 504
__interceptor_strpbrk,strpbrk _ZN11__sanitizer10StackTrace12GetCurrentPcEv 596
__interceptor_strpbrk,strpbrk _ZN6__asan16GetCurrentThreadEv 628
__interceptor_strpbrk,strpbrk _ZN11__sanitizer18BufferedStackTrace6UnwindEjmmPvmmb 716
__interceptor_strpbrk,strpbrk _ZN6__asan23IsInterceptorSuppressedEPKc 740
__interceptor_strpbrk,strpbrk _ZN6__asan31HaveStackTraceBasedSuppressionsEv 752
__interceptor_strpbrk,strpbrk _ZN11__sanitizer10StackTrace12GetCurrentPcEv 764
__interceptor_strpbrk,strpbrk _ZN6__asan18ReportGenericErrorEmmmmbmjb 800
__interceptor_strpbrk,strpbrk _ZN11__sanitizer10StackTrace12GetCurrentPcEv 836
__interceptor_strpbrk,strpbrk _ZN6__asan16GetCurrentThreadEv 872
__interceptor_strpbrk,strpbrk _ZN11__sanitizer18BufferedStackTrace6UnwindEjmmPvmmb 960
__interceptor_strpbrk,strpbrk _ZN11__sanitizer18BufferedStackTrace6UnwindEjmmPvmmb 1032
__interceptor_strpbrk,strpbrk _ZN6__asan22IsStackTraceSuppressedEPKN11__sanitizer10StackTraceE 1044
__interceptor_strpbrk,strpbrk _ZN11__sanitizer18BufferedStackTrace6UnwindEjmmPvmmb 1116
__interceptor_strpbrk,strpbrk _ZN6__asan32ReportStringFunctionSizeOverflowEmmPN11__sanitizer18BufferedStackTraceE 1132
__interceptor_strpbrk,strpbrk __asan_region_is_poisoned 1164
__interceptor_strpbrk,strpbrk _ZN6__asan23IsInterceptorSuppressedEPKc 1188
__interceptor_strpbrk,strpbrk _ZN6__asan31HaveStackTraceBasedSuppressionsEv 1200
__interceptor_strpbrk,strpbrk _ZN11__sanitizer10StackTrace12GetCurrentPcEv 1220
__interceptor_strpbrk,strpbrk _ZN6__asan18ReportGenericErrorEmmmmbmjb 1252
__interceptor_strpbrk,strpbrk _ZN11__sanitizer10StackTrace12GetCurrentPcEv 1280
__interceptor_strpbrk,strpbrk _ZN6__asan16GetCurrentThreadEv 1312
__interceptor_strpbrk,strpbrk _ZN11__sanitizer18BufferedStackTrace6UnwindEjmmPvmmb 1388
__interceptor_strpbrk,strpbrk _ZN11__sanitizer18BufferedStackTrace6UnwindEjmmPvmmb 1456
__interceptor_strpbrk,strpbrk _ZN6__asan22IsStackTraceSuppressedEPKN11__sanitizer10StackTraceE 1464
__interceptor_strpbrk,strpbrk _ZN6__asan20asan_init_is_runningE 1484
__interceptor_strpbrk,strpbrk _ZN6__asan11asan_initedE 1492
__interceptor_strpbrk,strpbrk _ZN11__sanitizer21common_flags_dont_useE 1500
__interceptor_strpbrk,strpbrk .LC13 1512
__interceptor_strpbrk,strpbrk .LC13 1516
__interceptor_memrchr,memrchr _ZN6__asan15AsanInitFromRtlEv 100
__interceptor_memrchr,memrchr _ZN11__sanitizer10StackTrace12GetCurrentPcEv 144
__interceptor_memrchr,memrchr _ZN6__asan16GetCurrentThreadEv 184
__interceptor_memrchr,memrchr _ZN11__sanitizer18BufferedStackTrace6UnwindEjmmPvmmb 264
__interceptor_memrchr,memrchr _ZN11__sanitizer18BufferedStackTrace6UnwindEjmmPvmmb 332
__interceptor_memrchr,memrchr _ZN6__asan32ReportStringFunctionSizeOverflowEmmPN11__sanitizer18BufferedStackTraceE 348
__interceptor_memrchr,memrchr __asan_region_is_poisoned 380
__interceptor_memrchr,memrchr _ZN6__asan23IsInterceptorSuppressedEPKc 432
__interceptor_memrchr,memrchr _ZN6__asan31HaveStackTraceBasedSuppressionsEv 444
__interceptor_memrchr,memrchr _ZN11__sanitizer10StackTrace12GetCurrentPcEv 464
__interceptor_memrchr,memrchr _ZN6__asan18ReportGenericErrorEmmmmbmjb 496
__interceptor_memrchr,memrchr _ZN11__sanitizer10StackTrace12GetCurrentPcEv 524
__interceptor_memrchr,memrchr _ZN6__asan16GetCurrentThreadEv 564
__interceptor_memrchr,memrchr _ZN11__sanitizer18BufferedStackTrace6UnwindEjmmPvmmb 640
__interceptor_memrchr,memrchr _ZN11__sanitizer18BufferedStackTrace6UnwindEjmmPvmmb 708
__interceptor_memrchr,memrchr _ZN6__asan22IsStackTraceSuppressedEPKN11__sanitizer10StackTraceE 716
__interceptor_memrchr,memrchr _ZN6__asan20asan_init_is_runningE 736
__interceptor_memrchr,memrchr _ZN6__asan11asan_initedE 744
__interceptor_memrchr,memrchr _ZN11__sanitizer21common_flags_dont_useE 748
__interceptor_memrchr,memrchr .LC14 756
__interceptor_frexp,frexp _ZN6__asan15AsanInitFromRtlEv 104
__interceptor_frexp,frexp _ZN11__sanitizer10StackTrace12GetCurrentPcEv 148
__interceptor_frexp,frexp _ZN6__asan16GetCurrentThreadEv 184
__interceptor_frexp,frexp _ZN11__sanitizer18BufferedStackTrace6UnwindEjmmPvmmb 260
__interceptor_frexp,frexp _ZN11__sanitizer18BufferedStackTrace6UnwindEjmmPvmmb 328
__interceptor_frexp,frexp _ZN6__asan32ReportStringFunctionSizeOverflowEmmPN11__sanitizer18BufferedStackTraceE 344
__interceptor_frexp,frexp __asan_region_is_poisoned 376
__interceptor_frexp,frexp _ZN6__asan23IsInterceptorSuppressedEPKc 432
__interceptor_frexp,frexp _ZN6__asan31HaveStackTraceBasedSuppressionsEv 444
__interceptor_frexp,frexp _ZN11__sanitizer10StackTrace12GetCurrentPcEv 464
__interceptor_frexp,frexp _ZN6__asan18ReportGenericErrorEmmmmbmjb 504
__interceptor_frexp,frexp _ZN11__sanitizer10StackTrace12GetCurrentPcEv 532
__interceptor_frexp,frexp _ZN6__asan16GetCurrentThreadEv 568
__interceptor_frexp,frexp _ZN11__sanitizer18BufferedStackTrace6UnwindEjmmPvmmb 644
__interceptor_frexp,frexp _ZN11__sanitizer18BufferedStackTrace6UnwindEjmmPvmmb 716
__interceptor_frexp,frexp _ZN6__asan22IsStackTraceSuppressedEPKN11__sanitizer10StackTraceE 724
__interceptor_frexp,frexp _ZN6__asan20asan_init_is_runningE 744
__interceptor_frexp,frexp _ZN6__asan11asan_initedE 752
__interceptor_frexp,frexp _ZN11__sanitizer21common_flags_dont_useE 756
__interceptor_frexp,frexp .LC15 764
__interceptor_frexpf,frexpf _ZN6__asan15AsanInitFromRtlEv 104
__interceptor_frexpf,frexpf _ZN11__sanitizer10StackTrace12GetCurrentPcEv 176
__interceptor_frexpf,frexpf _ZN6__asan16GetCurrentThreadEv 216
__interceptor_frexpf,frexpf _ZN11__sanitizer18BufferedStackTrace6UnwindEjmmPvmmb 296
__interceptor_frexpf,frexpf _ZN11__sanitizer18BufferedStackTrace6UnwindEjmmPvmmb 364
__interceptor_frexpf,frexpf _ZN6__asan32ReportStringFunctionSizeOverflowEmmPN11__sanitizer18BufferedStackTraceE 380
__interceptor_frexpf,frexpf __asan_region_is_poisoned 412
__interceptor_frexpf,frexpf _ZN6__asan23IsInterceptorSuppressedEPKc 432
__interceptor_frexpf,frexpf _ZN6__asan31HaveStackTraceBasedSuppressionsEv 444
__interceptor_frexpf,frexpf _ZN11__sanitizer10StackTrace12GetCurrentPcEv 464
__interceptor_frexpf,frexpf _ZN6__asan18ReportGenericErrorEmmmmbmjb 504
__interceptor_frexpf,frexpf _ZN11__sanitizer10StackTrace12GetCurrentPcEv 532
__interceptor_frexpf,frexpf _ZN6__asan16GetCurrentThreadEv 568
__interceptor_frexpf,frexpf _ZN11__sanitizer18BufferedStackTrace6UnwindEjmmPvmmb 644
__interceptor_frexpf,frexpf _ZN11__sanitizer18BufferedStackTrace6UnwindEjmmPvmmb 716
__interceptor_frexpf,frexpf _ZN6__asan22IsStackTraceSuppressedEPKN11__sanitizer10StackTraceE 724
__interceptor_frexpf,frexpf _ZN6__asan20asan_init_is_runningE 744
__interceptor_frexpf,frexpf _ZN6__asan11asan_initedE 752
__interceptor_frexpf,frexpf _ZN11__sanitizer21common_flags_dont_useE 760
__interceptor_frexpf,frexpf .LC16 764
__interceptor_frexpl,frexpl _ZN6__asan15AsanInitFromRtlEv 120
__interceptor_frexpl,frexpl _ZN11__sanitizer10StackTrace12GetCurrentPcEv 200
__interceptor_frexpl,frexpl _ZN6__asan16GetCurrentThreadEv 244
__interceptor_frexpl,frexpl _ZN11__sanitizer18BufferedStackTrace6UnwindEjmmPvmmb 324
__interceptor_frexpl,frexpl _ZN11__sanitizer18BufferedStackTrace6UnwindEjmmPvmmb 392
__interceptor_frexpl,frexpl _ZN6__asan32ReportStringFunctionSizeOverflowEmmPN11__sanitizer18BufferedStackTraceE 408
__interceptor_frexpl,frexpl __asan_region_is_poisoned 440
__interceptor_frexpl,frexpl _ZN6__asan23IsInterceptorSuppressedEPKc 460
__interceptor_frexpl,frexpl _ZN6__asan31HaveStackTraceBasedSuppressionsEv 472
__interceptor_frexpl,frexpl _ZN11__sanitizer10StackTrace12GetCurrentPcEv 492
__interceptor_frexpl,frexpl _ZN6__asan18ReportGenericErrorEmmmmbmjb 532
__interceptor_frexpl,frexpl _ZN11__sanitizer10StackTrace12GetCurrentPcEv 560
__interceptor_frexpl,frexpl _ZN6__asan16GetCurrentThreadEv 604
__interceptor_frexpl,frexpl _ZN11__sanitizer18BufferedStackTrace6UnwindEjmmPvmmb 680
__interceptor_frexpl,frexpl _ZN11__sanitizer18BufferedStackTrace6UnwindEjmmPvmmb 748
__interceptor_frexpl,frexpl _ZN6__asan22IsStackTraceSuppressedEPKN11__sanitizer10StackTraceE 756
__interceptor_frexpl,frexpl _ZN6__asan20asan_init_is_runningE 776
__interceptor_frexpl,frexpl _ZN6__asan11asan_initedE 784
__interceptor_frexpl,frexpl _ZN11__sanitizer21common_flags_dont_useE 792
__interceptor_frexpl,frexpl .LC17 796
__interceptor_read,read _ZN6__asan15AsanInitFromRtlEv 108
__interceptor_read,read _ZN11__sanitizer10StackTrace12GetCurrentPcEv 188
__interceptor_read,read _ZN6__asan16GetCurrentThreadEv 228
__interceptor_read,read _ZN11__sanitizer18BufferedStackTrace6UnwindEjmmPvmmb 308
__interceptor_read,read _ZN11__sanitizer18BufferedStackTrace6UnwindEjmmPvmmb 376
__interceptor_read,read _ZN6__asan32ReportStringFunctionSizeOverflowEmmPN11__sanitizer18BufferedStackTraceE 392
__interceptor_read,read __asan_region_is_poisoned 424
__interceptor_read,read _ZN6__asan23IsInterceptorSuppressedEPKc 448
__interceptor_read,read _ZN6__asan31HaveStackTraceBasedSuppressionsEv 460
__interceptor_read,read _ZN11__sanitizer10StackTrace12GetCurrentPcEv 480
__interceptor_read,read _ZN6__asan18ReportGenericErrorEmmmmbmjb 520
__interceptor_read,read _ZN11__sanitizer10StackTrace12GetCurrentPcEv 548
__interceptor_read,read _ZN6__asan16GetCurrentThreadEv 584
__interceptor_read,read _ZN11__sanitizer18BufferedStackTrace6UnwindEjmmPvmmb 660
__interceptor_read,read _ZN11__sanitizer18BufferedStackTrace6UnwindEjmmPvmmb 732
__interceptor_read,read _ZN6__asan22IsStackTraceSuppressedEPKN11__sanitizer10StackTraceE 740
__interceptor_read,read _ZN6__asan20asan_init_is_runningE 760
__interceptor_read,read _ZN6__asan11asan_initedE 768
__interceptor_read,read _ZN11__sanitizer21common_flags_dont_useE 776
__interceptor_read,read .LC18 780
__interceptor_pread,pread _ZN6__asan15AsanInitFromRtlEv 112
__interceptor_pread,pread _ZN11__sanitizer10StackTrace12GetCurrentPcEv 196
__interceptor_pread,pread _ZN6__asan16GetCurrentThreadEv 236
__interceptor_pread,pread _ZN11__sanitizer18BufferedStackTrace6UnwindEjmmPvmmb 316
__interceptor_pread,pread _ZN11__sanitizer18BufferedStackTrace6UnwindEjmmPvmmb 384
__interceptor_pread,pread _ZN6__asan32ReportStringFunctionSizeOverflowEmmPN11__sanitizer18BufferedStackTraceE 400
__interceptor_pread,pread __asan_region_is_poisoned 432
__interceptor_pread,pread _ZN6__asan23IsInterceptorSuppressedEPKc 456
__interceptor_pread,pread _ZN6__asan31HaveStackTraceBasedSuppressionsEv 468
__interceptor_pread,pread _ZN11__sanitizer10StackTrace12GetCurrentPcEv 488
__interceptor_pread,pread _ZN6__asan18ReportGenericErrorEmmmmbmjb 528
__interceptor_pread,pread _ZN11__sanitizer10StackTrace12GetCurrentPcEv 556
__interceptor_pread,pread _ZN6__asan16GetCurrentThreadEv 592
__interceptor_pread,pread _ZN11__sanitizer18BufferedStackTrace6UnwindEjmmPvmmb 668
__interceptor_pread,pread _ZN11__sanitizer18BufferedStackTrace6UnwindEjmmPvmmb 740
__interceptor_pread,pread _ZN6__asan22IsStackTraceSuppressedEPKN11__sanitizer10StackTraceE 748
__interceptor_pread,pread _ZN6__asan20asan_init_is_runningE 768
__interceptor_pread,pread _ZN6__asan11asan_initedE 776
__interceptor_pread,pread _ZN11__sanitizer21common_flags_dont_useE 784
__interceptor_pread,pread .LC19 788
__interceptor_pread64,pread64 _ZN6__asan15AsanInitFromRtlEv 116
__interceptor_pread64,pread64 _ZN11__sanitizer10StackTrace12GetCurrentPcEv 200
__interceptor_pread64,pread64 _ZN6__asan16GetCurrentThreadEv 240
__interceptor_pread64,pread64 _ZN11__sanitizer18BufferedStackTrace6UnwindEjmmPvmmb 320
__interceptor_pread64,pread64 _ZN11__sanitizer18BufferedStackTrace6UnwindEjmmPvmmb 388
__interceptor_pread64,pread64 _ZN6__asan32ReportStringFunctionSizeOverflowEmmPN11__sanitizer18BufferedStackTraceE 404
__interceptor_pread64,pread64 __asan_region_is_poisoned 436
__interceptor_pread64,pread64 _ZN6__asan23IsInterceptorSuppressedEPKc 456
__interceptor_pread64,pread64 _ZN6__asan31HaveStackTraceBasedSuppressionsEv 468
__interceptor_pread64,pread64 _ZN11__sanitizer10StackTrace12GetCurrentPcEv 488
__interceptor_pread64,pread64 _ZN6__asan18ReportGenericErrorEmmmmbmjb 528
__interceptor_pread64,pread64 _ZN11__sanitizer10StackTrace12GetCurrentPcEv 556
__interceptor_pread64,pread64 _ZN6__asan16GetCurrentThreadEv 592
__interceptor_pread64,pread64 _ZN11__sanitizer18BufferedStackTrace6UnwindEjmmPvmmb 668
__interceptor_pread64,pread64 _ZN11__sanitizer18BufferedStackTrace6UnwindEjmmPvmmb 740
__interceptor_pread64,pread64 _ZN6__asan22IsStackTraceSuppressedEPKN11__sanitizer10StackTraceE 748
__interceptor_pread64,pread64 _ZN6__asan20asan_init_is_runningE 768
__interceptor_pread64,pread64 _ZN6__asan11asan_initedE 776
__interceptor_pread64,pread64 _ZN11__sanitizer21common_flags_dont_useE 784
__interceptor_pread64,pread64 .LC20 788
__interceptor_write,write _ZN6__asan15AsanInitFromRtlEv 108
__interceptor_write,write _ZN11__sanitizer10StackTrace12GetCurrentPcEv 188
__interceptor_write,write _ZN6__asan16GetCurrentThreadEv 228
__interceptor_write,write _ZN11__sanitizer18BufferedStackTrace6UnwindEjmmPvmmb 308
__interceptor_write,write _ZN11__sanitizer18BufferedStackTrace6UnwindEjmmPvmmb 376
__interceptor_write,write _ZN6__asan32ReportStringFunctionSizeOverflowEmmPN11__sanitizer18BufferedStackTraceE 392
__interceptor_write,write __asan_region_is_poisoned 424
__interceptor_write,write _ZN6__asan23IsInterceptorSuppressedEPKc 448
__interceptor_write,write _ZN6__asan31HaveStackTraceBasedSuppressionsEv 460
__interceptor_write,write _ZN11__sanitizer10StackTrace12GetCurrentPcEv 480
__interceptor_write,write _ZN6__asan18ReportGenericErrorEmmmmbmjb 512
__interceptor_write,write _ZN11__sanitizer10StackTrace12GetCurrentPcEv 540
__interceptor_write,write _ZN6__asan16GetCurrentThreadEv 576
__interceptor_write,write _ZN11__sanitizer18BufferedStackTrace6UnwindEjmmPvmmb 652
__interceptor_write,write _ZN11__sanitizer18BufferedStackTrace6UnwindEjmmPvmmb 724
__interceptor_write,write _ZN6__asan22IsStackTraceSuppressedEPKN11__sanitizer10StackTraceE 732
__interceptor_write,write _ZN6__asan20asan_init_is_runningE 752
__interceptor_write,write _ZN6__asan11asan_initedE 760
__interceptor_write,write _ZN11__sanitizer21common_flags_dont_useE 768
__interceptor_write,write .LC21 772
__interceptor_pwrite,pwrite _ZN6__asan15AsanInitFromRtlEv 112
__interceptor_pwrite,pwrite _ZN11__sanitizer10StackTrace12GetCurrentPcEv 196
__interceptor_pwrite,pwrite _ZN6__asan16GetCurrentThreadEv 236
__interceptor_pwrite,pwrite _ZN11__sanitizer18BufferedStackTrace6UnwindEjmmPvmmb 316
__interceptor_pwrite,pwrite _ZN11__sanitizer18BufferedStackTrace6UnwindEjmmPvmmb 384
__interceptor_pwrite,pwrite _ZN6__asan32ReportStringFunctionSizeOverflowEmmPN11__sanitizer18BufferedStackTraceE 400
__interceptor_pwrite,pwrite __asan_region_is_poisoned 432
__interceptor_pwrite,pwrite _ZN6__asan23IsInterceptorSuppressedEPKc 456
__interceptor_pwrite,pwrite _ZN6__asan31HaveStackTraceBasedSuppressionsEv 468
__interceptor_pwrite,pwrite _ZN11__sanitizer10StackTrace12GetCurrentPcEv 488
__interceptor_pwrite,pwrite _ZN6__asan18ReportGenericErrorEmmmmbmjb 520
__interceptor_pwrite,pwrite _ZN11__sanitizer10StackTrace12GetCurrentPcEv 548
__interceptor_pwrite,pwrite _ZN6__asan16GetCurrentThreadEv 584
__interceptor_pwrite,pwrite _ZN11__sanitizer18BufferedStackTrace6UnwindEjmmPvmmb 660
__interceptor_pwrite,pwrite _ZN11__sanitizer18BufferedStackTrace6UnwindEjmmPvmmb 732
__interceptor_pwrite,pwrite _ZN6__asan22IsStackTraceSuppressedEPKN11__sanitizer10StackTraceE 740
__interceptor_pwrite,pwrite _ZN6__asan20asan_init_is_runningE 760
__interceptor_pwrite,pwrite _ZN6__asan11asan_initedE 768
__interceptor_pwrite,pwrite _ZN11__sanitizer21common_flags_dont_useE 776
__interceptor_pwrite,pwrite .LC22 780
__interceptor_pwrite64,pwrite64 _ZN6__asan15AsanInitFromRtlEv 120
__interceptor_pwrite64,pwrite64 _ZN11__sanitizer10StackTrace12GetCurrentPcEv 212
__interceptor_pwrite64,pwrite64 _ZN6__asan16GetCurrentThreadEv 252
__interceptor_pwrite64,pwrite64 _ZN11__sanitizer18BufferedStackTrace6UnwindEjmmPvmmb 332
__interceptor_pwrite64,pwrite64 _ZN11__sanitizer18BufferedStackTrace6UnwindEjmmPvmmb 400
__interceptor_pwrite64,pwrite64 _ZN6__asan32ReportStringFunctionSizeOverflowEmmPN11__sanitizer18BufferedStackTraceE 416
__interceptor_pwrite64,pwrite64 __asan_region_is_poisoned 448
__interceptor_pwrite64,pwrite64 _ZN6__asan23IsInterceptorSuppressedEPKc 472
__interceptor_pwrite64,pwrite64 _ZN6__asan31HaveStackTraceBasedSuppressionsEv 484
__interceptor_pwrite64,pwrite64 _ZN11__sanitizer10StackTrace12GetCurrentPcEv 504
__interceptor_pwrite64,pwrite64 _ZN6__asan18ReportGenericErrorEmmmmbmjb 536
__interceptor_pwrite64,pwrite64 _ZN11__sanitizer10StackTrace12GetCurrentPcEv 564
__interceptor_pwrite64,pwrite64 _ZN6__asan16GetCurrentThreadEv 600
__interceptor_pwrite64,pwrite64 _ZN11__sanitizer18BufferedStackTrace6UnwindEjmmPvmmb 676
__interceptor_pwrite64,pwrite64 _ZN11__sanitizer18BufferedStackTrace6UnwindEjmmPvmmb 748
__interceptor_pwrite64,pwrite64 _ZN6__asan22IsStackTraceSuppressedEPKN11__sanitizer10StackTraceE 756
__interceptor_pwrite64,pwrite64 _ZN6__asan20asan_init_is_runningE 776
__interceptor_pwrite64,pwrite64 _ZN6__asan11asan_initedE 784
__interceptor_pwrite64,pwrite64 _ZN11__sanitizer21common_flags_dont_useE 792
__interceptor_pwrite64,pwrite64 .LC23 796
__interceptor_time,time _ZN6__asan15AsanInitFromRtlEv 100
__interceptor_time,time _ZN11__sanitizer10StackTrace12GetCurrentPcEv 180
__interceptor_time,time _ZN6__asan16GetCurrentThreadEv 220
__interceptor_time,time _ZN11__sanitizer18BufferedStackTrace6UnwindEjmmPvmmb 300
__interceptor_time,time _ZN11__sanitizer18BufferedStackTrace6UnwindEjmmPvmmb 368
__interceptor_time,time _ZN6__asan32ReportStringFunctionSizeOverflowEmmPN11__sanitizer18BufferedStackTraceE 384
__interceptor_time,time __asan_region_is_poisoned 416
__interceptor_time,time _ZN6__asan23IsInterceptorSuppressedEPKc 448
__interceptor_time,time _ZN6__asan31HaveStackTraceBasedSuppressionsEv 460
__interceptor_time,time _ZN11__sanitizer10StackTrace12GetCurrentPcEv 472
__interceptor_time,time _ZN6__asan18ReportGenericErrorEmmmmbmjb 512
__interceptor_time,time _ZN11__sanitizer10StackTrace12GetCurrentPcEv 540
__interceptor_time,time _ZN6__asan16GetCurrentThreadEv 580
__interceptor_time,time _ZN11__sanitizer18BufferedStackTrace6UnwindEjmmPvmmb 656
__interceptor_time,time _ZN11__sanitizer18BufferedStackTrace6UnwindEjmmPvmmb 724
__interceptor_time,time _ZN6__asan22IsStackTraceSuppressedEPKN11__sanitizer10StackTraceE 732
__interceptor_time,time _ZN6__asan20asan_init_is_runningE 752
__interceptor_time,time _ZN6__asan11asan_initedE 760
__interceptor_time,time _ZN11__sanitizer21common_flags_dont_useE 768
__interceptor_time,time .LC24 772
__interceptor_ctime,ctime _ZN6__asan15AsanInitFromRtlEv 100
__interceptor_ctime,ctime _ZN11__sanitizer10StackTrace12GetCurrentPcEv 172
__interceptor_ctime,ctime _ZN6__asan16GetCurrentThreadEv 212
__interceptor_ctime,ctime _ZN11__sanitizer18BufferedStackTrace6UnwindEjmmPvmmb 292
__interceptor_ctime,ctime _ZN11__sanitizer18BufferedStackTrace6UnwindEjmmPvmmb 360
__interceptor_ctime,ctime _ZN6__asan32ReportStringFunctionSizeOverflowEmmPN11__sanitizer18BufferedStackTraceE 376
__interceptor_ctime,ctime __asan_region_is_poisoned 408
__interceptor_ctime,ctime _ZN11__sanitizer10StackTrace12GetCurrentPcEv 484
__interceptor_ctime,ctime _ZN6__asan16GetCurrentThreadEv 524
__interceptor_ctime,ctime _ZN11__sanitizer18BufferedStackTrace6UnwindEjmmPvmmb 604
__interceptor_ctime,ctime _ZN6__asan23IsInterceptorSuppressedEPKc 624
__interceptor_ctime,ctime _ZN6__asan31HaveStackTraceBasedSuppressionsEv 636
__interceptor_ctime,ctime _ZN11__sanitizer10StackTrace12GetCurrentPcEv 656
__interceptor_ctime,ctime _ZN6__asan18ReportGenericErrorEmmmmbmjb 696
__interceptor_ctime,ctime _ZN11__sanitizer10StackTrace12GetCurrentPcEv 724
__interceptor_ctime,ctime _ZN6__asan16GetCurrentThreadEv 768
__interceptor_ctime,ctime _ZN11__sanitizer18BufferedStackTrace6UnwindEjmmPvmmb 848
__interceptor_ctime,ctime _ZN11__sanitizer18BufferedStackTrace6UnwindEjmmPvmmb 916
__interceptor_ctime,ctime _ZN6__asan22IsStackTraceSuppressedEPKN11__sanitizer10StackTraceE 924
__interceptor_ctime,ctime _ZN11__sanitizer18BufferedStackTrace6UnwindEjmmPvmmb 996
__interceptor_ctime,ctime _ZN6__asan32ReportStringFunctionSizeOverflowEmmPN11__sanitizer18BufferedStackTraceE 1012
__interceptor_ctime,ctime __asan_region_is_poisoned 1044
__interceptor_ctime,ctime _ZN6__asan23IsInterceptorSuppressedEPKc 1064
__interceptor_ctime,ctime _ZN6__asan31HaveStackTraceBasedSuppressionsEv 1076
__interceptor_ctime,ctime _ZN11__sanitizer10StackTrace12GetCurrentPcEv 1096
__interceptor_ctime,ctime _ZN6__asan18ReportGenericErrorEmmmmbmjb 1136
__interceptor_ctime,ctime _ZN11__sanitizer10StackTrace12GetCurrentPcEv 1164
__interceptor_ctime,ctime _ZN6__asan16GetCurrentThreadEv 1204
__interceptor_ctime,ctime _ZN11__sanitizer18BufferedStackTrace6UnwindEjmmPvmmb 1280
__interceptor_ctime,ctime _ZN11__sanitizer18BufferedStackTrace6UnwindEjmmPvmmb 1348
__interceptor_ctime,ctime _ZN6__asan22IsStackTraceSuppressedEPKN11__sanitizer10StackTraceE 1356
__interceptor_ctime,ctime _ZN6__asan20asan_init_is_runningE 1376
__interceptor_ctime,ctime _ZN6__asan11asan_initedE 1384
__interceptor_ctime,ctime _ZN11__sanitizer21common_flags_dont_useE 1392
__interceptor_ctime,ctime .LC25 1400
__interceptor_ctime,ctime .LC25 1404
__interceptor_ctime_r,ctime_r _ZN6__asan15AsanInitFromRtlEv 104
__interceptor_ctime_r,ctime_r _ZN11__sanitizer10StackTrace12GetCurrentPcEv 180
__interceptor_ctime_r,ctime_r _ZN6__asan16GetCurrentThreadEv 220
__interceptor_ctime_r,ctime_r _ZN11__sanitizer18BufferedStackTrace6UnwindEjmmPvmmb 300
__interceptor_ctime_r,ctime_r _ZN11__sanitizer18BufferedStackTrace6UnwindEjmmPvmmb 368
__interceptor_ctime_r,ctime_r _ZN6__asan32ReportStringFunctionSizeOverflowEmmPN11__sanitizer18BufferedStackTraceE 384
__interceptor_ctime_r,ctime_r __asan_region_is_poisoned 416
__interceptor_ctime_r,ctime_r _ZN11__sanitizer10StackTrace12GetCurrentPcEv 492
__interceptor_ctime_r,ctime_r _ZN6__asan16GetCurrentThreadEv 532
__interceptor_ctime_r,ctime_r _ZN11__sanitizer18BufferedStackTrace6UnwindEjmmPvmmb 612
__interceptor_ctime_r,ctime_r _ZN6__asan23IsInterceptorSuppressedEPKc 632
__interceptor_ctime_r,ctime_r _ZN6__asan31HaveStackTraceBasedSuppressionsEv 644
__interceptor_ctime_r,ctime_r _ZN11__sanitizer10StackTrace12GetCurrentPcEv 664
__interceptor_ctime_r,ctime_r _ZN6__asan18ReportGenericErrorEmmmmbmjb 704
__interceptor_ctime_r,ctime_r _ZN11__sanitizer10StackTrace12GetCurrentPcEv 732
__interceptor_ctime_r,ctime_r _ZN6__asan16GetCurrentThreadEv 776
__interceptor_ctime_r,ctime_r _ZN11__sanitizer18BufferedStackTrace6UnwindEjmmPvmmb 856
__interceptor_ctime_r,ctime_r _ZN11__sanitizer18BufferedStackTrace6UnwindEjmmPvmmb 924
__interceptor_ctime_r,ctime_r _ZN6__asan22IsStackTraceSuppressedEPKN11__sanitizer10StackTraceE 932
__interceptor_ctime_r,ctime_r _ZN11__sanitizer18BufferedStackTrace6UnwindEjmmPvmmb 1004
__interceptor_ctime_r,ctime_r _ZN6__asan32ReportStringFunctionSizeOverflowEmmPN11__sanitizer18BufferedStackTraceE 1020
__interceptor_ctime_r,ctime_r __asan_region_is_poisoned 1052
__interceptor_ctime_r,ctime_r _ZN6__asan23IsInterceptorSuppressedEPKc 1072
__interceptor_ctime_r,ctime_r _ZN6__asan31HaveStackTraceBasedSuppressionsEv 1084
__interceptor_ctime_r,ctime_r _ZN11__sanitizer10StackTrace12GetCurrentPcEv 1104
__interceptor_ctime_r,ctime_r _ZN6__asan18ReportGenericErrorEmmmmbmjb 1144
__interceptor_ctime_r,ctime_r _ZN11__sanitizer10StackTrace12GetCurrentPcEv 1172
__interceptor_ctime_r,ctime_r _ZN6__asan16GetCurrentThreadEv 1212
__interceptor_ctime_r,ctime_r _ZN11__sanitizer18BufferedStackTrace6UnwindEjmmPvmmb 1288
__interceptor_ctime_r,ctime_r _ZN11__sanitizer18BufferedStackTrace6UnwindEjmmPvmmb 1356
__interceptor_ctime_r,ctime_r _ZN6__asan22IsStackTraceSuppressedEPKN11__sanitizer10StackTraceE 1364
__interceptor_ctime_r,ctime_r _ZN6__asan20asan_init_is_runningE 1384
__interceptor_ctime_r,ctime_r _ZN6__asan11asan_initedE 1392
__interceptor_ctime_r,ctime_r _ZN11__sanitizer21common_flags_dont_useE 1400
__interceptor_ctime_r,ctime_r .LC26 1408
__interceptor_ctime_r,ctime_r .LC26 1412
_ZL15unpoison_passwdPvPN11__sanitizer18__sanitizer_passwdE _ZN11__sanitizer10StackTrace12GetCurrentPcEv 76
_ZL15unpoison_passwdPvPN11__sanitizer18__sanitizer_passwdE _ZN6__asan16GetCurrentThreadEv 120
_ZL15unpoison_passwdPvPN11__sanitizer18__sanitizer_passwdE _ZN11__sanitizer18BufferedStackTrace6UnwindEjmmPvmmb 196
_ZL15unpoison_passwdPvPN11__sanitizer18__sanitizer_passwdE _ZN11__sanitizer18BufferedStackTrace6UnwindEjmmPvmmb 264
_ZL15unpoison_passwdPvPN11__sanitizer18__sanitizer_passwdE _ZN6__asan32ReportStringFunctionSizeOverflowEmmPN11__sanitizer18BufferedStackTraceE 280
_ZL15unpoison_passwdPvPN11__sanitizer18__sanitizer_passwdE __asan_region_is_poisoned 312
_ZL15unpoison_passwdPvPN11__sanitizer18__sanitizer_passwdE _ZN6__asan23IsInterceptorSuppressedEPKc 344
_ZL15unpoison_passwdPvPN11__sanitizer18__sanitizer_passwdE _ZN6__asan31HaveStackTraceBasedSuppressionsEv 356
_ZL15unpoison_passwdPvPN11__sanitizer18__sanitizer_passwdE _ZN11__sanitizer10StackTrace12GetCurrentPcEv 368
_ZL15unpoison_passwdPvPN11__sanitizer18__sanitizer_passwdE _ZN6__asan18ReportGenericErrorEmmmmbmjb 412
_ZL15unpoison_passwdPvPN11__sanitizer18__sanitizer_passwdE _ZN11__sanitizer10StackTrace12GetCurrentPcEv 448
_ZL15unpoison_passwdPvPN11__sanitizer18__sanitizer_passwdE _ZN6__asan16GetCurrentThreadEv 492
_ZL15unpoison_passwdPvPN11__sanitizer18__sanitizer_passwdE _ZN11__sanitizer18BufferedStackTrace6UnwindEjmmPvmmb 568
_ZL15unpoison_passwdPvPN11__sanitizer18__sanitizer_passwdE _ZN11__sanitizer18BufferedStackTrace6UnwindEjmmPvmmb 640
_ZL15unpoison_passwdPvPN11__sanitizer18__sanitizer_passwdE _ZN6__asan22IsStackTraceSuppressedEPKN11__sanitizer10StackTraceE 648
_ZL15unpoison_passwdPvPN11__sanitizer18__sanitizer_passwdE _ZN11__sanitizer21common_flags_dont_useE 668
_ZL15unpoison_passwdPvPN11__sanitizer18__sanitizer_passwdE _ZN6__asan11asan_initedE 672
__interceptor_getpwnam,getpwnam _ZN6__asan15AsanInitFromRtlEv 112
__interceptor_getpwnam,getpwnam _ZN11__sanitizer10StackTrace12GetCurrentPcEv 180
__interceptor_getpwnam,getpwnam _ZN6__asan16GetCurrentThreadEv 220
__interceptor_getpwnam,getpwnam _ZN11__sanitizer18BufferedStackTrace6UnwindEjmmPvmmb 300
__interceptor_getpwnam,getpwnam _ZN11__sanitizer18BufferedStackTrace6UnwindEjmmPvmmb 368
__interceptor_getpwnam,getpwnam _ZN6__asan32ReportStringFunctionSizeOverflowEmmPN11__sanitizer18BufferedStackTraceE 384
__interceptor_getpwnam,getpwnam __asan_region_is_poisoned 416
__interceptor_getpwnam,getpwnam _ZN6__asan23IsInterceptorSuppressedEPKc 480
__interceptor_getpwnam,getpwnam _ZN6__asan31HaveStackTraceBasedSuppressionsEv 492
__interceptor_getpwnam,getpwnam _ZN11__sanitizer10StackTrace12GetCurrentPcEv 512
__interceptor_getpwnam,getpwnam _ZN6__asan18ReportGenericErrorEmmmmbmjb 544
__interceptor_getpwnam,getpwnam _ZN11__sanitizer10StackTrace12GetCurrentPcEv 572
__interceptor_getpwnam,getpwnam _ZN6__asan16GetCurrentThreadEv 612
__interceptor_getpwnam,getpwnam _ZN11__sanitizer18BufferedStackTrace6UnwindEjmmPvmmb 688
__interceptor_getpwnam,getpwnam _ZN11__sanitizer18BufferedStackTrace6UnwindEjmmPvmmb 756
__interceptor_getpwnam,getpwnam _ZN6__asan22IsStackTraceSuppressedEPKN11__sanitizer10StackTraceE 764
__interceptor_getpwnam,getpwnam .LC27 780
__interceptor_getpwnam,getpwnam _ZN6__asan20asan_init_is_runningE 788
__interceptor_getpwnam,getpwnam _ZN6__asan11asan_initedE 796
__interceptor_getpwnam,getpwnam _ZN11__sanitizer21common_flags_dont_useE 804
_ZL14unpoison_groupPvPN11__sanitizer17__sanitizer_groupE _ZN11__sanitizer10StackTrace12GetCurrentPcEv 76
_ZL14unpoison_groupPvPN11__sanitizer17__sanitizer_groupE _ZN6__asan16GetCurrentThreadEv 120
_ZL14unpoison_groupPvPN11__sanitizer17__sanitizer_groupE _ZN11__sanitizer18BufferedStackTrace6UnwindEjmmPvmmb 196
_ZL14unpoison_groupPvPN11__sanitizer17__sanitizer_groupE _ZN11__sanitizer18BufferedStackTrace6UnwindEjmmPvmmb 264
_ZL14unpoison_groupPvPN11__sanitizer17__sanitizer_groupE _ZN6__asan32ReportStringFunctionSizeOverflowEmmPN11__sanitizer18BufferedStackTraceE 280
_ZL14unpoison_groupPvPN11__sanitizer17__sanitizer_groupE __asan_region_is_poisoned 312
_ZL14unpoison_groupPvPN11__sanitizer17__sanitizer_groupE _ZN6__asan23IsInterceptorSuppressedEPKc 364
_ZL14unpoison_groupPvPN11__sanitizer17__sanitizer_groupE _ZN6__asan31HaveStackTraceBasedSuppressionsEv 376
_ZL14unpoison_groupPvPN11__sanitizer17__sanitizer_groupE _ZN11__sanitizer10StackTrace12GetCurrentPcEv 388
_ZL14unpoison_groupPvPN11__sanitizer17__sanitizer_groupE _ZN6__asan18ReportGenericErrorEmmmmbmjb 432
_ZL14unpoison_groupPvPN11__sanitizer17__sanitizer_groupE _ZN11__sanitizer10StackTrace12GetCurrentPcEv 468
_ZL14unpoison_groupPvPN11__sanitizer17__sanitizer_groupE _ZN6__asan16GetCurrentThreadEv 512
_ZL14unpoison_groupPvPN11__sanitizer17__sanitizer_groupE _ZN11__sanitizer18BufferedStackTrace6UnwindEjmmPvmmb 588
_ZL14unpoison_groupPvPN11__sanitizer17__sanitizer_groupE _ZN11__sanitizer18BufferedStackTrace6UnwindEjmmPvmmb 660
_ZL14unpoison_groupPvPN11__sanitizer17__sanitizer_groupE _ZN6__asan22IsStackTraceSuppressedEPKN11__sanitizer10StackTraceE 668
_ZL14unpoison_groupPvPN11__sanitizer17__sanitizer_groupE _ZN11__sanitizer21common_flags_dont_useE 688
_ZL14unpoison_groupPvPN11__sanitizer17__sanitizer_groupE _ZN6__asan11asan_initedE 692
__interceptor_getgrnam,getgrnam _ZN6__asan15AsanInitFromRtlEv 112
__interceptor_getgrnam,getgrnam _ZN11__sanitizer10StackTrace12GetCurrentPcEv 180
__interceptor_getgrnam,getgrnam _ZN6__asan16GetCurrentThreadEv 220
__interceptor_getgrnam,getgrnam _ZN11__sanitizer18BufferedStackTrace6UnwindEjmmPvmmb 300
__interceptor_getgrnam,getgrnam _ZN11__sanitizer18BufferedStackTrace6UnwindEjmmPvmmb 368
__interceptor_getgrnam,getgrnam _ZN6__asan32ReportStringFunctionSizeOverflowEmmPN11__sanitizer18BufferedStackTraceE 384
__interceptor_getgrnam,getgrnam __asan_region_is_poisoned 416
__interceptor_getgrnam,getgrnam _ZN6__asan23IsInterceptorSuppressedEPKc 480
__interceptor_getgrnam,getgrnam _ZN6__asan31HaveStackTraceBasedSuppressionsEv 492
__interceptor_getgrnam,getgrnam _ZN11__sanitizer10StackTrace12GetCurrentPcEv 512
__interceptor_getgrnam,getgrnam _ZN6__asan18ReportGenericErrorEmmmmbmjb 544
__interceptor_getgrnam,getgrnam _ZN11__sanitizer10StackTrace12GetCurrentPcEv 572
__interceptor_getgrnam,getgrnam _ZN6__asan16GetCurrentThreadEv 612
__interceptor_getgrnam,getgrnam _ZN11__sanitizer18BufferedStackTrace6UnwindEjmmPvmmb 688
__interceptor_getgrnam,getgrnam _ZN11__sanitizer18BufferedStackTrace6UnwindEjmmPvmmb 756
__interceptor_getgrnam,getgrnam _ZN6__asan22IsStackTraceSuppressedEPKN11__sanitizer10StackTraceE 764
__interceptor_getgrnam,getgrnam .LC28 780
__interceptor_getgrnam,getgrnam _ZN6__asan20asan_init_is_runningE 788
__interceptor_getgrnam,getgrnam _ZN6__asan11asan_initedE 796
__interceptor_getgrnam,getgrnam _ZN11__sanitizer21common_flags_dont_useE 804
__interceptor_getpwnam_r,getpwnam_r _ZN6__asan15AsanInitFromRtlEv 132
__interceptor_getpwnam_r,getpwnam_r _ZN11__sanitizer10StackTrace12GetCurrentPcEv 204
__interceptor_getpwnam_r,getpwnam_r _ZN6__asan16GetCurrentThreadEv 244
__interceptor_getpwnam_r,getpwnam_r _ZN11__sanitizer18BufferedStackTrace6UnwindEjmmPvmmb 324
__interceptor_getpwnam_r,getpwnam_r _ZN11__sanitizer18BufferedStackTrace6UnwindEjmmPvmmb 392
__interceptor_getpwnam_r,getpwnam_r _ZN6__asan32ReportStringFunctionSizeOverflowEmmPN11__sanitizer18BufferedStackTraceE 412
__interceptor_getpwnam_r,getpwnam_r __asan_region_is_poisoned 444
__interceptor_getpwnam_r,getpwnam_r _ZN11__sanitizer10StackTrace12GetCurrentPcEv 588
__interceptor_getpwnam_r,getpwnam_r _ZN6__asan16GetCurrentThreadEv 628
__interceptor_getpwnam_r,getpwnam_r _ZN11__sanitizer18BufferedStackTrace6UnwindEjmmPvmmb 708
__interceptor_getpwnam_r,getpwnam_r _ZN6__asan23IsInterceptorSuppressedEPKc 724
__interceptor_getpwnam_r,getpwnam_r _ZN6__asan31HaveStackTraceBasedSuppressionsEv 736
__interceptor_getpwnam_r,getpwnam_r _ZN11__sanitizer10StackTrace12GetCurrentPcEv 748
__interceptor_getpwnam_r,getpwnam_r _ZN6__asan18ReportGenericErrorEmmmmbmjb 792
__interceptor_getpwnam_r,getpwnam_r _ZN11__sanitizer10StackTrace12GetCurrentPcEv 828
__interceptor_getpwnam_r,getpwnam_r _ZN6__asan16GetCurrentThreadEv 872
__interceptor_getpwnam_r,getpwnam_r _ZN11__sanitizer18BufferedStackTrace6UnwindEjmmPvmmb 952
__interceptor_getpwnam_r,getpwnam_r _ZN11__sanitizer18BufferedStackTrace6UnwindEjmmPvmmb 1020
__interceptor_getpwnam_r,getpwnam_r _ZN6__asan22IsStackTraceSuppressedEPKN11__sanitizer10StackTraceE 1032
__interceptor_getpwnam_r,getpwnam_r _ZN11__sanitizer18BufferedStackTrace6UnwindEjmmPvmmb 1104
__interceptor_getpwnam_r,getpwnam_r _ZN6__asan32ReportStringFunctionSizeOverflowEmmPN11__sanitizer18BufferedStackTraceE 1124
__interceptor_getpwnam_r,getpwnam_r __asan_region_is_poisoned 1156
__interceptor_getpwnam_r,getpwnam_r _ZN11__sanitizer10StackTrace12GetCurrentPcEv 1220
__interceptor_getpwnam_r,getpwnam_r _ZN6__asan16GetCurrentThreadEv 1256
__interceptor_getpwnam_r,getpwnam_r _ZN11__sanitizer18BufferedStackTrace6UnwindEjmmPvmmb 1332
__interceptor_getpwnam_r,getpwnam_r _ZN6__asan23IsInterceptorSuppressedEPKc 1348
__interceptor_getpwnam_r,getpwnam_r _ZN6__asan31HaveStackTraceBasedSuppressionsEv 1360
__interceptor_getpwnam_r,getpwnam_r _ZN11__sanitizer10StackTrace12GetCurrentPcEv 1380
__interceptor_getpwnam_r,getpwnam_r _ZN6__asan18ReportGenericErrorEmmmmbmjb 1424
__interceptor_getpwnam_r,getpwnam_r _ZN11__sanitizer10StackTrace12GetCurrentPcEv 1452
__interceptor_getpwnam_r,getpwnam_r _ZN6__asan16GetCurrentThreadEv 1496
__interceptor_getpwnam_r,getpwnam_r _ZN11__sanitizer18BufferedStackTrace6UnwindEjmmPvmmb 1576
__interceptor_getpwnam_r,getpwnam_r _ZN11__sanitizer18BufferedStackTrace6UnwindEjmmPvmmb 1644
__interceptor_getpwnam_r,getpwnam_r _ZN6__asan22IsStackTraceSuppressedEPKN11__sanitizer10StackTraceE 1656
__interceptor_getpwnam_r,getpwnam_r _ZN11__sanitizer18BufferedStackTrace6UnwindEjmmPvmmb 1728
__interceptor_getpwnam_r,getpwnam_r _ZN6__asan32ReportStringFunctionSizeOverflowEmmPN11__sanitizer18BufferedStackTraceE 1744
__interceptor_getpwnam_r,getpwnam_r __asan_region_is_poisoned 1776
__interceptor_getpwnam_r,getpwnam_r _ZN6__asan23IsInterceptorSuppressedEPKc 1792
__interceptor_getpwnam_r,getpwnam_r _ZN6__asan31HaveStackTraceBasedSuppressionsEv 1804
__interceptor_getpwnam_r,getpwnam_r _ZN11__sanitizer10StackTrace12GetCurrentPcEv 1824
__interceptor_getpwnam_r,getpwnam_r _ZN6__asan18ReportGenericErrorEmmmmbmjb 1864
__interceptor_getpwnam_r,getpwnam_r _ZN11__sanitizer10StackTrace12GetCurrentPcEv 1892
__interceptor_getpwnam_r,getpwnam_r _ZN6__asan16GetCurrentThreadEv 1928
__interceptor_getpwnam_r,getpwnam_r _ZN11__sanitizer18BufferedStackTrace6UnwindEjmmPvmmb 2004
__interceptor_getpwnam_r,getpwnam_r _ZN11__sanitizer18BufferedStackTrace6UnwindEjmmPvmmb 2076
__interceptor_getpwnam_r,getpwnam_r _ZN6__asan22IsStackTraceSuppressedEPKN11__sanitizer10StackTraceE 2084
__interceptor_getpwnam_r,getpwnam_r .LC29 2100
__interceptor_getpwnam_r,getpwnam_r _ZN6__asan20asan_init_is_runningE 2108
__interceptor_getpwnam_r,getpwnam_r _ZN6__asan11asan_initedE 2116
__interceptor_getpwnam_r,getpwnam_r _ZN11__sanitizer21common_flags_dont_useE 2124
__interceptor_getpwuid_r,getpwuid_r _ZN6__asan15AsanInitFromRtlEv 132
__interceptor_getpwuid_r,getpwuid_r _ZN11__sanitizer10StackTrace12GetCurrentPcEv 260
__interceptor_getpwuid_r,getpwuid_r _ZN6__asan16GetCurrentThreadEv 300
__interceptor_getpwuid_r,getpwuid_r _ZN11__sanitizer18BufferedStackTrace6UnwindEjmmPvmmb 380
__interceptor_getpwuid_r,getpwuid_r _ZN11__sanitizer18BufferedStackTrace6UnwindEjmmPvmmb 448
__interceptor_getpwuid_r,getpwuid_r _ZN6__asan32ReportStringFunctionSizeOverflowEmmPN11__sanitizer18BufferedStackTraceE 468
__interceptor_getpwuid_r,getpwuid_r __asan_region_is_poisoned 500
__interceptor_getpwuid_r,getpwuid_r _ZN11__sanitizer10StackTrace12GetCurrentPcEv 560
__interceptor_getpwuid_r,getpwuid_r _ZN6__asan16GetCurrentThreadEv 596
__interceptor_getpwuid_r,getpwuid_r _ZN11__sanitizer18BufferedStackTrace6UnwindEjmmPvmmb 672
__interceptor_getpwuid_r,getpwuid_r _ZN6__asan23IsInterceptorSuppressedEPKc 688
__interceptor_getpwuid_r,getpwuid_r _ZN6__asan31HaveStackTraceBasedSuppressionsEv 700
__interceptor_getpwuid_r,getpwuid_r _ZN11__sanitizer10StackTrace12GetCurrentPcEv 720
__interceptor_getpwuid_r,getpwuid_r _ZN6__asan18ReportGenericErrorEmmmmbmjb 764
__interceptor_getpwuid_r,getpwuid_r _ZN11__sanitizer10StackTrace12GetCurrentPcEv 792
__interceptor_getpwuid_r,getpwuid_r _ZN6__asan16GetCurrentThreadEv 836
__interceptor_getpwuid_r,getpwuid_r _ZN11__sanitizer18BufferedStackTrace6UnwindEjmmPvmmb 916
__interceptor_getpwuid_r,getpwuid_r _ZN11__sanitizer18BufferedStackTrace6UnwindEjmmPvmmb 984
__interceptor_getpwuid_r,getpwuid_r _ZN6__asan22IsStackTraceSuppressedEPKN11__sanitizer10StackTraceE 996
__interceptor_getpwuid_r,getpwuid_r _ZN11__sanitizer18BufferedStackTrace6UnwindEjmmPvmmb 1068
__interceptor_getpwuid_r,getpwuid_r _ZN6__asan32ReportStringFunctionSizeOverflowEmmPN11__sanitizer18BufferedStackTraceE 1084
__interceptor_getpwuid_r,getpwuid_r __asan_region_is_poisoned 1116
__interceptor_getpwuid_r,getpwuid_r _ZN6__asan23IsInterceptorSuppressedEPKc 1132
__interceptor_getpwuid_r,getpwuid_r _ZN6__asan31HaveStackTraceBasedSuppressionsEv 1144
__interceptor_getpwuid_r,getpwuid_r _ZN11__sanitizer10StackTrace12GetCurrentPcEv 1164
__interceptor_getpwuid_r,getpwuid_r _ZN6__asan18ReportGenericErrorEmmmmbmjb 1204
__interceptor_getpwuid_r,getpwuid_r _ZN11__sanitizer10StackTrace12GetCurrentPcEv 1232
__interceptor_getpwuid_r,getpwuid_r _ZN6__asan16GetCurrentThreadEv 1268
__interceptor_getpwuid_r,getpwuid_r _ZN11__sanitizer18BufferedStackTrace6UnwindEjmmPvmmb 1344
__interceptor_getpwuid_r,getpwuid_r _ZN11__sanitizer18BufferedStackTrace6UnwindEjmmPvmmb 1416
__interceptor_getpwuid_r,getpwuid_r _ZN6__asan22IsStackTraceSuppressedEPKN11__sanitizer10StackTraceE 1424
__interceptor_getpwuid_r,getpwuid_r .LC30 1440
__interceptor_getpwuid_r,getpwuid_r _ZN6__asan20asan_init_is_runningE 1448
__interceptor_getpwuid_r,getpwuid_r _ZN6__asan11asan_initedE 1456
__interceptor_getpwuid_r,getpwuid_r _ZN11__sanitizer21common_flags_dont_useE 1464
__interceptor_getgrnam_r,getgrnam_r _ZN6__asan15AsanInitFromRtlEv 132
__interceptor_getgrnam_r,getgrnam_r _ZN11__sanitizer10StackTrace12GetCurrentPcEv 204
__interceptor_getgrnam_r,getgrnam_r _ZN6__asan16GetCurrentThreadEv 244
__interceptor_getgrnam_r,getgrnam_r _ZN11__sanitizer18BufferedStackTrace6UnwindEjmmPvmmb 324
__interceptor_getgrnam_r,getgrnam_r _ZN11__sanitizer18BufferedStackTrace6UnwindEjmmPvmmb 392
__interceptor_getgrnam_r,getgrnam_r _ZN6__asan32ReportStringFunctionSizeOverflowEmmPN11__sanitizer18BufferedStackTraceE 412
__interceptor_getgrnam_r,getgrnam_r __asan_region_is_poisoned 444
__interceptor_getgrnam_r,getgrnam_r _ZN11__sanitizer10StackTrace12GetCurrentPcEv 588
__interceptor_getgrnam_r,getgrnam_r _ZN6__asan16GetCurrentThreadEv 628
__interceptor_getgrnam_r,getgrnam_r _ZN11__sanitizer18BufferedStackTrace6UnwindEjmmPvmmb 708
__interceptor_getgrnam_r,getgrnam_r _ZN6__asan23IsInterceptorSuppressedEPKc 724
__interceptor_getgrnam_r,getgrnam_r _ZN6__asan31HaveStackTraceBasedSuppressionsEv 736
__interceptor_getgrnam_r,getgrnam_r _ZN11__sanitizer10StackTrace12GetCurrentPcEv 748
__interceptor_getgrnam_r,getgrnam_r _ZN6__asan18ReportGenericErrorEmmmmbmjb 792
__interceptor_getgrnam_r,getgrnam_r _ZN11__sanitizer10StackTrace12GetCurrentPcEv 828
__interceptor_getgrnam_r,getgrnam_r _ZN6__asan16GetCurrentThreadEv 872
__interceptor_getgrnam_r,getgrnam_r _ZN11__sanitizer18BufferedStackTrace6UnwindEjmmPvmmb 952
__interceptor_getgrnam_r,getgrnam_r _ZN11__sanitizer18BufferedStackTrace6UnwindEjmmPvmmb 1020
__interceptor_getgrnam_r,getgrnam_r _ZN6__asan22IsStackTraceSuppressedEPKN11__sanitizer10StackTraceE 1032
__interceptor_getgrnam_r,getgrnam_r _ZN11__sanitizer18BufferedStackTrace6UnwindEjmmPvmmb 1104
__interceptor_getgrnam_r,getgrnam_r _ZN6__asan32ReportStringFunctionSizeOverflowEmmPN11__sanitizer18BufferedStackTraceE 1124
__interceptor_getgrnam_r,getgrnam_r __asan_region_is_poisoned 1156
__interceptor_getgrnam_r,getgrnam_r _ZN11__sanitizer10StackTrace12GetCurrentPcEv 1220
__interceptor_getgrnam_r,getgrnam_r _ZN6__asan16GetCurrentThreadEv 1256
__interceptor_getgrnam_r,getgrnam_r _ZN11__sanitizer18BufferedStackTrace6UnwindEjmmPvmmb 1332
__interceptor_getgrnam_r,getgrnam_r _ZN6__asan23IsInterceptorSuppressedEPKc 1348
__interceptor_getgrnam_r,getgrnam_r _ZN6__asan31HaveStackTraceBasedSuppressionsEv 1360
__interceptor_getgrnam_r,getgrnam_r _ZN11__sanitizer10StackTrace12GetCurrentPcEv 1380
__interceptor_getgrnam_r,getgrnam_r _ZN6__asan18ReportGenericErrorEmmmmbmjb 1424
__interceptor_getgrnam_r,getgrnam_r _ZN11__sanitizer10StackTrace12GetCurrentPcEv 1452
__interceptor_getgrnam_r,getgrnam_r _ZN6__asan16GetCurrentThreadEv 1496
__interceptor_getgrnam_r,getgrnam_r _ZN11__sanitizer18BufferedStackTrace6UnwindEjmmPvmmb 1576
__interceptor_getgrnam_r,getgrnam_r _ZN11__sanitizer18BufferedStackTrace6UnwindEjmmPvmmb 1644
__interceptor_getgrnam_r,getgrnam_r _ZN6__asan22IsStackTraceSuppressedEPKN11__sanitizer10StackTraceE 1656
__interceptor_getgrnam_r,getgrnam_r _ZN11__sanitizer18BufferedStackTrace6UnwindEjmmPvmmb 1728
__interceptor_getgrnam_r,getgrnam_r _ZN6__asan32ReportStringFunctionSizeOverflowEmmPN11__sanitizer18BufferedStackTraceE 1744
__interceptor_getgrnam_r,getgrnam_r __asan_region_is_poisoned 1776
__interceptor_getgrnam_r,getgrnam_r _ZN6__asan23IsInterceptorSuppressedEPKc 1792
__interceptor_getgrnam_r,getgrnam_r _ZN6__asan31HaveStackTraceBasedSuppressionsEv 1804
__interceptor_getgrnam_r,getgrnam_r _ZN11__sanitizer10StackTrace12GetCurrentPcEv 1824
__interceptor_getgrnam_r,getgrnam_r _ZN6__asan18ReportGenericErrorEmmmmbmjb 1864
__interceptor_getgrnam_r,getgrnam_r _ZN11__sanitizer10StackTrace12GetCurrentPcEv 1892
__interceptor_getgrnam_r,getgrnam_r _ZN6__asan16GetCurrentThreadEv 1928
__interceptor_getgrnam_r,getgrnam_r _ZN11__sanitizer18BufferedStackTrace6UnwindEjmmPvmmb 2004
__interceptor_getgrnam_r,getgrnam_r _ZN11__sanitizer18BufferedStackTrace6UnwindEjmmPvmmb 2076
__interceptor_getgrnam_r,getgrnam_r _ZN6__asan22IsStackTraceSuppressedEPKN11__sanitizer10StackTraceE 2084
__interceptor_getgrnam_r,getgrnam_r .LC31 2100
__interceptor_getgrnam_r,getgrnam_r _ZN6__asan20asan_init_is_runningE 2108
__interceptor_getgrnam_r,getgrnam_r _ZN6__asan11asan_initedE 2116
__interceptor_getgrnam_r,getgrnam_r _ZN11__sanitizer21common_flags_dont_useE 2124
__interceptor_getgrgid_r,getgrgid_r _ZN6__asan15AsanInitFromRtlEv 132
__interceptor_getgrgid_r,getgrgid_r _ZN11__sanitizer10StackTrace12GetCurrentPcEv 260
__interceptor_getgrgid_r,getgrgid_r _ZN6__asan16GetCurrentThreadEv 300
__interceptor_getgrgid_r,getgrgid_r _ZN11__sanitizer18BufferedStackTrace6UnwindEjmmPvmmb 380
__interceptor_getgrgid_r,getgrgid_r _ZN11__sanitizer18BufferedStackTrace6UnwindEjmmPvmmb 448
__interceptor_getgrgid_r,getgrgid_r _ZN6__asan32ReportStringFunctionSizeOverflowEmmPN11__sanitizer18BufferedStackTraceE 468
__interceptor_getgrgid_r,getgrgid_r __asan_region_is_poisoned 500
__interceptor_getgrgid_r,getgrgid_r _ZN11__sanitizer10StackTrace12GetCurrentPcEv 560
__interceptor_getgrgid_r,getgrgid_r _ZN6__asan16GetCurrentThreadEv 596
__interceptor_getgrgid_r,getgrgid_r _ZN11__sanitizer18BufferedStackTrace6UnwindEjmmPvmmb 672
__interceptor_getgrgid_r,getgrgid_r _ZN6__asan23IsInterceptorSuppressedEPKc 688
__interceptor_getgrgid_r,getgrgid_r _ZN6__asan31HaveStackTraceBasedSuppressionsEv 700
__interceptor_getgrgid_r,getgrgid_r _ZN11__sanitizer10StackTrace12GetCurrentPcEv 720
__interceptor_getgrgid_r,getgrgid_r _ZN6__asan18ReportGenericErrorEmmmmbmjb 764
__interceptor_getgrgid_r,getgrgid_r _ZN11__sanitizer10StackTrace12GetCurrentPcEv 792
__interceptor_getgrgid_r,getgrgid_r _ZN6__asan16GetCurrentThreadEv 836
__interceptor_getgrgid_r,getgrgid_r _ZN11__sanitizer18BufferedStackTrace6UnwindEjmmPvmmb 916
__interceptor_getgrgid_r,getgrgid_r _ZN11__sanitizer18BufferedStackTrace6UnwindEjmmPvmmb 984
__interceptor_getgrgid_r,getgrgid_r _ZN6__asan22IsStackTraceSuppressedEPKN11__sanitizer10StackTraceE 996
__interceptor_getgrgid_r,getgrgid_r _ZN11__sanitizer18BufferedStackTrace6UnwindEjmmPvmmb 1068
__interceptor_getgrgid_r,getgrgid_r _ZN6__asan32ReportStringFunctionSizeOverflowEmmPN11__sanitizer18BufferedStackTraceE 1084
__interceptor_getgrgid_r,getgrgid_r __asan_region_is_poisoned 1116
__interceptor_getgrgid_r,getgrgid_r _ZN6__asan23IsInterceptorSuppressedEPKc 1132
__interceptor_getgrgid_r,getgrgid_r _ZN6__asan31HaveStackTraceBasedSuppressionsEv 1144
__interceptor_getgrgid_r,getgrgid_r _ZN11__sanitizer10StackTrace12GetCurrentPcEv 1164
__interceptor_getgrgid_r,getgrgid_r _ZN6__asan18ReportGenericErrorEmmmmbmjb 1204
__interceptor_getgrgid_r,getgrgid_r _ZN11__sanitizer10StackTrace12GetCurrentPcEv 1232
__interceptor_getgrgid_r,getgrgid_r _ZN6__asan16GetCurrentThreadEv 1268
__interceptor_getgrgid_r,getgrgid_r _ZN11__sanitizer18BufferedStackTrace6UnwindEjmmPvmmb 1344
__interceptor_getgrgid_r,getgrgid_r _ZN11__sanitizer18BufferedStackTrace6UnwindEjmmPvmmb 1416
__interceptor_getgrgid_r,getgrgid_r _ZN6__asan22IsStackTraceSuppressedEPKN11__sanitizer10StackTraceE 1424
__interceptor_getgrgid_r,getgrgid_r .LC32 1440
__interceptor_getgrgid_r,getgrgid_r _ZN6__asan20asan_init_is_runningE 1448
__interceptor_getgrgid_r,getgrgid_r _ZN6__asan11asan_initedE 1456
__interceptor_getgrgid_r,getgrgid_r _ZN11__sanitizer21common_flags_dont_useE 1464
__interceptor_getpwent_r,getpwent_r _ZN6__asan15AsanInitFromRtlEv 124
__interceptor_getpwent_r,getpwent_r _ZN11__sanitizer10StackTrace12GetCurrentPcEv 244
__interceptor_getpwent_r,getpwent_r _ZN6__asan16GetCurrentThreadEv 284
__interceptor_getpwent_r,getpwent_r _ZN11__sanitizer18BufferedStackTrace6UnwindEjmmPvmmb 372
__interceptor_getpwent_r,getpwent_r _ZN11__sanitizer18BufferedStackTrace6UnwindEjmmPvmmb 444
__interceptor_getpwent_r,getpwent_r _ZN6__asan32ReportStringFunctionSizeOverflowEmmPN11__sanitizer18BufferedStackTraceE 464
__interceptor_getpwent_r,getpwent_r __asan_region_is_poisoned 496
__interceptor_getpwent_r,getpwent_r _ZN11__sanitizer10StackTrace12GetCurrentPcEv 560
__interceptor_getpwent_r,getpwent_r _ZN6__asan16GetCurrentThreadEv 596
__interceptor_getpwent_r,getpwent_r _ZN11__sanitizer18BufferedStackTrace6UnwindEjmmPvmmb 672
__interceptor_getpwent_r,getpwent_r _ZN6__asan23IsInterceptorSuppressedEPKc 688
__interceptor_getpwent_r,getpwent_r _ZN6__asan31HaveStackTraceBasedSuppressionsEv 700
__interceptor_getpwent_r,getpwent_r _ZN11__sanitizer10StackTrace12GetCurrentPcEv 720
__interceptor_getpwent_r,getpwent_r _ZN6__asan18ReportGenericErrorEmmmmbmjb 760
__interceptor_getpwent_r,getpwent_r _ZN11__sanitizer10StackTrace12GetCurrentPcEv 788
__interceptor_getpwent_r,getpwent_r _ZN6__asan16GetCurrentThreadEv 832
__interceptor_getpwent_r,getpwent_r _ZN11__sanitizer18BufferedStackTrace6UnwindEjmmPvmmb 912
__interceptor_getpwent_r,getpwent_r _ZN11__sanitizer18BufferedStackTrace6UnwindEjmmPvmmb 980
__interceptor_getpwent_r,getpwent_r _ZN6__asan22IsStackTraceSuppressedEPKN11__sanitizer10StackTraceE 992
__interceptor_getpwent_r,getpwent_r _ZN11__sanitizer18BufferedStackTrace6UnwindEjmmPvmmb 1064
__interceptor_getpwent_r,getpwent_r _ZN6__asan32ReportStringFunctionSizeOverflowEmmPN11__sanitizer18BufferedStackTraceE 1080
__interceptor_getpwent_r,getpwent_r __asan_region_is_poisoned 1112
__interceptor_getpwent_r,getpwent_r _ZN6__asan23IsInterceptorSuppressedEPKc 1128
__interceptor_getpwent_r,getpwent_r _ZN6__asan31HaveStackTraceBasedSuppressionsEv 1140
__interceptor_getpwent_r,getpwent_r _ZN11__sanitizer10StackTrace12GetCurrentPcEv 1160
__interceptor_getpwent_r,getpwent_r _ZN6__asan18ReportGenericErrorEmmmmbmjb 1200
__interceptor_getpwent_r,getpwent_r _ZN11__sanitizer10StackTrace12GetCurrentPcEv 1228
__interceptor_getpwent_r,getpwent_r _ZN6__asan16GetCurrentThreadEv 1264
__interceptor_getpwent_r,getpwent_r _ZN11__sanitizer18BufferedStackTrace6UnwindEjmmPvmmb 1340
__interceptor_getpwent_r,getpwent_r _ZN11__sanitizer18BufferedStackTrace6UnwindEjmmPvmmb 1412
__interceptor_getpwent_r,getpwent_r _ZN6__asan22IsStackTraceSuppressedEPKN11__sanitizer10StackTraceE 1420
__interceptor_getpwent_r,getpwent_r .LC33 1436
__interceptor_getpwent_r,getpwent_r _ZN6__asan20asan_init_is_runningE 1444
__interceptor_getpwent_r,getpwent_r _ZN6__asan11asan_initedE 1452
__interceptor_getpwent_r,getpwent_r _ZN11__sanitizer21common_flags_dont_useE 1460
__interceptor_fgetpwent_r,fgetpwent_r _ZN6__asan15AsanInitFromRtlEv 132
__interceptor_fgetpwent_r,fgetpwent_r _ZN11__sanitizer10StackTrace12GetCurrentPcEv 260
__interceptor_fgetpwent_r,fgetpwent_r _ZN6__asan16GetCurrentThreadEv 300
__interceptor_fgetpwent_r,fgetpwent_r _ZN11__sanitizer18BufferedStackTrace6UnwindEjmmPvmmb 380
__interceptor_fgetpwent_r,fgetpwent_r _ZN11__sanitizer18BufferedStackTrace6UnwindEjmmPvmmb 448
__interceptor_fgetpwent_r,fgetpwent_r _ZN6__asan32ReportStringFunctionSizeOverflowEmmPN11__sanitizer18BufferedStackTraceE 468
__interceptor_fgetpwent_r,fgetpwent_r __asan_region_is_poisoned 500
__interceptor_fgetpwent_r,fgetpwent_r _ZN11__sanitizer10StackTrace12GetCurrentPcEv 560
__interceptor_fgetpwent_r,fgetpwent_r _ZN6__asan16GetCurrentThreadEv 596
__interceptor_fgetpwent_r,fgetpwent_r _ZN11__sanitizer18BufferedStackTrace6UnwindEjmmPvmmb 672
__interceptor_fgetpwent_r,fgetpwent_r _ZN6__asan23IsInterceptorSuppressedEPKc 688
__interceptor_fgetpwent_r,fgetpwent_r _ZN6__asan31HaveStackTraceBasedSuppressionsEv 700
__interceptor_fgetpwent_r,fgetpwent_r _ZN11__sanitizer10StackTrace12GetCurrentPcEv 720
__interceptor_fgetpwent_r,fgetpwent_r _ZN6__asan18ReportGenericErrorEmmmmbmjb 764
__interceptor_fgetpwent_r,fgetpwent_r _ZN11__sanitizer10StackTrace12GetCurrentPcEv 792
__interceptor_fgetpwent_r,fgetpwent_r _ZN6__asan16GetCurrentThreadEv 836
__interceptor_fgetpwent_r,fgetpwent_r _ZN11__sanitizer18BufferedStackTrace6UnwindEjmmPvmmb 916
__interceptor_fgetpwent_r,fgetpwent_r _ZN11__sanitizer18BufferedStackTrace6UnwindEjmmPvmmb 984
__interceptor_fgetpwent_r,fgetpwent_r _ZN6__asan22IsStackTraceSuppressedEPKN11__sanitizer10StackTraceE 996
__interceptor_fgetpwent_r,fgetpwent_r _ZN11__sanitizer18BufferedStackTrace6UnwindEjmmPvmmb 1068
__interceptor_fgetpwent_r,fgetpwent_r _ZN6__asan32ReportStringFunctionSizeOverflowEmmPN11__sanitizer18BufferedStackTraceE 1084
__interceptor_fgetpwent_r,fgetpwent_r __asan_region_is_poisoned 1116
__interceptor_fgetpwent_r,fgetpwent_r _ZN6__asan23IsInterceptorSuppressedEPKc 1132
__interceptor_fgetpwent_r,fgetpwent_r _ZN6__asan31HaveStackTraceBasedSuppressionsEv 1144
__interceptor_fgetpwent_r,fgetpwent_r _ZN11__sanitizer10StackTrace12GetCurrentPcEv 1164
__interceptor_fgetpwent_r,fgetpwent_r _ZN6__asan18ReportGenericErrorEmmmmbmjb 1204
__interceptor_fgetpwent_r,fgetpwent_r _ZN11__sanitizer10StackTrace12GetCurrentPcEv 1232
__interceptor_fgetpwent_r,fgetpwent_r _ZN6__asan16GetCurrentThreadEv 1268
__interceptor_fgetpwent_r,fgetpwent_r _ZN11__sanitizer18BufferedStackTrace6UnwindEjmmPvmmb 1344
__interceptor_fgetpwent_r,fgetpwent_r _ZN11__sanitizer18BufferedStackTrace6UnwindEjmmPvmmb 1416
__interceptor_fgetpwent_r,fgetpwent_r _ZN6__asan22IsStackTraceSuppressedEPKN11__sanitizer10StackTraceE 1424
__interceptor_fgetpwent_r,fgetpwent_r .LC34 1440
__interceptor_fgetpwent_r,fgetpwent_r _ZN6__asan20asan_init_is_runningE 1448
__interceptor_fgetpwent_r,fgetpwent_r _ZN6__asan11asan_initedE 1456
__interceptor_fgetpwent_r,fgetpwent_r _ZN11__sanitizer21common_flags_dont_useE 1464
__interceptor_getgrent_r,getgrent_r _ZN6__asan15AsanInitFromRtlEv 124
__interceptor_getgrent_r,getgrent_r _ZN11__sanitizer10StackTrace12GetCurrentPcEv 244
__interceptor_getgrent_r,getgrent_r _ZN6__asan16GetCurrentThreadEv 284
__interceptor_getgrent_r,getgrent_r _ZN11__sanitizer18BufferedStackTrace6UnwindEjmmPvmmb 372
__interceptor_getgrent_r,getgrent_r _ZN11__sanitizer18BufferedStackTrace6UnwindEjmmPvmmb 444
__interceptor_getgrent_r,getgrent_r _ZN6__asan32ReportStringFunctionSizeOverflowEmmPN11__sanitizer18BufferedStackTraceE 464
__interceptor_getgrent_r,getgrent_r __asan_region_is_poisoned 496
__interceptor_getgrent_r,getgrent_r _ZN11__sanitizer10StackTrace12GetCurrentPcEv 560
__interceptor_getgrent_r,getgrent_r _ZN6__asan16GetCurrentThreadEv 596
__interceptor_getgrent_r,getgrent_r _ZN11__sanitizer18BufferedStackTrace6UnwindEjmmPvmmb 672
__interceptor_getgrent_r,getgrent_r _ZN6__asan23IsInterceptorSuppressedEPKc 688
__interceptor_getgrent_r,getgrent_r _ZN6__asan31HaveStackTraceBasedSuppressionsEv 700
__interceptor_getgrent_r,getgrent_r _ZN11__sanitizer10StackTrace12GetCurrentPcEv 720
__interceptor_getgrent_r,getgrent_r _ZN6__asan18ReportGenericErrorEmmmmbmjb 760
__interceptor_getgrent_r,getgrent_r _ZN11__sanitizer10StackTrace12GetCurrentPcEv 788
__interceptor_getgrent_r,getgrent_r _ZN6__asan16GetCurrentThreadEv 832
__interceptor_getgrent_r,getgrent_r _ZN11__sanitizer18BufferedStackTrace6UnwindEjmmPvmmb 912
__interceptor_getgrent_r,getgrent_r _ZN11__sanitizer18BufferedStackTrace6UnwindEjmmPvmmb 980
__interceptor_getgrent_r,getgrent_r _ZN6__asan22IsStackTraceSuppressedEPKN11__sanitizer10StackTraceE 992
__interceptor_getgrent_r,getgrent_r _ZN11__sanitizer18BufferedStackTrace6UnwindEjmmPvmmb 1064
__interceptor_getgrent_r,getgrent_r _ZN6__asan32ReportStringFunctionSizeOverflowEmmPN11__sanitizer18BufferedStackTraceE 1080
__interceptor_getgrent_r,getgrent_r __asan_region_is_poisoned 1112
__interceptor_getgrent_r,getgrent_r _ZN6__asan23IsInterceptorSuppressedEPKc 1128
__interceptor_getgrent_r,getgrent_r _ZN6__asan31HaveStackTraceBasedSuppressionsEv 1140
__interceptor_getgrent_r,getgrent_r _ZN11__sanitizer10StackTrace12GetCurrentPcEv 1160
__interceptor_getgrent_r,getgrent_r _ZN6__asan18ReportGenericErrorEmmmmbmjb 1200
__interceptor_getgrent_r,getgrent_r _ZN11__sanitizer10StackTrace12GetCurrentPcEv 1228
__interceptor_getgrent_r,getgrent_r _ZN6__asan16GetCurrentThreadEv 1264
__interceptor_getgrent_r,getgrent_r _ZN11__sanitizer18BufferedStackTrace6UnwindEjmmPvmmb 1340
__interceptor_getgrent_r,getgrent_r _ZN11__sanitizer18BufferedStackTrace6UnwindEjmmPvmmb 1412
__interceptor_getgrent_r,getgrent_r _ZN6__asan22IsStackTraceSuppressedEPKN11__sanitizer10StackTraceE 1420
__interceptor_getgrent_r,getgrent_r .LC35 1436
__interceptor_getgrent_r,getgrent_r _ZN6__asan20asan_init_is_runningE 1444
__interceptor_getgrent_r,getgrent_r _ZN6__asan11asan_initedE 1452
__interceptor_getgrent_r,getgrent_r _ZN11__sanitizer21common_flags_dont_useE 1460
__interceptor_fgetgrent_r,fgetgrent_r _ZN6__asan15AsanInitFromRtlEv 132
__interceptor_fgetgrent_r,fgetgrent_r _ZN11__sanitizer10StackTrace12GetCurrentPcEv 260
__interceptor_fgetgrent_r,fgetgrent_r _ZN6__asan16GetCurrentThreadEv 300
__interceptor_fgetgrent_r,fgetgrent_r _ZN11__sanitizer18BufferedStackTrace6UnwindEjmmPvmmb 380
__interceptor_fgetgrent_r,fgetgrent_r _ZN11__sanitizer18BufferedStackTrace6UnwindEjmmPvmmb 448
__interceptor_fgetgrent_r,fgetgrent_r _ZN6__asan32ReportStringFunctionSizeOverflowEmmPN11__sanitizer18BufferedStackTraceE 468
__interceptor_fgetgrent_r,fgetgrent_r __asan_region_is_poisoned 500
__interceptor_fgetgrent_r,fgetgrent_r _ZN11__sanitizer10StackTrace12GetCurrentPcEv 560
__interceptor_fgetgrent_r,fgetgrent_r _ZN6__asan16GetCurrentThreadEv 596
__interceptor_fgetgrent_r,fgetgrent_r _ZN11__sanitizer18BufferedStackTrace6UnwindEjmmPvmmb 672
__interceptor_fgetgrent_r,fgetgrent_r _ZN6__asan23IsInterceptorSuppressedEPKc 688
__interceptor_fgetgrent_r,fgetgrent_r _ZN6__asan31HaveStackTraceBasedSuppressionsEv 700
__interceptor_fgetgrent_r,fgetgrent_r _ZN11__sanitizer10StackTrace12GetCurrentPcEv 720
__interceptor_fgetgrent_r,fgetgrent_r _ZN6__asan18ReportGenericErrorEmmmmbmjb 764
__interceptor_fgetgrent_r,fgetgrent_r _ZN11__sanitizer10StackTrace12GetCurrentPcEv 792
__interceptor_fgetgrent_r,fgetgrent_r _ZN6__asan16GetCurrentThreadEv 836
__interceptor_fgetgrent_r,fgetgrent_r _ZN11__sanitizer18BufferedStackTrace6UnwindEjmmPvmmb 916
__interceptor_fgetgrent_r,fgetgrent_r _ZN11__sanitizer18BufferedStackTrace6UnwindEjmmPvmmb 984
__interceptor_fgetgrent_r,fgetgrent_r _ZN6__asan22IsStackTraceSuppressedEPKN11__sanitizer10StackTraceE 996
__interceptor_fgetgrent_r,fgetgrent_r _ZN11__sanitizer18BufferedStackTrace6UnwindEjmmPvmmb 1068
__interceptor_fgetgrent_r,fgetgrent_r _ZN6__asan32ReportStringFunctionSizeOverflowEmmPN11__sanitizer18BufferedStackTraceE 1084
__interceptor_fgetgrent_r,fgetgrent_r __asan_region_is_poisoned 1116
__interceptor_fgetgrent_r,fgetgrent_r _ZN6__asan23IsInterceptorSuppressedEPKc 1132
__interceptor_fgetgrent_r,fgetgrent_r _ZN6__asan31HaveStackTraceBasedSuppressionsEv 1144
__interceptor_fgetgrent_r,fgetgrent_r _ZN11__sanitizer10StackTrace12GetCurrentPcEv 1164
__interceptor_fgetgrent_r,fgetgrent_r _ZN6__asan18ReportGenericErrorEmmmmbmjb 1204
__interceptor_fgetgrent_r,fgetgrent_r _ZN11__sanitizer10StackTrace12GetCurrentPcEv 1232
__interceptor_fgetgrent_r,fgetgrent_r _ZN6__asan16GetCurrentThreadEv 1268
__interceptor_fgetgrent_r,fgetgrent_r _ZN11__sanitizer18BufferedStackTrace6UnwindEjmmPvmmb 1344
__interceptor_fgetgrent_r,fgetgrent_r _ZN11__sanitizer18BufferedStackTrace6UnwindEjmmPvmmb 1416
__interceptor_fgetgrent_r,fgetgrent_r _ZN6__asan22IsStackTraceSuppressedEPKN11__sanitizer10StackTraceE 1424
__interceptor_fgetgrent_r,fgetgrent_r .LC36 1440
__interceptor_fgetgrent_r,fgetgrent_r _ZN6__asan20asan_init_is_runningE 1448
__interceptor_fgetgrent_r,fgetgrent_r _ZN6__asan11asan_initedE 1456
__interceptor_fgetgrent_r,fgetgrent_r _ZN11__sanitizer21common_flags_dont_useE 1464
__interceptor_clock_getres,clock_getres _ZN6__asan15AsanInitFromRtlEv 96
__interceptor_clock_getres,clock_getres _ZN11__sanitizer10StackTrace12GetCurrentPcEv 200
__interceptor_clock_getres,clock_getres _ZN6__asan16GetCurrentThreadEv 240
__interceptor_clock_getres,clock_getres _ZN11__sanitizer18BufferedStackTrace6UnwindEjmmPvmmb 320
__interceptor_clock_getres,clock_getres __asan_region_is_poisoned 340
__interceptor_clock_getres,clock_getres _ZN6__asan23IsInterceptorSuppressedEPKc 364
__interceptor_clock_getres,clock_getres _ZN6__asan31HaveStackTraceBasedSuppressionsEv 376
__interceptor_clock_getres,clock_getres _ZN11__sanitizer10StackTrace12GetCurrentPcEv 396
__interceptor_clock_getres,clock_getres _ZN6__asan18ReportGenericErrorEmmmmbmjb 436
__interceptor_clock_getres,clock_getres _ZN11__sanitizer18BufferedStackTrace6UnwindEjmmPvmmb 500
__interceptor_clock_getres,clock_getres _ZN6__asan32ReportStringFunctionSizeOverflowEmmPN11__sanitizer18BufferedStackTraceE 516
__interceptor_clock_getres,clock_getres _ZN11__sanitizer10StackTrace12GetCurrentPcEv 568
__interceptor_clock_getres,clock_getres _ZN6__asan16GetCurrentThreadEv 604
__interceptor_clock_getres,clock_getres _ZN11__sanitizer18BufferedStackTrace6UnwindEjmmPvmmb 680
__interceptor_clock_getres,clock_getres _ZN11__sanitizer18BufferedStackTrace6UnwindEjmmPvmmb 752
__interceptor_clock_getres,clock_getres _ZN6__asan22IsStackTraceSuppressedEPKN11__sanitizer10StackTraceE 760
__interceptor_clock_getres,clock_getres _ZN6__asan20asan_init_is_runningE 780
__interceptor_clock_getres,clock_getres _ZN6__asan11asan_initedE 788
__interceptor_clock_getres,clock_getres _ZN11__sanitizer18struct_timespec_szE 796
__interceptor_clock_getres,clock_getres _ZN11__sanitizer21common_flags_dont_useE 800
__interceptor_clock_getres,clock_getres .LC37 804
__interceptor_clock_gettime,clock_gettime _ZN6__asan15AsanInitFromRtlEv 104
__interceptor_clock_gettime,clock_gettime _ZN11__sanitizer10StackTrace12GetCurrentPcEv 188
__interceptor_clock_gettime,clock_gettime _ZN6__asan16GetCurrentThreadEv 228
__interceptor_clock_gettime,clock_gettime _ZN11__sanitizer18BufferedStackTrace6UnwindEjmmPvmmb 308
__interceptor_clock_gettime,clock_gettime _ZN11__sanitizer18BufferedStackTrace6UnwindEjmmPvmmb 376
__interceptor_clock_gettime,clock_gettime _ZN6__asan32ReportStringFunctionSizeOverflowEmmPN11__sanitizer18BufferedStackTraceE 392
__interceptor_clock_gettime,clock_gettime __asan_region_is_poisoned 424
__interceptor_clock_gettime,clock_gettime _ZN6__asan23IsInterceptorSuppressedEPKc 444
__interceptor_clock_gettime,clock_gettime _ZN6__asan31HaveStackTraceBasedSuppressionsEv 456
__interceptor_clock_gettime,clock_gettime _ZN11__sanitizer10StackTrace12GetCurrentPcEv 476
__interceptor_clock_gettime,clock_gettime _ZN6__asan18ReportGenericErrorEmmmmbmjb 516
__interceptor_clock_gettime,clock_gettime _ZN11__sanitizer10StackTrace12GetCurrentPcEv 544
__interceptor_clock_gettime,clock_gettime _ZN6__asan16GetCurrentThreadEv 584
__interceptor_clock_gettime,clock_gettime _ZN11__sanitizer18BufferedStackTrace6UnwindEjmmPvmmb 660
__interceptor_clock_gettime,clock_gettime _ZN11__sanitizer18BufferedStackTrace6UnwindEjmmPvmmb 728
__interceptor_clock_gettime,clock_gettime _ZN6__asan22IsStackTraceSuppressedEPKN11__sanitizer10StackTraceE 736
__interceptor_clock_gettime,clock_gettime _ZN6__asan20asan_init_is_runningE 756
__interceptor_clock_gettime,clock_gettime _ZN6__asan11asan_initedE 764
__interceptor_clock_gettime,clock_gettime _ZN11__sanitizer18struct_timespec_szE 772
__interceptor_clock_gettime,clock_gettime _ZN11__sanitizer21common_flags_dont_useE 776
__interceptor_clock_gettime,clock_gettime .LC38 780
__interceptor_clock_settime,clock_settime _ZN6__asan15AsanInitFromRtlEv 96
__interceptor_clock_settime,clock_settime _ZN11__sanitizer10StackTrace12GetCurrentPcEv 152
__interceptor_clock_settime,clock_settime _ZN6__asan16GetCurrentThreadEv 192
__interceptor_clock_settime,clock_settime _ZN11__sanitizer18BufferedStackTrace6UnwindEjmmPvmmb 272
__interceptor_clock_settime,clock_settime _ZN11__sanitizer18BufferedStackTrace6UnwindEjmmPvmmb 340
__interceptor_clock_settime,clock_settime _ZN6__asan32ReportStringFunctionSizeOverflowEmmPN11__sanitizer18BufferedStackTraceE 356
__interceptor_clock_settime,clock_settime __asan_region_is_poisoned 388
__interceptor_clock_settime,clock_settime _ZN6__asan23IsInterceptorSuppressedEPKc 436
__interceptor_clock_settime,clock_settime _ZN6__asan31HaveStackTraceBasedSuppressionsEv 448
__interceptor_clock_settime,clock_settime _ZN11__sanitizer10StackTrace12GetCurrentPcEv 468
__interceptor_clock_settime,clock_settime _ZN6__asan18ReportGenericErrorEmmmmbmjb 500
__interceptor_clock_settime,clock_settime _ZN11__sanitizer10StackTrace12GetCurrentPcEv 528
__interceptor_clock_settime,clock_settime _ZN6__asan16GetCurrentThreadEv 568
__interceptor_clock_settime,clock_settime _ZN11__sanitizer18BufferedStackTrace6UnwindEjmmPvmmb 644
__interceptor_clock_settime,clock_settime _ZN11__sanitizer18BufferedStackTrace6UnwindEjmmPvmmb 712
__interceptor_clock_settime,clock_settime _ZN6__asan22IsStackTraceSuppressedEPKN11__sanitizer10StackTraceE 720
__interceptor_clock_settime,clock_settime _ZN6__asan20asan_init_is_runningE 740
__interceptor_clock_settime,clock_settime _ZN6__asan11asan_initedE 748
__interceptor_clock_settime,clock_settime _ZN11__sanitizer18struct_timespec_szE 752
__interceptor_clock_settime,clock_settime _ZN11__sanitizer21common_flags_dont_useE 756
__interceptor_clock_settime,clock_settime .LC39 764
__interceptor_getitimer,getitimer _ZN6__asan15AsanInitFromRtlEv 96
__interceptor_getitimer,getitimer _ZN11__sanitizer10StackTrace12GetCurrentPcEv 200
__interceptor_getitimer,getitimer _ZN6__asan16GetCurrentThreadEv 240
__interceptor_getitimer,getitimer _ZN11__sanitizer18BufferedStackTrace6UnwindEjmmPvmmb 320
__interceptor_getitimer,getitimer __asan_region_is_poisoned 340
__interceptor_getitimer,getitimer _ZN6__asan23IsInterceptorSuppressedEPKc 364
__interceptor_getitimer,getitimer _ZN6__asan31HaveStackTraceBasedSuppressionsEv 376
__interceptor_getitimer,getitimer _ZN11__sanitizer10StackTrace12GetCurrentPcEv 396
__interceptor_getitimer,getitimer _ZN6__asan18ReportGenericErrorEmmmmbmjb 436
__interceptor_getitimer,getitimer _ZN11__sanitizer18BufferedStackTrace6UnwindEjmmPvmmb 500
__interceptor_getitimer,getitimer _ZN6__asan32ReportStringFunctionSizeOverflowEmmPN11__sanitizer18BufferedStackTraceE 516
__interceptor_getitimer,getitimer _ZN11__sanitizer10StackTrace12GetCurrentPcEv 568
__interceptor_getitimer,getitimer _ZN6__asan16GetCurrentThreadEv 604
__interceptor_getitimer,getitimer _ZN11__sanitizer18BufferedStackTrace6UnwindEjmmPvmmb 680
__interceptor_getitimer,getitimer _ZN11__sanitizer18BufferedStackTrace6UnwindEjmmPvmmb 752
__interceptor_getitimer,getitimer _ZN6__asan22IsStackTraceSuppressedEPKN11__sanitizer10StackTraceE 760
__interceptor_getitimer,getitimer _ZN6__asan20asan_init_is_runningE 780
__interceptor_getitimer,getitimer _ZN6__asan11asan_initedE 788
__interceptor_getitimer,getitimer _ZN11__sanitizer19struct_itimerval_szE 796
__interceptor_getitimer,getitimer _ZN11__sanitizer21common_flags_dont_useE 800
__interceptor_getitimer,getitimer .LC40 804
__interceptor_setitimer,setitimer _ZN6__asan15AsanInitFromRtlEv 100
__interceptor_setitimer,setitimer _ZN11__sanitizer10StackTrace12GetCurrentPcEv 168
__interceptor_setitimer,setitimer _ZN6__asan16GetCurrentThreadEv 208
__interceptor_setitimer,setitimer _ZN11__sanitizer18BufferedStackTrace6UnwindEjmmPvmmb 288
__interceptor_setitimer,setitimer __asan_region_is_poisoned 308
__interceptor_setitimer,setitimer _ZN6__asan23IsInterceptorSuppressedEPKc 328
__interceptor_setitimer,setitimer _ZN6__asan31HaveStackTraceBasedSuppressionsEv 340
__interceptor_setitimer,setitimer _ZN11__sanitizer10StackTrace12GetCurrentPcEv 360
__interceptor_setitimer,setitimer _ZN6__asan18ReportGenericErrorEmmmmbmjb 400
__interceptor_setitimer,setitimer _ZN11__sanitizer18BufferedStackTrace6UnwindEjmmPvmmb 464
__interceptor_setitimer,setitimer _ZN6__asan32ReportStringFunctionSizeOverflowEmmPN11__sanitizer18BufferedStackTraceE 484
__interceptor_setitimer,setitimer __asan_region_is_poisoned 516
__interceptor_setitimer,setitimer _ZN11__sanitizer10StackTrace12GetCurrentPcEv 636
__interceptor_setitimer,setitimer _ZN6__asan16GetCurrentThreadEv 676
__interceptor_setitimer,setitimer _ZN11__sanitizer18BufferedStackTrace6UnwindEjmmPvmmb 756
__interceptor_setitimer,setitimer _ZN6__asan23IsInterceptorSuppressedEPKc 776
__interceptor_setitimer,setitimer _ZN6__asan31HaveStackTraceBasedSuppressionsEv 788
__interceptor_setitimer,setitimer _ZN11__sanitizer10StackTrace12GetCurrentPcEv 800
__interceptor_setitimer,setitimer _ZN6__asan18ReportGenericErrorEmmmmbmjb 844
__interceptor_setitimer,setitimer _ZN11__sanitizer10StackTrace12GetCurrentPcEv 880
__interceptor_setitimer,setitimer _ZN6__asan16GetCurrentThreadEv 924
__interceptor_setitimer,setitimer _ZN11__sanitizer18BufferedStackTrace6UnwindEjmmPvmmb 1004
__interceptor_setitimer,setitimer _ZN11__sanitizer18BufferedStackTrace6UnwindEjmmPvmmb 1072
__interceptor_setitimer,setitimer _ZN6__asan22IsStackTraceSuppressedEPKN11__sanitizer10StackTraceE 1084
__interceptor_setitimer,setitimer _ZN11__sanitizer18BufferedStackTrace6UnwindEjmmPvmmb 1156
__interceptor_setitimer,setitimer _ZN6__asan32ReportStringFunctionSizeOverflowEmmPN11__sanitizer18BufferedStackTraceE 1172
__interceptor_setitimer,setitimer _ZN11__sanitizer10StackTrace12GetCurrentPcEv 1224
__interceptor_setitimer,setitimer _ZN6__asan16GetCurrentThreadEv 1260
__interceptor_setitimer,setitimer _ZN11__sanitizer18BufferedStackTrace6UnwindEjmmPvmmb 1336
__interceptor_setitimer,setitimer _ZN11__sanitizer18BufferedStackTrace6UnwindEjmmPvmmb 1408
__interceptor_setitimer,setitimer _ZN6__asan22IsStackTraceSuppressedEPKN11__sanitizer10StackTraceE 1416
__interceptor_setitimer,setitimer _ZN6__asan20asan_init_is_runningE 1436
__interceptor_setitimer,setitimer _ZN6__asan11asan_initedE 1444
__interceptor_setitimer,setitimer _ZN11__sanitizer19struct_itimerval_szE 1448
__interceptor_setitimer,setitimer _ZN11__sanitizer21common_flags_dont_useE 1452
__interceptor_setitimer,setitimer .LC41 1456
__interceptor_setitimer,setitimer .LC41 1464
__interceptor_wait,wait _ZN6__asan15AsanInitFromRtlEv 100
__interceptor_wait,wait _ZN11__sanitizer10StackTrace12GetCurrentPcEv 180
__interceptor_wait,wait _ZN6__asan16GetCurrentThreadEv 220
__interceptor_wait,wait _ZN11__sanitizer18BufferedStackTrace6UnwindEjmmPvmmb 300
__interceptor_wait,wait _ZN11__sanitizer18BufferedStackTrace6UnwindEjmmPvmmb 368
__interceptor_wait,wait _ZN6__asan32ReportStringFunctionSizeOverflowEmmPN11__sanitizer18BufferedStackTraceE 384
__interceptor_wait,wait __asan_region_is_poisoned 416
__interceptor_wait,wait _ZN6__asan23IsInterceptorSuppressedEPKc 440
__interceptor_wait,wait _ZN6__asan31HaveStackTraceBasedSuppressionsEv 452
__interceptor_wait,wait _ZN11__sanitizer10StackTrace12GetCurrentPcEv 472
__interceptor_wait,wait _ZN6__asan18ReportGenericErrorEmmmmbmjb 512
__interceptor_wait,wait _ZN11__sanitizer10StackTrace12GetCurrentPcEv 540
__interceptor_wait,wait _ZN6__asan16GetCurrentThreadEv 576
__interceptor_wait,wait _ZN11__sanitizer18BufferedStackTrace6UnwindEjmmPvmmb 652
__interceptor_wait,wait _ZN11__sanitizer18BufferedStackTrace6UnwindEjmmPvmmb 724
__interceptor_wait,wait _ZN6__asan22IsStackTraceSuppressedEPKN11__sanitizer10StackTraceE 732
__interceptor_wait,wait _ZN6__asan20asan_init_is_runningE 752
__interceptor_wait,wait _ZN6__asan11asan_initedE 760
__interceptor_wait,wait _ZN11__sanitizer21common_flags_dont_useE 768
__interceptor_wait,wait .LC42 772
__interceptor_waitid,waitid _ZN6__asan15AsanInitFromRtlEv 116
__interceptor_waitid,waitid _ZN11__sanitizer10StackTrace12GetCurrentPcEv 220
__interceptor_waitid,waitid _ZN6__asan16GetCurrentThreadEv 264
__interceptor_waitid,waitid _ZN11__sanitizer18BufferedStackTrace6UnwindEjmmPvmmb 344
__interceptor_waitid,waitid _ZN11__sanitizer18BufferedStackTrace6UnwindEjmmPvmmb 412
__interceptor_waitid,waitid _ZN6__asan32ReportStringFunctionSizeOverflowEmmPN11__sanitizer18BufferedStackTraceE 428
__interceptor_waitid,waitid __asan_region_is_poisoned 460
__interceptor_waitid,waitid _ZN6__asan23IsInterceptorSuppressedEPKc 480
__interceptor_waitid,waitid _ZN6__asan31HaveStackTraceBasedSuppressionsEv 492
__interceptor_waitid,waitid _ZN11__sanitizer10StackTrace12GetCurrentPcEv 512
__interceptor_waitid,waitid _ZN6__asan18ReportGenericErrorEmmmmbmjb 552
__interceptor_waitid,waitid _ZN11__sanitizer10StackTrace12GetCurrentPcEv 580
__interceptor_waitid,waitid _ZN6__asan16GetCurrentThreadEv 624
__interceptor_waitid,waitid _ZN11__sanitizer18BufferedStackTrace6UnwindEjmmPvmmb 700
__interceptor_waitid,waitid _ZN11__sanitizer18BufferedStackTrace6UnwindEjmmPvmmb 768
__interceptor_waitid,waitid _ZN6__asan22IsStackTraceSuppressedEPKN11__sanitizer10StackTraceE 776
__interceptor_waitid,waitid _ZN6__asan20asan_init_is_runningE 796
__interceptor_waitid,waitid _ZN6__asan11asan_initedE 804
__interceptor_waitid,waitid _ZN11__sanitizer12siginfo_t_szE 812
__interceptor_waitid,waitid _ZN11__sanitizer21common_flags_dont_useE 816
__interceptor_waitid,waitid .LC43 820
__interceptor_waitpid,waitpid _ZN6__asan15AsanInitFromRtlEv 108
__interceptor_waitpid,waitpid _ZN11__sanitizer10StackTrace12GetCurrentPcEv 196
__interceptor_waitpid,waitpid _ZN6__asan16GetCurrentThreadEv 236
__interceptor_waitpid,waitpid _ZN11__sanitizer18BufferedStackTrace6UnwindEjmmPvmmb 316
__interceptor_waitpid,waitpid _ZN11__sanitizer18BufferedStackTrace6UnwindEjmmPvmmb 384
__interceptor_waitpid,waitpid _ZN6__asan32ReportStringFunctionSizeOverflowEmmPN11__sanitizer18BufferedStackTraceE 400
__interceptor_waitpid,waitpid __asan_region_is_poisoned 432
__interceptor_waitpid,waitpid _ZN6__asan23IsInterceptorSuppressedEPKc 456
__interceptor_waitpid,waitpid _ZN6__asan31HaveStackTraceBasedSuppressionsEv 468
__interceptor_waitpid,waitpid _ZN11__sanitizer10StackTrace12GetCurrentPcEv 488
__interceptor_waitpid,waitpid _ZN6__asan18ReportGenericErrorEmmmmbmjb 528
__interceptor_waitpid,waitpid _ZN11__sanitizer10StackTrace12GetCurrentPcEv 556
__interceptor_waitpid,waitpid _ZN6__asan16GetCurrentThreadEv 592
__interceptor_waitpid,waitpid _ZN11__sanitizer18BufferedStackTrace6UnwindEjmmPvmmb 668
__interceptor_waitpid,waitpid _ZN11__sanitizer18BufferedStackTrace6UnwindEjmmPvmmb 740
__interceptor_waitpid,waitpid _ZN6__asan22IsStackTraceSuppressedEPKN11__sanitizer10StackTraceE 748
__interceptor_waitpid,waitpid _ZN6__asan20asan_init_is_runningE 768
__interceptor_waitpid,waitpid _ZN6__asan11asan_initedE 776
__interceptor_waitpid,waitpid _ZN11__sanitizer21common_flags_dont_useE 784
__interceptor_waitpid,waitpid .LC44 788
__interceptor_wait3,wait3 _ZN6__asan15AsanInitFromRtlEv 108
__interceptor_wait3,wait3 _ZN11__sanitizer10StackTrace12GetCurrentPcEv 200
__interceptor_wait3,wait3 _ZN6__asan16GetCurrentThreadEv 240
__interceptor_wait3,wait3 _ZN11__sanitizer18BufferedStackTrace6UnwindEjmmPvmmb 328
__interceptor_wait3,wait3 _ZN11__sanitizer18BufferedStackTrace6UnwindEjmmPvmmb 400
__interceptor_wait3,wait3 _ZN6__asan32ReportStringFunctionSizeOverflowEmmPN11__sanitizer18BufferedStackTraceE 416
__interceptor_wait3,wait3 __asan_region_is_poisoned 448
__interceptor_wait3,wait3 _ZN11__sanitizer10StackTrace12GetCurrentPcEv 524
__interceptor_wait3,wait3 _ZN6__asan16GetCurrentThreadEv 564
__interceptor_wait3,wait3 _ZN11__sanitizer18BufferedStackTrace6UnwindEjmmPvmmb 652
__interceptor_wait3,wait3 _ZN6__asan23IsInterceptorSuppressedEPKc 676
__interceptor_wait3,wait3 _ZN6__asan31HaveStackTraceBasedSuppressionsEv 688
__interceptor_wait3,wait3 _ZN11__sanitizer10StackTrace12GetCurrentPcEv 708
__interceptor_wait3,wait3 _ZN6__asan18ReportGenericErrorEmmmmbmjb 748
__interceptor_wait3,wait3 _ZN11__sanitizer10StackTrace12GetCurrentPcEv 776
__interceptor_wait3,wait3 _ZN6__asan16GetCurrentThreadEv 820
__interceptor_wait3,wait3 _ZN11__sanitizer18BufferedStackTrace6UnwindEjmmPvmmb 900
__interceptor_wait3,wait3 _ZN11__sanitizer18BufferedStackTrace6UnwindEjmmPvmmb 968
__interceptor_wait3,wait3 _ZN6__asan22IsStackTraceSuppressedEPKN11__sanitizer10StackTraceE 976
__interceptor_wait3,wait3 _ZN11__sanitizer18BufferedStackTrace6UnwindEjmmPvmmb 1048
__interceptor_wait3,wait3 _ZN6__asan32ReportStringFunctionSizeOverflowEmmPN11__sanitizer18BufferedStackTraceE 1064
__interceptor_wait3,wait3 __asan_region_is_poisoned 1096
__interceptor_wait3,wait3 _ZN6__asan23IsInterceptorSuppressedEPKc 1116
__interceptor_wait3,wait3 _ZN6__asan31HaveStackTraceBasedSuppressionsEv 1128
__interceptor_wait3,wait3 _ZN11__sanitizer10StackTrace12GetCurrentPcEv 1148
__interceptor_wait3,wait3 _ZN6__asan18ReportGenericErrorEmmmmbmjb 1188
__interceptor_wait3,wait3 _ZN11__sanitizer10StackTrace12GetCurrentPcEv 1216
__interceptor_wait3,wait3 _ZN6__asan16GetCurrentThreadEv 1256
__interceptor_wait3,wait3 _ZN11__sanitizer18BufferedStackTrace6UnwindEjmmPvmmb 1332
__interceptor_wait3,wait3 _ZN11__sanitizer18BufferedStackTrace6UnwindEjmmPvmmb 1400
__interceptor_wait3,wait3 _ZN6__asan22IsStackTraceSuppressedEPKN11__sanitizer10StackTraceE 1408
__interceptor_wait3,wait3 _ZN6__asan20asan_init_is_runningE 1428
__interceptor_wait3,wait3 _ZN6__asan11asan_initedE 1436
__interceptor_wait3,wait3 _ZN11__sanitizer21common_flags_dont_useE 1444
__interceptor_wait3,wait3 _ZN11__sanitizer16struct_rusage_szE 1448
__interceptor_wait3,wait3 .LC45 1452
__interceptor_wait3,wait3 .LC45 1456
__interceptor_wait4,wait4 _ZN6__asan15AsanInitFromRtlEv 112
__interceptor_wait4,wait4 _ZN11__sanitizer10StackTrace12GetCurrentPcEv 208
__interceptor_wait4,wait4 _ZN6__asan16GetCurrentThreadEv 248
__interceptor_wait4,wait4 _ZN11__sanitizer18BufferedStackTrace6UnwindEjmmPvmmb 336
__interceptor_wait4,wait4 _ZN11__sanitizer18BufferedStackTrace6UnwindEjmmPvmmb 408
__interceptor_wait4,wait4 _ZN6__asan32ReportStringFunctionSizeOverflowEmmPN11__sanitizer18BufferedStackTraceE 424
__interceptor_wait4,wait4 __asan_region_is_poisoned 456
__interceptor_wait4,wait4 _ZN11__sanitizer10StackTrace12GetCurrentPcEv 532
__interceptor_wait4,wait4 _ZN6__asan16GetCurrentThreadEv 572
__interceptor_wait4,wait4 _ZN11__sanitizer18BufferedStackTrace6UnwindEjmmPvmmb 660
__interceptor_wait4,wait4 _ZN6__asan23IsInterceptorSuppressedEPKc 684
__interceptor_wait4,wait4 _ZN6__asan31HaveStackTraceBasedSuppressionsEv 696
__interceptor_wait4,wait4 _ZN11__sanitizer10StackTrace12GetCurrentPcEv 716
__interceptor_wait4,wait4 _ZN6__asan18ReportGenericErrorEmmmmbmjb 756
__interceptor_wait4,wait4 _ZN11__sanitizer10StackTrace12GetCurrentPcEv 784
__interceptor_wait4,wait4 _ZN6__asan16GetCurrentThreadEv 828
__interceptor_wait4,wait4 _ZN11__sanitizer18BufferedStackTrace6UnwindEjmmPvmmb 908
__interceptor_wait4,wait4 _ZN11__sanitizer18BufferedStackTrace6UnwindEjmmPvmmb 976
__interceptor_wait4,wait4 _ZN6__asan22IsStackTraceSuppressedEPKN11__sanitizer10StackTraceE 984
__interceptor_wait4,wait4 _ZN11__sanitizer18BufferedStackTrace6UnwindEjmmPvmmb 1056
__interceptor_wait4,wait4 _ZN6__asan32ReportStringFunctionSizeOverflowEmmPN11__sanitizer18BufferedStackTraceE 1072
__interceptor_wait4,wait4 __asan_region_is_poisoned 1104
__interceptor_wait4,wait4 _ZN6__asan23IsInterceptorSuppressedEPKc 1124
__interceptor_wait4,wait4 _ZN6__asan31HaveStackTraceBasedSuppressionsEv 1136
__interceptor_wait4,wait4 _ZN11__sanitizer10StackTrace12GetCurrentPcEv 1156
__interceptor_wait4,wait4 _ZN6__asan18ReportGenericErrorEmmmmbmjb 1196
__interceptor_wait4,wait4 _ZN11__sanitizer10StackTrace12GetCurrentPcEv 1224
__interceptor_wait4,wait4 _ZN6__asan16GetCurrentThreadEv 1264
__interceptor_wait4,wait4 _ZN11__sanitizer18BufferedStackTrace6UnwindEjmmPvmmb 1340
__interceptor_wait4,wait4 _ZN11__sanitizer18BufferedStackTrace6UnwindEjmmPvmmb 1408
__interceptor_wait4,wait4 _ZN6__asan22IsStackTraceSuppressedEPKN11__sanitizer10StackTraceE 1416
__interceptor_wait4,wait4 _ZN6__asan20asan_init_is_runningE 1436
__interceptor_wait4,wait4 _ZN6__asan11asan_initedE 1444
__interceptor_wait4,wait4 _ZN11__sanitizer21common_flags_dont_useE 1452
__interceptor_wait4,wait4 _ZN11__sanitizer16struct_rusage_szE 1456
__interceptor_wait4,wait4 .LC46 1460
__interceptor_wait4,wait4 .LC46 1464
__interceptor_inet_ntop,inet_ntop _ZN6__asan15AsanInitFromRtlEv 112
__interceptor_inet_ntop,inet_ntop _ZN11__sanitizer22__sanitizer_in_addr_szEi 120
__interceptor_inet_ntop,inet_ntop _ZN11__sanitizer10StackTrace12GetCurrentPcEv 172
__interceptor_inet_ntop,inet_ntop _ZN6__asan16GetCurrentThreadEv 212
__interceptor_inet_ntop,inet_ntop _ZN11__sanitizer18BufferedStackTrace6UnwindEjmmPvmmb 292
__interceptor_inet_ntop,inet_ntop _ZN11__sanitizer18BufferedStackTrace6UnwindEjmmPvmmb 360
__interceptor_inet_ntop,inet_ntop _ZN6__asan32ReportStringFunctionSizeOverflowEmmPN11__sanitizer18BufferedStackTraceE 380
__interceptor_inet_ntop,inet_ntop __asan_region_is_poisoned 412
__interceptor_inet_ntop,inet_ntop _ZN11__sanitizer10StackTrace12GetCurrentPcEv 520
__interceptor_inet_ntop,inet_ntop _ZN6__asan16GetCurrentThreadEv 560
__interceptor_inet_ntop,inet_ntop _ZN11__sanitizer18BufferedStackTrace6UnwindEjmmPvmmb 640
__interceptor_inet_ntop,inet_ntop _ZN6__asan23IsInterceptorSuppressedEPKc 660
__interceptor_inet_ntop,inet_ntop _ZN6__asan31HaveStackTraceBasedSuppressionsEv 672
__interceptor_inet_ntop,inet_ntop _ZN11__sanitizer10StackTrace12GetCurrentPcEv 684
__interceptor_inet_ntop,inet_ntop _ZN6__asan18ReportGenericErrorEmmmmbmjb 720
__interceptor_inet_ntop,inet_ntop _ZN11__sanitizer10StackTrace12GetCurrentPcEv 756
__interceptor_inet_ntop,inet_ntop _ZN6__asan16GetCurrentThreadEv 800
__interceptor_inet_ntop,inet_ntop _ZN11__sanitizer18BufferedStackTrace6UnwindEjmmPvmmb 880
__interceptor_inet_ntop,inet_ntop _ZN11__sanitizer18BufferedStackTrace6UnwindEjmmPvmmb 948
__interceptor_inet_ntop,inet_ntop _ZN6__asan22IsStackTraceSuppressedEPKN11__sanitizer10StackTraceE 960
__interceptor_inet_ntop,inet_ntop _ZN11__sanitizer18BufferedStackTrace6UnwindEjmmPvmmb 1032
__interceptor_inet_ntop,inet_ntop _ZN6__asan32ReportStringFunctionSizeOverflowEmmPN11__sanitizer18BufferedStackTraceE 1048
__interceptor_inet_ntop,inet_ntop __asan_region_is_poisoned 1080
__interceptor_inet_ntop,inet_ntop _ZN6__asan23IsInterceptorSuppressedEPKc 1100
__interceptor_inet_ntop,inet_ntop _ZN6__asan31HaveStackTraceBasedSuppressionsEv 1112
__interceptor_inet_ntop,inet_ntop _ZN11__sanitizer10StackTrace12GetCurrentPcEv 1132
__interceptor_inet_ntop,inet_ntop _ZN6__asan18ReportGenericErrorEmmmmbmjb 1172
__interceptor_inet_ntop,inet_ntop _ZN11__sanitizer10StackTrace12GetCurrentPcEv 1200
__interceptor_inet_ntop,inet_ntop _ZN6__asan16GetCurrentThreadEv 1240
__interceptor_inet_ntop,inet_ntop _ZN11__sanitizer18BufferedStackTrace6UnwindEjmmPvmmb 1316
__interceptor_inet_ntop,inet_ntop _ZN11__sanitizer18BufferedStackTrace6UnwindEjmmPvmmb 1384
__interceptor_inet_ntop,inet_ntop _ZN6__asan22IsStackTraceSuppressedEPKN11__sanitizer10StackTraceE 1392
__interceptor_inet_ntop,inet_ntop _ZN6__asan20asan_init_is_runningE 1412
__interceptor_inet_ntop,inet_ntop _ZN6__asan11asan_initedE 1420
__interceptor_inet_ntop,inet_ntop _ZN11__sanitizer21common_flags_dont_useE 1424
__interceptor_inet_ntop,inet_ntop .LC47 1432
__interceptor_inet_ntop,inet_ntop .LC47 1436
__interceptor_inet_pton,inet_pton _ZN6__asan15AsanInitFromRtlEv 108
__interceptor_inet_pton,inet_pton _ZN11__sanitizer10StackTrace12GetCurrentPcEv 200
__interceptor_inet_pton,inet_pton _ZN6__asan16GetCurrentThreadEv 236
__interceptor_inet_pton,inet_pton _ZN11__sanitizer18BufferedStackTrace6UnwindEjmmPvmmb 316
__interceptor_inet_pton,inet_pton _ZN11__sanitizer18BufferedStackTrace6UnwindEjmmPvmmb 384
__interceptor_inet_pton,inet_pton _ZN6__asan32ReportStringFunctionSizeOverflowEmmPN11__sanitizer18BufferedStackTraceE 404
__interceptor_inet_pton,inet_pton __asan_region_is_poisoned 436
__interceptor_inet_pton,inet_pton _ZN11__sanitizer22__sanitizer_in_addr_szEi 496
__interceptor_inet_pton,inet_pton _ZN11__sanitizer10StackTrace12GetCurrentPcEv 548
__interceptor_inet_pton,inet_pton _ZN6__asan16GetCurrentThreadEv 584
__interceptor_inet_pton,inet_pton _ZN11__sanitizer18BufferedStackTrace6UnwindEjmmPvmmb 660
__interceptor_inet_pton,inet_pton _ZN6__asan23IsInterceptorSuppressedEPKc 680
__interceptor_inet_pton,inet_pton _ZN6__asan31HaveStackTraceBasedSuppressionsEv 692
__interceptor_inet_pton,inet_pton _ZN11__sanitizer10StackTrace12GetCurrentPcEv 704
__interceptor_inet_pton,inet_pton _ZN6__asan18ReportGenericErrorEmmmmbmjb 740
__interceptor_inet_pton,inet_pton _ZN11__sanitizer10StackTrace12GetCurrentPcEv 776
__interceptor_inet_pton,inet_pton _ZN6__asan16GetCurrentThreadEv 816
__interceptor_inet_pton,inet_pton _ZN11__sanitizer18BufferedStackTrace6UnwindEjmmPvmmb 896
__interceptor_inet_pton,inet_pton _ZN11__sanitizer18BufferedStackTrace6UnwindEjmmPvmmb 964
__interceptor_inet_pton,inet_pton _ZN6__asan22IsStackTraceSuppressedEPKN11__sanitizer10StackTraceE 976
__interceptor_inet_pton,inet_pton _ZN11__sanitizer18BufferedStackTrace6UnwindEjmmPvmmb 1048
__interceptor_inet_pton,inet_pton _ZN6__asan32ReportStringFunctionSizeOverflowEmmPN11__sanitizer18BufferedStackTraceE 1064
__interceptor_inet_pton,inet_pton __asan_region_is_poisoned 1096
__interceptor_inet_pton,inet_pton _ZN6__asan23IsInterceptorSuppressedEPKc 1116
__interceptor_inet_pton,inet_pton _ZN6__asan31HaveStackTraceBasedSuppressionsEv 1128
__interceptor_inet_pton,inet_pton _ZN11__sanitizer10StackTrace12GetCurrentPcEv 1148
__interceptor_inet_pton,inet_pton _ZN6__asan18ReportGenericErrorEmmmmbmjb 1188
__interceptor_inet_pton,inet_pton _ZN11__sanitizer10StackTrace12GetCurrentPcEv 1216
__interceptor_inet_pton,inet_pton _ZN6__asan16GetCurrentThreadEv 1252
__interceptor_inet_pton,inet_pton _ZN11__sanitizer18BufferedStackTrace6UnwindEjmmPvmmb 1328
__interceptor_inet_pton,inet_pton _ZN11__sanitizer18BufferedStackTrace6UnwindEjmmPvmmb 1396
__interceptor_inet_pton,inet_pton _ZN6__asan22IsStackTraceSuppressedEPKN11__sanitizer10StackTraceE 1404
__interceptor_inet_pton,inet_pton _ZN6__asan20asan_init_is_runningE 1424
__interceptor_inet_pton,inet_pton _ZN6__asan11asan_initedE 1432
__interceptor_inet_pton,inet_pton _ZN11__sanitizer21common_flags_dont_useE 1436
__interceptor_inet_pton,inet_pton .LC48 1448
__interceptor_inet_pton,inet_pton .LC48 1452
__interceptor_inet_aton,inet_aton _ZN6__asan15AsanInitFromRtlEv 104
__interceptor_inet_aton,inet_aton _ZN11__sanitizer10StackTrace12GetCurrentPcEv 180
__interceptor_inet_aton,inet_aton _ZN6__asan16GetCurrentThreadEv 220
__interceptor_inet_aton,inet_aton _ZN11__sanitizer18BufferedStackTrace6UnwindEjmmPvmmb 308
__interceptor_inet_aton,inet_aton _ZN11__sanitizer18BufferedStackTrace6UnwindEjmmPvmmb 380
__interceptor_inet_aton,inet_aton _ZN6__asan32ReportStringFunctionSizeOverflowEmmPN11__sanitizer18BufferedStackTraceE 396
__interceptor_inet_aton,inet_aton __asan_region_is_poisoned 428
__interceptor_inet_aton,inet_aton _ZN11__sanitizer22__sanitizer_in_addr_szEi 492
__interceptor_inet_aton,inet_aton _ZN11__sanitizer10StackTrace12GetCurrentPcEv 544
__interceptor_inet_aton,inet_aton _ZN6__asan16GetCurrentThreadEv 584
__interceptor_inet_aton,inet_aton _ZN11__sanitizer18BufferedStackTrace6UnwindEjmmPvmmb 664
__interceptor_inet_aton,inet_aton _ZN6__asan23IsInterceptorSuppressedEPKc 684
__interceptor_inet_aton,inet_aton _ZN6__asan31HaveStackTraceBasedSuppressionsEv 696
__interceptor_inet_aton,inet_aton _ZN11__sanitizer10StackTrace12GetCurrentPcEv 708
__interceptor_inet_aton,inet_aton _ZN6__asan18ReportGenericErrorEmmmmbmjb 744
__interceptor_inet_aton,inet_aton _ZN11__sanitizer10StackTrace12GetCurrentPcEv 780
__interceptor_inet_aton,inet_aton _ZN6__asan16GetCurrentThreadEv 824
__interceptor_inet_aton,inet_aton _ZN11__sanitizer18BufferedStackTrace6UnwindEjmmPvmmb 912
__interceptor_inet_aton,inet_aton _ZN11__sanitizer18BufferedStackTrace6UnwindEjmmPvmmb 984
__interceptor_inet_aton,inet_aton _ZN6__asan22IsStackTraceSuppressedEPKN11__sanitizer10StackTraceE 996
__interceptor_inet_aton,inet_aton _ZN11__sanitizer18BufferedStackTrace6UnwindEjmmPvmmb 1068
__interceptor_inet_aton,inet_aton _ZN6__asan32ReportStringFunctionSizeOverflowEmmPN11__sanitizer18BufferedStackTraceE 1084
__interceptor_inet_aton,inet_aton __asan_region_is_poisoned 1116
__interceptor_inet_aton,inet_aton _ZN6__asan23IsInterceptorSuppressedEPKc 1136
__interceptor_inet_aton,inet_aton _ZN6__asan31HaveStackTraceBasedSuppressionsEv 1148
__interceptor_inet_aton,inet_aton _ZN11__sanitizer10StackTrace12GetCurrentPcEv 1168
__interceptor_inet_aton,inet_aton _ZN6__asan18ReportGenericErrorEmmmmbmjb 1208
__interceptor_inet_aton,inet_aton _ZN11__sanitizer10StackTrace12GetCurrentPcEv 1236
__interceptor_inet_aton,inet_aton _ZN6__asan16GetCurrentThreadEv 1272
__interceptor_inet_aton,inet_aton _ZN11__sanitizer18BufferedStackTrace6UnwindEjmmPvmmb 1348
__interceptor_inet_aton,inet_aton _ZN11__sanitizer18BufferedStackTrace6UnwindEjmmPvmmb 1420
__interceptor_inet_aton,inet_aton _ZN6__asan22IsStackTraceSuppressedEPKN11__sanitizer10StackTraceE 1428
__interceptor_inet_aton,inet_aton _ZN6__asan20asan_init_is_runningE 1448
__interceptor_inet_aton,inet_aton _ZN6__asan11asan_initedE 1456
__interceptor_inet_aton,inet_aton _ZN11__sanitizer21common_flags_dont_useE 1464
__interceptor_inet_aton,inet_aton _ZN11__sanitizer7af_inetE 1472
__interceptor_inet_aton,inet_aton .LC49 1476
__interceptor_inet_aton,inet_aton .LC49 1480
__interceptor_pthread_getschedparam,pthread_getschedparam _ZN6__asan15AsanInitFromRtlEv 108
__interceptor_pthread_getschedparam,pthread_getschedparam _ZN11__sanitizer10StackTrace12GetCurrentPcEv 192
__interceptor_pthread_getschedparam,pthread_getschedparam _ZN6__asan16GetCurrentThreadEv 232
__interceptor_pthread_getschedparam,pthread_getschedparam _ZN11__sanitizer18BufferedStackTrace6UnwindEjmmPvmmb 312
__interceptor_pthread_getschedparam,pthread_getschedparam _ZN11__sanitizer18BufferedStackTrace6UnwindEjmmPvmmb 380
__interceptor_pthread_getschedparam,pthread_getschedparam _ZN6__asan32ReportStringFunctionSizeOverflowEmmPN11__sanitizer18BufferedStackTraceE 396
__interceptor_pthread_getschedparam,pthread_getschedparam __asan_region_is_poisoned 428
__interceptor_pthread_getschedparam,pthread_getschedparam _ZN11__sanitizer10StackTrace12GetCurrentPcEv 492
__interceptor_pthread_getschedparam,pthread_getschedparam _ZN6__asan16GetCurrentThreadEv 532
__interceptor_pthread_getschedparam,pthread_getschedparam _ZN11__sanitizer18BufferedStackTrace6UnwindEjmmPvmmb 612
__interceptor_pthread_getschedparam,pthread_getschedparam _ZN6__asan23IsInterceptorSuppressedEPKc 632
__interceptor_pthread_getschedparam,pthread_getschedparam _ZN6__asan31HaveStackTraceBasedSuppressionsEv 644
__interceptor_pthread_getschedparam,pthread_getschedparam _ZN11__sanitizer10StackTrace12GetCurrentPcEv 664
__interceptor_pthread_getschedparam,pthread_getschedparam _ZN6__asan18ReportGenericErrorEmmmmbmjb 704
__interceptor_pthread_getschedparam,pthread_getschedparam _ZN11__sanitizer10StackTrace12GetCurrentPcEv 732
__interceptor_pthread_getschedparam,pthread_getschedparam _ZN6__asan16GetCurrentThreadEv 776
__interceptor_pthread_getschedparam,pthread_getschedparam _ZN11__sanitizer18BufferedStackTrace6UnwindEjmmPvmmb 856
__interceptor_pthread_getschedparam,pthread_getschedparam _ZN11__sanitizer18BufferedStackTrace6UnwindEjmmPvmmb 924
__interceptor_pthread_getschedparam,pthread_getschedparam _ZN6__asan22IsStackTraceSuppressedEPKN11__sanitizer10StackTraceE 932
__interceptor_pthread_getschedparam,pthread_getschedparam _ZN11__sanitizer18BufferedStackTrace6UnwindEjmmPvmmb 1004
__interceptor_pthread_getschedparam,pthread_getschedparam _ZN6__asan32ReportStringFunctionSizeOverflowEmmPN11__sanitizer18BufferedStackTraceE 1020
__interceptor_pthread_getschedparam,pthread_getschedparam __asan_region_is_poisoned 1052
__interceptor_pthread_getschedparam,pthread_getschedparam _ZN6__asan23IsInterceptorSuppressedEPKc 1072
__interceptor_pthread_getschedparam,pthread_getschedparam _ZN6__asan31HaveStackTraceBasedSuppressionsEv 1084
__interceptor_pthread_getschedparam,pthread_getschedparam _ZN11__sanitizer10StackTrace12GetCurrentPcEv 1104
__interceptor_pthread_getschedparam,pthread_getschedparam _ZN6__asan18ReportGenericErrorEmmmmbmjb 1144
__interceptor_pthread_getschedparam,pthread_getschedparam _ZN11__sanitizer10StackTrace12GetCurrentPcEv 1172
__interceptor_pthread_getschedparam,pthread_getschedparam _ZN6__asan16GetCurrentThreadEv 1208
__interceptor_pthread_getschedparam,pthread_getschedparam _ZN11__sanitizer18BufferedStackTrace6UnwindEjmmPvmmb 1284
__interceptor_pthread_getschedparam,pthread_getschedparam _ZN11__sanitizer18BufferedStackTrace6UnwindEjmmPvmmb 1356
__interceptor_pthread_getschedparam,pthread_getschedparam _ZN6__asan22IsStackTraceSuppressedEPKN11__sanitizer10StackTraceE 1364
__interceptor_pthread_getschedparam,pthread_getschedparam _ZN6__asan20asan_init_is_runningE 1384
__interceptor_pthread_getschedparam,pthread_getschedparam _ZN6__asan11asan_initedE 1392
__interceptor_pthread_getschedparam,pthread_getschedparam _ZN11__sanitizer21common_flags_dont_useE 1400
__interceptor_pthread_getschedparam,pthread_getschedparam .LC50 1404
__interceptor_pthread_getschedparam,pthread_getschedparam .LC50 1408
__interceptor_getaddrinfo,getaddrinfo _ZN6__asan15AsanInitFromRtlEv 104
__interceptor_getaddrinfo,getaddrinfo _ZN11__sanitizer10StackTrace12GetCurrentPcEv 180
__interceptor_getaddrinfo,getaddrinfo _ZN6__asan16GetCurrentThreadEv 220
__interceptor_getaddrinfo,getaddrinfo _ZN11__sanitizer18BufferedStackTrace6UnwindEjmmPvmmb 300
__interceptor_getaddrinfo,getaddrinfo _ZN11__sanitizer18BufferedStackTrace6UnwindEjmmPvmmb 376
__interceptor_getaddrinfo,getaddrinfo _ZN6__asan32ReportStringFunctionSizeOverflowEmmPN11__sanitizer18BufferedStackTraceE 396
__interceptor_getaddrinfo,getaddrinfo __asan_region_is_poisoned 428
__interceptor_getaddrinfo,getaddrinfo _ZN11__sanitizer10StackTrace12GetCurrentPcEv 524
__interceptor_getaddrinfo,getaddrinfo _ZN6__asan16GetCurrentThreadEv 564
__interceptor_getaddrinfo,getaddrinfo _ZN11__sanitizer18BufferedStackTrace6UnwindEjmmPvmmb 644
__interceptor_getaddrinfo,getaddrinfo _ZN6__asan23IsInterceptorSuppressedEPKc 664
__interceptor_getaddrinfo,getaddrinfo _ZN6__asan31HaveStackTraceBasedSuppressionsEv 676
__interceptor_getaddrinfo,getaddrinfo _ZN11__sanitizer10StackTrace12GetCurrentPcEv 688
__interceptor_getaddrinfo,getaddrinfo _ZN6__asan18ReportGenericErrorEmmmmbmjb 724
__interceptor_getaddrinfo,getaddrinfo _ZN11__sanitizer10StackTrace12GetCurrentPcEv 760
__interceptor_getaddrinfo,getaddrinfo _ZN6__asan16GetCurrentThreadEv 804
__interceptor_getaddrinfo,getaddrinfo _ZN11__sanitizer18BufferedStackTrace6UnwindEjmmPvmmb 884
__interceptor_getaddrinfo,getaddrinfo _ZN11__sanitizer18BufferedStackTrace6UnwindEjmmPvmmb 952
__interceptor_getaddrinfo,getaddrinfo _ZN6__asan22IsStackTraceSuppressedEPKN11__sanitizer10StackTraceE 964
__interceptor_getaddrinfo,getaddrinfo _ZN11__sanitizer18BufferedStackTrace6UnwindEjmmPvmmb 1036
__interceptor_getaddrinfo,getaddrinfo _ZN6__asan32ReportStringFunctionSizeOverflowEmmPN11__sanitizer18BufferedStackTraceE 1056
__interceptor_getaddrinfo,getaddrinfo __asan_region_is_poisoned 1088
__interceptor_getaddrinfo,getaddrinfo _ZN11__sanitizer10StackTrace12GetCurrentPcEv 1156
__interceptor_getaddrinfo,getaddrinfo _ZN6__asan16GetCurrentThreadEv 1192
__interceptor_getaddrinfo,getaddrinfo _ZN11__sanitizer18BufferedStackTrace6UnwindEjmmPvmmb 1268
__interceptor_getaddrinfo,getaddrinfo _ZN6__asan23IsInterceptorSuppressedEPKc 1288
__interceptor_getaddrinfo,getaddrinfo _ZN6__asan31HaveStackTraceBasedSuppressionsEv 1300
__interceptor_getaddrinfo,getaddrinfo _ZN11__sanitizer10StackTrace12GetCurrentPcEv 1312
__interceptor_getaddrinfo,getaddrinfo _ZN6__asan18ReportGenericErrorEmmmmbmjb 1348
__interceptor_getaddrinfo,getaddrinfo _ZN11__sanitizer10StackTrace12GetCurrentPcEv 1384
__interceptor_getaddrinfo,getaddrinfo _ZN6__asan16GetCurrentThreadEv 1428
__interceptor_getaddrinfo,getaddrinfo _ZN11__sanitizer18BufferedStackTrace6UnwindEjmmPvmmb 1508
__interceptor_getaddrinfo,getaddrinfo _ZN11__sanitizer18BufferedStackTrace6UnwindEjmmPvmmb 1576
__interceptor_getaddrinfo,getaddrinfo _ZN6__asan22IsStackTraceSuppressedEPKN11__sanitizer10StackTraceE 1588
__interceptor_getaddrinfo,getaddrinfo _ZN11__sanitizer18BufferedStackTrace6UnwindEjmmPvmmb 1660
__interceptor_getaddrinfo,getaddrinfo _ZN6__asan32ReportStringFunctionSizeOverflowEmmPN11__sanitizer18BufferedStackTraceE 1680
__interceptor_getaddrinfo,getaddrinfo __asan_region_is_poisoned 1712
__interceptor_getaddrinfo,getaddrinfo _ZN11__sanitizer10StackTrace12GetCurrentPcEv 1824
__interceptor_getaddrinfo,getaddrinfo _ZN6__asan16GetCurrentThreadEv 1860
__interceptor_getaddrinfo,getaddrinfo _ZN11__sanitizer18BufferedStackTrace6UnwindEjmmPvmmb 1936
__interceptor_getaddrinfo,getaddrinfo _ZN6__asan23IsInterceptorSuppressedEPKc 1956
__interceptor_getaddrinfo,getaddrinfo _ZN6__asan31HaveStackTraceBasedSuppressionsEv 1968
__interceptor_getaddrinfo,getaddrinfo _ZN11__sanitizer10StackTrace12GetCurrentPcEv 1980
__interceptor_getaddrinfo,getaddrinfo _ZN6__asan18ReportGenericErrorEmmmmbmjb 2024
__interceptor_getaddrinfo,getaddrinfo _ZN11__sanitizer10StackTrace12GetCurrentPcEv 2060
__interceptor_getaddrinfo,getaddrinfo _ZN6__asan16GetCurrentThreadEv 2104
__interceptor_getaddrinfo,getaddrinfo _ZN11__sanitizer18BufferedStackTrace6UnwindEjmmPvmmb 2184
__interceptor_getaddrinfo,getaddrinfo _ZN11__sanitizer18BufferedStackTrace6UnwindEjmmPvmmb 2252
__interceptor_getaddrinfo,getaddrinfo _ZN6__asan22IsStackTraceSuppressedEPKN11__sanitizer10StackTraceE 2264
__interceptor_getaddrinfo,getaddrinfo _ZN11__sanitizer18BufferedStackTrace6UnwindEjmmPvmmb 2340
__interceptor_getaddrinfo,getaddrinfo _ZN6__asan32ReportStringFunctionSizeOverflowEmmPN11__sanitizer18BufferedStackTraceE 2356
__interceptor_getaddrinfo,getaddrinfo __asan_region_is_poisoned 2388
__interceptor_getaddrinfo,getaddrinfo _ZN11__sanitizer10StackTrace12GetCurrentPcEv 2500
__interceptor_getaddrinfo,getaddrinfo _ZN6__asan16GetCurrentThreadEv 2536
__interceptor_getaddrinfo,getaddrinfo _ZN11__sanitizer18BufferedStackTrace6UnwindEjmmPvmmb 2612
__interceptor_getaddrinfo,getaddrinfo _ZN6__asan23IsInterceptorSuppressedEPKc 2632
__interceptor_getaddrinfo,getaddrinfo _ZN6__asan31HaveStackTraceBasedSuppressionsEv 2644
__interceptor_getaddrinfo,getaddrinfo _ZN11__sanitizer10StackTrace12GetCurrentPcEv 2664
__interceptor_getaddrinfo,getaddrinfo _ZN6__asan18ReportGenericErrorEmmmmbmjb 2704
__interceptor_getaddrinfo,getaddrinfo _ZN11__sanitizer10StackTrace12GetCurrentPcEv 2732
__interceptor_getaddrinfo,getaddrinfo _ZN6__asan16GetCurrentThreadEv 2772
__interceptor_getaddrinfo,getaddrinfo _ZN11__sanitizer18BufferedStackTrace6UnwindEjmmPvmmb 2848
__interceptor_getaddrinfo,getaddrinfo _ZN11__sanitizer18BufferedStackTrace6UnwindEjmmPvmmb 2916
__interceptor_getaddrinfo,getaddrinfo _ZN6__asan22IsStackTraceSuppressedEPKN11__sanitizer10StackTraceE 2924
__interceptor_getaddrinfo,getaddrinfo _ZN11__sanitizer18BufferedStackTrace6UnwindEjmmPvmmb 3000
__interceptor_getaddrinfo,getaddrinfo _ZN6__asan32ReportStringFunctionSizeOverflowEmmPN11__sanitizer18BufferedStackTraceE 3016
__interceptor_getaddrinfo,getaddrinfo __asan_region_is_poisoned 3048
__interceptor_getaddrinfo,getaddrinfo _ZN11__sanitizer10StackTrace12GetCurrentPcEv 3120
__interceptor_getaddrinfo,getaddrinfo _ZN6__asan16GetCurrentThreadEv 3160
__interceptor_getaddrinfo,getaddrinfo _ZN11__sanitizer18BufferedStackTrace6UnwindEjmmPvmmb 3240
__interceptor_getaddrinfo,getaddrinfo _ZN6__asan23IsInterceptorSuppressedEPKc 3260
__interceptor_getaddrinfo,getaddrinfo _ZN6__asan31HaveStackTraceBasedSuppressionsEv 3272
__interceptor_getaddrinfo,getaddrinfo _ZN11__sanitizer10StackTrace12GetCurrentPcEv 3292
__interceptor_getaddrinfo,getaddrinfo _ZN6__asan18ReportGenericErrorEmmmmbmjb 3332
__interceptor_getaddrinfo,getaddrinfo _ZN11__sanitizer10StackTrace12GetCurrentPcEv 3360
__interceptor_getaddrinfo,getaddrinfo _ZN6__asan16GetCurrentThreadEv 3400
__interceptor_getaddrinfo,getaddrinfo _ZN11__sanitizer18BufferedStackTrace6UnwindEjmmPvmmb 3476
__interceptor_getaddrinfo,getaddrinfo _ZN11__sanitizer18BufferedStackTrace6UnwindEjmmPvmmb 3544
__interceptor_getaddrinfo,getaddrinfo _ZN6__asan22IsStackTraceSuppressedEPKN11__sanitizer10StackTraceE 3552
__interceptor_getaddrinfo,getaddrinfo _ZN11__sanitizer18BufferedStackTrace6UnwindEjmmPvmmb 3624
__interceptor_getaddrinfo,getaddrinfo _ZN6__asan32ReportStringFunctionSizeOverflowEmmPN11__sanitizer18BufferedStackTraceE 3640
__interceptor_getaddrinfo,getaddrinfo __asan_region_is_poisoned 3672
__interceptor_getaddrinfo,getaddrinfo _ZN11__sanitizer10StackTrace12GetCurrentPcEv 3760
__interceptor_getaddrinfo,getaddrinfo _ZN6__asan16GetCurrentThreadEv 3800
__interceptor_getaddrinfo,getaddrinfo _ZN11__sanitizer18BufferedStackTrace6UnwindEjmmPvmmb 3880
__interceptor_getaddrinfo,getaddrinfo _ZN6__asan23IsInterceptorSuppressedEPKc 3896
__interceptor_getaddrinfo,getaddrinfo _ZN6__asan31HaveStackTraceBasedSuppressionsEv 3908
__interceptor_getaddrinfo,getaddrinfo _ZN11__sanitizer10StackTrace12GetCurrentPcEv 3928
__interceptor_getaddrinfo,getaddrinfo _ZN6__asan18ReportGenericErrorEmmmmbmjb 3968
__interceptor_getaddrinfo,getaddrinfo _ZN6__asan20asan_init_is_runningE 3980
__interceptor_getaddrinfo,getaddrinfo _ZN6__asan11asan_initedE 3988
__interceptor_getaddrinfo,getaddrinfo .LC51 4000
__interceptor_getaddrinfo,getaddrinfo .LC51 4004
__interceptor_getaddrinfo,getaddrinfo .LC51 4012
__interceptor_getaddrinfo,getaddrinfo .LC51 4016
__interceptor_getaddrinfo,getaddrinfo .LC51 4024
__interceptor_getaddrinfo,getaddrinfo .LC51 4028
__interceptor_getaddrinfo,getaddrinfo .LC51 4032
__interceptor_getaddrinfo,getaddrinfo _ZN11__sanitizer21common_flags_dont_useE 4036
__interceptor_getaddrinfo,getaddrinfo _ZN11__sanitizer10StackTrace12GetCurrentPcEv 4060
__interceptor_getaddrinfo,getaddrinfo _ZN6__asan16GetCurrentThreadEv 4104
__interceptor_getaddrinfo,getaddrinfo _ZN11__sanitizer18BufferedStackTrace6UnwindEjmmPvmmb 4184
__interceptor_getaddrinfo,getaddrinfo _ZN11__sanitizer18BufferedStackTrace6UnwindEjmmPvmmb 4252
__interceptor_getaddrinfo,getaddrinfo _ZN6__asan22IsStackTraceSuppressedEPKN11__sanitizer10StackTraceE 4260
__interceptor_getaddrinfo,getaddrinfo _ZN11__sanitizer18BufferedStackTrace6UnwindEjmmPvmmb 4332
__interceptor_getaddrinfo,getaddrinfo _ZN6__asan32ReportStringFunctionSizeOverflowEmmPN11__sanitizer18BufferedStackTraceE 4348
__interceptor_getaddrinfo,getaddrinfo __asan_region_is_poisoned 4380
__interceptor_getaddrinfo,getaddrinfo _ZN6__asan23IsInterceptorSuppressedEPKc 4412
__interceptor_getaddrinfo,getaddrinfo _ZN6__asan31HaveStackTraceBasedSuppressionsEv 4424
__interceptor_getaddrinfo,getaddrinfo _ZN11__sanitizer10StackTrace12GetCurrentPcEv 4444
__interceptor_getaddrinfo,getaddrinfo _ZN6__asan18ReportGenericErrorEmmmmbmjb 4484
__interceptor_getaddrinfo,getaddrinfo _ZN11__sanitizer10StackTrace12GetCurrentPcEv 4512
__interceptor_getaddrinfo,getaddrinfo _ZN6__asan16GetCurrentThreadEv 4556
__interceptor_getaddrinfo,getaddrinfo _ZN11__sanitizer18BufferedStackTrace6UnwindEjmmPvmmb 4636
__interceptor_getaddrinfo,getaddrinfo _ZN11__sanitizer18BufferedStackTrace6UnwindEjmmPvmmb 4704
__interceptor_getaddrinfo,getaddrinfo _ZN6__asan22IsStackTraceSuppressedEPKN11__sanitizer10StackTraceE 4712
__interceptor_getnameinfo,getnameinfo _ZN6__asan15AsanInitFromRtlEv 140
__interceptor_getnameinfo,getnameinfo _ZN11__sanitizer10StackTrace12GetCurrentPcEv 268
__interceptor_getnameinfo,getnameinfo _ZN6__asan16GetCurrentThreadEv 308
__interceptor_getnameinfo,getnameinfo _ZN11__sanitizer18BufferedStackTrace6UnwindEjmmPvmmb 384
__interceptor_getnameinfo,getnameinfo _ZN11__sanitizer18BufferedStackTrace6UnwindEjmmPvmmb 452
__interceptor_getnameinfo,getnameinfo _ZN6__asan32ReportStringFunctionSizeOverflowEmmPN11__sanitizer18BufferedStackTraceE 472
__interceptor_getnameinfo,getnameinfo __asan_region_is_poisoned 504
__interceptor_getnameinfo,getnameinfo _ZN11__sanitizer10StackTrace12GetCurrentPcEv 604
__interceptor_getnameinfo,getnameinfo _ZN6__asan16GetCurrentThreadEv 644
__interceptor_getnameinfo,getnameinfo _ZN11__sanitizer18BufferedStackTrace6UnwindEjmmPvmmb 720
__interceptor_getnameinfo,getnameinfo _ZN6__asan23IsInterceptorSuppressedEPKc 740
__interceptor_getnameinfo,getnameinfo _ZN6__asan31HaveStackTraceBasedSuppressionsEv 752
__interceptor_getnameinfo,getnameinfo _ZN11__sanitizer10StackTrace12GetCurrentPcEv 764
__interceptor_getnameinfo,getnameinfo _ZN6__asan18ReportGenericErrorEmmmmbmjb 808
__interceptor_getnameinfo,getnameinfo _ZN11__sanitizer10StackTrace12GetCurrentPcEv 844
__interceptor_getnameinfo,getnameinfo _ZN6__asan16GetCurrentThreadEv 892
__interceptor_getnameinfo,getnameinfo _ZN11__sanitizer18BufferedStackTrace6UnwindEjmmPvmmb 972
__interceptor_getnameinfo,getnameinfo _ZN11__sanitizer18BufferedStackTrace6UnwindEjmmPvmmb 1040
__interceptor_getnameinfo,getnameinfo _ZN6__asan22IsStackTraceSuppressedEPKN11__sanitizer10StackTraceE 1052
__interceptor_getnameinfo,getnameinfo _ZN11__sanitizer18BufferedStackTrace6UnwindEjmmPvmmb 1124
__interceptor_getnameinfo,getnameinfo _ZN6__asan32ReportStringFunctionSizeOverflowEmmPN11__sanitizer18BufferedStackTraceE 1140
__interceptor_getnameinfo,getnameinfo __asan_region_is_poisoned 1172
__interceptor_getnameinfo,getnameinfo _ZN6__asan23IsInterceptorSuppressedEPKc 1192
__interceptor_getnameinfo,getnameinfo _ZN6__asan31HaveStackTraceBasedSuppressionsEv 1204
__interceptor_getnameinfo,getnameinfo _ZN11__sanitizer10StackTrace12GetCurrentPcEv 1224
__interceptor_getnameinfo,getnameinfo _ZN6__asan18ReportGenericErrorEmmmmbmjb 1264
__interceptor_getnameinfo,getnameinfo _ZN11__sanitizer10StackTrace12GetCurrentPcEv 1292
__interceptor_getnameinfo,getnameinfo _ZN6__asan16GetCurrentThreadEv 1336
__interceptor_getnameinfo,getnameinfo _ZN11__sanitizer18BufferedStackTrace6UnwindEjmmPvmmb 1412
__interceptor_getnameinfo,getnameinfo _ZN11__sanitizer18BufferedStackTrace6UnwindEjmmPvmmb 1480
__interceptor_getnameinfo,getnameinfo _ZN6__asan22IsStackTraceSuppressedEPKN11__sanitizer10StackTraceE 1488
__interceptor_getnameinfo,getnameinfo _ZN6__asan20asan_init_is_runningE 1508
__interceptor_getnameinfo,getnameinfo _ZN6__asan11asan_initedE 1516
__interceptor_getnameinfo,getnameinfo _ZN11__sanitizer21common_flags_dont_useE 1524
__interceptor_getnameinfo,getnameinfo .LC52 1532
__interceptor_getnameinfo,getnameinfo .LC52 1536
_ZL13write_hostentPvPN11__sanitizer19__sanitizer_hostentE _ZN11__sanitizer10StackTrace12GetCurrentPcEv 72
_ZL13write_hostentPvPN11__sanitizer19__sanitizer_hostentE _ZN6__asan16GetCurrentThreadEv 116
_ZL13write_hostentPvPN11__sanitizer19__sanitizer_hostentE _ZN11__sanitizer18BufferedStackTrace6UnwindEjmmPvmmb 192
_ZL13write_hostentPvPN11__sanitizer19__sanitizer_hostentE _ZN11__sanitizer10StackTrace12GetCurrentPcEv 260
_ZL13write_hostentPvPN11__sanitizer19__sanitizer_hostentE _ZN6__asan16GetCurrentThreadEv 308
_ZL13write_hostentPvPN11__sanitizer19__sanitizer_hostentE _ZN11__sanitizer18BufferedStackTrace6UnwindEjmmPvmmb 388
_ZL13write_hostentPvPN11__sanitizer19__sanitizer_hostentE _ZN11__sanitizer10StackTrace12GetCurrentPcEv 456
_ZL13write_hostentPvPN11__sanitizer19__sanitizer_hostentE _ZN6__asan16GetCurrentThreadEv 504
_ZL13write_hostentPvPN11__sanitizer19__sanitizer_hostentE _ZN11__sanitizer18BufferedStackTrace6UnwindEjmmPvmmb 584
_ZL13write_hostentPvPN11__sanitizer19__sanitizer_hostentE _ZN11__sanitizer18BufferedStackTrace6UnwindEjmmPvmmb 656
_ZL13write_hostentPvPN11__sanitizer19__sanitizer_hostentE _ZN6__asan32ReportStringFunctionSizeOverflowEmmPN11__sanitizer18BufferedStackTraceE 672
_ZL13write_hostentPvPN11__sanitizer19__sanitizer_hostentE __asan_region_is_poisoned 704
_ZL13write_hostentPvPN11__sanitizer19__sanitizer_hostentE _ZN11__sanitizer10StackTrace12GetCurrentPcEv 796
_ZL13write_hostentPvPN11__sanitizer19__sanitizer_hostentE _ZN6__asan16GetCurrentThreadEv 844
_ZL13write_hostentPvPN11__sanitizer19__sanitizer_hostentE _ZN11__sanitizer18BufferedStackTrace6UnwindEjmmPvmmb 924
_ZL13write_hostentPvPN11__sanitizer19__sanitizer_hostentE _ZN6__asan23IsInterceptorSuppressedEPKc 948
_ZL13write_hostentPvPN11__sanitizer19__sanitizer_hostentE _ZN6__asan31HaveStackTraceBasedSuppressionsEv 960
_ZL13write_hostentPvPN11__sanitizer19__sanitizer_hostentE _ZN11__sanitizer10StackTrace12GetCurrentPcEv 972
_ZL13write_hostentPvPN11__sanitizer19__sanitizer_hostentE _ZN6__asan18ReportGenericErrorEmmmmbmjb 1016
_ZL13write_hostentPvPN11__sanitizer19__sanitizer_hostentE _ZN11__sanitizer10StackTrace12GetCurrentPcEv 1052
_ZL13write_hostentPvPN11__sanitizer19__sanitizer_hostentE _ZN6__asan16GetCurrentThreadEv 1100
_ZL13write_hostentPvPN11__sanitizer19__sanitizer_hostentE _ZN11__sanitizer18BufferedStackTrace6UnwindEjmmPvmmb 1176
_ZL13write_hostentPvPN11__sanitizer19__sanitizer_hostentE _ZN11__sanitizer18BufferedStackTrace6UnwindEjmmPvmmb 1244
_ZL13write_hostentPvPN11__sanitizer19__sanitizer_hostentE _ZN6__asan22IsStackTraceSuppressedEPKN11__sanitizer10StackTraceE 1252
_ZL13write_hostentPvPN11__sanitizer19__sanitizer_hostentE _ZN11__sanitizer18BufferedStackTrace6UnwindEjmmPvmmb 1324
_ZL13write_hostentPvPN11__sanitizer19__sanitizer_hostentE _ZN6__asan32ReportStringFunctionSizeOverflowEmmPN11__sanitizer18BufferedStackTraceE 1340
_ZL13write_hostentPvPN11__sanitizer19__sanitizer_hostentE __asan_region_is_poisoned 1372
_ZL13write_hostentPvPN11__sanitizer19__sanitizer_hostentE _ZN11__sanitizer10StackTrace12GetCurrentPcEv 1492
_ZL13write_hostentPvPN11__sanitizer19__sanitizer_hostentE _ZN6__asan16GetCurrentThreadEv 1540
_ZL13write_hostentPvPN11__sanitizer19__sanitizer_hostentE _ZN11__sanitizer18BufferedStackTrace6UnwindEjmmPvmmb 1620
_ZL13write_hostentPvPN11__sanitizer19__sanitizer_hostentE _ZN6__asan23IsInterceptorSuppressedEPKc 1644
_ZL13write_hostentPvPN11__sanitizer19__sanitizer_hostentE _ZN6__asan31HaveStackTraceBasedSuppressionsEv 1656
_ZL13write_hostentPvPN11__sanitizer19__sanitizer_hostentE _ZN11__sanitizer10StackTrace12GetCurrentPcEv 1668
_ZL13write_hostentPvPN11__sanitizer19__sanitizer_hostentE _ZN6__asan18ReportGenericErrorEmmmmbmjb 1712
_ZL13write_hostentPvPN11__sanitizer19__sanitizer_hostentE _ZN11__sanitizer10StackTrace12GetCurrentPcEv 1748
_ZL13write_hostentPvPN11__sanitizer19__sanitizer_hostentE _ZN6__asan16GetCurrentThreadEv 1800
_ZL13write_hostentPvPN11__sanitizer19__sanitizer_hostentE _ZN11__sanitizer18BufferedStackTrace6UnwindEjmmPvmmb 1880
_ZL13write_hostentPvPN11__sanitizer19__sanitizer_hostentE _ZN11__sanitizer18BufferedStackTrace6UnwindEjmmPvmmb 1948
_ZL13write_hostentPvPN11__sanitizer19__sanitizer_hostentE _ZN6__asan22IsStackTraceSuppressedEPKN11__sanitizer10StackTraceE 1956
_ZL13write_hostentPvPN11__sanitizer19__sanitizer_hostentE _ZN11__sanitizer18BufferedStackTrace6UnwindEjmmPvmmb 2028
_ZL13write_hostentPvPN11__sanitizer19__sanitizer_hostentE _ZN6__asan32ReportStringFunctionSizeOverflowEmmPN11__sanitizer18BufferedStackTraceE 2044
_ZL13write_hostentPvPN11__sanitizer19__sanitizer_hostentE __asan_region_is_poisoned 2076
_ZL13write_hostentPvPN11__sanitizer19__sanitizer_hostentE _ZN6__asan23IsInterceptorSuppressedEPKc 2108
_ZL13write_hostentPvPN11__sanitizer19__sanitizer_hostentE _ZN6__asan31HaveStackTraceBasedSuppressionsEv 2120
_ZL13write_hostentPvPN11__sanitizer19__sanitizer_hostentE _ZN11__sanitizer10StackTrace12GetCurrentPcEv 2132
_ZL13write_hostentPvPN11__sanitizer19__sanitizer_hostentE _ZN6__asan18ReportGenericErrorEmmmmbmjb 2172
_ZL13write_hostentPvPN11__sanitizer19__sanitizer_hostentE _ZN11__sanitizer10StackTrace12GetCurrentPcEv 2200
_ZL13write_hostentPvPN11__sanitizer19__sanitizer_hostentE _ZN6__asan16GetCurrentThreadEv 2252
_ZL13write_hostentPvPN11__sanitizer19__sanitizer_hostentE _ZN11__sanitizer18BufferedStackTrace6UnwindEjmmPvmmb 2332
_ZL13write_hostentPvPN11__sanitizer19__sanitizer_hostentE _ZN11__sanitizer18BufferedStackTrace6UnwindEjmmPvmmb 2400
_ZL13write_hostentPvPN11__sanitizer19__sanitizer_hostentE _ZN6__asan22IsStackTraceSuppressedEPKN11__sanitizer10StackTraceE 2408
_ZL13write_hostentPvPN11__sanitizer19__sanitizer_hostentE _ZN11__sanitizer18BufferedStackTrace6UnwindEjmmPvmmb 2480
_ZL13write_hostentPvPN11__sanitizer19__sanitizer_hostentE _ZN6__asan32ReportStringFunctionSizeOverflowEmmPN11__sanitizer18BufferedStackTraceE 2496
_ZL13write_hostentPvPN11__sanitizer19__sanitizer_hostentE __asan_region_is_poisoned 2528
_ZL13write_hostentPvPN11__sanitizer19__sanitizer_hostentE _ZN11__sanitizer10StackTrace12GetCurrentPcEv 2628
_ZL13write_hostentPvPN11__sanitizer19__sanitizer_hostentE _ZN6__asan16GetCurrentThreadEv 2676
_ZL13write_hostentPvPN11__sanitizer19__sanitizer_hostentE _ZN11__sanitizer18BufferedStackTrace6UnwindEjmmPvmmb 2756
_ZL13write_hostentPvPN11__sanitizer19__sanitizer_hostentE _ZN6__asan23IsInterceptorSuppressedEPKc 2780
_ZL13write_hostentPvPN11__sanitizer19__sanitizer_hostentE _ZN6__asan31HaveStackTraceBasedSuppressionsEv 2792
_ZL13write_hostentPvPN11__sanitizer19__sanitizer_hostentE _ZN11__sanitizer10StackTrace12GetCurrentPcEv 2804
_ZL13write_hostentPvPN11__sanitizer19__sanitizer_hostentE _ZN6__asan18ReportGenericErrorEmmmmbmjb 2848
_ZL13write_hostentPvPN11__sanitizer19__sanitizer_hostentE _ZN11__sanitizer10StackTrace12GetCurrentPcEv 2884
_ZL13write_hostentPvPN11__sanitizer19__sanitizer_hostentE _ZN6__asan16GetCurrentThreadEv 2936
_ZL13write_hostentPvPN11__sanitizer19__sanitizer_hostentE _ZN11__sanitizer18BufferedStackTrace6UnwindEjmmPvmmb 3016
_ZL13write_hostentPvPN11__sanitizer19__sanitizer_hostentE _ZN11__sanitizer18BufferedStackTrace6UnwindEjmmPvmmb 3084
_ZL13write_hostentPvPN11__sanitizer19__sanitizer_hostentE _ZN6__asan22IsStackTraceSuppressedEPKN11__sanitizer10StackTraceE 3092
_ZL13write_hostentPvPN11__sanitizer19__sanitizer_hostentE _ZN11__sanitizer18BufferedStackTrace6UnwindEjmmPvmmb 3160
_ZL13write_hostentPvPN11__sanitizer19__sanitizer_hostentE _ZN6__asan32ReportStringFunctionSizeOverflowEmmPN11__sanitizer18BufferedStackTraceE 3176
_ZL13write_hostentPvPN11__sanitizer19__sanitizer_hostentE __asan_region_is_poisoned 3208
_ZL13write_hostentPvPN11__sanitizer19__sanitizer_hostentE _ZN6__asan23IsInterceptorSuppressedEPKc 3240
_ZL13write_hostentPvPN11__sanitizer19__sanitizer_hostentE _ZN6__asan31HaveStackTraceBasedSuppressionsEv 3252
_ZL13write_hostentPvPN11__sanitizer19__sanitizer_hostentE _ZN11__sanitizer10StackTrace12GetCurrentPcEv 3264
_ZL13write_hostentPvPN11__sanitizer19__sanitizer_hostentE _ZN6__asan18ReportGenericErrorEmmmmbmjb 3304
_ZL13write_hostentPvPN11__sanitizer19__sanitizer_hostentE _ZN11__sanitizer10StackTrace12GetCurrentPcEv 3332
_ZL13write_hostentPvPN11__sanitizer19__sanitizer_hostentE _ZN6__asan16GetCurrentThreadEv 3384
_ZL13write_hostentPvPN11__sanitizer19__sanitizer_hostentE _ZN11__sanitizer18BufferedStackTrace6UnwindEjmmPvmmb 3464
_ZL13write_hostentPvPN11__sanitizer19__sanitizer_hostentE _ZN11__sanitizer18BufferedStackTrace6UnwindEjmmPvmmb 3528
_ZL13write_hostentPvPN11__sanitizer19__sanitizer_hostentE _ZN6__asan22IsStackTraceSuppressedEPKN11__sanitizer10StackTraceE 3536
_ZL13write_hostentPvPN11__sanitizer19__sanitizer_hostentE _ZN11__sanitizer18BufferedStackTrace6UnwindEjmmPvmmb 3608
_ZL13write_hostentPvPN11__sanitizer19__sanitizer_hostentE _ZN6__asan32ReportStringFunctionSizeOverflowEmmPN11__sanitizer18BufferedStackTraceE 3624
_ZL13write_hostentPvPN11__sanitizer19__sanitizer_hostentE __asan_region_is_poisoned 3656
_ZL13write_hostentPvPN11__sanitizer19__sanitizer_hostentE _ZN6__asan23IsInterceptorSuppressedEPKc 3688
_ZL13write_hostentPvPN11__sanitizer19__sanitizer_hostentE _ZN6__asan31HaveStackTraceBasedSuppressionsEv 3700
_ZL13write_hostentPvPN11__sanitizer19__sanitizer_hostentE _ZN11__sanitizer10StackTrace12GetCurrentPcEv 3712
_ZL13write_hostentPvPN11__sanitizer19__sanitizer_hostentE _ZN6__asan18ReportGenericErrorEmmmmbmjb 3756
_ZL13write_hostentPvPN11__sanitizer19__sanitizer_hostentE _ZN11__sanitizer10StackTrace12GetCurrentPcEv 3792
_ZL13write_hostentPvPN11__sanitizer19__sanitizer_hostentE _ZN6__asan16GetCurrentThreadEv 3836
_ZL13write_hostentPvPN11__sanitizer19__sanitizer_hostentE _ZN11__sanitizer18BufferedStackTrace6UnwindEjmmPvmmb 3912
_ZL13write_hostentPvPN11__sanitizer19__sanitizer_hostentE _ZN11__sanitizer18BufferedStackTrace6UnwindEjmmPvmmb 3984
_ZL13write_hostentPvPN11__sanitizer19__sanitizer_hostentE _ZN6__asan22IsStackTraceSuppressedEPKN11__sanitizer10StackTraceE 3992
_ZL13write_hostentPvPN11__sanitizer19__sanitizer_hostentE _ZN11__sanitizer21common_flags_dont_useE 4012
_ZL13write_hostentPvPN11__sanitizer19__sanitizer_hostentE _ZN6__asan11asan_initedE 4016
__interceptor_gethostbyaddr,gethostbyaddr _ZN6__asan15AsanInitFromRtlEv 120
__interceptor_gethostbyaddr,gethostbyaddr _ZN11__sanitizer10StackTrace12GetCurrentPcEv 164
__interceptor_gethostbyaddr,gethostbyaddr _ZN6__asan16GetCurrentThreadEv 204
__interceptor_gethostbyaddr,gethostbyaddr _ZN11__sanitizer18BufferedStackTrace6UnwindEjmmPvmmb 284
__interceptor_gethostbyaddr,gethostbyaddr _ZN11__sanitizer18BufferedStackTrace6UnwindEjmmPvmmb 352
__interceptor_gethostbyaddr,gethostbyaddr _ZN6__asan32ReportStringFunctionSizeOverflowEmmPN11__sanitizer18BufferedStackTraceE 368
__interceptor_gethostbyaddr,gethostbyaddr __asan_region_is_poisoned 400
__interceptor_gethostbyaddr,gethostbyaddr _ZN6__asan23IsInterceptorSuppressedEPKc 476
__interceptor_gethostbyaddr,gethostbyaddr _ZN6__asan31HaveStackTraceBasedSuppressionsEv 488
__interceptor_gethostbyaddr,gethostbyaddr _ZN11__sanitizer10StackTrace12GetCurrentPcEv 508
__interceptor_gethostbyaddr,gethostbyaddr _ZN6__asan18ReportGenericErrorEmmmmbmjb 540
__interceptor_gethostbyaddr,gethostbyaddr _ZN11__sanitizer10StackTrace12GetCurrentPcEv 568
__interceptor_gethostbyaddr,gethostbyaddr _ZN6__asan16GetCurrentThreadEv 608
__interceptor_gethostbyaddr,gethostbyaddr _ZN11__sanitizer18BufferedStackTrace6UnwindEjmmPvmmb 684
__interceptor_gethostbyaddr,gethostbyaddr _ZN11__sanitizer18BufferedStackTrace6UnwindEjmmPvmmb 752
__interceptor_gethostbyaddr,gethostbyaddr _ZN6__asan22IsStackTraceSuppressedEPKN11__sanitizer10StackTraceE 760
__interceptor_gethostbyaddr,gethostbyaddr .LC53 776
__interceptor_gethostbyaddr,gethostbyaddr _ZN6__asan20asan_init_is_runningE 784
__interceptor_gethostbyaddr,gethostbyaddr _ZN6__asan11asan_initedE 792
__interceptor_gethostbyaddr,gethostbyaddr _ZN11__sanitizer21common_flags_dont_useE 796
__interceptor_gethostbyname_r,gethostbyname_r _ZN6__asan15AsanInitFromRtlEv 132
__interceptor_gethostbyname_r,gethostbyname_r _ZN11__sanitizer10StackTrace12GetCurrentPcEv 224
__interceptor_gethostbyname_r,gethostbyname_r _ZN6__asan16GetCurrentThreadEv 264
__interceptor_gethostbyname_r,gethostbyname_r _ZN11__sanitizer18BufferedStackTrace6UnwindEjmmPvmmb 344
__interceptor_gethostbyname_r,gethostbyname_r _ZN11__sanitizer18BufferedStackTrace6UnwindEjmmPvmmb 412
__interceptor_gethostbyname_r,gethostbyname_r _ZN6__asan32ReportStringFunctionSizeOverflowEmmPN11__sanitizer18BufferedStackTraceE 428
__interceptor_gethostbyname_r,gethostbyname_r __asan_region_is_poisoned 460
__interceptor_gethostbyname_r,gethostbyname_r _ZN11__sanitizer10StackTrace12GetCurrentPcEv 560
__interceptor_gethostbyname_r,gethostbyname_r _ZN6__asan16GetCurrentThreadEv 596
__interceptor_gethostbyname_r,gethostbyname_r _ZN11__sanitizer18BufferedStackTrace6UnwindEjmmPvmmb 672
__interceptor_gethostbyname_r,gethostbyname_r _ZN6__asan23IsInterceptorSuppressedEPKc 688
__interceptor_gethostbyname_r,gethostbyname_r _ZN6__asan31HaveStackTraceBasedSuppressionsEv 700
__interceptor_gethostbyname_r,gethostbyname_r _ZN11__sanitizer10StackTrace12GetCurrentPcEv 720
__interceptor_gethostbyname_r,gethostbyname_r _ZN6__asan18ReportGenericErrorEmmmmbmjb 760
__interceptor_gethostbyname_r,gethostbyname_r _ZN11__sanitizer10StackTrace12GetCurrentPcEv 788
__interceptor_gethostbyname_r,gethostbyname_r _ZN6__asan16GetCurrentThreadEv 832
__interceptor_gethostbyname_r,gethostbyname_r _ZN11__sanitizer18BufferedStackTrace6UnwindEjmmPvmmb 912
__interceptor_gethostbyname_r,gethostbyname_r _ZN11__sanitizer18BufferedStackTrace6UnwindEjmmPvmmb 980
__interceptor_gethostbyname_r,gethostbyname_r _ZN6__asan22IsStackTraceSuppressedEPKN11__sanitizer10StackTraceE 992
__interceptor_gethostbyname_r,gethostbyname_r _ZN11__sanitizer18BufferedStackTrace6UnwindEjmmPvmmb 1064
__interceptor_gethostbyname_r,gethostbyname_r _ZN6__asan32ReportStringFunctionSizeOverflowEmmPN11__sanitizer18BufferedStackTraceE 1080
__interceptor_gethostbyname_r,gethostbyname_r __asan_region_is_poisoned 1112
__interceptor_gethostbyname_r,gethostbyname_r _ZN6__asan23IsInterceptorSuppressedEPKc 1128
__interceptor_gethostbyname_r,gethostbyname_r _ZN6__asan31HaveStackTraceBasedSuppressionsEv 1140
__interceptor_gethostbyname_r,gethostbyname_r _ZN11__sanitizer10StackTrace12GetCurrentPcEv 1160
__interceptor_gethostbyname_r,gethostbyname_r _ZN6__asan18ReportGenericErrorEmmmmbmjb 1200
__interceptor_gethostbyname_r,gethostbyname_r _ZN11__sanitizer10StackTrace12GetCurrentPcEv 1228
__interceptor_gethostbyname_r,gethostbyname_r _ZN6__asan16GetCurrentThreadEv 1264
__interceptor_gethostbyname_r,gethostbyname_r _ZN11__sanitizer18BufferedStackTrace6UnwindEjmmPvmmb 1340
__interceptor_gethostbyname_r,gethostbyname_r _ZN11__sanitizer18BufferedStackTrace6UnwindEjmmPvmmb 1412
__interceptor_gethostbyname_r,gethostbyname_r _ZN6__asan22IsStackTraceSuppressedEPKN11__sanitizer10StackTraceE 1420
__interceptor_gethostbyname_r,gethostbyname_r .LC54 1436
__interceptor_gethostbyname_r,gethostbyname_r _ZN6__asan20asan_init_is_runningE 1444
__interceptor_gethostbyname_r,gethostbyname_r _ZN6__asan11asan_initedE 1452
__interceptor_gethostbyname_r,gethostbyname_r _ZN11__sanitizer21common_flags_dont_useE 1460
__interceptor_gethostent_r,gethostent_r _ZN6__asan15AsanInitFromRtlEv 132
__interceptor_gethostent_r,gethostent_r _ZN11__sanitizer10StackTrace12GetCurrentPcEv 224
__interceptor_gethostent_r,gethostent_r _ZN6__asan16GetCurrentThreadEv 264
__interceptor_gethostent_r,gethostent_r _ZN11__sanitizer18BufferedStackTrace6UnwindEjmmPvmmb 344
__interceptor_gethostent_r,gethostent_r _ZN11__sanitizer18BufferedStackTrace6UnwindEjmmPvmmb 412
__interceptor_gethostent_r,gethostent_r _ZN6__asan32ReportStringFunctionSizeOverflowEmmPN11__sanitizer18BufferedStackTraceE 428
__interceptor_gethostent_r,gethostent_r __asan_region_is_poisoned 460
__interceptor_gethostent_r,gethostent_r _ZN11__sanitizer10StackTrace12GetCurrentPcEv 560
__interceptor_gethostent_r,gethostent_r _ZN6__asan16GetCurrentThreadEv 596
__interceptor_gethostent_r,gethostent_r _ZN11__sanitizer18BufferedStackTrace6UnwindEjmmPvmmb 672
__interceptor_gethostent_r,gethostent_r _ZN6__asan23IsInterceptorSuppressedEPKc 688
__interceptor_gethostent_r,gethostent_r _ZN6__asan31HaveStackTraceBasedSuppressionsEv 700
__interceptor_gethostent_r,gethostent_r _ZN11__sanitizer10StackTrace12GetCurrentPcEv 720
__interceptor_gethostent_r,gethostent_r _ZN6__asan18ReportGenericErrorEmmmmbmjb 760
__interceptor_gethostent_r,gethostent_r _ZN11__sanitizer10StackTrace12GetCurrentPcEv 788
__interceptor_gethostent_r,gethostent_r _ZN6__asan16GetCurrentThreadEv 832
__interceptor_gethostent_r,gethostent_r _ZN11__sanitizer18BufferedStackTrace6UnwindEjmmPvmmb 912
__interceptor_gethostent_r,gethostent_r _ZN11__sanitizer18BufferedStackTrace6UnwindEjmmPvmmb 980
__interceptor_gethostent_r,gethostent_r _ZN6__asan22IsStackTraceSuppressedEPKN11__sanitizer10StackTraceE 992
__interceptor_gethostent_r,gethostent_r _ZN11__sanitizer18BufferedStackTrace6UnwindEjmmPvmmb 1064
__interceptor_gethostent_r,gethostent_r _ZN6__asan32ReportStringFunctionSizeOverflowEmmPN11__sanitizer18BufferedStackTraceE 1080
__interceptor_gethostent_r,gethostent_r __asan_region_is_poisoned 1112
__interceptor_gethostent_r,gethostent_r _ZN6__asan23IsInterceptorSuppressedEPKc 1128
__interceptor_gethostent_r,gethostent_r _ZN6__asan31HaveStackTraceBasedSuppressionsEv 1140
__interceptor_gethostent_r,gethostent_r _ZN11__sanitizer10StackTrace12GetCurrentPcEv 1160
__interceptor_gethostent_r,gethostent_r _ZN6__asan18ReportGenericErrorEmmmmbmjb 1200
__interceptor_gethostent_r,gethostent_r _ZN11__sanitizer10StackTrace12GetCurrentPcEv 1228
__interceptor_gethostent_r,gethostent_r _ZN6__asan16GetCurrentThreadEv 1264
__interceptor_gethostent_r,gethostent_r _ZN11__sanitizer18BufferedStackTrace6UnwindEjmmPvmmb 1340
__interceptor_gethostent_r,gethostent_r _ZN11__sanitizer18BufferedStackTrace6UnwindEjmmPvmmb 1412
__interceptor_gethostent_r,gethostent_r _ZN6__asan22IsStackTraceSuppressedEPKN11__sanitizer10StackTraceE 1420
__interceptor_gethostent_r,gethostent_r .LC55 1436
__interceptor_gethostent_r,gethostent_r _ZN6__asan20asan_init_is_runningE 1444
__interceptor_gethostent_r,gethostent_r _ZN6__asan11asan_initedE 1452
__interceptor_gethostent_r,gethostent_r _ZN11__sanitizer21common_flags_dont_useE 1460
__interceptor_gethostbyaddr_r,gethostbyaddr_r _ZN6__asan15AsanInitFromRtlEv 156
__interceptor_gethostbyaddr_r,gethostbyaddr_r _ZN11__sanitizer10StackTrace12GetCurrentPcEv 200
__interceptor_gethostbyaddr_r,gethostbyaddr_r _ZN6__asan16GetCurrentThreadEv 240
__interceptor_gethostbyaddr_r,gethostbyaddr_r _ZN11__sanitizer18BufferedStackTrace6UnwindEjmmPvmmb 320
__interceptor_gethostbyaddr_r,gethostbyaddr_r _ZN11__sanitizer18BufferedStackTrace6UnwindEjmmPvmmb 392
__interceptor_gethostbyaddr_r,gethostbyaddr_r _ZN6__asan32ReportStringFunctionSizeOverflowEmmPN11__sanitizer18BufferedStackTraceE 412
__interceptor_gethostbyaddr_r,gethostbyaddr_r __asan_region_is_poisoned 444
__interceptor_gethostbyaddr_r,gethostbyaddr_r _ZN11__sanitizer10StackTrace12GetCurrentPcEv 580
__interceptor_gethostbyaddr_r,gethostbyaddr_r _ZN6__asan16GetCurrentThreadEv 616
__interceptor_gethostbyaddr_r,gethostbyaddr_r _ZN11__sanitizer18BufferedStackTrace6UnwindEjmmPvmmb 692
__interceptor_gethostbyaddr_r,gethostbyaddr_r _ZN6__asan23IsInterceptorSuppressedEPKc 708
__interceptor_gethostbyaddr_r,gethostbyaddr_r _ZN6__asan31HaveStackTraceBasedSuppressionsEv 720
__interceptor_gethostbyaddr_r,gethostbyaddr_r _ZN11__sanitizer10StackTrace12GetCurrentPcEv 732
__interceptor_gethostbyaddr_r,gethostbyaddr_r _ZN6__asan18ReportGenericErrorEmmmmbmjb 768
__interceptor_gethostbyaddr_r,gethostbyaddr_r _ZN11__sanitizer10StackTrace12GetCurrentPcEv 804
__interceptor_gethostbyaddr_r,gethostbyaddr_r _ZN6__asan16GetCurrentThreadEv 848
__interceptor_gethostbyaddr_r,gethostbyaddr_r _ZN11__sanitizer18BufferedStackTrace6UnwindEjmmPvmmb 928
__interceptor_gethostbyaddr_r,gethostbyaddr_r _ZN11__sanitizer18BufferedStackTrace6UnwindEjmmPvmmb 1000
__interceptor_gethostbyaddr_r,gethostbyaddr_r _ZN6__asan22IsStackTraceSuppressedEPKN11__sanitizer10StackTraceE 1012
__interceptor_gethostbyaddr_r,gethostbyaddr_r _ZN11__sanitizer18BufferedStackTrace6UnwindEjmmPvmmb 1084
__interceptor_gethostbyaddr_r,gethostbyaddr_r _ZN6__asan32ReportStringFunctionSizeOverflowEmmPN11__sanitizer18BufferedStackTraceE 1100
__interceptor_gethostbyaddr_r,gethostbyaddr_r __asan_region_is_poisoned 1132
__interceptor_gethostbyaddr_r,gethostbyaddr_r _ZN11__sanitizer10StackTrace12GetCurrentPcEv 1232
__interceptor_gethostbyaddr_r,gethostbyaddr_r _ZN6__asan16GetCurrentThreadEv 1268
__interceptor_gethostbyaddr_r,gethostbyaddr_r _ZN11__sanitizer18BufferedStackTrace6UnwindEjmmPvmmb 1344
__interceptor_gethostbyaddr_r,gethostbyaddr_r _ZN6__asan23IsInterceptorSuppressedEPKc 1360
__interceptor_gethostbyaddr_r,gethostbyaddr_r _ZN6__asan31HaveStackTraceBasedSuppressionsEv 1372
__interceptor_gethostbyaddr_r,gethostbyaddr_r _ZN11__sanitizer10StackTrace12GetCurrentPcEv 1392
__interceptor_gethostbyaddr_r,gethostbyaddr_r _ZN6__asan18ReportGenericErrorEmmmmbmjb 1432
__interceptor_gethostbyaddr_r,gethostbyaddr_r _ZN11__sanitizer10StackTrace12GetCurrentPcEv 1460
__interceptor_gethostbyaddr_r,gethostbyaddr_r _ZN6__asan16GetCurrentThreadEv 1504
__interceptor_gethostbyaddr_r,gethostbyaddr_r _ZN11__sanitizer18BufferedStackTrace6UnwindEjmmPvmmb 1584
__interceptor_gethostbyaddr_r,gethostbyaddr_r _ZN11__sanitizer18BufferedStackTrace6UnwindEjmmPvmmb 1652
__interceptor_gethostbyaddr_r,gethostbyaddr_r _ZN6__asan22IsStackTraceSuppressedEPKN11__sanitizer10StackTraceE 1664
__interceptor_gethostbyaddr_r,gethostbyaddr_r _ZN11__sanitizer18BufferedStackTrace6UnwindEjmmPvmmb 1736
__interceptor_gethostbyaddr_r,gethostbyaddr_r _ZN6__asan32ReportStringFunctionSizeOverflowEmmPN11__sanitizer18BufferedStackTraceE 1752
__interceptor_gethostbyaddr_r,gethostbyaddr_r __asan_region_is_poisoned 1784
__interceptor_gethostbyaddr_r,gethostbyaddr_r _ZN6__asan23IsInterceptorSuppressedEPKc 1800
__interceptor_gethostbyaddr_r,gethostbyaddr_r _ZN6__asan31HaveStackTraceBasedSuppressionsEv 1812
__interceptor_gethostbyaddr_r,gethostbyaddr_r _ZN11__sanitizer10StackTrace12GetCurrentPcEv 1832
__interceptor_gethostbyaddr_r,gethostbyaddr_r _ZN6__asan18ReportGenericErrorEmmmmbmjb 1872
__interceptor_gethostbyaddr_r,gethostbyaddr_r _ZN11__sanitizer10StackTrace12GetCurrentPcEv 1900
__interceptor_gethostbyaddr_r,gethostbyaddr_r _ZN6__asan16GetCurrentThreadEv 1936
__interceptor_gethostbyaddr_r,gethostbyaddr_r _ZN11__sanitizer18BufferedStackTrace6UnwindEjmmPvmmb 2012
__interceptor_gethostbyaddr_r,gethostbyaddr_r _ZN11__sanitizer18BufferedStackTrace6UnwindEjmmPvmmb 2084
__interceptor_gethostbyaddr_r,gethostbyaddr_r _ZN6__asan22IsStackTraceSuppressedEPKN11__sanitizer10StackTraceE 2092
__interceptor_gethostbyaddr_r,gethostbyaddr_r .LC56 2108
__interceptor_gethostbyaddr_r,gethostbyaddr_r _ZN6__asan20asan_init_is_runningE 2116
__interceptor_gethostbyaddr_r,gethostbyaddr_r _ZN6__asan11asan_initedE 2124
__interceptor_gethostbyaddr_r,gethostbyaddr_r _ZN11__sanitizer21common_flags_dont_useE 2128
__interceptor_gethostbyname2_r,gethostbyname2_r _ZN6__asan15AsanInitFromRtlEv 144
__interceptor_gethostbyname2_r,gethostbyname2_r _ZN11__sanitizer10StackTrace12GetCurrentPcEv 240
__interceptor_gethostbyname2_r,gethostbyname2_r _ZN6__asan16GetCurrentThreadEv 280
__interceptor_gethostbyname2_r,gethostbyname2_r _ZN11__sanitizer18BufferedStackTrace6UnwindEjmmPvmmb 360
__interceptor_gethostbyname2_r,gethostbyname2_r _ZN11__sanitizer18BufferedStackTrace6UnwindEjmmPvmmb 428
__interceptor_gethostbyname2_r,gethostbyname2_r _ZN6__asan32ReportStringFunctionSizeOverflowEmmPN11__sanitizer18BufferedStackTraceE 444
__interceptor_gethostbyname2_r,gethostbyname2_r __asan_region_is_poisoned 476
__interceptor_gethostbyname2_r,gethostbyname2_r _ZN11__sanitizer10StackTrace12GetCurrentPcEv 576
__interceptor_gethostbyname2_r,gethostbyname2_r _ZN6__asan16GetCurrentThreadEv 612
__interceptor_gethostbyname2_r,gethostbyname2_r _ZN11__sanitizer18BufferedStackTrace6UnwindEjmmPvmmb 688
__interceptor_gethostbyname2_r,gethostbyname2_r _ZN6__asan23IsInterceptorSuppressedEPKc 704
__interceptor_gethostbyname2_r,gethostbyname2_r _ZN6__asan31HaveStackTraceBasedSuppressionsEv 716
__interceptor_gethostbyname2_r,gethostbyname2_r _ZN11__sanitizer10StackTrace12GetCurrentPcEv 736
__interceptor_gethostbyname2_r,gethostbyname2_r _ZN6__asan18ReportGenericErrorEmmmmbmjb 776
__interceptor_gethostbyname2_r,gethostbyname2_r _ZN11__sanitizer10StackTrace12GetCurrentPcEv 804
__interceptor_gethostbyname2_r,gethostbyname2_r _ZN6__asan16GetCurrentThreadEv 848
__interceptor_gethostbyname2_r,gethostbyname2_r _ZN11__sanitizer18BufferedStackTrace6UnwindEjmmPvmmb 928
__interceptor_gethostbyname2_r,gethostbyname2_r _ZN11__sanitizer18BufferedStackTrace6UnwindEjmmPvmmb 996
__interceptor_gethostbyname2_r,gethostbyname2_r _ZN6__asan22IsStackTraceSuppressedEPKN11__sanitizer10StackTraceE 1008
__interceptor_gethostbyname2_r,gethostbyname2_r _ZN11__sanitizer18BufferedStackTrace6UnwindEjmmPvmmb 1080
__interceptor_gethostbyname2_r,gethostbyname2_r _ZN6__asan32ReportStringFunctionSizeOverflowEmmPN11__sanitizer18BufferedStackTraceE 1096
__interceptor_gethostbyname2_r,gethostbyname2_r __asan_region_is_poisoned 1128
__interceptor_gethostbyname2_r,gethostbyname2_r _ZN6__asan23IsInterceptorSuppressedEPKc 1144
__interceptor_gethostbyname2_r,gethostbyname2_r _ZN6__asan31HaveStackTraceBasedSuppressionsEv 1156
__interceptor_gethostbyname2_r,gethostbyname2_r _ZN11__sanitizer10StackTrace12GetCurrentPcEv 1176
__interceptor_gethostbyname2_r,gethostbyname2_r _ZN6__asan18ReportGenericErrorEmmmmbmjb 1216
__interceptor_gethostbyname2_r,gethostbyname2_r _ZN11__sanitizer10StackTrace12GetCurrentPcEv 1244
__interceptor_gethostbyname2_r,gethostbyname2_r _ZN6__asan16GetCurrentThreadEv 1280
__interceptor_gethostbyname2_r,gethostbyname2_r _ZN11__sanitizer18BufferedStackTrace6UnwindEjmmPvmmb 1356
__interceptor_gethostbyname2_r,gethostbyname2_r _ZN11__sanitizer18BufferedStackTrace6UnwindEjmmPvmmb 1428
__interceptor_gethostbyname2_r,gethostbyname2_r _ZN6__asan22IsStackTraceSuppressedEPKN11__sanitizer10StackTraceE 1436
__interceptor_gethostbyname2_r,gethostbyname2_r .LC57 1452
__interceptor_gethostbyname2_r,gethostbyname2_r _ZN6__asan20asan_init_is_runningE 1460
__interceptor_gethostbyname2_r,gethostbyname2_r _ZN6__asan11asan_initedE 1468
__interceptor_gethostbyname2_r,gethostbyname2_r _ZN11__sanitizer21common_flags_dont_useE 1476
__interceptor_getsockopt,getsockopt _ZN6__asan15AsanInitFromRtlEv 120
__interceptor_getsockopt,getsockopt _ZN11__sanitizer10StackTrace12GetCurrentPcEv 172
__interceptor_getsockopt,getsockopt _ZN6__asan16GetCurrentThreadEv 212
__interceptor_getsockopt,getsockopt _ZN11__sanitizer18BufferedStackTrace6UnwindEjmmPvmmb 292
__interceptor_getsockopt,getsockopt _ZN11__sanitizer18BufferedStackTrace6UnwindEjmmPvmmb 360
__interceptor_getsockopt,getsockopt _ZN6__asan32ReportStringFunctionSizeOverflowEmmPN11__sanitizer18BufferedStackTraceE 380
__interceptor_getsockopt,getsockopt __asan_region_is_poisoned 412
__interceptor_getsockopt,getsockopt _ZN11__sanitizer10StackTrace12GetCurrentPcEv 524
__interceptor_getsockopt,getsockopt _ZN6__asan16GetCurrentThreadEv 564
__interceptor_getsockopt,getsockopt _ZN11__sanitizer18BufferedStackTrace6UnwindEjmmPvmmb 644
__interceptor_getsockopt,getsockopt _ZN6__asan23IsInterceptorSuppressedEPKc 664
__interceptor_getsockopt,getsockopt _ZN6__asan31HaveStackTraceBasedSuppressionsEv 676
__interceptor_getsockopt,getsockopt _ZN11__sanitizer10StackTrace12GetCurrentPcEv 688
__interceptor_getsockopt,getsockopt _ZN6__asan18ReportGenericErrorEmmmmbmjb 732
__interceptor_getsockopt,getsockopt _ZN11__sanitizer10StackTrace12GetCurrentPcEv 768
__interceptor_getsockopt,getsockopt _ZN6__asan16GetCurrentThreadEv 812
__interceptor_getsockopt,getsockopt _ZN11__sanitizer18BufferedStackTrace6UnwindEjmmPvmmb 892
__interceptor_getsockopt,getsockopt _ZN11__sanitizer18BufferedStackTrace6UnwindEjmmPvmmb 960
__interceptor_getsockopt,getsockopt _ZN6__asan22IsStackTraceSuppressedEPKN11__sanitizer10StackTraceE 972
__interceptor_getsockopt,getsockopt _ZN11__sanitizer18BufferedStackTrace6UnwindEjmmPvmmb 1044
__interceptor_getsockopt,getsockopt _ZN6__asan32ReportStringFunctionSizeOverflowEmmPN11__sanitizer18BufferedStackTraceE 1060
__interceptor_getsockopt,getsockopt __asan_region_is_poisoned 1092
__interceptor_getsockopt,getsockopt _ZN6__asan23IsInterceptorSuppressedEPKc 1116
__interceptor_getsockopt,getsockopt _ZN6__asan31HaveStackTraceBasedSuppressionsEv 1128
__interceptor_getsockopt,getsockopt _ZN11__sanitizer10StackTrace12GetCurrentPcEv 1148
__interceptor_getsockopt,getsockopt _ZN6__asan18ReportGenericErrorEmmmmbmjb 1188
__interceptor_getsockopt,getsockopt _ZN11__sanitizer10StackTrace12GetCurrentPcEv 1216
__interceptor_getsockopt,getsockopt _ZN6__asan16GetCurrentThreadEv 1256
__interceptor_getsockopt,getsockopt _ZN11__sanitizer18BufferedStackTrace6UnwindEjmmPvmmb 1332
__interceptor_getsockopt,getsockopt _ZN11__sanitizer18BufferedStackTrace6UnwindEjmmPvmmb 1400
__interceptor_getsockopt,getsockopt _ZN6__asan22IsStackTraceSuppressedEPKN11__sanitizer10StackTraceE 1408
__interceptor_getsockopt,getsockopt _ZN6__asan20asan_init_is_runningE 1428
__interceptor_getsockopt,getsockopt _ZN6__asan11asan_initedE 1436
__interceptor_getsockopt,getsockopt _ZN11__sanitizer21common_flags_dont_useE 1440
__interceptor_getsockopt,getsockopt .LC58 1448
__interceptor_getsockopt,getsockopt .LC58 1452
__interceptor_modf,modf _ZN6__asan15AsanInitFromRtlEv 120
__interceptor_modf,modf _ZN11__sanitizer10StackTrace12GetCurrentPcEv 208
__interceptor_modf,modf _ZN6__asan16GetCurrentThreadEv 252
__interceptor_modf,modf _ZN11__sanitizer18BufferedStackTrace6UnwindEjmmPvmmb 332
__interceptor_modf,modf _ZN11__sanitizer18BufferedStackTrace6UnwindEjmmPvmmb 400
__interceptor_modf,modf _ZN6__asan32ReportStringFunctionSizeOverflowEmmPN11__sanitizer18BufferedStackTraceE 416
__interceptor_modf,modf __asan_region_is_poisoned 448
__interceptor_modf,modf _ZN6__asan23IsInterceptorSuppressedEPKc 468
__interceptor_modf,modf _ZN6__asan31HaveStackTraceBasedSuppressionsEv 480
__interceptor_modf,modf _ZN11__sanitizer10StackTrace12GetCurrentPcEv 500
__interceptor_modf,modf _ZN6__asan18ReportGenericErrorEmmmmbmjb 540
__interceptor_modf,modf _ZN11__sanitizer10StackTrace12GetCurrentPcEv 568
__interceptor_modf,modf _ZN6__asan16GetCurrentThreadEv 612
__interceptor_modf,modf _ZN11__sanitizer18BufferedStackTrace6UnwindEjmmPvmmb 688
__interceptor_modf,modf _ZN11__sanitizer18BufferedStackTrace6UnwindEjmmPvmmb 756
__interceptor_modf,modf _ZN6__asan22IsStackTraceSuppressedEPKN11__sanitizer10StackTraceE 764
__interceptor_modf,modf _ZN6__asan20asan_init_is_runningE 784
__interceptor_modf,modf _ZN6__asan11asan_initedE 792
__interceptor_modf,modf _ZN11__sanitizer21common_flags_dont_useE 800
__interceptor_modf,modf .LC59 804
__interceptor_modff,modff _ZN6__asan15AsanInitFromRtlEv 104
__interceptor_modff,modff _ZN11__sanitizer10StackTrace12GetCurrentPcEv 184
__interceptor_modff,modff _ZN6__asan16GetCurrentThreadEv 224
__interceptor_modff,modff _ZN11__sanitizer18BufferedStackTrace6UnwindEjmmPvmmb 304
__interceptor_modff,modff _ZN11__sanitizer18BufferedStackTrace6UnwindEjmmPvmmb 372
__interceptor_modff,modff _ZN6__asan32ReportStringFunctionSizeOverflowEmmPN11__sanitizer18BufferedStackTraceE 388
__interceptor_modff,modff __asan_region_is_poisoned 420
__interceptor_modff,modff _ZN6__asan23IsInterceptorSuppressedEPKc 444
__interceptor_modff,modff _ZN6__asan31HaveStackTraceBasedSuppressionsEv 456
__interceptor_modff,modff _ZN11__sanitizer10StackTrace12GetCurrentPcEv 476
__interceptor_modff,modff _ZN6__asan18ReportGenericErrorEmmmmbmjb 516
__interceptor_modff,modff _ZN11__sanitizer10StackTrace12GetCurrentPcEv 544
__interceptor_modff,modff _ZN6__asan16GetCurrentThreadEv 580
__interceptor_modff,modff _ZN11__sanitizer18BufferedStackTrace6UnwindEjmmPvmmb 656
__interceptor_modff,modff _ZN11__sanitizer18BufferedStackTrace6UnwindEjmmPvmmb 728
__interceptor_modff,modff _ZN6__asan22IsStackTraceSuppressedEPKN11__sanitizer10StackTraceE 736
__interceptor_modff,modff _ZN6__asan20asan_init_is_runningE 756
__interceptor_modff,modff _ZN6__asan11asan_initedE 764
__interceptor_modff,modff _ZN11__sanitizer21common_flags_dont_useE 772
__interceptor_modff,modff .LC60 776
__interceptor_modfl,modfl _ZN6__asan15AsanInitFromRtlEv 120
__interceptor_modfl,modfl _ZN11__sanitizer10StackTrace12GetCurrentPcEv 208
__interceptor_modfl,modfl _ZN6__asan16GetCurrentThreadEv 252
__interceptor_modfl,modfl _ZN11__sanitizer18BufferedStackTrace6UnwindEjmmPvmmb 332
__interceptor_modfl,modfl _ZN11__sanitizer18BufferedStackTrace6UnwindEjmmPvmmb 400
__interceptor_modfl,modfl _ZN6__asan32ReportStringFunctionSizeOverflowEmmPN11__sanitizer18BufferedStackTraceE 416
__interceptor_modfl,modfl __asan_region_is_poisoned 448
__interceptor_modfl,modfl _ZN6__asan23IsInterceptorSuppressedEPKc 468
__interceptor_modfl,modfl _ZN6__asan31HaveStackTraceBasedSuppressionsEv 480
__interceptor_modfl,modfl _ZN11__sanitizer10StackTrace12GetCurrentPcEv 500
__interceptor_modfl,modfl _ZN6__asan18ReportGenericErrorEmmmmbmjb 540
__interceptor_modfl,modfl _ZN11__sanitizer10StackTrace12GetCurrentPcEv 568
__interceptor_modfl,modfl _ZN6__asan16GetCurrentThreadEv 612
__interceptor_modfl,modfl _ZN11__sanitizer18BufferedStackTrace6UnwindEjmmPvmmb 688
__interceptor_modfl,modfl _ZN11__sanitizer18BufferedStackTrace6UnwindEjmmPvmmb 756
__interceptor_modfl,modfl _ZN6__asan22IsStackTraceSuppressedEPKN11__sanitizer10StackTraceE 764
__interceptor_modfl,modfl _ZN6__asan20asan_init_is_runningE 784
__interceptor_modfl,modfl _ZN6__asan11asan_initedE 792
__interceptor_modfl,modfl _ZN11__sanitizer21common_flags_dont_useE 800
__interceptor_modfl,modfl .LC61 804
__interceptor_sysinfo,sysinfo _ZN6__asan15AsanInitFromRtlEv 92
__interceptor_sysinfo,sysinfo _ZN11__sanitizer10StackTrace12GetCurrentPcEv 192
__interceptor_sysinfo,sysinfo _ZN6__asan16GetCurrentThreadEv 232
__interceptor_sysinfo,sysinfo _ZN11__sanitizer18BufferedStackTrace6UnwindEjmmPvmmb 312
__interceptor_sysinfo,sysinfo __asan_region_is_poisoned 332
__interceptor_sysinfo,sysinfo _ZN6__asan23IsInterceptorSuppressedEPKc 356
__interceptor_sysinfo,sysinfo _ZN6__asan31HaveStackTraceBasedSuppressionsEv 368
__interceptor_sysinfo,sysinfo _ZN11__sanitizer10StackTrace12GetCurrentPcEv 388
__interceptor_sysinfo,sysinfo _ZN6__asan18ReportGenericErrorEmmmmbmjb 428
__interceptor_sysinfo,sysinfo _ZN11__sanitizer18BufferedStackTrace6UnwindEjmmPvmmb 492
__interceptor_sysinfo,sysinfo _ZN6__asan32ReportStringFunctionSizeOverflowEmmPN11__sanitizer18BufferedStackTraceE 508
__interceptor_sysinfo,sysinfo _ZN11__sanitizer10StackTrace12GetCurrentPcEv 560
__interceptor_sysinfo,sysinfo _ZN6__asan16GetCurrentThreadEv 596
__interceptor_sysinfo,sysinfo _ZN11__sanitizer18BufferedStackTrace6UnwindEjmmPvmmb 672
__interceptor_sysinfo,sysinfo _ZN11__sanitizer18BufferedStackTrace6UnwindEjmmPvmmb 744
__interceptor_sysinfo,sysinfo _ZN6__asan22IsStackTraceSuppressedEPKN11__sanitizer10StackTraceE 752
__interceptor_sysinfo,sysinfo _ZN6__asan20asan_init_is_runningE 772
__interceptor_sysinfo,sysinfo _ZN6__asan11asan_initedE 780
__interceptor_sysinfo,sysinfo _ZN11__sanitizer17struct_sysinfo_szE 788
__interceptor_sysinfo,sysinfo _ZN11__sanitizer21common_flags_dont_useE 792
__interceptor_sysinfo,sysinfo .LC62 796
__interceptor_opendir,opendir _ZN6__asan15AsanInitFromRtlEv 92
__interceptor_opendir,opendir _ZN11__sanitizer10StackTrace12GetCurrentPcEv 160
__interceptor_opendir,opendir _ZN6__asan16GetCurrentThreadEv 200
__interceptor_opendir,opendir _ZN11__sanitizer18BufferedStackTrace6UnwindEjmmPvmmb 280
__interceptor_opendir,opendir _ZN11__sanitizer18BufferedStackTrace6UnwindEjmmPvmmb 348
__interceptor_opendir,opendir _ZN6__asan32ReportStringFunctionSizeOverflowEmmPN11__sanitizer18BufferedStackTraceE 364
__interceptor_opendir,opendir __asan_region_is_poisoned 396
__interceptor_opendir,opendir _ZN6__asan23IsInterceptorSuppressedEPKc 436
__interceptor_opendir,opendir _ZN6__asan31HaveStackTraceBasedSuppressionsEv 448
__interceptor_opendir,opendir _ZN11__sanitizer10StackTrace12GetCurrentPcEv 468
__interceptor_opendir,opendir _ZN6__asan18ReportGenericErrorEmmmmbmjb 500
__interceptor_opendir,opendir _ZN11__sanitizer10StackTrace12GetCurrentPcEv 528
__interceptor_opendir,opendir _ZN6__asan16GetCurrentThreadEv 568
__interceptor_opendir,opendir _ZN11__sanitizer18BufferedStackTrace6UnwindEjmmPvmmb 644
__interceptor_opendir,opendir _ZN11__sanitizer18BufferedStackTrace6UnwindEjmmPvmmb 712
__interceptor_opendir,opendir _ZN6__asan22IsStackTraceSuppressedEPKN11__sanitizer10StackTraceE 720
__interceptor_opendir,opendir _ZN6__asan20asan_init_is_runningE 740
__interceptor_opendir,opendir _ZN6__asan11asan_initedE 748
__interceptor_opendir,opendir _ZN11__sanitizer21common_flags_dont_useE 756
__interceptor_opendir,opendir .LC63 764
__interceptor_readdir,readdir _ZN6__asan15AsanInitFromRtlEv 100
__interceptor_readdir,readdir _ZN11__sanitizer10StackTrace12GetCurrentPcEv 176
__interceptor_readdir,readdir _ZN6__asan16GetCurrentThreadEv 216
__interceptor_readdir,readdir _ZN11__sanitizer18BufferedStackTrace6UnwindEjmmPvmmb 296
__interceptor_readdir,readdir _ZN11__sanitizer18BufferedStackTrace6UnwindEjmmPvmmb 364
__interceptor_readdir,readdir _ZN6__asan32ReportStringFunctionSizeOverflowEmmPN11__sanitizer18BufferedStackTraceE 380
__interceptor_readdir,readdir __asan_region_is_poisoned 412
__interceptor_readdir,readdir _ZN6__asan23IsInterceptorSuppressedEPKc 432
__interceptor_readdir,readdir _ZN6__asan31HaveStackTraceBasedSuppressionsEv 444
__interceptor_readdir,readdir _ZN11__sanitizer10StackTrace12GetCurrentPcEv 464
__interceptor_readdir,readdir _ZN6__asan18ReportGenericErrorEmmmmbmjb 504
__interceptor_readdir,readdir _ZN11__sanitizer10StackTrace12GetCurrentPcEv 532
__interceptor_readdir,readdir _ZN6__asan16GetCurrentThreadEv 572
__interceptor_readdir,readdir _ZN11__sanitizer18BufferedStackTrace6UnwindEjmmPvmmb 648
__interceptor_readdir,readdir _ZN11__sanitizer18BufferedStackTrace6UnwindEjmmPvmmb 716
__interceptor_readdir,readdir _ZN6__asan22IsStackTraceSuppressedEPKN11__sanitizer10StackTraceE 724
__interceptor_readdir,readdir _ZN6__asan20asan_init_is_runningE 744
__interceptor_readdir,readdir _ZN6__asan11asan_initedE 752
__interceptor_readdir,readdir _ZN11__sanitizer21common_flags_dont_useE 760
__interceptor_readdir,readdir .LC64 764
__interceptor_readdir_r,readdir_r _ZN6__asan15AsanInitFromRtlEv 108
__interceptor_readdir_r,readdir_r _ZN11__sanitizer10StackTrace12GetCurrentPcEv 184
__interceptor_readdir_r,readdir_r _ZN6__asan16GetCurrentThreadEv 220
__interceptor_readdir_r,readdir_r _ZN11__sanitizer18BufferedStackTrace6UnwindEjmmPvmmb 296
__interceptor_readdir_r,readdir_r _ZN11__sanitizer18BufferedStackTrace6UnwindEjmmPvmmb 364
__interceptor_readdir_r,readdir_r _ZN6__asan32ReportStringFunctionSizeOverflowEmmPN11__sanitizer18BufferedStackTraceE 380
__interceptor_readdir_r,readdir_r __asan_region_is_poisoned 412
__interceptor_readdir_r,readdir_r _ZN11__sanitizer10StackTrace12GetCurrentPcEv 484
__interceptor_readdir_r,readdir_r _ZN6__asan16GetCurrentThreadEv 524
__interceptor_readdir_r,readdir_r _ZN11__sanitizer18BufferedStackTrace6UnwindEjmmPvmmb 612
__interceptor_readdir_r,readdir_r _ZN6__asan23IsInterceptorSuppressedEPKc 636
__interceptor_readdir_r,readdir_r _ZN6__asan31HaveStackTraceBasedSuppressionsEv 648
__interceptor_readdir_r,readdir_r _ZN11__sanitizer10StackTrace12GetCurrentPcEv 668
__interceptor_readdir_r,readdir_r _ZN6__asan18ReportGenericErrorEmmmmbmjb 708
__interceptor_readdir_r,readdir_r _ZN11__sanitizer10StackTrace12GetCurrentPcEv 736
__interceptor_readdir_r,readdir_r _ZN6__asan16GetCurrentThreadEv 780
__interceptor_readdir_r,readdir_r _ZN11__sanitizer18BufferedStackTrace6UnwindEjmmPvmmb 860
__interceptor_readdir_r,readdir_r _ZN11__sanitizer18BufferedStackTrace6UnwindEjmmPvmmb 928
__interceptor_readdir_r,readdir_r _ZN6__asan22IsStackTraceSuppressedEPKN11__sanitizer10StackTraceE 936
__interceptor_readdir_r,readdir_r _ZN11__sanitizer18BufferedStackTrace6UnwindEjmmPvmmb 1008
__interceptor_readdir_r,readdir_r _ZN6__asan32ReportStringFunctionSizeOverflowEmmPN11__sanitizer18BufferedStackTraceE 1024
__interceptor_readdir_r,readdir_r __asan_region_is_poisoned 1056
__interceptor_readdir_r,readdir_r _ZN6__asan23IsInterceptorSuppressedEPKc 1076
__interceptor_readdir_r,readdir_r _ZN6__asan31HaveStackTraceBasedSuppressionsEv 1088
__interceptor_readdir_r,readdir_r _ZN11__sanitizer10StackTrace12GetCurrentPcEv 1108
__interceptor_readdir_r,readdir_r _ZN6__asan18ReportGenericErrorEmmmmbmjb 1148
__interceptor_readdir_r,readdir_r _ZN11__sanitizer10StackTrace12GetCurrentPcEv 1176
__interceptor_readdir_r,readdir_r _ZN6__asan16GetCurrentThreadEv 1216
__interceptor_readdir_r,readdir_r _ZN11__sanitizer18BufferedStackTrace6UnwindEjmmPvmmb 1292
__interceptor_readdir_r,readdir_r _ZN11__sanitizer18BufferedStackTrace6UnwindEjmmPvmmb 1360
__interceptor_readdir_r,readdir_r _ZN6__asan22IsStackTraceSuppressedEPKN11__sanitizer10StackTraceE 1368
__interceptor_readdir_r,readdir_r _ZN6__asan20asan_init_is_runningE 1388
__interceptor_readdir_r,readdir_r _ZN6__asan11asan_initedE 1396
__interceptor_readdir_r,readdir_r _ZN11__sanitizer21common_flags_dont_useE 1404
__interceptor_readdir_r,readdir_r .LC65 1408
__interceptor_readdir_r,readdir_r .LC65 1412
__interceptor_readdir64,readdir64 _ZN6__asan15AsanInitFromRtlEv 100
__interceptor_readdir64,readdir64 _ZN11__sanitizer10StackTrace12GetCurrentPcEv 176
__interceptor_readdir64,readdir64 _ZN6__asan16GetCurrentThreadEv 216
__interceptor_readdir64,readdir64 _ZN11__sanitizer18BufferedStackTrace6UnwindEjmmPvmmb 296
__interceptor_readdir64,readdir64 _ZN11__sanitizer18BufferedStackTrace6UnwindEjmmPvmmb 364
__interceptor_readdir64,readdir64 _ZN6__asan32ReportStringFunctionSizeOverflowEmmPN11__sanitizer18BufferedStackTraceE 380
__interceptor_readdir64,readdir64 __asan_region_is_poisoned 412
__interceptor_readdir64,readdir64 _ZN6__asan23IsInterceptorSuppressedEPKc 432
__interceptor_readdir64,readdir64 _ZN6__asan31HaveStackTraceBasedSuppressionsEv 444
__interceptor_readdir64,readdir64 _ZN11__sanitizer10StackTrace12GetCurrentPcEv 464
__interceptor_readdir64,readdir64 _ZN6__asan18ReportGenericErrorEmmmmbmjb 504
__interceptor_readdir64,readdir64 _ZN11__sanitizer10StackTrace12GetCurrentPcEv 532
__interceptor_readdir64,readdir64 _ZN6__asan16GetCurrentThreadEv 572
__interceptor_readdir64,readdir64 _ZN11__sanitizer18BufferedStackTrace6UnwindEjmmPvmmb 648
__interceptor_readdir64,readdir64 _ZN11__sanitizer18BufferedStackTrace6UnwindEjmmPvmmb 716
__interceptor_readdir64,readdir64 _ZN6__asan22IsStackTraceSuppressedEPKN11__sanitizer10StackTraceE 724
__interceptor_readdir64,readdir64 _ZN6__asan20asan_init_is_runningE 744
__interceptor_readdir64,readdir64 _ZN6__asan11asan_initedE 752
__interceptor_readdir64,readdir64 _ZN11__sanitizer21common_flags_dont_useE 760
__interceptor_readdir64,readdir64 .LC66 764
__interceptor_readdir64_r,readdir64_r _ZN6__asan15AsanInitFromRtlEv 108
__interceptor_readdir64_r,readdir64_r _ZN11__sanitizer10StackTrace12GetCurrentPcEv 184
__interceptor_readdir64_r,readdir64_r _ZN6__asan16GetCurrentThreadEv 220
__interceptor_readdir64_r,readdir64_r _ZN11__sanitizer18BufferedStackTrace6UnwindEjmmPvmmb 296
__interceptor_readdir64_r,readdir64_r _ZN11__sanitizer18BufferedStackTrace6UnwindEjmmPvmmb 364
__interceptor_readdir64_r,readdir64_r _ZN6__asan32ReportStringFunctionSizeOverflowEmmPN11__sanitizer18BufferedStackTraceE 380
__interceptor_readdir64_r,readdir64_r __asan_region_is_poisoned 412
__interceptor_readdir64_r,readdir64_r _ZN11__sanitizer10StackTrace12GetCurrentPcEv 484
__interceptor_readdir64_r,readdir64_r _ZN6__asan16GetCurrentThreadEv 524
__interceptor_readdir64_r,readdir64_r _ZN11__sanitizer18BufferedStackTrace6UnwindEjmmPvmmb 612
__interceptor_readdir64_r,readdir64_r _ZN6__asan23IsInterceptorSuppressedEPKc 636
__interceptor_readdir64_r,readdir64_r _ZN6__asan31HaveStackTraceBasedSuppressionsEv 648
__interceptor_readdir64_r,readdir64_r _ZN11__sanitizer10StackTrace12GetCurrentPcEv 668
__interceptor_readdir64_r,readdir64_r _ZN6__asan18ReportGenericErrorEmmmmbmjb 708
__interceptor_readdir64_r,readdir64_r _ZN11__sanitizer10StackTrace12GetCurrentPcEv 736
__interceptor_readdir64_r,readdir64_r _ZN6__asan16GetCurrentThreadEv 780
__interceptor_readdir64_r,readdir64_r _ZN11__sanitizer18BufferedStackTrace6UnwindEjmmPvmmb 860
__interceptor_readdir64_r,readdir64_r _ZN11__sanitizer18BufferedStackTrace6UnwindEjmmPvmmb 928
__interceptor_readdir64_r,readdir64_r _ZN6__asan22IsStackTraceSuppressedEPKN11__sanitizer10StackTraceE 936
__interceptor_readdir64_r,readdir64_r _ZN11__sanitizer18BufferedStackTrace6UnwindEjmmPvmmb 1008
__interceptor_readdir64_r,readdir64_r _ZN6__asan32ReportStringFunctionSizeOverflowEmmPN11__sanitizer18BufferedStackTraceE 1024
__interceptor_readdir64_r,readdir64_r __asan_region_is_poisoned 1056
__interceptor_readdir64_r,readdir64_r _ZN6__asan23IsInterceptorSuppressedEPKc 1076
__interceptor_readdir64_r,readdir64_r _ZN6__asan31HaveStackTraceBasedSuppressionsEv 1088
__interceptor_readdir64_r,readdir64_r _ZN11__sanitizer10StackTrace12GetCurrentPcEv 1108
__interceptor_readdir64_r,readdir64_r _ZN6__asan18ReportGenericErrorEmmmmbmjb 1148
__interceptor_readdir64_r,readdir64_r _ZN11__sanitizer10StackTrace12GetCurrentPcEv 1176
__interceptor_readdir64_r,readdir64_r _ZN6__asan16GetCurrentThreadEv 1216
__interceptor_readdir64_r,readdir64_r _ZN11__sanitizer18BufferedStackTrace6UnwindEjmmPvmmb 1292
__interceptor_readdir64_r,readdir64_r _ZN11__sanitizer18BufferedStackTrace6UnwindEjmmPvmmb 1360
__interceptor_readdir64_r,readdir64_r _ZN6__asan22IsStackTraceSuppressedEPKN11__sanitizer10StackTraceE 1368
__interceptor_readdir64_r,readdir64_r _ZN6__asan20asan_init_is_runningE 1388
__interceptor_readdir64_r,readdir64_r _ZN6__asan11asan_initedE 1396
__interceptor_readdir64_r,readdir64_r _ZN11__sanitizer21common_flags_dont_useE 1404
__interceptor_readdir64_r,readdir64_r .LC67 1408
__interceptor_readdir64_r,readdir64_r .LC67 1412
__interceptor_ptrace,ptrace _ZN6__asan15AsanInitFromRtlEv 108
__interceptor_ptrace,ptrace _ZN11__sanitizer10StackTrace12GetCurrentPcEv 196
__interceptor_ptrace,ptrace _ZN6__asan16GetCurrentThreadEv 236
__interceptor_ptrace,ptrace _ZN11__sanitizer18BufferedStackTrace6UnwindEjmmPvmmb 312
__interceptor_ptrace,ptrace _ZN11__sanitizer10StackTrace12GetCurrentPcEv 400
__interceptor_ptrace,ptrace _ZN6__asan16GetCurrentThreadEv 440
__interceptor_ptrace,ptrace _ZN11__sanitizer18BufferedStackTrace6UnwindEjmmPvmmb 516
__interceptor_ptrace,ptrace _ZN11__sanitizer10StackTrace12GetCurrentPcEv 604
__interceptor_ptrace,ptrace _ZN6__asan16GetCurrentThreadEv 644
__interceptor_ptrace,ptrace _ZN11__sanitizer18BufferedStackTrace6UnwindEjmmPvmmb 720
__interceptor_ptrace,ptrace _ZN11__sanitizer10StackTrace12GetCurrentPcEv 808
__interceptor_ptrace,ptrace _ZN6__asan16GetCurrentThreadEv 848
__interceptor_ptrace,ptrace _ZN11__sanitizer18BufferedStackTrace6UnwindEjmmPvmmb 924
__interceptor_ptrace,ptrace _ZN11__sanitizer10StackTrace12GetCurrentPcEv 1012
__interceptor_ptrace,ptrace _ZN6__asan16GetCurrentThreadEv 1056
__interceptor_ptrace,ptrace _ZN11__sanitizer18BufferedStackTrace6UnwindEjmmPvmmb 1140
__interceptor_ptrace,ptrace _ZN11__sanitizer10StackTrace12GetCurrentPcEv 1236
__interceptor_ptrace,ptrace _ZN6__asan16GetCurrentThreadEv 1276
__interceptor_ptrace,ptrace _ZN11__sanitizer18BufferedStackTrace6UnwindEjmmPvmmb 1352
__interceptor_ptrace,ptrace _ZN11__sanitizer10StackTrace12GetCurrentPcEv 1436
__interceptor_ptrace,ptrace _ZN6__asan16GetCurrentThreadEv 1476
__interceptor_ptrace,ptrace _ZN11__sanitizer18BufferedStackTrace6UnwindEjmmPvmmb 1552
__interceptor_ptrace,ptrace _ZN11__sanitizer10StackTrace12GetCurrentPcEv 1636
__interceptor_ptrace,ptrace _ZN6__asan16GetCurrentThreadEv 1676
__interceptor_ptrace,ptrace _ZN11__sanitizer18BufferedStackTrace6UnwindEjmmPvmmb 1752
__interceptor_ptrace,ptrace _ZN11__sanitizer10StackTrace12GetCurrentPcEv 1836
__interceptor_ptrace,ptrace _ZN6__asan16GetCurrentThreadEv 1876
__interceptor_ptrace,ptrace _ZN11__sanitizer18BufferedStackTrace6UnwindEjmmPvmmb 1952
__interceptor_ptrace,ptrace _ZN11__sanitizer10StackTrace12GetCurrentPcEv 2036
__interceptor_ptrace,ptrace _ZN6__asan16GetCurrentThreadEv 2080
__interceptor_ptrace,ptrace _ZN11__sanitizer18BufferedStackTrace6UnwindEjmmPvmmb 2160
__interceptor_ptrace,ptrace _ZN11__sanitizer10StackTrace12GetCurrentPcEv 2232
__interceptor_ptrace,ptrace _ZN6__asan16GetCurrentThreadEv 2276
__interceptor_ptrace,ptrace _ZN11__sanitizer18BufferedStackTrace6UnwindEjmmPvmmb 2352
__interceptor_ptrace,ptrace _ZN11__sanitizer10StackTrace12GetCurrentPcEv 2424
__interceptor_ptrace,ptrace _ZN6__asan16GetCurrentThreadEv 2468
__interceptor_ptrace,ptrace _ZN11__sanitizer18BufferedStackTrace6UnwindEjmmPvmmb 2548
__interceptor_ptrace,ptrace _ZN11__sanitizer18BufferedStackTrace6UnwindEjmmPvmmb 2616
__interceptor_ptrace,ptrace _ZN6__asan32ReportStringFunctionSizeOverflowEmmPN11__sanitizer18BufferedStackTraceE 2636
__interceptor_ptrace,ptrace __asan_region_is_poisoned 2668
__interceptor_ptrace,ptrace _ZN11__sanitizer10StackTrace12GetCurrentPcEv 2792
__interceptor_ptrace,ptrace _ZN6__asan16GetCurrentThreadEv 2832
__interceptor_ptrace,ptrace _ZN11__sanitizer18BufferedStackTrace6UnwindEjmmPvmmb 2908
__interceptor_ptrace,ptrace _ZN6__asan23IsInterceptorSuppressedEPKc 2928
__interceptor_ptrace,ptrace _ZN6__asan31HaveStackTraceBasedSuppressionsEv 2940
__interceptor_ptrace,ptrace _ZN11__sanitizer10StackTrace12GetCurrentPcEv 2952
__interceptor_ptrace,ptrace _ZN6__asan18ReportGenericErrorEmmmmbmjb 2988
__interceptor_ptrace,ptrace _ZN11__sanitizer18BufferedStackTrace6UnwindEjmmPvmmb 3052
__interceptor_ptrace,ptrace _ZN6__asan32ReportStringFunctionSizeOverflowEmmPN11__sanitizer18BufferedStackTraceE 3072
__interceptor_ptrace,ptrace __asan_region_is_poisoned 3104
__interceptor_ptrace,ptrace _ZN11__sanitizer18BufferedStackTrace6UnwindEjmmPvmmb 3184
__interceptor_ptrace,ptrace _ZN6__asan32ReportStringFunctionSizeOverflowEmmPN11__sanitizer18BufferedStackTraceE 3204
__interceptor_ptrace,ptrace __asan_region_is_poisoned 3236
__interceptor_ptrace,ptrace _ZN11__sanitizer18BufferedStackTrace6UnwindEjmmPvmmb 3316
__interceptor_ptrace,ptrace _ZN6__asan32ReportStringFunctionSizeOverflowEmmPN11__sanitizer18BufferedStackTraceE 3336
__interceptor_ptrace,ptrace __asan_region_is_poisoned 3368
__interceptor_ptrace,ptrace _ZN11__sanitizer18BufferedStackTrace6UnwindEjmmPvmmb 3448
__interceptor_ptrace,ptrace _ZN6__asan32ReportStringFunctionSizeOverflowEmmPN11__sanitizer18BufferedStackTraceE 3468
__interceptor_ptrace,ptrace __asan_region_is_poisoned 3500
__interceptor_ptrace,ptrace _ZN11__sanitizer10StackTrace12GetCurrentPcEv 3552
__interceptor_ptrace,ptrace _ZN6__asan16GetCurrentThreadEv 3600
__interceptor_ptrace,ptrace _ZN11__sanitizer18BufferedStackTrace6UnwindEjmmPvmmb 3680
__interceptor_ptrace,ptrace _ZN11__sanitizer18BufferedStackTrace6UnwindEjmmPvmmb 3748
__interceptor_ptrace,ptrace _ZN6__asan22IsStackTraceSuppressedEPKN11__sanitizer10StackTraceE 3760
__interceptor_ptrace,ptrace _ZN6__asan20asan_init_is_runningE 3780
__interceptor_ptrace,ptrace _ZN6__asan11asan_initedE 3788
__interceptor_ptrace,ptrace _ZN11__sanitizer14ptrace_setregsE 3792
__interceptor_ptrace,ptrace _ZN11__sanitizer26struct_user_regs_struct_szE 3796
__interceptor_ptrace,ptrace _ZN11__sanitizer16ptrace_setfpregsE 3800
__interceptor_ptrace,ptrace _ZN11__sanitizer28struct_user_fpregs_struct_szE 3804
__interceptor_ptrace,ptrace _ZN11__sanitizer17ptrace_setfpxregsE 3808
__interceptor_ptrace,ptrace _ZN11__sanitizer29struct_user_fpxregs_struct_szE 3812
__interceptor_ptrace,ptrace _ZN11__sanitizer17ptrace_setvfpregsE 3816
__interceptor_ptrace,ptrace _ZN11__sanitizer29struct_user_vfpregs_struct_szE 3820
__interceptor_ptrace,ptrace _ZN11__sanitizer17ptrace_setsiginfoE 3824
__interceptor_ptrace,ptrace _ZN11__sanitizer12siginfo_t_szE 3828
__interceptor_ptrace,ptrace _ZN11__sanitizer16ptrace_setregsetE 3832
__interceptor_ptrace,ptrace _ZN11__sanitizer16ptrace_getregsetE 3836
__interceptor_ptrace,ptrace _ZN11__sanitizer16ptrace_getfpregsE 3840
__interceptor_ptrace,ptrace _ZN11__sanitizer17ptrace_getfpxregsE 3844
__interceptor_ptrace,ptrace _ZN11__sanitizer17ptrace_getvfpregsE 3848
__interceptor_ptrace,ptrace _ZN11__sanitizer17ptrace_getsiginfoE 3852
__interceptor_ptrace,ptrace _ZN11__sanitizer18ptrace_geteventmsgE 3856
__interceptor_ptrace,ptrace _ZN11__sanitizer14ptrace_getregsE 3864
__interceptor_ptrace,ptrace .LC68 3868
__interceptor_ptrace,ptrace .LC68 3872
__interceptor_ptrace,ptrace .LC68 3876
__interceptor_ptrace,ptrace .LC68 3880
__interceptor_ptrace,ptrace .LC68 3884
__interceptor_ptrace,ptrace .LC68 3888
__interceptor_ptrace,ptrace .LC68 3892
__interceptor_ptrace,ptrace .LC68 3896
__interceptor_ptrace,ptrace .LC68 3900
__interceptor_ptrace,ptrace .LC68 3904
__interceptor_ptrace,ptrace .LC68 3908
__interceptor_ptrace,ptrace .LC68 3912
__interceptor_ptrace,ptrace .LC68 3916
__interceptor_ptrace,ptrace .LC68 3920
__interceptor_ptrace,ptrace .LC68 3924
__interceptor_ptrace,ptrace _ZN11__sanitizer21common_flags_dont_useE 3928
__interceptor_ptrace,ptrace _ZN11__sanitizer18BufferedStackTrace6UnwindEjmmPvmmb 3992
__interceptor_ptrace,ptrace _ZN6__asan32ReportStringFunctionSizeOverflowEmmPN11__sanitizer18BufferedStackTraceE 4012
__interceptor_ptrace,ptrace __asan_region_is_poisoned 4044
__interceptor_ptrace,ptrace _ZN11__sanitizer10StackTrace12GetCurrentPcEv 4136
__interceptor_ptrace,ptrace _ZN6__asan16GetCurrentThreadEv 4176
__interceptor_ptrace,ptrace _ZN11__sanitizer18BufferedStackTrace6UnwindEjmmPvmmb 4252
__interceptor_ptrace,ptrace _ZN6__asan23IsInterceptorSuppressedEPKc 4272
__interceptor_ptrace,ptrace _ZN6__asan31HaveStackTraceBasedSuppressionsEv 4284
__interceptor_ptrace,ptrace _ZN11__sanitizer10StackTrace12GetCurrentPcEv 4296
__interceptor_ptrace,ptrace _ZN6__asan18ReportGenericErrorEmmmmbmjb 4340
__interceptor_ptrace,ptrace _ZN11__sanitizer10StackTrace12GetCurrentPcEv 4376
__interceptor_ptrace,ptrace _ZN6__asan16GetCurrentThreadEv 4424
__interceptor_ptrace,ptrace _ZN11__sanitizer18BufferedStackTrace6UnwindEjmmPvmmb 4504
__interceptor_ptrace,ptrace _ZN11__sanitizer18BufferedStackTrace6UnwindEjmmPvmmb 4572
__interceptor_ptrace,ptrace _ZN6__asan22IsStackTraceSuppressedEPKN11__sanitizer10StackTraceE 4584
__interceptor_ptrace,ptrace _ZN11__sanitizer18BufferedStackTrace6UnwindEjmmPvmmb 4660
__interceptor_ptrace,ptrace _ZN6__asan32ReportStringFunctionSizeOverflowEmmPN11__sanitizer18BufferedStackTraceE 4680
__interceptor_ptrace,ptrace __asan_region_is_poisoned 4712
__interceptor_ptrace,ptrace _ZN6__asan23IsInterceptorSuppressedEPKc 4732
__interceptor_ptrace,ptrace _ZN6__asan31HaveStackTraceBasedSuppressionsEv 4744
__interceptor_ptrace,ptrace _ZN11__sanitizer10StackTrace12GetCurrentPcEv 4756
__interceptor_ptrace,ptrace _ZN11__sanitizer10StackTrace12GetCurrentPcEv 4820
__interceptor_ptrace,ptrace _ZN6__asan16GetCurrentThreadEv 4864
__interceptor_ptrace,ptrace _ZN11__sanitizer18BufferedStackTrace6UnwindEjmmPvmmb 4940
__interceptor_ptrace,ptrace _ZN11__sanitizer18BufferedStackTrace6UnwindEjmmPvmmb 5008
__interceptor_ptrace,ptrace _ZN6__asan22IsStackTraceSuppressedEPKN11__sanitizer10StackTraceE 5020
__interceptor_ptrace,ptrace _ZN11__sanitizer18BufferedStackTrace6UnwindEjmmPvmmb 5092
__interceptor_ptrace,ptrace _ZN6__asan32ReportStringFunctionSizeOverflowEmmPN11__sanitizer18BufferedStackTraceE 5108
__interceptor_ptrace,ptrace __asan_region_is_poisoned 5140
__interceptor_ptrace,ptrace _ZN6__asan23IsInterceptorSuppressedEPKc 5172
__interceptor_ptrace,ptrace _ZN6__asan31HaveStackTraceBasedSuppressionsEv 5184
__interceptor_ptrace,ptrace _ZN11__sanitizer10StackTrace12GetCurrentPcEv 5204
__interceptor_ptrace,ptrace _ZN6__asan18ReportGenericErrorEmmmmbmjb 5244
__interceptor_ptrace,ptrace _ZN11__sanitizer18BufferedStackTrace6UnwindEjmmPvmmb 5308
__interceptor_ptrace,ptrace _ZN6__asan32ReportStringFunctionSizeOverflowEmmPN11__sanitizer18BufferedStackTraceE 5324
__interceptor_ptrace,ptrace __asan_region_is_poisoned 5356
__interceptor_ptrace,ptrace _ZN11__sanitizer18BufferedStackTrace6UnwindEjmmPvmmb 5436
__interceptor_ptrace,ptrace _ZN6__asan32ReportStringFunctionSizeOverflowEmmPN11__sanitizer18BufferedStackTraceE 5452
__interceptor_ptrace,ptrace __asan_region_is_poisoned 5484
__interceptor_ptrace,ptrace _ZN11__sanitizer18BufferedStackTrace6UnwindEjmmPvmmb 5564
__interceptor_ptrace,ptrace _ZN6__asan32ReportStringFunctionSizeOverflowEmmPN11__sanitizer18BufferedStackTraceE 5580
__interceptor_ptrace,ptrace __asan_region_is_poisoned 5612
__interceptor_ptrace,ptrace _ZN11__sanitizer10StackTrace12GetCurrentPcEv 5656
__interceptor_ptrace,ptrace _ZN6__asan16GetCurrentThreadEv 5700
__interceptor_ptrace,ptrace _ZN11__sanitizer18BufferedStackTrace6UnwindEjmmPvmmb 5776
__interceptor_ptrace,ptrace _ZN11__sanitizer18BufferedStackTrace6UnwindEjmmPvmmb 5844
__interceptor_ptrace,ptrace _ZN6__asan22IsStackTraceSuppressedEPKN11__sanitizer10StackTraceE 5852
__interceptor_ptrace,ptrace _ZN11__sanitizer18BufferedStackTrace6UnwindEjmmPvmmb 5920
__interceptor_ptrace,ptrace _ZN6__asan32ReportStringFunctionSizeOverflowEmmPN11__sanitizer18BufferedStackTraceE 5936
__interceptor_ptrace,ptrace __asan_region_is_poisoned 5968
__interceptor_ptrace,ptrace _ZN6__asan23IsInterceptorSuppressedEPKc 5988
__interceptor_ptrace,ptrace _ZN6__asan31HaveStackTraceBasedSuppressionsEv 6000
__interceptor_ptrace,ptrace _ZN11__sanitizer10StackTrace12GetCurrentPcEv 6040
__interceptor_ptrace,ptrace _ZN6__asan16GetCurrentThreadEv 6084
__interceptor_ptrace,ptrace _ZN11__sanitizer18BufferedStackTrace6UnwindEjmmPvmmb 6192
__interceptor_ptrace,ptrace _ZN6__asan32ReportStringFunctionSizeOverflowEmmPN11__sanitizer18BufferedStackTraceE 6208
__interceptor_ptrace,ptrace __asan_region_is_poisoned 6240
__interceptor_ptrace,ptrace _ZN6__asan23IsInterceptorSuppressedEPKc 6260
__interceptor_ptrace,ptrace _ZN6__asan31HaveStackTraceBasedSuppressionsEv 6272
__interceptor_ptrace,ptrace _ZN11__sanitizer10StackTrace12GetCurrentPcEv 6292
__interceptor_ptrace,ptrace _ZN11__sanitizer10StackTrace12GetCurrentPcEv 6356
__interceptor_ptrace,ptrace _ZN6__asan16GetCurrentThreadEv 6396
__interceptor_ptrace,ptrace _ZN11__sanitizer18BufferedStackTrace6UnwindEjmmPvmmb 6472
__interceptor_ptrace,ptrace _ZN11__sanitizer18BufferedStackTrace6UnwindEjmmPvmmb 6544
__interceptor_ptrace,ptrace _ZN6__asan22IsStackTraceSuppressedEPKN11__sanitizer10StackTraceE 6552
__interceptor_ptrace,ptrace _ZN11__sanitizer18BufferedStackTrace6UnwindEjmmPvmmb 6620
__interceptor_ptrace,ptrace _ZN6__asan32ReportStringFunctionSizeOverflowEmmPN11__sanitizer18BufferedStackTraceE 6640
__interceptor_ptrace,ptrace __asan_region_is_poisoned 6672
__interceptor_ptrace,ptrace _ZN11__sanitizer10StackTrace12GetCurrentPcEv 6732
__interceptor_ptrace,ptrace _ZN6__asan16GetCurrentThreadEv 6772
__interceptor_ptrace,ptrace _ZN11__sanitizer18BufferedStackTrace6UnwindEjmmPvmmb 6848
__interceptor_ptrace,ptrace _ZN6__asan23IsInterceptorSuppressedEPKc 6868
__interceptor_ptrace,ptrace _ZN6__asan31HaveStackTraceBasedSuppressionsEv 6880
__interceptor_ptrace,ptrace _ZN11__sanitizer10StackTrace12GetCurrentPcEv 6900
__interceptor_ptrace,ptrace _ZN6__asan18ReportGenericErrorEmmmmbmjb 6940
__interceptor_ptrace,ptrace _ZN11__sanitizer10StackTrace12GetCurrentPcEv 6968
__interceptor_ptrace,ptrace _ZN6__asan16GetCurrentThreadEv 7012
__interceptor_ptrace,ptrace _ZN11__sanitizer18BufferedStackTrace6UnwindEjmmPvmmb 7088
__interceptor_ptrace,ptrace _ZN11__sanitizer18BufferedStackTrace6UnwindEjmmPvmmb 7156
__interceptor_ptrace,ptrace _ZN6__asan22IsStackTraceSuppressedEPKN11__sanitizer10StackTraceE 7168
__interceptor_ptrace,ptrace _ZN11__sanitizer18BufferedStackTrace6UnwindEjmmPvmmb 7244
__interceptor_ptrace,ptrace _ZN6__asan32ReportStringFunctionSizeOverflowEmmPN11__sanitizer18BufferedStackTraceE 7260
__interceptor_ptrace,ptrace __asan_region_is_poisoned 7292
__interceptor_ptrace,ptrace _ZN6__asan23IsInterceptorSuppressedEPKc 7312
__interceptor_ptrace,ptrace _ZN6__asan31HaveStackTraceBasedSuppressionsEv 7324
__interceptor_ptrace,ptrace _ZN11__sanitizer10StackTrace12GetCurrentPcEv 7344
__interceptor_ptrace,ptrace _ZN11__sanitizer10StackTrace12GetCurrentPcEv 7388
__interceptor_ptrace,ptrace _ZN6__asan16GetCurrentThreadEv 7428
__interceptor_ptrace,ptrace _ZN11__sanitizer18BufferedStackTrace6UnwindEjmmPvmmb 7504
__interceptor_ptrace,ptrace _ZN11__sanitizer18BufferedStackTrace6UnwindEjmmPvmmb 7576
__interceptor_ptrace,ptrace _ZN6__asan22IsStackTraceSuppressedEPKN11__sanitizer10StackTraceE 7584
__interceptor_setlocale,setlocale _ZN6__asan15AsanInitFromRtlEv 104
__interceptor_setlocale,setlocale _ZN11__sanitizer10StackTrace12GetCurrentPcEv 180
__interceptor_setlocale,setlocale _ZN6__asan16GetCurrentThreadEv 220
__interceptor_setlocale,setlocale _ZN11__sanitizer18BufferedStackTrace6UnwindEjmmPvmmb 300
__interceptor_setlocale,setlocale _ZN11__sanitizer18BufferedStackTrace6UnwindEjmmPvmmb 368
__interceptor_setlocale,setlocale _ZN6__asan32ReportStringFunctionSizeOverflowEmmPN11__sanitizer18BufferedStackTraceE 384
__interceptor_setlocale,setlocale __asan_region_is_poisoned 416
__interceptor_setlocale,setlocale _ZN11__sanitizer10StackTrace12GetCurrentPcEv 516
__interceptor_setlocale,setlocale _ZN6__asan16GetCurrentThreadEv 556
__interceptor_setlocale,setlocale _ZN11__sanitizer18BufferedStackTrace6UnwindEjmmPvmmb 636
__interceptor_setlocale,setlocale _ZN6__asan23IsInterceptorSuppressedEPKc 656
__interceptor_setlocale,setlocale _ZN6__asan31HaveStackTraceBasedSuppressionsEv 668
__interceptor_setlocale,setlocale _ZN11__sanitizer10StackTrace12GetCurrentPcEv 680
__interceptor_setlocale,setlocale _ZN6__asan18ReportGenericErrorEmmmmbmjb 716
__interceptor_setlocale,setlocale _ZN11__sanitizer10StackTrace12GetCurrentPcEv 752
__interceptor_setlocale,setlocale _ZN6__asan16GetCurrentThreadEv 796
__interceptor_setlocale,setlocale _ZN11__sanitizer18BufferedStackTrace6UnwindEjmmPvmmb 876
__interceptor_setlocale,setlocale _ZN11__sanitizer18BufferedStackTrace6UnwindEjmmPvmmb 944
__interceptor_setlocale,setlocale _ZN6__asan22IsStackTraceSuppressedEPKN11__sanitizer10StackTraceE 956
__interceptor_setlocale,setlocale _ZN11__sanitizer18BufferedStackTrace6UnwindEjmmPvmmb 1028
__interceptor_setlocale,setlocale _ZN6__asan32ReportStringFunctionSizeOverflowEmmPN11__sanitizer18BufferedStackTraceE 1044
__interceptor_setlocale,setlocale __asan_region_is_poisoned 1076
__interceptor_setlocale,setlocale _ZN6__asan23IsInterceptorSuppressedEPKc 1096
__interceptor_setlocale,setlocale _ZN6__asan31HaveStackTraceBasedSuppressionsEv 1108
__interceptor_setlocale,setlocale _ZN11__sanitizer10StackTrace12GetCurrentPcEv 1128
__interceptor_setlocale,setlocale _ZN6__asan18ReportGenericErrorEmmmmbmjb 1168
__interceptor_setlocale,setlocale _ZN11__sanitizer10StackTrace12GetCurrentPcEv 1196
__interceptor_setlocale,setlocale _ZN6__asan16GetCurrentThreadEv 1236
__interceptor_setlocale,setlocale _ZN11__sanitizer18BufferedStackTrace6UnwindEjmmPvmmb 1312
__interceptor_setlocale,setlocale _ZN11__sanitizer18BufferedStackTrace6UnwindEjmmPvmmb 1380
__interceptor_setlocale,setlocale _ZN6__asan22IsStackTraceSuppressedEPKN11__sanitizer10StackTraceE 1388
__interceptor_setlocale,setlocale _ZN6__asan20asan_init_is_runningE 1408
__interceptor_setlocale,setlocale _ZN6__asan11asan_initedE 1416
__interceptor_setlocale,setlocale _ZN11__sanitizer21common_flags_dont_useE 1424
__interceptor_setlocale,setlocale .LC69 1432
__interceptor_setlocale,setlocale .LC69 1436
__interceptor_getcwd,getcwd _ZN6__asan15AsanInitFromRtlEv 104
__interceptor_getcwd,getcwd _ZN11__sanitizer10StackTrace12GetCurrentPcEv 192
__interceptor_getcwd,getcwd _ZN6__asan16GetCurrentThreadEv 232
__interceptor_getcwd,getcwd _ZN11__sanitizer18BufferedStackTrace6UnwindEjmmPvmmb 312
__interceptor_getcwd,getcwd _ZN11__sanitizer18BufferedStackTrace6UnwindEjmmPvmmb 380
__interceptor_getcwd,getcwd _ZN6__asan32ReportStringFunctionSizeOverflowEmmPN11__sanitizer18BufferedStackTraceE 396
__interceptor_getcwd,getcwd __asan_region_is_poisoned 428
__interceptor_getcwd,getcwd _ZN6__asan23IsInterceptorSuppressedEPKc 448
__interceptor_getcwd,getcwd _ZN6__asan31HaveStackTraceBasedSuppressionsEv 460
__interceptor_getcwd,getcwd _ZN11__sanitizer10StackTrace12GetCurrentPcEv 480
__interceptor_getcwd,getcwd _ZN6__asan18ReportGenericErrorEmmmmbmjb 520
__interceptor_getcwd,getcwd _ZN11__sanitizer10StackTrace12GetCurrentPcEv 548
__interceptor_getcwd,getcwd _ZN6__asan16GetCurrentThreadEv 588
__interceptor_getcwd,getcwd _ZN11__sanitizer18BufferedStackTrace6UnwindEjmmPvmmb 664
__interceptor_getcwd,getcwd _ZN11__sanitizer18BufferedStackTrace6UnwindEjmmPvmmb 732
__interceptor_getcwd,getcwd _ZN6__asan22IsStackTraceSuppressedEPKN11__sanitizer10StackTraceE 740
__interceptor_getcwd,getcwd _ZN6__asan20asan_init_is_runningE 760
__interceptor_getcwd,getcwd _ZN6__asan11asan_initedE 768
__interceptor_getcwd,getcwd _ZN11__sanitizer21common_flags_dont_useE 776
__interceptor_getcwd,getcwd .LC70 780
__interceptor_get_current_dir_name,get_current_dir_name _ZN6__asan15AsanInitFromRtlEv 100
__interceptor_get_current_dir_name,get_current_dir_name _ZN11__sanitizer10StackTrace12GetCurrentPcEv 184
__interceptor_get_current_dir_name,get_current_dir_name _ZN6__asan16GetCurrentThreadEv 224
__interceptor_get_current_dir_name,get_current_dir_name _ZN11__sanitizer18BufferedStackTrace6UnwindEjmmPvmmb 304
__interceptor_get_current_dir_name,get_current_dir_name _ZN11__sanitizer18BufferedStackTrace6UnwindEjmmPvmmb 372
__interceptor_get_current_dir_name,get_current_dir_name _ZN6__asan32ReportStringFunctionSizeOverflowEmmPN11__sanitizer18BufferedStackTraceE 388
__interceptor_get_current_dir_name,get_current_dir_name __asan_region_is_poisoned 420
__interceptor_get_current_dir_name,get_current_dir_name _ZN6__asan23IsInterceptorSuppressedEPKc 440
__interceptor_get_current_dir_name,get_current_dir_name _ZN6__asan31HaveStackTraceBasedSuppressionsEv 452
__interceptor_get_current_dir_name,get_current_dir_name _ZN11__sanitizer10StackTrace12GetCurrentPcEv 472
__interceptor_get_current_dir_name,get_current_dir_name _ZN6__asan18ReportGenericErrorEmmmmbmjb 512
__interceptor_get_current_dir_name,get_current_dir_name _ZN11__sanitizer10StackTrace12GetCurrentPcEv 540
__interceptor_get_current_dir_name,get_current_dir_name _ZN6__asan16GetCurrentThreadEv 580
__interceptor_get_current_dir_name,get_current_dir_name _ZN11__sanitizer18BufferedStackTrace6UnwindEjmmPvmmb 656
__interceptor_get_current_dir_name,get_current_dir_name _ZN11__sanitizer18BufferedStackTrace6UnwindEjmmPvmmb 724
__interceptor_get_current_dir_name,get_current_dir_name _ZN6__asan22IsStackTraceSuppressedEPKN11__sanitizer10StackTraceE 732
__interceptor_get_current_dir_name,get_current_dir_name _ZN6__asan20asan_init_is_runningE 752
__interceptor_get_current_dir_name,get_current_dir_name _ZN6__asan11asan_initedE 760
__interceptor_get_current_dir_name,get_current_dir_name _ZN11__sanitizer21common_flags_dont_useE 768
__interceptor_get_current_dir_name,get_current_dir_name .LC71 772
__interceptor_mbstowcs,mbstowcs _ZN6__asan15AsanInitFromRtlEv 112
__interceptor_mbstowcs,mbstowcs _ZN11__sanitizer10StackTrace12GetCurrentPcEv 216
__interceptor_mbstowcs,mbstowcs _ZN6__asan16GetCurrentThreadEv 260
__interceptor_mbstowcs,mbstowcs _ZN11__sanitizer18BufferedStackTrace6UnwindEjmmPvmmb 340
__interceptor_mbstowcs,mbstowcs _ZN11__sanitizer18BufferedStackTrace6UnwindEjmmPvmmb 408
__interceptor_mbstowcs,mbstowcs _ZN6__asan32ReportStringFunctionSizeOverflowEmmPN11__sanitizer18BufferedStackTraceE 424
__interceptor_mbstowcs,mbstowcs __asan_region_is_poisoned 456
__interceptor_mbstowcs,mbstowcs _ZN6__asan23IsInterceptorSuppressedEPKc 476
__interceptor_mbstowcs,mbstowcs _ZN6__asan31HaveStackTraceBasedSuppressionsEv 488
__interceptor_mbstowcs,mbstowcs _ZN11__sanitizer10StackTrace12GetCurrentPcEv 508
__interceptor_mbstowcs,mbstowcs _ZN6__asan18ReportGenericErrorEmmmmbmjb 548
__interceptor_mbstowcs,mbstowcs _ZN11__sanitizer10StackTrace12GetCurrentPcEv 576
__interceptor_mbstowcs,mbstowcs _ZN6__asan16GetCurrentThreadEv 620
__interceptor_mbstowcs,mbstowcs _ZN11__sanitizer18BufferedStackTrace6UnwindEjmmPvmmb 696
__interceptor_mbstowcs,mbstowcs _ZN11__sanitizer18BufferedStackTrace6UnwindEjmmPvmmb 764
__interceptor_mbstowcs,mbstowcs _ZN6__asan22IsStackTraceSuppressedEPKN11__sanitizer10StackTraceE 772
__interceptor_mbstowcs,mbstowcs _ZN6__asan20asan_init_is_runningE 792
__interceptor_mbstowcs,mbstowcs _ZN6__asan11asan_initedE 800
__interceptor_mbstowcs,mbstowcs _ZN11__sanitizer21common_flags_dont_useE 808
__interceptor_mbstowcs,mbstowcs .LC72 812
__interceptor_mbsrtowcs,mbsrtowcs _ZN6__asan15AsanInitFromRtlEv 104
__interceptor_mbsrtowcs,mbsrtowcs _ZN11__sanitizer10StackTrace12GetCurrentPcEv 160
__interceptor_mbsrtowcs,mbsrtowcs _ZN6__asan16GetCurrentThreadEv 196
__interceptor_mbsrtowcs,mbsrtowcs _ZN11__sanitizer18BufferedStackTrace6UnwindEjmmPvmmb 272
__interceptor_mbsrtowcs,mbsrtowcs _ZN11__sanitizer18BufferedStackTrace6UnwindEjmmPvmmb 340
__interceptor_mbsrtowcs,mbsrtowcs _ZN6__asan32ReportStringFunctionSizeOverflowEmmPN11__sanitizer18BufferedStackTraceE 360
__interceptor_mbsrtowcs,mbsrtowcs __asan_region_is_poisoned 392
__interceptor_mbsrtowcs,mbsrtowcs _ZN11__sanitizer10StackTrace12GetCurrentPcEv 464
__interceptor_mbsrtowcs,mbsrtowcs _ZN6__asan16GetCurrentThreadEv 504
__interceptor_mbsrtowcs,mbsrtowcs _ZN11__sanitizer18BufferedStackTrace6UnwindEjmmPvmmb 584
__interceptor_mbsrtowcs,mbsrtowcs _ZN6__asan23IsInterceptorSuppressedEPKc 604
__interceptor_mbsrtowcs,mbsrtowcs _ZN6__asan31HaveStackTraceBasedSuppressionsEv 616
__interceptor_mbsrtowcs,mbsrtowcs _ZN11__sanitizer10StackTrace12GetCurrentPcEv 628
__interceptor_mbsrtowcs,mbsrtowcs _ZN6__asan18ReportGenericErrorEmmmmbmjb 672
__interceptor_mbsrtowcs,mbsrtowcs _ZN11__sanitizer10StackTrace12GetCurrentPcEv 708
__interceptor_mbsrtowcs,mbsrtowcs _ZN6__asan16GetCurrentThreadEv 752
__interceptor_mbsrtowcs,mbsrtowcs _ZN11__sanitizer18BufferedStackTrace6UnwindEjmmPvmmb 832
__interceptor_mbsrtowcs,mbsrtowcs _ZN11__sanitizer18BufferedStackTrace6UnwindEjmmPvmmb 900
__interceptor_mbsrtowcs,mbsrtowcs _ZN6__asan22IsStackTraceSuppressedEPKN11__sanitizer10StackTraceE 912
__interceptor_mbsrtowcs,mbsrtowcs _ZN11__sanitizer18BufferedStackTrace6UnwindEjmmPvmmb 984
__interceptor_mbsrtowcs,mbsrtowcs _ZN6__asan32ReportStringFunctionSizeOverflowEmmPN11__sanitizer18BufferedStackTraceE 1004
__interceptor_mbsrtowcs,mbsrtowcs __asan_region_is_poisoned 1036
__interceptor_mbsrtowcs,mbsrtowcs _ZN11__sanitizer10StackTrace12GetCurrentPcEv 1196
__interceptor_mbsrtowcs,mbsrtowcs _ZN6__asan16GetCurrentThreadEv 1236
__interceptor_mbsrtowcs,mbsrtowcs _ZN11__sanitizer18BufferedStackTrace6UnwindEjmmPvmmb 1316
__interceptor_mbsrtowcs,mbsrtowcs _ZN6__asan23IsInterceptorSuppressedEPKc 1336
__interceptor_mbsrtowcs,mbsrtowcs _ZN6__asan31HaveStackTraceBasedSuppressionsEv 1348
__interceptor_mbsrtowcs,mbsrtowcs _ZN11__sanitizer10StackTrace12GetCurrentPcEv 1360
__interceptor_mbsrtowcs,mbsrtowcs _ZN6__asan18ReportGenericErrorEmmmmbmjb 1396
__interceptor_mbsrtowcs,mbsrtowcs _ZN11__sanitizer10StackTrace12GetCurrentPcEv 1432
__interceptor_mbsrtowcs,mbsrtowcs _ZN6__asan16GetCurrentThreadEv 1476
__interceptor_mbsrtowcs,mbsrtowcs _ZN11__sanitizer18BufferedStackTrace6UnwindEjmmPvmmb 1556
__interceptor_mbsrtowcs,mbsrtowcs _ZN11__sanitizer18BufferedStackTrace6UnwindEjmmPvmmb 1624
__interceptor_mbsrtowcs,mbsrtowcs _ZN6__asan22IsStackTraceSuppressedEPKN11__sanitizer10StackTraceE 1636
__interceptor_mbsrtowcs,mbsrtowcs _ZN11__sanitizer18BufferedStackTrace6UnwindEjmmPvmmb 1708
__interceptor_mbsrtowcs,mbsrtowcs _ZN6__asan32ReportStringFunctionSizeOverflowEmmPN11__sanitizer18BufferedStackTraceE 1724
__interceptor_mbsrtowcs,mbsrtowcs __asan_region_is_poisoned 1756
__interceptor_mbsrtowcs,mbsrtowcs _ZN6__asan23IsInterceptorSuppressedEPKc 1788
__interceptor_mbsrtowcs,mbsrtowcs _ZN6__asan31HaveStackTraceBasedSuppressionsEv 1800
__interceptor_mbsrtowcs,mbsrtowcs _ZN11__sanitizer10StackTrace12GetCurrentPcEv 1820
__interceptor_mbsrtowcs,mbsrtowcs _ZN6__asan18ReportGenericErrorEmmmmbmjb 1860
__interceptor_mbsrtowcs,mbsrtowcs _ZN11__sanitizer10StackTrace12GetCurrentPcEv 1888
__interceptor_mbsrtowcs,mbsrtowcs _ZN6__asan16GetCurrentThreadEv 1928
__interceptor_mbsrtowcs,mbsrtowcs _ZN11__sanitizer18BufferedStackTrace6UnwindEjmmPvmmb 2004
__interceptor_mbsrtowcs,mbsrtowcs _ZN11__sanitizer18BufferedStackTrace6UnwindEjmmPvmmb 2072
__interceptor_mbsrtowcs,mbsrtowcs _ZN6__asan22IsStackTraceSuppressedEPKN11__sanitizer10StackTraceE 2080
__interceptor_mbsrtowcs,mbsrtowcs _ZN6__asan20asan_init_is_runningE 2140
__interceptor_mbsrtowcs,mbsrtowcs _ZN6__asan11asan_initedE 2148
__interceptor_mbsrtowcs,mbsrtowcs _ZN11__sanitizer21common_flags_dont_useE 2152
__interceptor_mbsrtowcs,mbsrtowcs _ZN11__sanitizer12mbstate_t_szE 2156
__interceptor_mbsrtowcs,mbsrtowcs .LC73 2160
__interceptor_mbsrtowcs,mbsrtowcs .LC73 2168
__interceptor_mbsrtowcs,mbsrtowcs .LC73 2172
__interceptor_mbsnrtowcs,mbsnrtowcs _ZN6__asan15AsanInitFromRtlEv 112
__interceptor_mbsnrtowcs,mbsnrtowcs _ZN11__sanitizer10StackTrace12GetCurrentPcEv 164
__interceptor_mbsnrtowcs,mbsnrtowcs _ZN6__asan16GetCurrentThreadEv 200
__interceptor_mbsnrtowcs,mbsnrtowcs _ZN11__sanitizer18BufferedStackTrace6UnwindEjmmPvmmb 276
__interceptor_mbsnrtowcs,mbsnrtowcs _ZN11__sanitizer18BufferedStackTrace6UnwindEjmmPvmmb 344
__interceptor_mbsnrtowcs,mbsnrtowcs _ZN6__asan32ReportStringFunctionSizeOverflowEmmPN11__sanitizer18BufferedStackTraceE 364
__interceptor_mbsnrtowcs,mbsnrtowcs __asan_region_is_poisoned 396
__interceptor_mbsnrtowcs,mbsnrtowcs _ZN11__sanitizer10StackTrace12GetCurrentPcEv 464
__interceptor_mbsnrtowcs,mbsnrtowcs _ZN6__asan16GetCurrentThreadEv 504
__interceptor_mbsnrtowcs,mbsnrtowcs _ZN11__sanitizer18BufferedStackTrace6UnwindEjmmPvmmb 584
__interceptor_mbsnrtowcs,mbsnrtowcs _ZN6__asan23IsInterceptorSuppressedEPKc 604
__interceptor_mbsnrtowcs,mbsnrtowcs _ZN6__asan31HaveStackTraceBasedSuppressionsEv 616
__interceptor_mbsnrtowcs,mbsnrtowcs _ZN11__sanitizer10StackTrace12GetCurrentPcEv 628
__interceptor_mbsnrtowcs,mbsnrtowcs _ZN6__asan18ReportGenericErrorEmmmmbmjb 672
__interceptor_mbsnrtowcs,mbsnrtowcs _ZN11__sanitizer10StackTrace12GetCurrentPcEv 708
__interceptor_mbsnrtowcs,mbsnrtowcs _ZN6__asan16GetCurrentThreadEv 752
__interceptor_mbsnrtowcs,mbsnrtowcs _ZN11__sanitizer18BufferedStackTrace6UnwindEjmmPvmmb 832
__interceptor_mbsnrtowcs,mbsnrtowcs _ZN11__sanitizer18BufferedStackTrace6UnwindEjmmPvmmb 900
__interceptor_mbsnrtowcs,mbsnrtowcs _ZN6__asan22IsStackTraceSuppressedEPKN11__sanitizer10StackTraceE 912
__interceptor_mbsnrtowcs,mbsnrtowcs _ZN11__sanitizer18BufferedStackTrace6UnwindEjmmPvmmb 984
__interceptor_mbsnrtowcs,mbsnrtowcs _ZN6__asan32ReportStringFunctionSizeOverflowEmmPN11__sanitizer18BufferedStackTraceE 1004
__interceptor_mbsnrtowcs,mbsnrtowcs __asan_region_is_poisoned 1036
__interceptor_mbsnrtowcs,mbsnrtowcs _ZN11__sanitizer10StackTrace12GetCurrentPcEv 1116
__interceptor_mbsnrtowcs,mbsnrtowcs _ZN6__asan16GetCurrentThreadEv 1156
__interceptor_mbsnrtowcs,mbsnrtowcs _ZN11__sanitizer18BufferedStackTrace6UnwindEjmmPvmmb 1236
__interceptor_mbsnrtowcs,mbsnrtowcs _ZN6__asan23IsInterceptorSuppressedEPKc 1256
__interceptor_mbsnrtowcs,mbsnrtowcs _ZN6__asan31HaveStackTraceBasedSuppressionsEv 1268
__interceptor_mbsnrtowcs,mbsnrtowcs _ZN11__sanitizer10StackTrace12GetCurrentPcEv 1280
__interceptor_mbsnrtowcs,mbsnrtowcs _ZN6__asan18ReportGenericErrorEmmmmbmjb 1324
__interceptor_mbsnrtowcs,mbsnrtowcs _ZN11__sanitizer10StackTrace12GetCurrentPcEv 1360
__interceptor_mbsnrtowcs,mbsnrtowcs _ZN6__asan16GetCurrentThreadEv 1404
__interceptor_mbsnrtowcs,mbsnrtowcs _ZN11__sanitizer18BufferedStackTrace6UnwindEjmmPvmmb 1484
__interceptor_mbsnrtowcs,mbsnrtowcs _ZN11__sanitizer18BufferedStackTrace6UnwindEjmmPvmmb 1552
__interceptor_mbsnrtowcs,mbsnrtowcs _ZN6__asan22IsStackTraceSuppressedEPKN11__sanitizer10StackTraceE 1564
__interceptor_mbsnrtowcs,mbsnrtowcs _ZN11__sanitizer18BufferedStackTrace6UnwindEjmmPvmmb 1636
__interceptor_mbsnrtowcs,mbsnrtowcs _ZN6__asan32ReportStringFunctionSizeOverflowEmmPN11__sanitizer18BufferedStackTraceE 1656
__interceptor_mbsnrtowcs,mbsnrtowcs __asan_region_is_poisoned 1688
__interceptor_mbsnrtowcs,mbsnrtowcs _ZN11__sanitizer10StackTrace12GetCurrentPcEv 1848
__interceptor_mbsnrtowcs,mbsnrtowcs _ZN6__asan16GetCurrentThreadEv 1888
__interceptor_mbsnrtowcs,mbsnrtowcs _ZN11__sanitizer18BufferedStackTrace6UnwindEjmmPvmmb 1968
__interceptor_mbsnrtowcs,mbsnrtowcs _ZN6__asan23IsInterceptorSuppressedEPKc 1988
__interceptor_mbsnrtowcs,mbsnrtowcs _ZN6__asan31HaveStackTraceBasedSuppressionsEv 2000
__interceptor_mbsnrtowcs,mbsnrtowcs _ZN11__sanitizer10StackTrace12GetCurrentPcEv 2012
__interceptor_mbsnrtowcs,mbsnrtowcs _ZN6__asan18ReportGenericErrorEmmmmbmjb 2048
__interceptor_mbsnrtowcs,mbsnrtowcs _ZN11__sanitizer10StackTrace12GetCurrentPcEv 2084
__interceptor_mbsnrtowcs,mbsnrtowcs _ZN6__asan16GetCurrentThreadEv 2128
__interceptor_mbsnrtowcs,mbsnrtowcs _ZN11__sanitizer18BufferedStackTrace6UnwindEjmmPvmmb 2208
__interceptor_mbsnrtowcs,mbsnrtowcs _ZN11__sanitizer18BufferedStackTrace6UnwindEjmmPvmmb 2276
__interceptor_mbsnrtowcs,mbsnrtowcs _ZN6__asan22IsStackTraceSuppressedEPKN11__sanitizer10StackTraceE 2288
__interceptor_mbsnrtowcs,mbsnrtowcs _ZN11__sanitizer18BufferedStackTrace6UnwindEjmmPvmmb 2360
__interceptor_mbsnrtowcs,mbsnrtowcs _ZN6__asan32ReportStringFunctionSizeOverflowEmmPN11__sanitizer18BufferedStackTraceE 2376
__interceptor_mbsnrtowcs,mbsnrtowcs __asan_region_is_poisoned 2408
__interceptor_mbsnrtowcs,mbsnrtowcs _ZN6__asan23IsInterceptorSuppressedEPKc 2440
__interceptor_mbsnrtowcs,mbsnrtowcs _ZN6__asan31HaveStackTraceBasedSuppressionsEv 2452
__interceptor_mbsnrtowcs,mbsnrtowcs _ZN11__sanitizer10StackTrace12GetCurrentPcEv 2472
__interceptor_mbsnrtowcs,mbsnrtowcs _ZN6__asan18ReportGenericErrorEmmmmbmjb 2512
__interceptor_mbsnrtowcs,mbsnrtowcs _ZN11__sanitizer10StackTrace12GetCurrentPcEv 2540
__interceptor_mbsnrtowcs,mbsnrtowcs _ZN6__asan16GetCurrentThreadEv 2580
__interceptor_mbsnrtowcs,mbsnrtowcs _ZN11__sanitizer18BufferedStackTrace6UnwindEjmmPvmmb 2656
__interceptor_mbsnrtowcs,mbsnrtowcs _ZN11__sanitizer18BufferedStackTrace6UnwindEjmmPvmmb 2724
__interceptor_mbsnrtowcs,mbsnrtowcs _ZN6__asan22IsStackTraceSuppressedEPKN11__sanitizer10StackTraceE 2732
__interceptor_mbsnrtowcs,mbsnrtowcs _ZN6__asan20asan_init_is_runningE 2804
__interceptor_mbsnrtowcs,mbsnrtowcs _ZN6__asan11asan_initedE 2812
__interceptor_mbsnrtowcs,mbsnrtowcs _ZN11__sanitizer21common_flags_dont_useE 2816
__interceptor_mbsnrtowcs,mbsnrtowcs .LC74 2820
__interceptor_mbsnrtowcs,mbsnrtowcs _ZN11__sanitizer12mbstate_t_szE 2824
__interceptor_mbsnrtowcs,mbsnrtowcs .LC74 2828
__interceptor_mbsnrtowcs,mbsnrtowcs .LC74 2836
__interceptor_mbsnrtowcs,mbsnrtowcs .LC74 2840
__interceptor_wcstombs,wcstombs _ZN6__asan15AsanInitFromRtlEv 112
__interceptor_wcstombs,wcstombs _ZN11__sanitizer10StackTrace12GetCurrentPcEv 212
__interceptor_wcstombs,wcstombs _ZN6__asan16GetCurrentThreadEv 256
__interceptor_wcstombs,wcstombs _ZN11__sanitizer18BufferedStackTrace6UnwindEjmmPvmmb 336
__interceptor_wcstombs,wcstombs _ZN11__sanitizer18BufferedStackTrace6UnwindEjmmPvmmb 404
__interceptor_wcstombs,wcstombs _ZN6__asan32ReportStringFunctionSizeOverflowEmmPN11__sanitizer18BufferedStackTraceE 420
__interceptor_wcstombs,wcstombs __asan_region_is_poisoned 452
__interceptor_wcstombs,wcstombs _ZN6__asan23IsInterceptorSuppressedEPKc 472
__interceptor_wcstombs,wcstombs _ZN6__asan31HaveStackTraceBasedSuppressionsEv 484
__interceptor_wcstombs,wcstombs _ZN11__sanitizer10StackTrace12GetCurrentPcEv 504
__interceptor_wcstombs,wcstombs _ZN6__asan18ReportGenericErrorEmmmmbmjb 544
__interceptor_wcstombs,wcstombs _ZN11__sanitizer10StackTrace12GetCurrentPcEv 572
__interceptor_wcstombs,wcstombs _ZN6__asan16GetCurrentThreadEv 616
__interceptor_wcstombs,wcstombs _ZN11__sanitizer18BufferedStackTrace6UnwindEjmmPvmmb 692
__interceptor_wcstombs,wcstombs _ZN11__sanitizer18BufferedStackTrace6UnwindEjmmPvmmb 760
__interceptor_wcstombs,wcstombs _ZN6__asan22IsStackTraceSuppressedEPKN11__sanitizer10StackTraceE 768
__interceptor_wcstombs,wcstombs _ZN6__asan20asan_init_is_runningE 788
__interceptor_wcstombs,wcstombs _ZN6__asan11asan_initedE 796
__interceptor_wcstombs,wcstombs _ZN11__sanitizer21common_flags_dont_useE 804
__interceptor_wcstombs,wcstombs .LC75 808
__interceptor_wcsrtombs,wcsrtombs _ZN6__asan15AsanInitFromRtlEv 104
__interceptor_wcsrtombs,wcsrtombs _ZN11__sanitizer10StackTrace12GetCurrentPcEv 160
__interceptor_wcsrtombs,wcsrtombs _ZN6__asan16GetCurrentThreadEv 196
__interceptor_wcsrtombs,wcsrtombs _ZN11__sanitizer18BufferedStackTrace6UnwindEjmmPvmmb 272
__interceptor_wcsrtombs,wcsrtombs _ZN11__sanitizer18BufferedStackTrace6UnwindEjmmPvmmb 340
__interceptor_wcsrtombs,wcsrtombs _ZN6__asan32ReportStringFunctionSizeOverflowEmmPN11__sanitizer18BufferedStackTraceE 360
__interceptor_wcsrtombs,wcsrtombs __asan_region_is_poisoned 392
__interceptor_wcsrtombs,wcsrtombs _ZN11__sanitizer10StackTrace12GetCurrentPcEv 464
__interceptor_wcsrtombs,wcsrtombs _ZN6__asan16GetCurrentThreadEv 504
__interceptor_wcsrtombs,wcsrtombs _ZN11__sanitizer18BufferedStackTrace6UnwindEjmmPvmmb 584
__interceptor_wcsrtombs,wcsrtombs _ZN6__asan23IsInterceptorSuppressedEPKc 604
__interceptor_wcsrtombs,wcsrtombs _ZN6__asan31HaveStackTraceBasedSuppressionsEv 616
__interceptor_wcsrtombs,wcsrtombs _ZN11__sanitizer10StackTrace12GetCurrentPcEv 628
__interceptor_wcsrtombs,wcsrtombs _ZN6__asan18ReportGenericErrorEmmmmbmjb 672
__interceptor_wcsrtombs,wcsrtombs _ZN11__sanitizer10StackTrace12GetCurrentPcEv 708
__interceptor_wcsrtombs,wcsrtombs _ZN6__asan16GetCurrentThreadEv 752
__interceptor_wcsrtombs,wcsrtombs _ZN11__sanitizer18BufferedStackTrace6UnwindEjmmPvmmb 832
__interceptor_wcsrtombs,wcsrtombs _ZN11__sanitizer18BufferedStackTrace6UnwindEjmmPvmmb 900
__interceptor_wcsrtombs,wcsrtombs _ZN6__asan22IsStackTraceSuppressedEPKN11__sanitizer10StackTraceE 912
__interceptor_wcsrtombs,wcsrtombs _ZN11__sanitizer18BufferedStackTrace6UnwindEjmmPvmmb 984
__interceptor_wcsrtombs,wcsrtombs _ZN6__asan32ReportStringFunctionSizeOverflowEmmPN11__sanitizer18BufferedStackTraceE 1004
__interceptor_wcsrtombs,wcsrtombs __asan_region_is_poisoned 1036
__interceptor_wcsrtombs,wcsrtombs _ZN11__sanitizer10StackTrace12GetCurrentPcEv 1192
__interceptor_wcsrtombs,wcsrtombs _ZN6__asan16GetCurrentThreadEv 1232
__interceptor_wcsrtombs,wcsrtombs _ZN11__sanitizer18BufferedStackTrace6UnwindEjmmPvmmb 1312
__interceptor_wcsrtombs,wcsrtombs _ZN6__asan23IsInterceptorSuppressedEPKc 1332
__interceptor_wcsrtombs,wcsrtombs _ZN6__asan31HaveStackTraceBasedSuppressionsEv 1344
__interceptor_wcsrtombs,wcsrtombs _ZN11__sanitizer10StackTrace12GetCurrentPcEv 1356
__interceptor_wcsrtombs,wcsrtombs _ZN6__asan18ReportGenericErrorEmmmmbmjb 1392
__interceptor_wcsrtombs,wcsrtombs _ZN11__sanitizer10StackTrace12GetCurrentPcEv 1428
__interceptor_wcsrtombs,wcsrtombs _ZN6__asan16GetCurrentThreadEv 1472
__interceptor_wcsrtombs,wcsrtombs _ZN11__sanitizer18BufferedStackTrace6UnwindEjmmPvmmb 1552
__interceptor_wcsrtombs,wcsrtombs _ZN11__sanitizer18BufferedStackTrace6UnwindEjmmPvmmb 1620
__interceptor_wcsrtombs,wcsrtombs _ZN6__asan22IsStackTraceSuppressedEPKN11__sanitizer10StackTraceE 1632
__interceptor_wcsrtombs,wcsrtombs _ZN11__sanitizer18BufferedStackTrace6UnwindEjmmPvmmb 1704
__interceptor_wcsrtombs,wcsrtombs _ZN6__asan32ReportStringFunctionSizeOverflowEmmPN11__sanitizer18BufferedStackTraceE 1720
__interceptor_wcsrtombs,wcsrtombs __asan_region_is_poisoned 1752
__interceptor_wcsrtombs,wcsrtombs _ZN6__asan23IsInterceptorSuppressedEPKc 1784
__interceptor_wcsrtombs,wcsrtombs _ZN6__asan31HaveStackTraceBasedSuppressionsEv 1796
__interceptor_wcsrtombs,wcsrtombs _ZN11__sanitizer10StackTrace12GetCurrentPcEv 1816
__interceptor_wcsrtombs,wcsrtombs _ZN6__asan18ReportGenericErrorEmmmmbmjb 1856
__interceptor_wcsrtombs,wcsrtombs _ZN11__sanitizer10StackTrace12GetCurrentPcEv 1884
__interceptor_wcsrtombs,wcsrtombs _ZN6__asan16GetCurrentThreadEv 1924
__interceptor_wcsrtombs,wcsrtombs _ZN11__sanitizer18BufferedStackTrace6UnwindEjmmPvmmb 2000
__interceptor_wcsrtombs,wcsrtombs _ZN11__sanitizer18BufferedStackTrace6UnwindEjmmPvmmb 2068
__interceptor_wcsrtombs,wcsrtombs _ZN6__asan22IsStackTraceSuppressedEPKN11__sanitizer10StackTraceE 2076
__interceptor_wcsrtombs,wcsrtombs _ZN6__asan20asan_init_is_runningE 2136
__interceptor_wcsrtombs,wcsrtombs _ZN6__asan11asan_initedE 2144
__interceptor_wcsrtombs,wcsrtombs _ZN11__sanitizer21common_flags_dont_useE 2148
__interceptor_wcsrtombs,wcsrtombs _ZN11__sanitizer12mbstate_t_szE 2152
__interceptor_wcsrtombs,wcsrtombs .LC76 2156
__interceptor_wcsrtombs,wcsrtombs .LC76 2164
__interceptor_wcsrtombs,wcsrtombs .LC76 2168
__interceptor_wcsnrtombs,wcsnrtombs _ZN6__asan15AsanInitFromRtlEv 112
__interceptor_wcsnrtombs,wcsnrtombs _ZN11__sanitizer10StackTrace12GetCurrentPcEv 164
__interceptor_wcsnrtombs,wcsnrtombs _ZN6__asan16GetCurrentThreadEv 200
__interceptor_wcsnrtombs,wcsnrtombs _ZN11__sanitizer18BufferedStackTrace6UnwindEjmmPvmmb 276
__interceptor_wcsnrtombs,wcsnrtombs _ZN11__sanitizer18BufferedStackTrace6UnwindEjmmPvmmb 344
__interceptor_wcsnrtombs,wcsnrtombs _ZN6__asan32ReportStringFunctionSizeOverflowEmmPN11__sanitizer18BufferedStackTraceE 364
__interceptor_wcsnrtombs,wcsnrtombs __asan_region_is_poisoned 396
__interceptor_wcsnrtombs,wcsnrtombs _ZN11__sanitizer10StackTrace12GetCurrentPcEv 464
__interceptor_wcsnrtombs,wcsnrtombs _ZN6__asan16GetCurrentThreadEv 504
__interceptor_wcsnrtombs,wcsnrtombs _ZN11__sanitizer18BufferedStackTrace6UnwindEjmmPvmmb 584
__interceptor_wcsnrtombs,wcsnrtombs _ZN6__asan23IsInterceptorSuppressedEPKc 604
__interceptor_wcsnrtombs,wcsnrtombs _ZN6__asan31HaveStackTraceBasedSuppressionsEv 616
__interceptor_wcsnrtombs,wcsnrtombs _ZN11__sanitizer10StackTrace12GetCurrentPcEv 628
__interceptor_wcsnrtombs,wcsnrtombs _ZN6__asan18ReportGenericErrorEmmmmbmjb 672
__interceptor_wcsnrtombs,wcsnrtombs _ZN11__sanitizer10StackTrace12GetCurrentPcEv 708
__interceptor_wcsnrtombs,wcsnrtombs _ZN6__asan16GetCurrentThreadEv 752
__interceptor_wcsnrtombs,wcsnrtombs _ZN11__sanitizer18BufferedStackTrace6UnwindEjmmPvmmb 832
__interceptor_wcsnrtombs,wcsnrtombs _ZN11__sanitizer18BufferedStackTrace6UnwindEjmmPvmmb 900
__interceptor_wcsnrtombs,wcsnrtombs _ZN6__asan22IsStackTraceSuppressedEPKN11__sanitizer10StackTraceE 912
__interceptor_wcsnrtombs,wcsnrtombs _ZN11__sanitizer18BufferedStackTrace6UnwindEjmmPvmmb 984
__interceptor_wcsnrtombs,wcsnrtombs _ZN6__asan32ReportStringFunctionSizeOverflowEmmPN11__sanitizer18BufferedStackTraceE 1004
__interceptor_wcsnrtombs,wcsnrtombs __asan_region_is_poisoned 1036
__interceptor_wcsnrtombs,wcsnrtombs _ZN11__sanitizer10StackTrace12GetCurrentPcEv 1116
__interceptor_wcsnrtombs,wcsnrtombs _ZN6__asan16GetCurrentThreadEv 1156
__interceptor_wcsnrtombs,wcsnrtombs _ZN11__sanitizer18BufferedStackTrace6UnwindEjmmPvmmb 1236
__interceptor_wcsnrtombs,wcsnrtombs _ZN6__asan23IsInterceptorSuppressedEPKc 1256
__interceptor_wcsnrtombs,wcsnrtombs _ZN6__asan31HaveStackTraceBasedSuppressionsEv 1268
__interceptor_wcsnrtombs,wcsnrtombs _ZN11__sanitizer10StackTrace12GetCurrentPcEv 1280
__interceptor_wcsnrtombs,wcsnrtombs _ZN6__asan18ReportGenericErrorEmmmmbmjb 1324
__interceptor_wcsnrtombs,wcsnrtombs _ZN11__sanitizer10StackTrace12GetCurrentPcEv 1360
__interceptor_wcsnrtombs,wcsnrtombs _ZN6__asan16GetCurrentThreadEv 1404
__interceptor_wcsnrtombs,wcsnrtombs _ZN11__sanitizer18BufferedStackTrace6UnwindEjmmPvmmb 1484
__interceptor_wcsnrtombs,wcsnrtombs _ZN11__sanitizer18BufferedStackTrace6UnwindEjmmPvmmb 1552
__interceptor_wcsnrtombs,wcsnrtombs _ZN6__asan22IsStackTraceSuppressedEPKN11__sanitizer10StackTraceE 1564
__interceptor_wcsnrtombs,wcsnrtombs _ZN11__sanitizer18BufferedStackTrace6UnwindEjmmPvmmb 1636
__interceptor_wcsnrtombs,wcsnrtombs _ZN6__asan32ReportStringFunctionSizeOverflowEmmPN11__sanitizer18BufferedStackTraceE 1656
__interceptor_wcsnrtombs,wcsnrtombs __asan_region_is_poisoned 1688
__interceptor_wcsnrtombs,wcsnrtombs _ZN11__sanitizer10StackTrace12GetCurrentPcEv 1844
__interceptor_wcsnrtombs,wcsnrtombs _ZN6__asan16GetCurrentThreadEv 1884
__interceptor_wcsnrtombs,wcsnrtombs _ZN11__sanitizer18BufferedStackTrace6UnwindEjmmPvmmb 1964
__interceptor_wcsnrtombs,wcsnrtombs _ZN6__asan23IsInterceptorSuppressedEPKc 1984
__interceptor_wcsnrtombs,wcsnrtombs _ZN6__asan31HaveStackTraceBasedSuppressionsEv 1996
__interceptor_wcsnrtombs,wcsnrtombs _ZN11__sanitizer10StackTrace12GetCurrentPcEv 2008
__interceptor_wcsnrtombs,wcsnrtombs _ZN6__asan18ReportGenericErrorEmmmmbmjb 2044
__interceptor_wcsnrtombs,wcsnrtombs _ZN11__sanitizer10StackTrace12GetCurrentPcEv 2080
__interceptor_wcsnrtombs,wcsnrtombs _ZN6__asan16GetCurrentThreadEv 2124
__interceptor_wcsnrtombs,wcsnrtombs _ZN11__sanitizer18BufferedStackTrace6UnwindEjmmPvmmb 2204
__interceptor_wcsnrtombs,wcsnrtombs _ZN11__sanitizer18BufferedStackTrace6UnwindEjmmPvmmb 2272
__interceptor_wcsnrtombs,wcsnrtombs _ZN6__asan22IsStackTraceSuppressedEPKN11__sanitizer10StackTraceE 2284
__interceptor_wcsnrtombs,wcsnrtombs _ZN11__sanitizer18BufferedStackTrace6UnwindEjmmPvmmb 2356
__interceptor_wcsnrtombs,wcsnrtombs _ZN6__asan32ReportStringFunctionSizeOverflowEmmPN11__sanitizer18BufferedStackTraceE 2372
__interceptor_wcsnrtombs,wcsnrtombs __asan_region_is_poisoned 2404
__interceptor_wcsnrtombs,wcsnrtombs _ZN6__asan23IsInterceptorSuppressedEPKc 2436
__interceptor_wcsnrtombs,wcsnrtombs _ZN6__asan31HaveStackTraceBasedSuppressionsEv 2448
__interceptor_wcsnrtombs,wcsnrtombs _ZN11__sanitizer10StackTrace12GetCurrentPcEv 2468
__interceptor_wcsnrtombs,wcsnrtombs _ZN6__asan18ReportGenericErrorEmmmmbmjb 2508
__interceptor_wcsnrtombs,wcsnrtombs _ZN11__sanitizer10StackTrace12GetCurrentPcEv 2536
__interceptor_wcsnrtombs,wcsnrtombs _ZN6__asan16GetCurrentThreadEv 2576
__interceptor_wcsnrtombs,wcsnrtombs _ZN11__sanitizer18BufferedStackTrace6UnwindEjmmPvmmb 2652
__interceptor_wcsnrtombs,wcsnrtombs _ZN11__sanitizer18BufferedStackTrace6UnwindEjmmPvmmb 2720
__interceptor_wcsnrtombs,wcsnrtombs _ZN6__asan22IsStackTraceSuppressedEPKN11__sanitizer10StackTraceE 2728
__interceptor_wcsnrtombs,wcsnrtombs _ZN6__asan20asan_init_is_runningE 2800
__interceptor_wcsnrtombs,wcsnrtombs _ZN6__asan11asan_initedE 2808
__interceptor_wcsnrtombs,wcsnrtombs _ZN11__sanitizer21common_flags_dont_useE 2812
__interceptor_wcsnrtombs,wcsnrtombs .LC77 2816
__interceptor_wcsnrtombs,wcsnrtombs _ZN11__sanitizer12mbstate_t_szE 2820
__interceptor_wcsnrtombs,wcsnrtombs .LC77 2824
__interceptor_wcsnrtombs,wcsnrtombs .LC77 2832
__interceptor_wcsnrtombs,wcsnrtombs .LC77 2836
__interceptor_wcrtomb,wcrtomb _ZN6__asan15AsanInitFromRtlEv 108
__interceptor_wcrtomb,wcrtomb _ZN11__sanitizer10StackTrace12GetCurrentPcEv 176
__interceptor_wcrtomb,wcrtomb _ZN6__asan16GetCurrentThreadEv 216
__interceptor_wcrtomb,wcrtomb _ZN11__sanitizer18BufferedStackTrace6UnwindEjmmPvmmb 296
__interceptor_wcrtomb,wcrtomb _ZN11__sanitizer18BufferedStackTrace6UnwindEjmmPvmmb 364
__interceptor_wcrtomb,wcrtomb _ZN6__asan32ReportStringFunctionSizeOverflowEmmPN11__sanitizer18BufferedStackTraceE 384
__interceptor_wcrtomb,wcrtomb __asan_region_is_poisoned 416
__interceptor_wcrtomb,wcrtomb _ZN11__sanitizer10StackTrace12GetCurrentPcEv 516
__interceptor_wcrtomb,wcrtomb _ZN6__asan16GetCurrentThreadEv 556
__interceptor_wcrtomb,wcrtomb _ZN11__sanitizer18BufferedStackTrace6UnwindEjmmPvmmb 636
__interceptor_wcrtomb,wcrtomb _ZN6__asan23IsInterceptorSuppressedEPKc 656
__interceptor_wcrtomb,wcrtomb _ZN6__asan31HaveStackTraceBasedSuppressionsEv 668
__interceptor_wcrtomb,wcrtomb _ZN11__sanitizer10StackTrace12GetCurrentPcEv 680
__interceptor_wcrtomb,wcrtomb _ZN6__asan18ReportGenericErrorEmmmmbmjb 724
__interceptor_wcrtomb,wcrtomb _ZN11__sanitizer10StackTrace12GetCurrentPcEv 760
__interceptor_wcrtomb,wcrtomb _ZN6__asan16GetCurrentThreadEv 804
__interceptor_wcrtomb,wcrtomb _ZN11__sanitizer18BufferedStackTrace6UnwindEjmmPvmmb 884
__interceptor_wcrtomb,wcrtomb _ZN11__sanitizer18BufferedStackTrace6UnwindEjmmPvmmb 952
__interceptor_wcrtomb,wcrtomb _ZN6__asan22IsStackTraceSuppressedEPKN11__sanitizer10StackTraceE 964
__interceptor_wcrtomb,wcrtomb _ZN11__sanitizer18BufferedStackTrace6UnwindEjmmPvmmb 1036
__interceptor_wcrtomb,wcrtomb _ZN6__asan32ReportStringFunctionSizeOverflowEmmPN11__sanitizer18BufferedStackTraceE 1052
__interceptor_wcrtomb,wcrtomb __asan_region_is_poisoned 1084
__interceptor_wcrtomb,wcrtomb _ZN6__asan23IsInterceptorSuppressedEPKc 1104
__interceptor_wcrtomb,wcrtomb _ZN6__asan31HaveStackTraceBasedSuppressionsEv 1116
__interceptor_wcrtomb,wcrtomb _ZN11__sanitizer10StackTrace12GetCurrentPcEv 1136
__interceptor_wcrtomb,wcrtomb _ZN6__asan18ReportGenericErrorEmmmmbmjb 1176
__interceptor_wcrtomb,wcrtomb _ZN11__sanitizer10StackTrace12GetCurrentPcEv 1204
__interceptor_wcrtomb,wcrtomb _ZN6__asan16GetCurrentThreadEv 1240
__interceptor_wcrtomb,wcrtomb _ZN11__sanitizer18BufferedStackTrace6UnwindEjmmPvmmb 1316
__interceptor_wcrtomb,wcrtomb _ZN11__sanitizer18BufferedStackTrace6UnwindEjmmPvmmb 1388
__interceptor_wcrtomb,wcrtomb _ZN6__asan22IsStackTraceSuppressedEPKN11__sanitizer10StackTraceE 1396
__interceptor_wcrtomb,wcrtomb _ZN6__asan20asan_init_is_runningE 1416
__interceptor_wcrtomb,wcrtomb _ZN6__asan11asan_initedE 1424
__interceptor_wcrtomb,wcrtomb _ZN11__sanitizer12mbstate_t_szE 1428
__interceptor_wcrtomb,wcrtomb _ZN11__sanitizer21common_flags_dont_useE 1432
__interceptor_wcrtomb,wcrtomb .LC78 1440
__interceptor_wcrtomb,wcrtomb .LC78 1444
__interceptor_tcgetattr,tcgetattr _ZN6__asan15AsanInitFromRtlEv 96
__interceptor_tcgetattr,tcgetattr _ZN11__sanitizer10StackTrace12GetCurrentPcEv 200
__interceptor_tcgetattr,tcgetattr _ZN6__asan16GetCurrentThreadEv 240
__interceptor_tcgetattr,tcgetattr _ZN11__sanitizer18BufferedStackTrace6UnwindEjmmPvmmb 320
__interceptor_tcgetattr,tcgetattr __asan_region_is_poisoned 340
__interceptor_tcgetattr,tcgetattr _ZN6__asan23IsInterceptorSuppressedEPKc 364
__interceptor_tcgetattr,tcgetattr _ZN6__asan31HaveStackTraceBasedSuppressionsEv 376
__interceptor_tcgetattr,tcgetattr _ZN11__sanitizer10StackTrace12GetCurrentPcEv 396
__interceptor_tcgetattr,tcgetattr _ZN6__asan18ReportGenericErrorEmmmmbmjb 436
__interceptor_tcgetattr,tcgetattr _ZN11__sanitizer18BufferedStackTrace6UnwindEjmmPvmmb 500
__interceptor_tcgetattr,tcgetattr _ZN6__asan32ReportStringFunctionSizeOverflowEmmPN11__sanitizer18BufferedStackTraceE 516
__interceptor_tcgetattr,tcgetattr _ZN11__sanitizer10StackTrace12GetCurrentPcEv 568
__interceptor_tcgetattr,tcgetattr _ZN6__asan16GetCurrentThreadEv 604
__interceptor_tcgetattr,tcgetattr _ZN11__sanitizer18BufferedStackTrace6UnwindEjmmPvmmb 680
__interceptor_tcgetattr,tcgetattr _ZN11__sanitizer18BufferedStackTrace6UnwindEjmmPvmmb 752
__interceptor_tcgetattr,tcgetattr _ZN6__asan22IsStackTraceSuppressedEPKN11__sanitizer10StackTraceE 760
__interceptor_tcgetattr,tcgetattr _ZN6__asan20asan_init_is_runningE 780
__interceptor_tcgetattr,tcgetattr _ZN6__asan11asan_initedE 788
__interceptor_tcgetattr,tcgetattr _ZN11__sanitizer17struct_termios_szE 796
__interceptor_tcgetattr,tcgetattr _ZN11__sanitizer21common_flags_dont_useE 800
__interceptor_tcgetattr,tcgetattr .LC79 804
__interceptor_realpath,realpath _ZN6__asan15AsanInitFromRtlEv 104
__interceptor_realpath,realpath _ZN11__sanitizer10StackTrace12GetCurrentPcEv 180
__interceptor_realpath,realpath _ZN6__asan16GetCurrentThreadEv 220
__interceptor_realpath,realpath _ZN11__sanitizer18BufferedStackTrace6UnwindEjmmPvmmb 308
__interceptor_realpath,realpath _ZN11__sanitizer10StackTrace12GetCurrentPcEv 380
__interceptor_realpath,realpath _ZN6__asan16GetCurrentThreadEv 420
__interceptor_realpath,realpath _ZN11__sanitizer18BufferedStackTrace6UnwindEjmmPvmmb 500
__interceptor_realpath,realpath _ZN11__sanitizer18BufferedStackTrace6UnwindEjmmPvmmb 568
__interceptor_realpath,realpath _ZN6__asan32ReportStringFunctionSizeOverflowEmmPN11__sanitizer18BufferedStackTraceE 584
__interceptor_realpath,realpath __asan_region_is_poisoned 616
__interceptor_realpath,realpath __interceptor_malloc 660
__interceptor_realpath,realpath __interceptor_free 728
__interceptor_realpath,realpath _ZN6__asan23IsInterceptorSuppressedEPKc 748
__interceptor_realpath,realpath _ZN6__asan31HaveStackTraceBasedSuppressionsEv 760
__interceptor_realpath,realpath _ZN11__sanitizer10StackTrace12GetCurrentPcEv 772
__interceptor_realpath,realpath _ZN6__asan18ReportGenericErrorEmmmmbmjb 808
__interceptor_realpath,realpath _ZN11__sanitizer10StackTrace12GetCurrentPcEv 844
__interceptor_realpath,realpath _ZN6__asan16GetCurrentThreadEv 888
__interceptor_realpath,realpath _ZN11__sanitizer18BufferedStackTrace6UnwindEjmmPvmmb 976
__interceptor_realpath,realpath _ZN11__sanitizer18BufferedStackTrace6UnwindEjmmPvmmb 1048
__interceptor_realpath,realpath _ZN6__asan22IsStackTraceSuppressedEPKN11__sanitizer10StackTraceE 1060
__interceptor_realpath,realpath _ZN11__sanitizer18BufferedStackTrace6UnwindEjmmPvmmb 1132
__interceptor_realpath,realpath _ZN6__asan32ReportStringFunctionSizeOverflowEmmPN11__sanitizer18BufferedStackTraceE 1148
__interceptor_realpath,realpath __asan_region_is_poisoned 1180
__interceptor_realpath,realpath _ZN6__asan23IsInterceptorSuppressedEPKc 1200
__interceptor_realpath,realpath _ZN6__asan31HaveStackTraceBasedSuppressionsEv 1212
__interceptor_realpath,realpath _ZN11__sanitizer10StackTrace12GetCurrentPcEv 1232
__interceptor_realpath,realpath _ZN6__asan18ReportGenericErrorEmmmmbmjb 1272
__interceptor_realpath,realpath _ZN11__sanitizer10StackTrace12GetCurrentPcEv 1300
__interceptor_realpath,realpath _ZN6__asan16GetCurrentThreadEv 1340
__interceptor_realpath,realpath _ZN11__sanitizer18BufferedStackTrace6UnwindEjmmPvmmb 1416
__interceptor_realpath,realpath _ZN11__sanitizer18BufferedStackTrace6UnwindEjmmPvmmb 1484
__interceptor_realpath,realpath _ZN6__asan22IsStackTraceSuppressedEPKN11__sanitizer10StackTraceE 1492
__interceptor_realpath,realpath _ZN6__asan20asan_init_is_runningE 1512
__interceptor_realpath,realpath _ZN6__asan11asan_initedE 1520
__interceptor_realpath,realpath _ZN11__sanitizer21common_flags_dont_useE 1528
__interceptor_realpath,realpath _ZN11__sanitizer8path_maxE 1532
__interceptor_realpath,realpath .LC80 1540
__interceptor_realpath,realpath .LC80 1544
__interceptor_canonicalize_file_name,canonicalize_file_name _ZN6__asan15AsanInitFromRtlEv 100
__interceptor_canonicalize_file_name,canonicalize_file_name _ZN11__sanitizer10StackTrace12GetCurrentPcEv 176
__interceptor_canonicalize_file_name,canonicalize_file_name _ZN6__asan16GetCurrentThreadEv 216
__interceptor_canonicalize_file_name,canonicalize_file_name _ZN11__sanitizer18BufferedStackTrace6UnwindEjmmPvmmb 296
__interceptor_canonicalize_file_name,canonicalize_file_name _ZN11__sanitizer18BufferedStackTrace6UnwindEjmmPvmmb 364
__interceptor_canonicalize_file_name,canonicalize_file_name _ZN6__asan32ReportStringFunctionSizeOverflowEmmPN11__sanitizer18BufferedStackTraceE 380
__interceptor_canonicalize_file_name,canonicalize_file_name __asan_region_is_poisoned 412
__interceptor_canonicalize_file_name,canonicalize_file_name _ZN11__sanitizer10StackTrace12GetCurrentPcEv 508
__interceptor_canonicalize_file_name,canonicalize_file_name _ZN6__asan16GetCurrentThreadEv 548
__interceptor_canonicalize_file_name,canonicalize_file_name _ZN11__sanitizer18BufferedStackTrace6UnwindEjmmPvmmb 628
__interceptor_canonicalize_file_name,canonicalize_file_name _ZN6__asan23IsInterceptorSuppressedEPKc 648
__interceptor_canonicalize_file_name,canonicalize_file_name _ZN6__asan31HaveStackTraceBasedSuppressionsEv 660
__interceptor_canonicalize_file_name,canonicalize_file_name _ZN11__sanitizer10StackTrace12GetCurrentPcEv 680
__interceptor_canonicalize_file_name,canonicalize_file_name _ZN6__asan18ReportGenericErrorEmmmmbmjb 712
__interceptor_canonicalize_file_name,canonicalize_file_name _ZN11__sanitizer10StackTrace12GetCurrentPcEv 740
__interceptor_canonicalize_file_name,canonicalize_file_name _ZN6__asan16GetCurrentThreadEv 784
__interceptor_canonicalize_file_name,canonicalize_file_name _ZN11__sanitizer18BufferedStackTrace6UnwindEjmmPvmmb 864
__interceptor_canonicalize_file_name,canonicalize_file_name _ZN11__sanitizer18BufferedStackTrace6UnwindEjmmPvmmb 932
__interceptor_canonicalize_file_name,canonicalize_file_name _ZN6__asan22IsStackTraceSuppressedEPKN11__sanitizer10StackTraceE 940
__interceptor_canonicalize_file_name,canonicalize_file_name _ZN11__sanitizer18BufferedStackTrace6UnwindEjmmPvmmb 1012
__interceptor_canonicalize_file_name,canonicalize_file_name _ZN6__asan32ReportStringFunctionSizeOverflowEmmPN11__sanitizer18BufferedStackTraceE 1028
__interceptor_canonicalize_file_name,canonicalize_file_name __asan_region_is_poisoned 1060
__interceptor_canonicalize_file_name,canonicalize_file_name _ZN6__asan23IsInterceptorSuppressedEPKc 1080
__interceptor_canonicalize_file_name,canonicalize_file_name _ZN6__asan31HaveStackTraceBasedSuppressionsEv 1092
__interceptor_canonicalize_file_name,canonicalize_file_name _ZN11__sanitizer10StackTrace12GetCurrentPcEv 1112
__interceptor_canonicalize_file_name,canonicalize_file_name _ZN6__asan18ReportGenericErrorEmmmmbmjb 1152
__interceptor_canonicalize_file_name,canonicalize_file_name _ZN11__sanitizer10StackTrace12GetCurrentPcEv 1180
__interceptor_canonicalize_file_name,canonicalize_file_name _ZN6__asan16GetCurrentThreadEv 1220
__interceptor_canonicalize_file_name,canonicalize_file_name _ZN11__sanitizer18BufferedStackTrace6UnwindEjmmPvmmb 1296
__interceptor_canonicalize_file_name,canonicalize_file_name _ZN11__sanitizer18BufferedStackTrace6UnwindEjmmPvmmb 1364
__interceptor_canonicalize_file_name,canonicalize_file_name _ZN6__asan22IsStackTraceSuppressedEPKN11__sanitizer10StackTraceE 1372
__interceptor_canonicalize_file_name,canonicalize_file_name _ZN6__asan20asan_init_is_runningE 1392
__interceptor_canonicalize_file_name,canonicalize_file_name _ZN6__asan11asan_initedE 1400
__interceptor_canonicalize_file_name,canonicalize_file_name _ZN11__sanitizer21common_flags_dont_useE 1408
__interceptor_canonicalize_file_name,canonicalize_file_name .LC81 1416
__interceptor_canonicalize_file_name,canonicalize_file_name .LC81 1420
__interceptor_confstr,confstr _ZN6__asan15AsanInitFromRtlEv 112
__interceptor_confstr,confstr _ZN11__sanitizer10StackTrace12GetCurrentPcEv 208
__interceptor_confstr,confstr _ZN6__asan16GetCurrentThreadEv 252
__interceptor_confstr,confstr _ZN11__sanitizer18BufferedStackTrace6UnwindEjmmPvmmb 332
__interceptor_confstr,confstr _ZN11__sanitizer18BufferedStackTrace6UnwindEjmmPvmmb 400
__interceptor_confstr,confstr _ZN6__asan32ReportStringFunctionSizeOverflowEmmPN11__sanitizer18BufferedStackTraceE 416
__interceptor_confstr,confstr __asan_region_is_poisoned 448
__interceptor_confstr,confstr _ZN6__asan23IsInterceptorSuppressedEPKc 468
__interceptor_confstr,confstr _ZN6__asan31HaveStackTraceBasedSuppressionsEv 480
__interceptor_confstr,confstr _ZN11__sanitizer10StackTrace12GetCurrentPcEv 500
__interceptor_confstr,confstr _ZN6__asan18ReportGenericErrorEmmmmbmjb 540
__interceptor_confstr,confstr _ZN11__sanitizer10StackTrace12GetCurrentPcEv 568
__interceptor_confstr,confstr _ZN6__asan16GetCurrentThreadEv 612
__interceptor_confstr,confstr _ZN11__sanitizer18BufferedStackTrace6UnwindEjmmPvmmb 688
__interceptor_confstr,confstr _ZN11__sanitizer18BufferedStackTrace6UnwindEjmmPvmmb 756
__interceptor_confstr,confstr _ZN6__asan22IsStackTraceSuppressedEPKN11__sanitizer10StackTraceE 764
__interceptor_confstr,confstr _ZN6__asan20asan_init_is_runningE 784
__interceptor_confstr,confstr _ZN6__asan11asan_initedE 792
__interceptor_confstr,confstr _ZN11__sanitizer21common_flags_dont_useE 800
__interceptor_confstr,confstr .LC82 804
__interceptor_sched_getaffinity,sched_getaffinity _ZN6__asan15AsanInitFromRtlEv 100
__interceptor_sched_getaffinity,sched_getaffinity _ZN11__sanitizer10StackTrace12GetCurrentPcEv 196
__interceptor_sched_getaffinity,sched_getaffinity _ZN6__asan16GetCurrentThreadEv 236
__interceptor_sched_getaffinity,sched_getaffinity _ZN11__sanitizer18BufferedStackTrace6UnwindEjmmPvmmb 316
__interceptor_sched_getaffinity,sched_getaffinity __asan_region_is_poisoned 336
__interceptor_sched_getaffinity,sched_getaffinity _ZN6__asan23IsInterceptorSuppressedEPKc 360
__interceptor_sched_getaffinity,sched_getaffinity _ZN6__asan31HaveStackTraceBasedSuppressionsEv 372
__interceptor_sched_getaffinity,sched_getaffinity _ZN11__sanitizer10StackTrace12GetCurrentPcEv 392
__interceptor_sched_getaffinity,sched_getaffinity _ZN6__asan18ReportGenericErrorEmmmmbmjb 432
__interceptor_sched_getaffinity,sched_getaffinity _ZN11__sanitizer18BufferedStackTrace6UnwindEjmmPvmmb 496
__interceptor_sched_getaffinity,sched_getaffinity _ZN6__asan32ReportStringFunctionSizeOverflowEmmPN11__sanitizer18BufferedStackTraceE 512
__interceptor_sched_getaffinity,sched_getaffinity _ZN11__sanitizer10StackTrace12GetCurrentPcEv 564
__interceptor_sched_getaffinity,sched_getaffinity _ZN6__asan16GetCurrentThreadEv 600
__interceptor_sched_getaffinity,sched_getaffinity _ZN11__sanitizer18BufferedStackTrace6UnwindEjmmPvmmb 676
__interceptor_sched_getaffinity,sched_getaffinity _ZN11__sanitizer18BufferedStackTrace6UnwindEjmmPvmmb 748
__interceptor_sched_getaffinity,sched_getaffinity _ZN6__asan22IsStackTraceSuppressedEPKN11__sanitizer10StackTraceE 756
__interceptor_sched_getaffinity,sched_getaffinity _ZN6__asan20asan_init_is_runningE 776
__interceptor_sched_getaffinity,sched_getaffinity _ZN6__asan11asan_initedE 784
__interceptor_sched_getaffinity,sched_getaffinity _ZN11__sanitizer21common_flags_dont_useE 792
__interceptor_sched_getaffinity,sched_getaffinity .LC83 796
__interceptor_sched_getparam,sched_getparam _ZN6__asan15AsanInitFromRtlEv 104
__interceptor_sched_getparam,sched_getparam _ZN11__sanitizer10StackTrace12GetCurrentPcEv 188
__interceptor_sched_getparam,sched_getparam _ZN6__asan16GetCurrentThreadEv 228
__interceptor_sched_getparam,sched_getparam _ZN11__sanitizer18BufferedStackTrace6UnwindEjmmPvmmb 308
__interceptor_sched_getparam,sched_getparam _ZN11__sanitizer18BufferedStackTrace6UnwindEjmmPvmmb 376
__interceptor_sched_getparam,sched_getparam _ZN6__asan32ReportStringFunctionSizeOverflowEmmPN11__sanitizer18BufferedStackTraceE 392
__interceptor_sched_getparam,sched_getparam __asan_region_is_poisoned 424
__interceptor_sched_getparam,sched_getparam _ZN6__asan23IsInterceptorSuppressedEPKc 444
__interceptor_sched_getparam,sched_getparam _ZN6__asan31HaveStackTraceBasedSuppressionsEv 456
__interceptor_sched_getparam,sched_getparam _ZN11__sanitizer10StackTrace12GetCurrentPcEv 476
__interceptor_sched_getparam,sched_getparam _ZN6__asan18ReportGenericErrorEmmmmbmjb 516
__interceptor_sched_getparam,sched_getparam _ZN11__sanitizer10StackTrace12GetCurrentPcEv 544
__interceptor_sched_getparam,sched_getparam _ZN6__asan16GetCurrentThreadEv 584
__interceptor_sched_getparam,sched_getparam _ZN11__sanitizer18BufferedStackTrace6UnwindEjmmPvmmb 660
__interceptor_sched_getparam,sched_getparam _ZN11__sanitizer18BufferedStackTrace6UnwindEjmmPvmmb 728
__interceptor_sched_getparam,sched_getparam _ZN6__asan22IsStackTraceSuppressedEPKN11__sanitizer10StackTraceE 736
__interceptor_sched_getparam,sched_getparam _ZN6__asan20asan_init_is_runningE 756
__interceptor_sched_getparam,sched_getparam _ZN6__asan11asan_initedE 764
__interceptor_sched_getparam,sched_getparam _ZN11__sanitizer21struct_sched_param_szE 772
__interceptor_sched_getparam,sched_getparam _ZN11__sanitizer21common_flags_dont_useE 776
__interceptor_sched_getparam,sched_getparam .LC84 780
__interceptor_strerror_r,strerror_r _ZN6__asan15AsanInitFromRtlEv 108
__interceptor_strerror_r,strerror_r _ZN11__sanitizer16internal_strnlenEPKcm 164
__interceptor_strerror_r,strerror_r _ZN11__sanitizer10StackTrace12GetCurrentPcEv 220
__interceptor_strerror_r,strerror_r _ZN6__asan16GetCurrentThreadEv 260
__interceptor_strerror_r,strerror_r _ZN11__sanitizer18BufferedStackTrace6UnwindEjmmPvmmb 348
__interceptor_strerror_r,strerror_r _ZN11__sanitizer10StackTrace12GetCurrentPcEv 416
__interceptor_strerror_r,strerror_r _ZN6__asan16GetCurrentThreadEv 456
__interceptor_strerror_r,strerror_r _ZN11__sanitizer18BufferedStackTrace6UnwindEjmmPvmmb 536
__interceptor_strerror_r,strerror_r _ZN11__sanitizer18BufferedStackTrace6UnwindEjmmPvmmb 604
__interceptor_strerror_r,strerror_r _ZN6__asan32ReportStringFunctionSizeOverflowEmmPN11__sanitizer18BufferedStackTraceE 620
__interceptor_strerror_r,strerror_r __asan_region_is_poisoned 652
__interceptor_strerror_r,strerror_r _ZN6__asan23IsInterceptorSuppressedEPKc 672
__interceptor_strerror_r,strerror_r _ZN6__asan31HaveStackTraceBasedSuppressionsEv 684
__interceptor_strerror_r,strerror_r _ZN11__sanitizer10StackTrace12GetCurrentPcEv 704
__interceptor_strerror_r,strerror_r _ZN6__asan18ReportGenericErrorEmmmmbmjb 744
__interceptor_strerror_r,strerror_r _ZN11__sanitizer10StackTrace12GetCurrentPcEv 772
__interceptor_strerror_r,strerror_r _ZN6__asan16GetCurrentThreadEv 812
__interceptor_strerror_r,strerror_r _ZN11__sanitizer18BufferedStackTrace6UnwindEjmmPvmmb 888
__interceptor_strerror_r,strerror_r _ZN11__sanitizer18BufferedStackTrace6UnwindEjmmPvmmb 956
__interceptor_strerror_r,strerror_r _ZN6__asan22IsStackTraceSuppressedEPKN11__sanitizer10StackTraceE 964
__interceptor_strerror_r,strerror_r _ZN11__sanitizer18BufferedStackTrace6UnwindEjmmPvmmb 1036
__interceptor_strerror_r,strerror_r _ZN6__asan32ReportStringFunctionSizeOverflowEmmPN11__sanitizer18BufferedStackTraceE 1052
__interceptor_strerror_r,strerror_r __asan_region_is_poisoned 1084
__interceptor_strerror_r,strerror_r _ZN6__asan23IsInterceptorSuppressedEPKc 1108
__interceptor_strerror_r,strerror_r _ZN6__asan31HaveStackTraceBasedSuppressionsEv 1120
__interceptor_strerror_r,strerror_r _ZN11__sanitizer10StackTrace12GetCurrentPcEv 1140
__interceptor_strerror_r,strerror_r _ZN11__sanitizer10StackTrace12GetCurrentPcEv 1200
__interceptor_strerror_r,strerror_r _ZN6__asan16GetCurrentThreadEv 1240
__interceptor_strerror_r,strerror_r _ZN11__sanitizer18BufferedStackTrace6UnwindEjmmPvmmb 1316
__interceptor_strerror_r,strerror_r _ZN11__sanitizer18BufferedStackTrace6UnwindEjmmPvmmb 1384
__interceptor_strerror_r,strerror_r _ZN6__asan22IsStackTraceSuppressedEPKN11__sanitizer10StackTraceE 1392
__interceptor_strerror_r,strerror_r _ZN6__asan20asan_init_is_runningE 1412
__interceptor_strerror_r,strerror_r _ZN6__asan11asan_initedE 1420
__interceptor_strerror_r,strerror_r _ZN11__sanitizer21common_flags_dont_useE 1428
__interceptor_strerror_r,strerror_r .LC85 1432
__interceptor_strerror_r,strerror_r .LC85 1436
__interceptor___xpg_strerror_r,__xpg_strerror_r _ZN6__asan15AsanInitFromRtlEv 108
__interceptor___xpg_strerror_r,__xpg_strerror_r _ZN11__sanitizer10StackTrace12GetCurrentPcEv 212
__interceptor___xpg_strerror_r,__xpg_strerror_r _ZN6__asan16GetCurrentThreadEv 252
__interceptor___xpg_strerror_r,__xpg_strerror_r _ZN11__sanitizer18BufferedStackTrace6UnwindEjmmPvmmb 332
__interceptor___xpg_strerror_r,__xpg_strerror_r _ZN11__sanitizer18BufferedStackTrace6UnwindEjmmPvmmb 400
__interceptor___xpg_strerror_r,__xpg_strerror_r _ZN6__asan32ReportStringFunctionSizeOverflowEmmPN11__sanitizer18BufferedStackTraceE 416
__interceptor___xpg_strerror_r,__xpg_strerror_r __asan_region_is_poisoned 448
__interceptor___xpg_strerror_r,__xpg_strerror_r _ZN6__asan23IsInterceptorSuppressedEPKc 468
__interceptor___xpg_strerror_r,__xpg_strerror_r _ZN6__asan31HaveStackTraceBasedSuppressionsEv 480
__interceptor___xpg_strerror_r,__xpg_strerror_r _ZN11__sanitizer10StackTrace12GetCurrentPcEv 500
__interceptor___xpg_strerror_r,__xpg_strerror_r _ZN6__asan18ReportGenericErrorEmmmmbmjb 540
__interceptor___xpg_strerror_r,__xpg_strerror_r _ZN11__sanitizer10StackTrace12GetCurrentPcEv 568
__interceptor___xpg_strerror_r,__xpg_strerror_r _ZN6__asan16GetCurrentThreadEv 608
__interceptor___xpg_strerror_r,__xpg_strerror_r _ZN11__sanitizer18BufferedStackTrace6UnwindEjmmPvmmb 684
__interceptor___xpg_strerror_r,__xpg_strerror_r _ZN11__sanitizer18BufferedStackTrace6UnwindEjmmPvmmb 752
__interceptor___xpg_strerror_r,__xpg_strerror_r _ZN6__asan22IsStackTraceSuppressedEPKN11__sanitizer10StackTraceE 760
__interceptor___xpg_strerror_r,__xpg_strerror_r _ZN6__asan20asan_init_is_runningE 780
__interceptor___xpg_strerror_r,__xpg_strerror_r _ZN6__asan11asan_initedE 788
__interceptor___xpg_strerror_r,__xpg_strerror_r _ZN11__sanitizer21common_flags_dont_useE 796
__interceptor___xpg_strerror_r,__xpg_strerror_r .LC86 800
__interceptor_scandir,scandir _ZN6__asan15AsanInitFromRtlEv 112
__interceptor_scandir,scandir _ZN11__sanitizer10StackTrace12GetCurrentPcEv 192
__interceptor_scandir,scandir _ZN6__asan16GetCurrentThreadEv 232
__interceptor_scandir,scandir _ZN11__sanitizer18BufferedStackTrace6UnwindEjmmPvmmb 312
__interceptor_scandir,scandir _ZN11__sanitizer18BufferedStackTrace6UnwindEjmmPvmmb 380
__interceptor_scandir,scandir _ZN6__asan32ReportStringFunctionSizeOverflowEmmPN11__sanitizer18BufferedStackTraceE 400
__interceptor_scandir,scandir __asan_region_is_poisoned 432
__interceptor_scandir,scandir __tls_get_addr 460
__interceptor_scandir,scandir __tls_get_addr 552
__interceptor_scandir,scandir _ZN11__sanitizer10StackTrace12GetCurrentPcEv 624
__interceptor_scandir,scandir _ZN6__asan16GetCurrentThreadEv 660
__interceptor_scandir,scandir _ZN11__sanitizer18BufferedStackTrace6UnwindEjmmPvmmb 736
__interceptor_scandir,scandir _ZN6__asan23IsInterceptorSuppressedEPKc 756
__interceptor_scandir,scandir _ZN6__asan31HaveStackTraceBasedSuppressionsEv 768
__interceptor_scandir,scandir _ZN11__sanitizer10StackTrace12GetCurrentPcEv 780
__interceptor_scandir,scandir _ZN6__asan18ReportGenericErrorEmmmmbmjb 816
__interceptor_scandir,scandir _ZN11__sanitizer10StackTrace12GetCurrentPcEv 852
__interceptor_scandir,scandir _ZN6__asan16GetCurrentThreadEv 896
__interceptor_scandir,scandir _ZN11__sanitizer18BufferedStackTrace6UnwindEjmmPvmmb 984
__interceptor_scandir,scandir _ZN11__sanitizer18BufferedStackTrace6UnwindEjmmPvmmb 1056
__interceptor_scandir,scandir _ZN6__asan22IsStackTraceSuppressedEPKN11__sanitizer10StackTraceE 1068
__interceptor_scandir,scandir _ZN11__sanitizer18BufferedStackTrace6UnwindEjmmPvmmb 1144
__interceptor_scandir,scandir _ZN6__asan32ReportStringFunctionSizeOverflowEmmPN11__sanitizer18BufferedStackTraceE 1160
__interceptor_scandir,scandir __asan_region_is_poisoned 1192
__interceptor_scandir,scandir _ZN11__sanitizer10StackTrace12GetCurrentPcEv 1260
__interceptor_scandir,scandir _ZN6__asan16GetCurrentThreadEv 1300
__interceptor_scandir,scandir _ZN11__sanitizer18BufferedStackTrace6UnwindEjmmPvmmb 1380
__interceptor_scandir,scandir _ZN6__asan23IsInterceptorSuppressedEPKc 1400
__interceptor_scandir,scandir _ZN6__asan31HaveStackTraceBasedSuppressionsEv 1412
__interceptor_scandir,scandir _ZN11__sanitizer10StackTrace12GetCurrentPcEv 1432
__interceptor_scandir,scandir _ZN6__asan18ReportGenericErrorEmmmmbmjb 1472
__interceptor_scandir,scandir _ZN11__sanitizer10StackTrace12GetCurrentPcEv 1500
__interceptor_scandir,scandir _ZN6__asan16GetCurrentThreadEv 1540
__interceptor_scandir,scandir _ZN11__sanitizer18BufferedStackTrace6UnwindEjmmPvmmb 1616
__interceptor_scandir,scandir _ZN11__sanitizer18BufferedStackTrace6UnwindEjmmPvmmb 1684
__interceptor_scandir,scandir _ZN6__asan22IsStackTraceSuppressedEPKN11__sanitizer10StackTraceE 1692
__interceptor_scandir,scandir _ZN11__sanitizer18BufferedStackTrace6UnwindEjmmPvmmb 1764
__interceptor_scandir,scandir _ZN6__asan32ReportStringFunctionSizeOverflowEmmPN11__sanitizer18BufferedStackTraceE 1784
__interceptor_scandir,scandir __asan_region_is_poisoned 1816
__interceptor_scandir,scandir _ZN11__sanitizer10StackTrace12GetCurrentPcEv 1916
__interceptor_scandir,scandir _ZN6__asan16GetCurrentThreadEv 1956
__interceptor_scandir,scandir _ZN11__sanitizer18BufferedStackTrace6UnwindEjmmPvmmb 2036
__interceptor_scandir,scandir _ZN6__asan23IsInterceptorSuppressedEPKc 2056
__interceptor_scandir,scandir _ZN6__asan31HaveStackTraceBasedSuppressionsEv 2068
__interceptor_scandir,scandir _ZN11__sanitizer10StackTrace12GetCurrentPcEv 2088
__interceptor_scandir,scandir _ZN6__asan18ReportGenericErrorEmmmmbmjb 2128
__interceptor_scandir,scandir _ZN11__sanitizer10StackTrace12GetCurrentPcEv 2156
__interceptor_scandir,scandir _ZN6__asan16GetCurrentThreadEv 2200
__interceptor_scandir,scandir _ZN11__sanitizer18BufferedStackTrace6UnwindEjmmPvmmb 2280
__interceptor_scandir,scandir _ZN11__sanitizer18BufferedStackTrace6UnwindEjmmPvmmb 2348
__interceptor_scandir,scandir _ZN6__asan22IsStackTraceSuppressedEPKN11__sanitizer10StackTraceE 2360
__interceptor_scandir,scandir _ZN11__sanitizer18BufferedStackTrace6UnwindEjmmPvmmb 2432
__interceptor_scandir,scandir _ZN6__asan32ReportStringFunctionSizeOverflowEmmPN11__sanitizer18BufferedStackTraceE 2448
__interceptor_scandir,scandir __asan_region_is_poisoned 2480
__interceptor_scandir,scandir _ZN6__asan23IsInterceptorSuppressedEPKc 2528
__interceptor_scandir,scandir _ZN6__asan31HaveStackTraceBasedSuppressionsEv 2540
__interceptor_scandir,scandir _ZN11__sanitizer10StackTrace12GetCurrentPcEv 2552
__interceptor_scandir,scandir _ZN6__asan18ReportGenericErrorEmmmmbmjb 2592
__interceptor_scandir,scandir _ZN11__sanitizer10StackTrace12GetCurrentPcEv 2620
__interceptor_scandir,scandir _ZN6__asan16GetCurrentThreadEv 2664
__interceptor_scandir,scandir _ZN11__sanitizer18BufferedStackTrace6UnwindEjmmPvmmb 2744
__interceptor_scandir,scandir _ZN11__sanitizer18BufferedStackTrace6UnwindEjmmPvmmb 2812
__interceptor_scandir,scandir _ZN6__asan22IsStackTraceSuppressedEPKN11__sanitizer10StackTraceE 2820
__interceptor_scandir,scandir _ZN6__asan20asan_init_is_runningE 2840
__interceptor_scandir,scandir _ZN6__asan11asan_initedE 2848
__interceptor_scandir,scandir _ZN11__sanitizer21common_flags_dont_useE 2856
__interceptor_scandir,scandir .LANCHOR1 2860
__interceptor_scandir,scandir .LANCHOR1 2864
__interceptor_scandir,scandir .LANCHOR1 2880
__interceptor_scandir,scandir .LC87 2884
__interceptor_scandir,scandir .LC87 2888
__interceptor_scandir,scandir .LC87 2892
__interceptor_scandir,scandir .LC87 2896
__interceptor_scandir64,scandir64 _ZN6__asan15AsanInitFromRtlEv 112
__interceptor_scandir64,scandir64 _ZN11__sanitizer10StackTrace12GetCurrentPcEv 192
__interceptor_scandir64,scandir64 _ZN6__asan16GetCurrentThreadEv 232
__interceptor_scandir64,scandir64 _ZN11__sanitizer18BufferedStackTrace6UnwindEjmmPvmmb 312
__interceptor_scandir64,scandir64 _ZN11__sanitizer18BufferedStackTrace6UnwindEjmmPvmmb 380
__interceptor_scandir64,scandir64 _ZN6__asan32ReportStringFunctionSizeOverflowEmmPN11__sanitizer18BufferedStackTraceE 400
__interceptor_scandir64,scandir64 __asan_region_is_poisoned 432
__interceptor_scandir64,scandir64 __tls_get_addr 460
__interceptor_scandir64,scandir64 __tls_get_addr 556
__interceptor_scandir64,scandir64 _ZN11__sanitizer10StackTrace12GetCurrentPcEv 628
__interceptor_scandir64,scandir64 _ZN6__asan16GetCurrentThreadEv 664
__interceptor_scandir64,scandir64 _ZN11__sanitizer18BufferedStackTrace6UnwindEjmmPvmmb 740
__interceptor_scandir64,scandir64 _ZN6__asan23IsInterceptorSuppressedEPKc 760
__interceptor_scandir64,scandir64 _ZN6__asan31HaveStackTraceBasedSuppressionsEv 772
__interceptor_scandir64,scandir64 _ZN11__sanitizer10StackTrace12GetCurrentPcEv 784
__interceptor_scandir64,scandir64 _ZN6__asan18ReportGenericErrorEmmmmbmjb 820
__interceptor_scandir64,scandir64 _ZN11__sanitizer10StackTrace12GetCurrentPcEv 856
__interceptor_scandir64,scandir64 _ZN6__asan16GetCurrentThreadEv 900
__interceptor_scandir64,scandir64 _ZN11__sanitizer18BufferedStackTrace6UnwindEjmmPvmmb 988
__interceptor_scandir64,scandir64 _ZN11__sanitizer18BufferedStackTrace6UnwindEjmmPvmmb 1060
__interceptor_scandir64,scandir64 _ZN6__asan22IsStackTraceSuppressedEPKN11__sanitizer10StackTraceE 1072
__interceptor_scandir64,scandir64 _ZN11__sanitizer18BufferedStackTrace6UnwindEjmmPvmmb 1148
__interceptor_scandir64,scandir64 _ZN6__asan32ReportStringFunctionSizeOverflowEmmPN11__sanitizer18BufferedStackTraceE 1164
__interceptor_scandir64,scandir64 __asan_region_is_poisoned 1196
__interceptor_scandir64,scandir64 _ZN11__sanitizer10StackTrace12GetCurrentPcEv 1264
__interceptor_scandir64,scandir64 _ZN6__asan16GetCurrentThreadEv 1304
__interceptor_scandir64,scandir64 _ZN11__sanitizer18BufferedStackTrace6UnwindEjmmPvmmb 1384
__interceptor_scandir64,scandir64 _ZN6__asan23IsInterceptorSuppressedEPKc 1404
__interceptor_scandir64,scandir64 _ZN6__asan31HaveStackTraceBasedSuppressionsEv 1416
__interceptor_scandir64,scandir64 _ZN11__sanitizer10StackTrace12GetCurrentPcEv 1436
__interceptor_scandir64,scandir64 _ZN6__asan18ReportGenericErrorEmmmmbmjb 1476
__interceptor_scandir64,scandir64 _ZN11__sanitizer10StackTrace12GetCurrentPcEv 1504
__interceptor_scandir64,scandir64 _ZN6__asan16GetCurrentThreadEv 1544
__interceptor_scandir64,scandir64 _ZN11__sanitizer18BufferedStackTrace6UnwindEjmmPvmmb 1620
__interceptor_scandir64,scandir64 _ZN11__sanitizer18BufferedStackTrace6UnwindEjmmPvmmb 1688
__interceptor_scandir64,scandir64 _ZN6__asan22IsStackTraceSuppressedEPKN11__sanitizer10StackTraceE 1696
__interceptor_scandir64,scandir64 _ZN11__sanitizer18BufferedStackTrace6UnwindEjmmPvmmb 1768
__interceptor_scandir64,scandir64 _ZN6__asan32ReportStringFunctionSizeOverflowEmmPN11__sanitizer18BufferedStackTraceE 1788
__interceptor_scandir64,scandir64 __asan_region_is_poisoned 1820
__interceptor_scandir64,scandir64 _ZN11__sanitizer10StackTrace12GetCurrentPcEv 1920
__interceptor_scandir64,scandir64 _ZN6__asan16GetCurrentThreadEv 1960
__interceptor_scandir64,scandir64 _ZN11__sanitizer18BufferedStackTrace6UnwindEjmmPvmmb 2040
__interceptor_scandir64,scandir64 _ZN6__asan23IsInterceptorSuppressedEPKc 2060
__interceptor_scandir64,scandir64 _ZN6__asan31HaveStackTraceBasedSuppressionsEv 2072
__interceptor_scandir64,scandir64 _ZN11__sanitizer10StackTrace12GetCurrentPcEv 2092
__interceptor_scandir64,scandir64 _ZN6__asan18ReportGenericErrorEmmmmbmjb 2132
__interceptor_scandir64,scandir64 _ZN11__sanitizer10StackTrace12GetCurrentPcEv 2160
__interceptor_scandir64,scandir64 _ZN6__asan16GetCurrentThreadEv 2204
__interceptor_scandir64,scandir64 _ZN11__sanitizer18BufferedStackTrace6UnwindEjmmPvmmb 2284
__interceptor_scandir64,scandir64 _ZN11__sanitizer18BufferedStackTrace6UnwindEjmmPvmmb 2352
__interceptor_scandir64,scandir64 _ZN6__asan22IsStackTraceSuppressedEPKN11__sanitizer10StackTraceE 2364
__interceptor_scandir64,scandir64 _ZN11__sanitizer18BufferedStackTrace6UnwindEjmmPvmmb 2436
__interceptor_scandir64,scandir64 _ZN6__asan32ReportStringFunctionSizeOverflowEmmPN11__sanitizer18BufferedStackTraceE 2452
__interceptor_scandir64,scandir64 __asan_region_is_poisoned 2484
__interceptor_scandir64,scandir64 _ZN6__asan23IsInterceptorSuppressedEPKc 2532
__interceptor_scandir64,scandir64 _ZN6__asan31HaveStackTraceBasedSuppressionsEv 2544
__interceptor_scandir64,scandir64 _ZN11__sanitizer10StackTrace12GetCurrentPcEv 2556
__interceptor_scandir64,scandir64 _ZN6__asan18ReportGenericErrorEmmmmbmjb 2596
__interceptor_scandir64,scandir64 _ZN11__sanitizer10StackTrace12GetCurrentPcEv 2624
__interceptor_scandir64,scandir64 _ZN6__asan16GetCurrentThreadEv 2668
__interceptor_scandir64,scandir64 _ZN11__sanitizer18BufferedStackTrace6UnwindEjmmPvmmb 2748
__interceptor_scandir64,scandir64 _ZN11__sanitizer18BufferedStackTrace6UnwindEjmmPvmmb 2816
__interceptor_scandir64,scandir64 _ZN6__asan22IsStackTraceSuppressedEPKN11__sanitizer10StackTraceE 2824
__interceptor_scandir64,scandir64 _ZN6__asan20asan_init_is_runningE 2844
__interceptor_scandir64,scandir64 _ZN6__asan11asan_initedE 2852
__interceptor_scandir64,scandir64 _ZN11__sanitizer21common_flags_dont_useE 2860
__interceptor_scandir64,scandir64 .LANCHOR1 2864
__interceptor_scandir64,scandir64 .LANCHOR1 2868
__interceptor_scandir64,scandir64 .LANCHOR1 2884
__interceptor_scandir64,scandir64 .LC88 2888
__interceptor_scandir64,scandir64 .LC88 2892
__interceptor_scandir64,scandir64 .LC88 2896
__interceptor_scandir64,scandir64 .LC88 2900
__interceptor_getgroups,getgroups _ZN6__asan15AsanInitFromRtlEv 108
__interceptor_getgroups,getgroups _ZN11__sanitizer10StackTrace12GetCurrentPcEv 220
__interceptor_getgroups,getgroups _ZN6__asan16GetCurrentThreadEv 264
__interceptor_getgroups,getgroups _ZN11__sanitizer18BufferedStackTrace6UnwindEjmmPvmmb 344
__interceptor_getgroups,getgroups _ZN11__sanitizer18BufferedStackTrace6UnwindEjmmPvmmb 412
__interceptor_getgroups,getgroups _ZN6__asan32ReportStringFunctionSizeOverflowEmmPN11__sanitizer18BufferedStackTraceE 428
__interceptor_getgroups,getgroups __asan_region_is_poisoned 460
__interceptor_getgroups,getgroups _ZN6__asan23IsInterceptorSuppressedEPKc 480
__interceptor_getgroups,getgroups _ZN6__asan31HaveStackTraceBasedSuppressionsEv 492
__interceptor_getgroups,getgroups _ZN11__sanitizer10StackTrace12GetCurrentPcEv 512
__interceptor_getgroups,getgroups _ZN6__asan18ReportGenericErrorEmmmmbmjb 552
__interceptor_getgroups,getgroups _ZN11__sanitizer10StackTrace12GetCurrentPcEv 580
__interceptor_getgroups,getgroups _ZN6__asan16GetCurrentThreadEv 624
__interceptor_getgroups,getgroups _ZN11__sanitizer18BufferedStackTrace6UnwindEjmmPvmmb 700
__interceptor_getgroups,getgroups _ZN11__sanitizer18BufferedStackTrace6UnwindEjmmPvmmb 768
__interceptor_getgroups,getgroups _ZN6__asan22IsStackTraceSuppressedEPKN11__sanitizer10StackTraceE 776
__interceptor_getgroups,getgroups _ZN6__asan20asan_init_is_runningE 796
__interceptor_getgroups,getgroups _ZN6__asan11asan_initedE 804
__interceptor_getgroups,getgroups _ZN11__sanitizer21common_flags_dont_useE 812
__interceptor_getgroups,getgroups .LC89 816
_ZL11read_pollfdPvPN11__sanitizer18__sanitizer_pollfdEm _ZN11__sanitizer10StackTrace12GetCurrentPcEv 112
_ZL11read_pollfdPvPN11__sanitizer18__sanitizer_pollfdEm _ZN6__asan16GetCurrentThreadEv 160
_ZL11read_pollfdPvPN11__sanitizer18__sanitizer_pollfdEm _ZN11__sanitizer18BufferedStackTrace6UnwindEjmmPvmmb 240
_ZL11read_pollfdPvPN11__sanitizer18__sanitizer_pollfdEm _ZN11__sanitizer18BufferedStackTrace6UnwindEjmmPvmmb 304
_ZL11read_pollfdPvPN11__sanitizer18__sanitizer_pollfdEm _ZN6__asan32ReportStringFunctionSizeOverflowEmmPN11__sanitizer18BufferedStackTraceE 320
_ZL11read_pollfdPvPN11__sanitizer18__sanitizer_pollfdEm __asan_region_is_poisoned 352
_ZL11read_pollfdPvPN11__sanitizer18__sanitizer_pollfdEm _ZN11__sanitizer10StackTrace12GetCurrentPcEv 392
_ZL11read_pollfdPvPN11__sanitizer18__sanitizer_pollfdEm _ZN6__asan16GetCurrentThreadEv 436
_ZL11read_pollfdPvPN11__sanitizer18__sanitizer_pollfdEm _ZN11__sanitizer18BufferedStackTrace6UnwindEjmmPvmmb 512
_ZL11read_pollfdPvPN11__sanitizer18__sanitizer_pollfdEm _ZN6__asan23IsInterceptorSuppressedEPKc 544
_ZL11read_pollfdPvPN11__sanitizer18__sanitizer_pollfdEm _ZN6__asan31HaveStackTraceBasedSuppressionsEv 556
_ZL11read_pollfdPvPN11__sanitizer18__sanitizer_pollfdEm _ZN11__sanitizer10StackTrace12GetCurrentPcEv 568
_ZL11read_pollfdPvPN11__sanitizer18__sanitizer_pollfdEm _ZN6__asan18ReportGenericErrorEmmmmbmjb 604
_ZL11read_pollfdPvPN11__sanitizer18__sanitizer_pollfdEm _ZN11__sanitizer10StackTrace12GetCurrentPcEv 632
_ZL11read_pollfdPvPN11__sanitizer18__sanitizer_pollfdEm _ZN6__asan16GetCurrentThreadEv 684
_ZL11read_pollfdPvPN11__sanitizer18__sanitizer_pollfdEm _ZN11__sanitizer18BufferedStackTrace6UnwindEjmmPvmmb 764
_ZL11read_pollfdPvPN11__sanitizer18__sanitizer_pollfdEm _ZN11__sanitizer18BufferedStackTrace6UnwindEjmmPvmmb 828
_ZL11read_pollfdPvPN11__sanitizer18__sanitizer_pollfdEm _ZN6__asan22IsStackTraceSuppressedEPKN11__sanitizer10StackTraceE 836
_ZL11read_pollfdPvPN11__sanitizer18__sanitizer_pollfdEm _ZN11__sanitizer18BufferedStackTrace6UnwindEjmmPvmmb 904
_ZL11read_pollfdPvPN11__sanitizer18__sanitizer_pollfdEm _ZN6__asan32ReportStringFunctionSizeOverflowEmmPN11__sanitizer18BufferedStackTraceE 920
_ZL11read_pollfdPvPN11__sanitizer18__sanitizer_pollfdEm __asan_region_is_poisoned 952
_ZL11read_pollfdPvPN11__sanitizer18__sanitizer_pollfdEm _ZN6__asan23IsInterceptorSuppressedEPKc 1004
_ZL11read_pollfdPvPN11__sanitizer18__sanitizer_pollfdEm _ZN6__asan31HaveStackTraceBasedSuppressionsEv 1016
_ZL11read_pollfdPvPN11__sanitizer18__sanitizer_pollfdEm _ZN11__sanitizer10StackTrace12GetCurrentPcEv 1028
_ZL11read_pollfdPvPN11__sanitizer18__sanitizer_pollfdEm _ZN6__asan18ReportGenericErrorEmmmmbmjb 1064
_ZL11read_pollfdPvPN11__sanitizer18__sanitizer_pollfdEm _ZN11__sanitizer10StackTrace12GetCurrentPcEv 1092
_ZL11read_pollfdPvPN11__sanitizer18__sanitizer_pollfdEm _ZN6__asan16GetCurrentThreadEv 1144
_ZL11read_pollfdPvPN11__sanitizer18__sanitizer_pollfdEm _ZN11__sanitizer18BufferedStackTrace6UnwindEjmmPvmmb 1224
_ZL11read_pollfdPvPN11__sanitizer18__sanitizer_pollfdEm _ZN11__sanitizer18BufferedStackTrace6UnwindEjmmPvmmb 1288
_ZL11read_pollfdPvPN11__sanitizer18__sanitizer_pollfdEm _ZN6__asan22IsStackTraceSuppressedEPKN11__sanitizer10StackTraceE 1296
_ZL11read_pollfdPvPN11__sanitizer18__sanitizer_pollfdEm _ZN11__sanitizer21common_flags_dont_useE 1324
_ZL11read_pollfdPvPN11__sanitizer18__sanitizer_pollfdEm _ZN6__asan11asan_initedE 1328
_ZL12write_pollfdPvPN11__sanitizer18__sanitizer_pollfdEm _ZN11__sanitizer10StackTrace12GetCurrentPcEv 100
_ZL12write_pollfdPvPN11__sanitizer18__sanitizer_pollfdEm _ZN6__asan16GetCurrentThreadEv 148
_ZL12write_pollfdPvPN11__sanitizer18__sanitizer_pollfdEm _ZN11__sanitizer18BufferedStackTrace6UnwindEjmmPvmmb 228
_ZL12write_pollfdPvPN11__sanitizer18__sanitizer_pollfdEm _ZN11__sanitizer18BufferedStackTrace6UnwindEjmmPvmmb 292
_ZL12write_pollfdPvPN11__sanitizer18__sanitizer_pollfdEm _ZN6__asan32ReportStringFunctionSizeOverflowEmmPN11__sanitizer18BufferedStackTraceE 308
_ZL12write_pollfdPvPN11__sanitizer18__sanitizer_pollfdEm __asan_region_is_poisoned 340
_ZL12write_pollfdPvPN11__sanitizer18__sanitizer_pollfdEm _ZN6__asan23IsInterceptorSuppressedEPKc 388
_ZL12write_pollfdPvPN11__sanitizer18__sanitizer_pollfdEm _ZN6__asan31HaveStackTraceBasedSuppressionsEv 400
_ZL12write_pollfdPvPN11__sanitizer18__sanitizer_pollfdEm _ZN11__sanitizer10StackTrace12GetCurrentPcEv 412
_ZL12write_pollfdPvPN11__sanitizer18__sanitizer_pollfdEm _ZN6__asan18ReportGenericErrorEmmmmbmjb 448
_ZL12write_pollfdPvPN11__sanitizer18__sanitizer_pollfdEm _ZN11__sanitizer10StackTrace12GetCurrentPcEv 476
_ZL12write_pollfdPvPN11__sanitizer18__sanitizer_pollfdEm _ZN6__asan16GetCurrentThreadEv 528
_ZL12write_pollfdPvPN11__sanitizer18__sanitizer_pollfdEm _ZN11__sanitizer18BufferedStackTrace6UnwindEjmmPvmmb 608
_ZL12write_pollfdPvPN11__sanitizer18__sanitizer_pollfdEm _ZN11__sanitizer18BufferedStackTrace6UnwindEjmmPvmmb 672
_ZL12write_pollfdPvPN11__sanitizer18__sanitizer_pollfdEm _ZN6__asan22IsStackTraceSuppressedEPKN11__sanitizer10StackTraceE 680
_ZL12write_pollfdPvPN11__sanitizer18__sanitizer_pollfdEm _ZN11__sanitizer21common_flags_dont_useE 708
_ZL12write_pollfdPvPN11__sanitizer18__sanitizer_pollfdEm _ZN6__asan11asan_initedE 712
__interceptor_poll,poll _ZN6__asan15AsanInitFromRtlEv 108
__interceptor_poll,poll .LC90 208
__interceptor_poll,poll _ZN6__asan20asan_init_is_runningE 216
__interceptor_poll,poll _ZN6__asan11asan_initedE 224
__interceptor_ppoll,ppoll _ZN6__asan15AsanInitFromRtlEv 120
__interceptor_ppoll,ppoll _ZN11__sanitizer10StackTrace12GetCurrentPcEv 232
__interceptor_ppoll,ppoll _ZN6__asan16GetCurrentThreadEv 276
__interceptor_ppoll,ppoll _ZN11__sanitizer18BufferedStackTrace6UnwindEjmmPvmmb 356
__interceptor_ppoll,ppoll _ZN11__sanitizer18BufferedStackTrace6UnwindEjmmPvmmb 424
__interceptor_ppoll,ppoll _ZN6__asan32ReportStringFunctionSizeOverflowEmmPN11__sanitizer18BufferedStackTraceE 444
__interceptor_ppoll,ppoll __asan_region_is_poisoned 476
__interceptor_ppoll,ppoll _ZN6__asan23IsInterceptorSuppressedEPKc 572
__interceptor_ppoll,ppoll _ZN6__asan31HaveStackTraceBasedSuppressionsEv 584
__interceptor_ppoll,ppoll _ZN11__sanitizer10StackTrace12GetCurrentPcEv 596
__interceptor_ppoll,ppoll _ZN6__asan18ReportGenericErrorEmmmmbmjb 640
__interceptor_ppoll,ppoll _ZN11__sanitizer10StackTrace12GetCurrentPcEv 676
__interceptor_ppoll,ppoll _ZN6__asan16GetCurrentThreadEv 724
__interceptor_ppoll,ppoll _ZN11__sanitizer18BufferedStackTrace6UnwindEjmmPvmmb 804
__interceptor_ppoll,ppoll _ZN11__sanitizer18BufferedStackTrace6UnwindEjmmPvmmb 872
__interceptor_ppoll,ppoll _ZN6__asan22IsStackTraceSuppressedEPKN11__sanitizer10StackTraceE 884
__interceptor_ppoll,ppoll .LC91 984
__interceptor_ppoll,ppoll _ZN6__asan20asan_init_is_runningE 992
__interceptor_ppoll,ppoll _ZN6__asan11asan_initedE 1000
__interceptor_ppoll,ppoll _ZN11__sanitizer18struct_timespec_szE 1004
__interceptor_ppoll,ppoll _ZN11__sanitizer21common_flags_dont_useE 1008
__interceptor_wordexp,wordexp _ZN6__asan15AsanInitFromRtlEv 100
__interceptor_wordexp,wordexp _ZN11__sanitizer10StackTrace12GetCurrentPcEv 176
__interceptor_wordexp,wordexp _ZN6__asan16GetCurrentThreadEv 216
__interceptor_wordexp,wordexp _ZN11__sanitizer18BufferedStackTrace6UnwindEjmmPvmmb 296
__interceptor_wordexp,wordexp _ZN11__sanitizer10StackTrace12GetCurrentPcEv 360
__interceptor_wordexp,wordexp _ZN6__asan16GetCurrentThreadEv 400
__interceptor_wordexp,wordexp _ZN11__sanitizer18BufferedStackTrace6UnwindEjmmPvmmb 480
__interceptor_wordexp,wordexp _ZN11__sanitizer18BufferedStackTrace6UnwindEjmmPvmmb 548
__interceptor_wordexp,wordexp _ZN6__asan32ReportStringFunctionSizeOverflowEmmPN11__sanitizer18BufferedStackTraceE 568
__interceptor_wordexp,wordexp __asan_region_is_poisoned 600
__interceptor_wordexp,wordexp _ZN11__sanitizer10StackTrace12GetCurrentPcEv 712
__interceptor_wordexp,wordexp _ZN6__asan16GetCurrentThreadEv 748
__interceptor_wordexp,wordexp _ZN11__sanitizer18BufferedStackTrace6UnwindEjmmPvmmb 824
__interceptor_wordexp,wordexp _ZN6__asan23IsInterceptorSuppressedEPKc 844
__interceptor_wordexp,wordexp _ZN6__asan31HaveStackTraceBasedSuppressionsEv 856
__interceptor_wordexp,wordexp _ZN11__sanitizer10StackTrace12GetCurrentPcEv 868
__interceptor_wordexp,wordexp _ZN6__asan18ReportGenericErrorEmmmmbmjb 904
__interceptor_wordexp,wordexp _ZN11__sanitizer10StackTrace12GetCurrentPcEv 940
__interceptor_wordexp,wordexp _ZN6__asan16GetCurrentThreadEv 984
__interceptor_wordexp,wordexp _ZN11__sanitizer18BufferedStackTrace6UnwindEjmmPvmmb 1064
__interceptor_wordexp,wordexp _ZN11__sanitizer18BufferedStackTrace6UnwindEjmmPvmmb 1132
__interceptor_wordexp,wordexp _ZN6__asan22IsStackTraceSuppressedEPKN11__sanitizer10StackTraceE 1144
__interceptor_wordexp,wordexp _ZN11__sanitizer18BufferedStackTrace6UnwindEjmmPvmmb 1220
__interceptor_wordexp,wordexp _ZN6__asan32ReportStringFunctionSizeOverflowEmmPN11__sanitizer18BufferedStackTraceE 1236
__interceptor_wordexp,wordexp __asan_region_is_poisoned 1268
__interceptor_wordexp,wordexp _ZN6__asan23IsInterceptorSuppressedEPKc 1312
__interceptor_wordexp,wordexp _ZN6__asan31HaveStackTraceBasedSuppressionsEv 1324
__interceptor_wordexp,wordexp _ZN11__sanitizer10StackTrace12GetCurrentPcEv 1344
__interceptor_wordexp,wordexp _ZN6__asan18ReportGenericErrorEmmmmbmjb 1384
__interceptor_wordexp,wordexp _ZN11__sanitizer10StackTrace12GetCurrentPcEv 1412
__interceptor_wordexp,wordexp _ZN6__asan16GetCurrentThreadEv 1452
__interceptor_wordexp,wordexp _ZN11__sanitizer18BufferedStackTrace6UnwindEjmmPvmmb 1528
__interceptor_wordexp,wordexp _ZN11__sanitizer18BufferedStackTrace6UnwindEjmmPvmmb 1596
__interceptor_wordexp,wordexp _ZN6__asan22IsStackTraceSuppressedEPKN11__sanitizer10StackTraceE 1604
__interceptor_wordexp,wordexp _ZN11__sanitizer18BufferedStackTrace6UnwindEjmmPvmmb 1676
__interceptor_wordexp,wordexp _ZN6__asan32ReportStringFunctionSizeOverflowEmmPN11__sanitizer18BufferedStackTraceE 1692
__interceptor_wordexp,wordexp __asan_region_is_poisoned 1724
__interceptor_wordexp,wordexp _ZN11__sanitizer10StackTrace12GetCurrentPcEv 1868
__interceptor_wordexp,wordexp _ZN6__asan16GetCurrentThreadEv 1908
__interceptor_wordexp,wordexp _ZN11__sanitizer18BufferedStackTrace6UnwindEjmmPvmmb 1988
__interceptor_wordexp,wordexp _ZN6__asan23IsInterceptorSuppressedEPKc 2008
__interceptor_wordexp,wordexp _ZN6__asan31HaveStackTraceBasedSuppressionsEv 2020
__interceptor_wordexp,wordexp _ZN11__sanitizer10StackTrace12GetCurrentPcEv 2040
__interceptor_wordexp,wordexp _ZN6__asan18ReportGenericErrorEmmmmbmjb 2080
__interceptor_wordexp,wordexp _ZN11__sanitizer10StackTrace12GetCurrentPcEv 2108
__interceptor_wordexp,wordexp _ZN6__asan16GetCurrentThreadEv 2152
__interceptor_wordexp,wordexp _ZN11__sanitizer18BufferedStackTrace6UnwindEjmmPvmmb 2232
__interceptor_wordexp,wordexp _ZN11__sanitizer18BufferedStackTrace6UnwindEjmmPvmmb 2300
__interceptor_wordexp,wordexp _ZN6__asan22IsStackTraceSuppressedEPKN11__sanitizer10StackTraceE 2308
__interceptor_wordexp,wordexp _ZN11__sanitizer18BufferedStackTrace6UnwindEjmmPvmmb 2380
__interceptor_wordexp,wordexp _ZN6__asan32ReportStringFunctionSizeOverflowEmmPN11__sanitizer18BufferedStackTraceE 2396
__interceptor_wordexp,wordexp __asan_region_is_poisoned 2428
__interceptor_wordexp,wordexp _ZN6__asan23IsInterceptorSuppressedEPKc 2460
__interceptor_wordexp,wordexp _ZN6__asan31HaveStackTraceBasedSuppressionsEv 2472
__interceptor_wordexp,wordexp _ZN11__sanitizer10StackTrace12GetCurrentPcEv 2484
__interceptor_wordexp,wordexp _ZN6__asan18ReportGenericErrorEmmmmbmjb 2524
__interceptor_wordexp,wordexp _ZN11__sanitizer10StackTrace12GetCurrentPcEv 2552
__interceptor_wordexp,wordexp _ZN6__asan16GetCurrentThreadEv 2596
__interceptor_wordexp,wordexp _ZN11__sanitizer18BufferedStackTrace6UnwindEjmmPvmmb 2676
__interceptor_wordexp,wordexp _ZN11__sanitizer18BufferedStackTrace6UnwindEjmmPvmmb 2744
__interceptor_wordexp,wordexp _ZN6__asan22IsStackTraceSuppressedEPKN11__sanitizer10StackTraceE 2752
__interceptor_wordexp,wordexp _ZN6__asan20asan_init_is_runningE 2772
__interceptor_wordexp,wordexp _ZN6__asan11asan_initedE 2780
__interceptor_wordexp,wordexp _ZN11__sanitizer21common_flags_dont_useE 2788
__interceptor_wordexp,wordexp .LC92 2796
__interceptor_wordexp,wordexp .LC92 2800
__interceptor_wordexp,wordexp .LC92 2808
__interceptor_wordexp,wordexp .LC92 2812
__interceptor_sigwait,sigwait _ZN6__asan15AsanInitFromRtlEv 96
__interceptor_sigwait,sigwait _ZN11__sanitizer10StackTrace12GetCurrentPcEv 188
__interceptor_sigwait,sigwait _ZN6__asan16GetCurrentThreadEv 224
__interceptor_sigwait,sigwait _ZN11__sanitizer18BufferedStackTrace6UnwindEjmmPvmmb 300
__interceptor_sigwait,sigwait __asan_region_is_poisoned 320
__interceptor_sigwait,sigwait _ZN6__asan23IsInterceptorSuppressedEPKc 340
__interceptor_sigwait,sigwait _ZN6__asan31HaveStackTraceBasedSuppressionsEv 352
__interceptor_sigwait,sigwait _ZN11__sanitizer10StackTrace12GetCurrentPcEv 372
__interceptor_sigwait,sigwait _ZN6__asan18ReportGenericErrorEmmmmbmjb 412
__interceptor_sigwait,sigwait _ZN11__sanitizer18BufferedStackTrace6UnwindEjmmPvmmb 476
__interceptor_sigwait,sigwait _ZN6__asan32ReportStringFunctionSizeOverflowEmmPN11__sanitizer18BufferedStackTraceE 492
__interceptor_sigwait,sigwait _ZN11__sanitizer10StackTrace12GetCurrentPcEv 544
__interceptor_sigwait,sigwait _ZN6__asan16GetCurrentThreadEv 580
__interceptor_sigwait,sigwait _ZN11__sanitizer18BufferedStackTrace6UnwindEjmmPvmmb 656
__interceptor_sigwait,sigwait _ZN11__sanitizer18BufferedStackTrace6UnwindEjmmPvmmb 728
__interceptor_sigwait,sigwait _ZN6__asan22IsStackTraceSuppressedEPKN11__sanitizer10StackTraceE 736
__interceptor_sigwait,sigwait _ZN6__asan20asan_init_is_runningE 756
__interceptor_sigwait,sigwait _ZN6__asan11asan_initedE 764
__interceptor_sigwait,sigwait _ZN11__sanitizer21common_flags_dont_useE 772
__interceptor_sigwait,sigwait .LC93 776
__interceptor_sigwaitinfo,sigwaitinfo _ZN6__asan15AsanInitFromRtlEv 108
__interceptor_sigwaitinfo,sigwaitinfo _ZN11__sanitizer10StackTrace12GetCurrentPcEv 204
__interceptor_sigwaitinfo,sigwaitinfo _ZN6__asan16GetCurrentThreadEv 248
__interceptor_sigwaitinfo,sigwaitinfo _ZN11__sanitizer18BufferedStackTrace6UnwindEjmmPvmmb 328
__interceptor_sigwaitinfo,sigwaitinfo _ZN11__sanitizer18BufferedStackTrace6UnwindEjmmPvmmb 396
__interceptor_sigwaitinfo,sigwaitinfo _ZN6__asan32ReportStringFunctionSizeOverflowEmmPN11__sanitizer18BufferedStackTraceE 412
__interceptor_sigwaitinfo,sigwaitinfo __asan_region_is_poisoned 444
__interceptor_sigwaitinfo,sigwaitinfo _ZN6__asan23IsInterceptorSuppressedEPKc 464
__interceptor_sigwaitinfo,sigwaitinfo _ZN6__asan31HaveStackTraceBasedSuppressionsEv 476
__interceptor_sigwaitinfo,sigwaitinfo _ZN11__sanitizer10StackTrace12GetCurrentPcEv 496
__interceptor_sigwaitinfo,sigwaitinfo _ZN6__asan18ReportGenericErrorEmmmmbmjb 536
__interceptor_sigwaitinfo,sigwaitinfo _ZN11__sanitizer10StackTrace12GetCurrentPcEv 564
__interceptor_sigwaitinfo,sigwaitinfo _ZN6__asan16GetCurrentThreadEv 608
__interceptor_sigwaitinfo,sigwaitinfo _ZN11__sanitizer18BufferedStackTrace6UnwindEjmmPvmmb 684
__interceptor_sigwaitinfo,sigwaitinfo _ZN11__sanitizer18BufferedStackTrace6UnwindEjmmPvmmb 752
__interceptor_sigwaitinfo,sigwaitinfo _ZN6__asan22IsStackTraceSuppressedEPKN11__sanitizer10StackTraceE 760
__interceptor_sigwaitinfo,sigwaitinfo _ZN6__asan20asan_init_is_runningE 780
__interceptor_sigwaitinfo,sigwaitinfo _ZN6__asan11asan_initedE 788
__interceptor_sigwaitinfo,sigwaitinfo _ZN11__sanitizer12siginfo_t_szE 796
__interceptor_sigwaitinfo,sigwaitinfo _ZN11__sanitizer21common_flags_dont_useE 800
__interceptor_sigwaitinfo,sigwaitinfo .LC94 804
__interceptor_sigtimedwait,sigtimedwait _ZN6__asan15AsanInitFromRtlEv 108
__interceptor_sigtimedwait,sigtimedwait _ZN11__sanitizer10StackTrace12GetCurrentPcEv 172
__interceptor_sigtimedwait,sigtimedwait _ZN6__asan16GetCurrentThreadEv 212
__interceptor_sigtimedwait,sigtimedwait _ZN11__sanitizer18BufferedStackTrace6UnwindEjmmPvmmb 292
__interceptor_sigtimedwait,sigtimedwait _ZN11__sanitizer18BufferedStackTrace6UnwindEjmmPvmmb 360
__interceptor_sigtimedwait,sigtimedwait _ZN6__asan32ReportStringFunctionSizeOverflowEmmPN11__sanitizer18BufferedStackTraceE 380
__interceptor_sigtimedwait,sigtimedwait __asan_region_is_poisoned 412
__interceptor_sigtimedwait,sigtimedwait _ZN11__sanitizer10StackTrace12GetCurrentPcEv 532
__interceptor_sigtimedwait,sigtimedwait _ZN6__asan16GetCurrentThreadEv 572
__interceptor_sigtimedwait,sigtimedwait _ZN11__sanitizer18BufferedStackTrace6UnwindEjmmPvmmb 652
__interceptor_sigtimedwait,sigtimedwait _ZN6__asan23IsInterceptorSuppressedEPKc 672
__interceptor_sigtimedwait,sigtimedwait _ZN6__asan31HaveStackTraceBasedSuppressionsEv 684
__interceptor_sigtimedwait,sigtimedwait _ZN11__sanitizer10StackTrace12GetCurrentPcEv 696
__interceptor_sigtimedwait,sigtimedwait _ZN6__asan18ReportGenericErrorEmmmmbmjb 732
__interceptor_sigtimedwait,sigtimedwait _ZN11__sanitizer10StackTrace12GetCurrentPcEv 768
__interceptor_sigtimedwait,sigtimedwait _ZN6__asan16GetCurrentThreadEv 812
__interceptor_sigtimedwait,sigtimedwait _ZN11__sanitizer18BufferedStackTrace6UnwindEjmmPvmmb 892
__interceptor_sigtimedwait,sigtimedwait _ZN11__sanitizer18BufferedStackTrace6UnwindEjmmPvmmb 960
__interceptor_sigtimedwait,sigtimedwait _ZN6__asan22IsStackTraceSuppressedEPKN11__sanitizer10StackTraceE 972
__interceptor_sigtimedwait,sigtimedwait _ZN11__sanitizer18BufferedStackTrace6UnwindEjmmPvmmb 1044
__interceptor_sigtimedwait,sigtimedwait _ZN6__asan32ReportStringFunctionSizeOverflowEmmPN11__sanitizer18BufferedStackTraceE 1060
__interceptor_sigtimedwait,sigtimedwait __asan_region_is_poisoned 1092
__interceptor_sigtimedwait,sigtimedwait _ZN6__asan23IsInterceptorSuppressedEPKc 1112
__interceptor_sigtimedwait,sigtimedwait _ZN6__asan31HaveStackTraceBasedSuppressionsEv 1124
__interceptor_sigtimedwait,sigtimedwait _ZN11__sanitizer10StackTrace12GetCurrentPcEv 1144
__interceptor_sigtimedwait,sigtimedwait _ZN6__asan18ReportGenericErrorEmmmmbmjb 1184
__interceptor_sigtimedwait,sigtimedwait _ZN11__sanitizer10StackTrace12GetCurrentPcEv 1212
__interceptor_sigtimedwait,sigtimedwait _ZN6__asan16GetCurrentThreadEv 1252
__interceptor_sigtimedwait,sigtimedwait _ZN11__sanitizer18BufferedStackTrace6UnwindEjmmPvmmb 1328
__interceptor_sigtimedwait,sigtimedwait _ZN11__sanitizer18BufferedStackTrace6UnwindEjmmPvmmb 1396
__interceptor_sigtimedwait,sigtimedwait _ZN6__asan22IsStackTraceSuppressedEPKN11__sanitizer10StackTraceE 1404
__interceptor_sigtimedwait,sigtimedwait _ZN6__asan20asan_init_is_runningE 1424
__interceptor_sigtimedwait,sigtimedwait _ZN6__asan11asan_initedE 1432
__interceptor_sigtimedwait,sigtimedwait _ZN11__sanitizer18struct_timespec_szE 1436
__interceptor_sigtimedwait,sigtimedwait _ZN11__sanitizer21common_flags_dont_useE 1440
__interceptor_sigtimedwait,sigtimedwait _ZN11__sanitizer12siginfo_t_szE 1448
__interceptor_sigtimedwait,sigtimedwait .LC95 1452
__interceptor_sigtimedwait,sigtimedwait .LC95 1456
__interceptor_backtrace,backtrace _ZN6__asan15AsanInitFromRtlEv 108
__interceptor_backtrace,backtrace _ZN11__sanitizer10StackTrace12GetCurrentPcEv 196
__interceptor_backtrace,backtrace _ZN6__asan16GetCurrentThreadEv 240
__interceptor_backtrace,backtrace _ZN11__sanitizer18BufferedStackTrace6UnwindEjmmPvmmb 320
__interceptor_backtrace,backtrace _ZN11__sanitizer18BufferedStackTrace6UnwindEjmmPvmmb 388
__interceptor_backtrace,backtrace _ZN6__asan32ReportStringFunctionSizeOverflowEmmPN11__sanitizer18BufferedStackTraceE 404
__interceptor_backtrace,backtrace __asan_region_is_poisoned 436
__interceptor_backtrace,backtrace _ZN6__asan23IsInterceptorSuppressedEPKc 456
__interceptor_backtrace,backtrace _ZN6__asan31HaveStackTraceBasedSuppressionsEv 468
__interceptor_backtrace,backtrace _ZN11__sanitizer10StackTrace12GetCurrentPcEv 488
__interceptor_backtrace,backtrace _ZN6__asan18ReportGenericErrorEmmmmbmjb 528
__interceptor_backtrace,backtrace _ZN11__sanitizer10StackTrace12GetCurrentPcEv 556
__interceptor_backtrace,backtrace _ZN6__asan16GetCurrentThreadEv 600
__interceptor_backtrace,backtrace _ZN11__sanitizer18BufferedStackTrace6UnwindEjmmPvmmb 676
__interceptor_backtrace,backtrace _ZN11__sanitizer18BufferedStackTrace6UnwindEjmmPvmmb 744
__interceptor_backtrace,backtrace _ZN6__asan22IsStackTraceSuppressedEPKN11__sanitizer10StackTraceE 752
__interceptor_backtrace,backtrace _ZN6__asan20asan_init_is_runningE 772
__interceptor_backtrace,backtrace _ZN6__asan11asan_initedE 780
__interceptor_backtrace,backtrace _ZN11__sanitizer21common_flags_dont_useE 788
__interceptor_backtrace,backtrace .LC96 792
__interceptor_backtrace_symbols,backtrace_symbols _ZN6__asan15AsanInitFromRtlEv 120
__interceptor_backtrace_symbols,backtrace_symbols _ZN11__sanitizer10StackTrace12GetCurrentPcEv 192
__interceptor_backtrace_symbols,backtrace_symbols _ZN6__asan16GetCurrentThreadEv 236
__interceptor_backtrace_symbols,backtrace_symbols _ZN11__sanitizer18BufferedStackTrace6UnwindEjmmPvmmb 312
__interceptor_backtrace_symbols,backtrace_symbols _ZN11__sanitizer18BufferedStackTrace6UnwindEjmmPvmmb 380
__interceptor_backtrace_symbols,backtrace_symbols _ZN6__asan32ReportStringFunctionSizeOverflowEmmPN11__sanitizer18BufferedStackTraceE 400
__interceptor_backtrace_symbols,backtrace_symbols __asan_region_is_poisoned 432
__interceptor_backtrace_symbols,backtrace_symbols _ZN11__sanitizer10StackTrace12GetCurrentPcEv 540
__interceptor_backtrace_symbols,backtrace_symbols _ZN6__asan16GetCurrentThreadEv 584
__interceptor_backtrace_symbols,backtrace_symbols _ZN11__sanitizer18BufferedStackTrace6UnwindEjmmPvmmb 660
__interceptor_backtrace_symbols,backtrace_symbols _ZN6__asan23IsInterceptorSuppressedEPKc 680
__interceptor_backtrace_symbols,backtrace_symbols _ZN6__asan31HaveStackTraceBasedSuppressionsEv 692
__interceptor_backtrace_symbols,backtrace_symbols _ZN11__sanitizer10StackTrace12GetCurrentPcEv 704
__interceptor_backtrace_symbols,backtrace_symbols _ZN6__asan18ReportGenericErrorEmmmmbmjb 740
__interceptor_backtrace_symbols,backtrace_symbols _ZN11__sanitizer10StackTrace12GetCurrentPcEv 776
__interceptor_backtrace_symbols,backtrace_symbols _ZN6__asan16GetCurrentThreadEv 828
__interceptor_backtrace_symbols,backtrace_symbols _ZN11__sanitizer18BufferedStackTrace6UnwindEjmmPvmmb 908
__interceptor_backtrace_symbols,backtrace_symbols _ZN11__sanitizer18BufferedStackTrace6UnwindEjmmPvmmb 976
__interceptor_backtrace_symbols,backtrace_symbols _ZN6__asan22IsStackTraceSuppressedEPKN11__sanitizer10StackTraceE 988
__interceptor_backtrace_symbols,backtrace_symbols _ZN11__sanitizer18BufferedStackTrace6UnwindEjmmPvmmb 1064
__interceptor_backtrace_symbols,backtrace_symbols _ZN6__asan32ReportStringFunctionSizeOverflowEmmPN11__sanitizer18BufferedStackTraceE 1080
__interceptor_backtrace_symbols,backtrace_symbols __asan_region_is_poisoned 1112
__interceptor_backtrace_symbols,backtrace_symbols _ZN11__sanitizer10StackTrace12GetCurrentPcEv 1228
__interceptor_backtrace_symbols,backtrace_symbols _ZN6__asan16GetCurrentThreadEv 1276
__interceptor_backtrace_symbols,backtrace_symbols _ZN11__sanitizer18BufferedStackTrace6UnwindEjmmPvmmb 1356
__interceptor_backtrace_symbols,backtrace_symbols _ZN6__asan23IsInterceptorSuppressedEPKc 1376
__interceptor_backtrace_symbols,backtrace_symbols _ZN6__asan31HaveStackTraceBasedSuppressionsEv 1388
__interceptor_backtrace_symbols,backtrace_symbols _ZN11__sanitizer10StackTrace12GetCurrentPcEv 1408
__interceptor_backtrace_symbols,backtrace_symbols _ZN6__asan18ReportGenericErrorEmmmmbmjb 1448
__interceptor_backtrace_symbols,backtrace_symbols _ZN11__sanitizer10StackTrace12GetCurrentPcEv 1476
__interceptor_backtrace_symbols,backtrace_symbols _ZN6__asan16GetCurrentThreadEv 1524
__interceptor_backtrace_symbols,backtrace_symbols _ZN11__sanitizer18BufferedStackTrace6UnwindEjmmPvmmb 1600
__interceptor_backtrace_symbols,backtrace_symbols _ZN11__sanitizer18BufferedStackTrace6UnwindEjmmPvmmb 1668
__interceptor_backtrace_symbols,backtrace_symbols _ZN6__asan22IsStackTraceSuppressedEPKN11__sanitizer10StackTraceE 1680
__interceptor_backtrace_symbols,backtrace_symbols _ZN11__sanitizer18BufferedStackTrace6UnwindEjmmPvmmb 1752
__interceptor_backtrace_symbols,backtrace_symbols _ZN6__asan32ReportStringFunctionSizeOverflowEmmPN11__sanitizer18BufferedStackTraceE 1768
__interceptor_backtrace_symbols,backtrace_symbols __asan_region_is_poisoned 1800
__interceptor_backtrace_symbols,backtrace_symbols _ZN6__asan23IsInterceptorSuppressedEPKc 1824
__interceptor_backtrace_symbols,backtrace_symbols _ZN6__asan31HaveStackTraceBasedSuppressionsEv 1836
__interceptor_backtrace_symbols,backtrace_symbols _ZN11__sanitizer10StackTrace12GetCurrentPcEv 1848
__interceptor_backtrace_symbols,backtrace_symbols _ZN6__asan18ReportGenericErrorEmmmmbmjb 1888
__interceptor_backtrace_symbols,backtrace_symbols _ZN11__sanitizer10StackTrace12GetCurrentPcEv 1916
__interceptor_backtrace_symbols,backtrace_symbols _ZN6__asan16GetCurrentThreadEv 1968
__interceptor_backtrace_symbols,backtrace_symbols _ZN11__sanitizer18BufferedStackTrace6UnwindEjmmPvmmb 2048
__interceptor_backtrace_symbols,backtrace_symbols _ZN11__sanitizer18BufferedStackTrace6UnwindEjmmPvmmb 2116
__interceptor_backtrace_symbols,backtrace_symbols _ZN6__asan22IsStackTraceSuppressedEPKN11__sanitizer10StackTraceE 2124
__interceptor_backtrace_symbols,backtrace_symbols _ZN6__asan20asan_init_is_runningE 2144
__interceptor_backtrace_symbols,backtrace_symbols _ZN6__asan11asan_initedE 2152
__interceptor_backtrace_symbols,backtrace_symbols _ZN11__sanitizer21common_flags_dont_useE 2156
__interceptor_backtrace_symbols,backtrace_symbols .LC97 2164
__interceptor_backtrace_symbols,backtrace_symbols .LC97 2172
__interceptor_backtrace_symbols,backtrace_symbols .LC97 2176
_ZL12write_mntentPvPN11__sanitizer18__sanitizer_mntentE _ZN11__sanitizer10StackTrace12GetCurrentPcEv 72
_ZL12write_mntentPvPN11__sanitizer18__sanitizer_mntentE _ZN6__asan16GetCurrentThreadEv 116
_ZL12write_mntentPvPN11__sanitizer18__sanitizer_mntentE _ZN11__sanitizer18BufferedStackTrace6UnwindEjmmPvmmb 192
_ZL12write_mntentPvPN11__sanitizer18__sanitizer_mntentE _ZN11__sanitizer18BufferedStackTrace6UnwindEjmmPvmmb 260
_ZL12write_mntentPvPN11__sanitizer18__sanitizer_mntentE _ZN6__asan32ReportStringFunctionSizeOverflowEmmPN11__sanitizer18BufferedStackTraceE 276
_ZL12write_mntentPvPN11__sanitizer18__sanitizer_mntentE __asan_region_is_poisoned 308
_ZL12write_mntentPvPN11__sanitizer18__sanitizer_mntentE _ZN11__sanitizer10StackTrace12GetCurrentPcEv 396
_ZL12write_mntentPvPN11__sanitizer18__sanitizer_mntentE _ZN6__asan16GetCurrentThreadEv 444
_ZL12write_mntentPvPN11__sanitizer18__sanitizer_mntentE _ZN11__sanitizer18BufferedStackTrace6UnwindEjmmPvmmb 532
_ZL12write_mntentPvPN11__sanitizer18__sanitizer_mntentE _ZN6__asan23IsInterceptorSuppressedEPKc 560
_ZL12write_mntentPvPN11__sanitizer18__sanitizer_mntentE _ZN6__asan31HaveStackTraceBasedSuppressionsEv 572
_ZL12write_mntentPvPN11__sanitizer18__sanitizer_mntentE _ZN11__sanitizer10StackTrace12GetCurrentPcEv 584
_ZL12write_mntentPvPN11__sanitizer18__sanitizer_mntentE _ZN6__asan18ReportGenericErrorEmmmmbmjb 628
_ZL12write_mntentPvPN11__sanitizer18__sanitizer_mntentE _ZN11__sanitizer10StackTrace12GetCurrentPcEv 664
_ZL12write_mntentPvPN11__sanitizer18__sanitizer_mntentE _ZN6__asan16GetCurrentThreadEv 716
_ZL12write_mntentPvPN11__sanitizer18__sanitizer_mntentE _ZN11__sanitizer18BufferedStackTrace6UnwindEjmmPvmmb 796
_ZL12write_mntentPvPN11__sanitizer18__sanitizer_mntentE _ZN11__sanitizer18BufferedStackTrace6UnwindEjmmPvmmb 864
_ZL12write_mntentPvPN11__sanitizer18__sanitizer_mntentE _ZN6__asan22IsStackTraceSuppressedEPKN11__sanitizer10StackTraceE 872
_ZL12write_mntentPvPN11__sanitizer18__sanitizer_mntentE _ZN11__sanitizer18BufferedStackTrace6UnwindEjmmPvmmb 944
_ZL12write_mntentPvPN11__sanitizer18__sanitizer_mntentE _ZN6__asan32ReportStringFunctionSizeOverflowEmmPN11__sanitizer18BufferedStackTraceE 960
_ZL12write_mntentPvPN11__sanitizer18__sanitizer_mntentE __asan_region_is_poisoned 992
_ZL12write_mntentPvPN11__sanitizer18__sanitizer_mntentE _ZN11__sanitizer10StackTrace12GetCurrentPcEv 1084
_ZL12write_mntentPvPN11__sanitizer18__sanitizer_mntentE _ZN6__asan16GetCurrentThreadEv 1132
_ZL12write_mntentPvPN11__sanitizer18__sanitizer_mntentE _ZN11__sanitizer18BufferedStackTrace6UnwindEjmmPvmmb 1220
_ZL12write_mntentPvPN11__sanitizer18__sanitizer_mntentE _ZN6__asan23IsInterceptorSuppressedEPKc 1248
_ZL12write_mntentPvPN11__sanitizer18__sanitizer_mntentE _ZN6__asan31HaveStackTraceBasedSuppressionsEv 1260
_ZL12write_mntentPvPN11__sanitizer18__sanitizer_mntentE _ZN11__sanitizer10StackTrace12GetCurrentPcEv 1272
_ZL12write_mntentPvPN11__sanitizer18__sanitizer_mntentE _ZN6__asan18ReportGenericErrorEmmmmbmjb 1316
_ZL12write_mntentPvPN11__sanitizer18__sanitizer_mntentE _ZN11__sanitizer10StackTrace12GetCurrentPcEv 1352
_ZL12write_mntentPvPN11__sanitizer18__sanitizer_mntentE _ZN6__asan16GetCurrentThreadEv 1404
_ZL12write_mntentPvPN11__sanitizer18__sanitizer_mntentE _ZN11__sanitizer18BufferedStackTrace6UnwindEjmmPvmmb 1484
_ZL12write_mntentPvPN11__sanitizer18__sanitizer_mntentE _ZN11__sanitizer18BufferedStackTrace6UnwindEjmmPvmmb 1552
_ZL12write_mntentPvPN11__sanitizer18__sanitizer_mntentE _ZN6__asan22IsStackTraceSuppressedEPKN11__sanitizer10StackTraceE 1560
_ZL12write_mntentPvPN11__sanitizer18__sanitizer_mntentE _ZN11__sanitizer18BufferedStackTrace6UnwindEjmmPvmmb 1632
_ZL12write_mntentPvPN11__sanitizer18__sanitizer_mntentE _ZN6__asan32ReportStringFunctionSizeOverflowEmmPN11__sanitizer18BufferedStackTraceE 1648
_ZL12write_mntentPvPN11__sanitizer18__sanitizer_mntentE __asan_region_is_poisoned 1680
_ZL12write_mntentPvPN11__sanitizer18__sanitizer_mntentE _ZN11__sanitizer10StackTrace12GetCurrentPcEv 1772
_ZL12write_mntentPvPN11__sanitizer18__sanitizer_mntentE _ZN6__asan16GetCurrentThreadEv 1820
_ZL12write_mntentPvPN11__sanitizer18__sanitizer_mntentE _ZN11__sanitizer18BufferedStackTrace6UnwindEjmmPvmmb 1908
_ZL12write_mntentPvPN11__sanitizer18__sanitizer_mntentE _ZN6__asan23IsInterceptorSuppressedEPKc 1936
_ZL12write_mntentPvPN11__sanitizer18__sanitizer_mntentE _ZN6__asan31HaveStackTraceBasedSuppressionsEv 1948
_ZL12write_mntentPvPN11__sanitizer18__sanitizer_mntentE _ZN11__sanitizer10StackTrace12GetCurrentPcEv 1960
_ZL12write_mntentPvPN11__sanitizer18__sanitizer_mntentE _ZN6__asan18ReportGenericErrorEmmmmbmjb 2004
_ZL12write_mntentPvPN11__sanitizer18__sanitizer_mntentE _ZN11__sanitizer10StackTrace12GetCurrentPcEv 2040
_ZL12write_mntentPvPN11__sanitizer18__sanitizer_mntentE _ZN6__asan16GetCurrentThreadEv 2092
_ZL12write_mntentPvPN11__sanitizer18__sanitizer_mntentE _ZN11__sanitizer18BufferedStackTrace6UnwindEjmmPvmmb 2172
_ZL12write_mntentPvPN11__sanitizer18__sanitizer_mntentE _ZN11__sanitizer18BufferedStackTrace6UnwindEjmmPvmmb 2240
_ZL12write_mntentPvPN11__sanitizer18__sanitizer_mntentE _ZN6__asan22IsStackTraceSuppressedEPKN11__sanitizer10StackTraceE 2248
_ZL12write_mntentPvPN11__sanitizer18__sanitizer_mntentE _ZN11__sanitizer18BufferedStackTrace6UnwindEjmmPvmmb 2320
_ZL12write_mntentPvPN11__sanitizer18__sanitizer_mntentE _ZN6__asan32ReportStringFunctionSizeOverflowEmmPN11__sanitizer18BufferedStackTraceE 2336
_ZL12write_mntentPvPN11__sanitizer18__sanitizer_mntentE __asan_region_is_poisoned 2368
_ZL12write_mntentPvPN11__sanitizer18__sanitizer_mntentE _ZN11__sanitizer10StackTrace12GetCurrentPcEv 2460
_ZL12write_mntentPvPN11__sanitizer18__sanitizer_mntentE _ZN6__asan16GetCurrentThreadEv 2508
_ZL12write_mntentPvPN11__sanitizer18__sanitizer_mntentE _ZN11__sanitizer18BufferedStackTrace6UnwindEjmmPvmmb 2588
_ZL12write_mntentPvPN11__sanitizer18__sanitizer_mntentE _ZN6__asan23IsInterceptorSuppressedEPKc 2612
_ZL12write_mntentPvPN11__sanitizer18__sanitizer_mntentE _ZN6__asan31HaveStackTraceBasedSuppressionsEv 2624
_ZL12write_mntentPvPN11__sanitizer18__sanitizer_mntentE _ZN11__sanitizer10StackTrace12GetCurrentPcEv 2636
_ZL12write_mntentPvPN11__sanitizer18__sanitizer_mntentE _ZN6__asan18ReportGenericErrorEmmmmbmjb 2680
_ZL12write_mntentPvPN11__sanitizer18__sanitizer_mntentE _ZN11__sanitizer10StackTrace12GetCurrentPcEv 2716
_ZL12write_mntentPvPN11__sanitizer18__sanitizer_mntentE _ZN6__asan16GetCurrentThreadEv 2768
_ZL12write_mntentPvPN11__sanitizer18__sanitizer_mntentE _ZN11__sanitizer18BufferedStackTrace6UnwindEjmmPvmmb 2848
_ZL12write_mntentPvPN11__sanitizer18__sanitizer_mntentE _ZN11__sanitizer18BufferedStackTrace6UnwindEjmmPvmmb 2916
_ZL12write_mntentPvPN11__sanitizer18__sanitizer_mntentE _ZN6__asan22IsStackTraceSuppressedEPKN11__sanitizer10StackTraceE 2924
_ZL12write_mntentPvPN11__sanitizer18__sanitizer_mntentE _ZN11__sanitizer18BufferedStackTrace6UnwindEjmmPvmmb 2996
_ZL12write_mntentPvPN11__sanitizer18__sanitizer_mntentE _ZN6__asan32ReportStringFunctionSizeOverflowEmmPN11__sanitizer18BufferedStackTraceE 3012
_ZL12write_mntentPvPN11__sanitizer18__sanitizer_mntentE __asan_region_is_poisoned 3044
_ZL12write_mntentPvPN11__sanitizer18__sanitizer_mntentE _ZN6__asan23IsInterceptorSuppressedEPKc 3076
_ZL12write_mntentPvPN11__sanitizer18__sanitizer_mntentE _ZN6__asan31HaveStackTraceBasedSuppressionsEv 3088
_ZL12write_mntentPvPN11__sanitizer18__sanitizer_mntentE _ZN11__sanitizer10StackTrace12GetCurrentPcEv 3100
_ZL12write_mntentPvPN11__sanitizer18__sanitizer_mntentE _ZN6__asan18ReportGenericErrorEmmmmbmjb 3144
_ZL12write_mntentPvPN11__sanitizer18__sanitizer_mntentE _ZN11__sanitizer10StackTrace12GetCurrentPcEv 3180
_ZL12write_mntentPvPN11__sanitizer18__sanitizer_mntentE _ZN6__asan16GetCurrentThreadEv 3224
_ZL12write_mntentPvPN11__sanitizer18__sanitizer_mntentE _ZN11__sanitizer18BufferedStackTrace6UnwindEjmmPvmmb 3300
_ZL12write_mntentPvPN11__sanitizer18__sanitizer_mntentE _ZN11__sanitizer18BufferedStackTrace6UnwindEjmmPvmmb 3372
_ZL12write_mntentPvPN11__sanitizer18__sanitizer_mntentE _ZN6__asan22IsStackTraceSuppressedEPKN11__sanitizer10StackTraceE 3380
_ZL12write_mntentPvPN11__sanitizer18__sanitizer_mntentE _ZN11__sanitizer21common_flags_dont_useE 3400
_ZL12write_mntentPvPN11__sanitizer18__sanitizer_mntentE _ZN6__asan11asan_initedE 3404
__interceptor_getmntent_r,getmntent_r _ZN6__asan15AsanInitFromRtlEv 112
__interceptor_getmntent_r,getmntent_r .LC98 172
__interceptor_getmntent_r,getmntent_r _ZN6__asan20asan_init_is_runningE 180
__interceptor_getmntent_r,getmntent_r _ZN6__asan11asan_initedE 188
__interceptor_statfs,statfs _ZN6__asan15AsanInitFromRtlEv 104
__interceptor_statfs,statfs _ZN11__sanitizer10StackTrace12GetCurrentPcEv 180
__interceptor_statfs,statfs _ZN6__asan16GetCurrentThreadEv 220
__interceptor_statfs,statfs _ZN11__sanitizer18BufferedStackTrace6UnwindEjmmPvmmb 308
__interceptor_statfs,statfs _ZN11__sanitizer18BufferedStackTrace6UnwindEjmmPvmmb 380
__interceptor_statfs,statfs _ZN6__asan32ReportStringFunctionSizeOverflowEmmPN11__sanitizer18BufferedStackTraceE 396
__interceptor_statfs,statfs __asan_region_is_poisoned 428
__interceptor_statfs,statfs _ZN11__sanitizer10StackTrace12GetCurrentPcEv 524
__interceptor_statfs,statfs _ZN6__asan16GetCurrentThreadEv 564
__interceptor_statfs,statfs _ZN11__sanitizer18BufferedStackTrace6UnwindEjmmPvmmb 644
__interceptor_statfs,statfs _ZN6__asan23IsInterceptorSuppressedEPKc 664
__interceptor_statfs,statfs _ZN6__asan31HaveStackTraceBasedSuppressionsEv 676
__interceptor_statfs,statfs _ZN11__sanitizer10StackTrace12GetCurrentPcEv 688
__interceptor_statfs,statfs _ZN6__asan18ReportGenericErrorEmmmmbmjb 724
__interceptor_statfs,statfs _ZN11__sanitizer10StackTrace12GetCurrentPcEv 760
__interceptor_statfs,statfs _ZN6__asan16GetCurrentThreadEv 804
__interceptor_statfs,statfs _ZN11__sanitizer18BufferedStackTrace6UnwindEjmmPvmmb 892
__interceptor_statfs,statfs _ZN11__sanitizer18BufferedStackTrace6UnwindEjmmPvmmb 964
__interceptor_statfs,statfs _ZN6__asan22IsStackTraceSuppressedEPKN11__sanitizer10StackTraceE 976
__interceptor_statfs,statfs _ZN11__sanitizer18BufferedStackTrace6UnwindEjmmPvmmb 1048
__interceptor_statfs,statfs _ZN6__asan32ReportStringFunctionSizeOverflowEmmPN11__sanitizer18BufferedStackTraceE 1064
__interceptor_statfs,statfs __asan_region_is_poisoned 1096
__interceptor_statfs,statfs _ZN6__asan23IsInterceptorSuppressedEPKc 1116
__interceptor_statfs,statfs _ZN6__asan31HaveStackTraceBasedSuppressionsEv 1128
__interceptor_statfs,statfs _ZN11__sanitizer10StackTrace12GetCurrentPcEv 1148
__interceptor_statfs,statfs _ZN6__asan18ReportGenericErrorEmmmmbmjb 1188
__interceptor_statfs,statfs _ZN11__sanitizer10StackTrace12GetCurrentPcEv 1216
__interceptor_statfs,statfs _ZN6__asan16GetCurrentThreadEv 1256
__interceptor_statfs,statfs _ZN11__sanitizer18BufferedStackTrace6UnwindEjmmPvmmb 1332
__interceptor_statfs,statfs _ZN11__sanitizer18BufferedStackTrace6UnwindEjmmPvmmb 1400
__interceptor_statfs,statfs _ZN6__asan22IsStackTraceSuppressedEPKN11__sanitizer10StackTraceE 1408
__interceptor_statfs,statfs _ZN6__asan20asan_init_is_runningE 1428
__interceptor_statfs,statfs _ZN6__asan11asan_initedE 1436
__interceptor_statfs,statfs _ZN11__sanitizer21common_flags_dont_useE 1444
__interceptor_statfs,statfs _ZN11__sanitizer16struct_statfs_szE 1452
__interceptor_statfs,statfs .LC99 1456
__interceptor_statfs,statfs .LC99 1460
__interceptor_fstatfs,fstatfs _ZN6__asan15AsanInitFromRtlEv 104
__interceptor_fstatfs,fstatfs _ZN11__sanitizer10StackTrace12GetCurrentPcEv 188
__interceptor_fstatfs,fstatfs _ZN6__asan16GetCurrentThreadEv 228
__interceptor_fstatfs,fstatfs _ZN11__sanitizer18BufferedStackTrace6UnwindEjmmPvmmb 308
__interceptor_fstatfs,fstatfs _ZN11__sanitizer18BufferedStackTrace6UnwindEjmmPvmmb 376
__interceptor_fstatfs,fstatfs _ZN6__asan32ReportStringFunctionSizeOverflowEmmPN11__sanitizer18BufferedStackTraceE 392
__interceptor_fstatfs,fstatfs __asan_region_is_poisoned 424
__interceptor_fstatfs,fstatfs _ZN6__asan23IsInterceptorSuppressedEPKc 444
__interceptor_fstatfs,fstatfs _ZN6__asan31HaveStackTraceBasedSuppressionsEv 456
__interceptor_fstatfs,fstatfs _ZN11__sanitizer10StackTrace12GetCurrentPcEv 476
__interceptor_fstatfs,fstatfs _ZN6__asan18ReportGenericErrorEmmmmbmjb 516
__interceptor_fstatfs,fstatfs _ZN11__sanitizer10StackTrace12GetCurrentPcEv 544
__interceptor_fstatfs,fstatfs _ZN6__asan16GetCurrentThreadEv 584
__interceptor_fstatfs,fstatfs _ZN11__sanitizer18BufferedStackTrace6UnwindEjmmPvmmb 660
__interceptor_fstatfs,fstatfs _ZN11__sanitizer18BufferedStackTrace6UnwindEjmmPvmmb 728
__interceptor_fstatfs,fstatfs _ZN6__asan22IsStackTraceSuppressedEPKN11__sanitizer10StackTraceE 736
__interceptor_fstatfs,fstatfs _ZN6__asan20asan_init_is_runningE 756
__interceptor_fstatfs,fstatfs _ZN6__asan11asan_initedE 764
__interceptor_fstatfs,fstatfs _ZN11__sanitizer16struct_statfs_szE 772
__interceptor_fstatfs,fstatfs _ZN11__sanitizer21common_flags_dont_useE 776
__interceptor_fstatfs,fstatfs .LC100 780
__interceptor_statfs64,statfs64 _ZN6__asan15AsanInitFromRtlEv 104
__interceptor_statfs64,statfs64 _ZN11__sanitizer10StackTrace12GetCurrentPcEv 180
__interceptor_statfs64,statfs64 _ZN6__asan16GetCurrentThreadEv 220
__interceptor_statfs64,statfs64 _ZN11__sanitizer18BufferedStackTrace6UnwindEjmmPvmmb 308
__interceptor_statfs64,statfs64 _ZN11__sanitizer18BufferedStackTrace6UnwindEjmmPvmmb 380
__interceptor_statfs64,statfs64 _ZN6__asan32ReportStringFunctionSizeOverflowEmmPN11__sanitizer18BufferedStackTraceE 396
__interceptor_statfs64,statfs64 __asan_region_is_poisoned 428
__interceptor_statfs64,statfs64 _ZN11__sanitizer10StackTrace12GetCurrentPcEv 524
__interceptor_statfs64,statfs64 _ZN6__asan16GetCurrentThreadEv 564
__interceptor_statfs64,statfs64 _ZN11__sanitizer18BufferedStackTrace6UnwindEjmmPvmmb 644
__interceptor_statfs64,statfs64 _ZN6__asan23IsInterceptorSuppressedEPKc 664
__interceptor_statfs64,statfs64 _ZN6__asan31HaveStackTraceBasedSuppressionsEv 676
__interceptor_statfs64,statfs64 _ZN11__sanitizer10StackTrace12GetCurrentPcEv 688
__interceptor_statfs64,statfs64 _ZN6__asan18ReportGenericErrorEmmmmbmjb 724
__interceptor_statfs64,statfs64 _ZN11__sanitizer10StackTrace12GetCurrentPcEv 760
__interceptor_statfs64,statfs64 _ZN6__asan16GetCurrentThreadEv 804
__interceptor_statfs64,statfs64 _ZN11__sanitizer18BufferedStackTrace6UnwindEjmmPvmmb 892
__interceptor_statfs64,statfs64 _ZN11__sanitizer18BufferedStackTrace6UnwindEjmmPvmmb 964
__interceptor_statfs64,statfs64 _ZN6__asan22IsStackTraceSuppressedEPKN11__sanitizer10StackTraceE 976
__interceptor_statfs64,statfs64 _ZN11__sanitizer18BufferedStackTrace6UnwindEjmmPvmmb 1048
__interceptor_statfs64,statfs64 _ZN6__asan32ReportStringFunctionSizeOverflowEmmPN11__sanitizer18BufferedStackTraceE 1064
__interceptor_statfs64,statfs64 __asan_region_is_poisoned 1096
__interceptor_statfs64,statfs64 _ZN6__asan23IsInterceptorSuppressedEPKc 1116
__interceptor_statfs64,statfs64 _ZN6__asan31HaveStackTraceBasedSuppressionsEv 1128
__interceptor_statfs64,statfs64 _ZN11__sanitizer10StackTrace12GetCurrentPcEv 1148
__interceptor_statfs64,statfs64 _ZN6__asan18ReportGenericErrorEmmmmbmjb 1188
__interceptor_statfs64,statfs64 _ZN11__sanitizer10StackTrace12GetCurrentPcEv 1216
__interceptor_statfs64,statfs64 _ZN6__asan16GetCurrentThreadEv 1256
__interceptor_statfs64,statfs64 _ZN11__sanitizer18BufferedStackTrace6UnwindEjmmPvmmb 1332
__interceptor_statfs64,statfs64 _ZN11__sanitizer18BufferedStackTrace6UnwindEjmmPvmmb 1400
__interceptor_statfs64,statfs64 _ZN6__asan22IsStackTraceSuppressedEPKN11__sanitizer10StackTraceE 1408
__interceptor_statfs64,statfs64 _ZN6__asan20asan_init_is_runningE 1428
__interceptor_statfs64,statfs64 _ZN6__asan11asan_initedE 1436
__interceptor_statfs64,statfs64 _ZN11__sanitizer21common_flags_dont_useE 1444
__interceptor_statfs64,statfs64 _ZN11__sanitizer18struct_statfs64_szE 1452
__interceptor_statfs64,statfs64 .LC101 1456
__interceptor_statfs64,statfs64 .LC101 1460
__interceptor_fstatfs64,fstatfs64 _ZN6__asan15AsanInitFromRtlEv 104
__interceptor_fstatfs64,fstatfs64 _ZN11__sanitizer10StackTrace12GetCurrentPcEv 188
__interceptor_fstatfs64,fstatfs64 _ZN6__asan16GetCurrentThreadEv 228
__interceptor_fstatfs64,fstatfs64 _ZN11__sanitizer18BufferedStackTrace6UnwindEjmmPvmmb 308
__interceptor_fstatfs64,fstatfs64 _ZN11__sanitizer18BufferedStackTrace6UnwindEjmmPvmmb 376
__interceptor_fstatfs64,fstatfs64 _ZN6__asan32ReportStringFunctionSizeOverflowEmmPN11__sanitizer18BufferedStackTraceE 392
__interceptor_fstatfs64,fstatfs64 __asan_region_is_poisoned 424
__interceptor_fstatfs64,fstatfs64 _ZN6__asan23IsInterceptorSuppressedEPKc 444
__interceptor_fstatfs64,fstatfs64 _ZN6__asan31HaveStackTraceBasedSuppressionsEv 456
__interceptor_fstatfs64,fstatfs64 _ZN11__sanitizer10StackTrace12GetCurrentPcEv 476
__interceptor_fstatfs64,fstatfs64 _ZN6__asan18ReportGenericErrorEmmmmbmjb 516
__interceptor_fstatfs64,fstatfs64 _ZN11__sanitizer10StackTrace12GetCurrentPcEv 544
__interceptor_fstatfs64,fstatfs64 _ZN6__asan16GetCurrentThreadEv 584
__interceptor_fstatfs64,fstatfs64 _ZN11__sanitizer18BufferedStackTrace6UnwindEjmmPvmmb 660
__interceptor_fstatfs64,fstatfs64 _ZN11__sanitizer18BufferedStackTrace6UnwindEjmmPvmmb 728
__interceptor_fstatfs64,fstatfs64 _ZN6__asan22IsStackTraceSuppressedEPKN11__sanitizer10StackTraceE 736
__interceptor_fstatfs64,fstatfs64 _ZN6__asan20asan_init_is_runningE 756
__interceptor_fstatfs64,fstatfs64 _ZN6__asan11asan_initedE 764
__interceptor_fstatfs64,fstatfs64 _ZN11__sanitizer18struct_statfs64_szE 772
__interceptor_fstatfs64,fstatfs64 _ZN11__sanitizer21common_flags_dont_useE 776
__interceptor_fstatfs64,fstatfs64 .LC102 780
__interceptor_statvfs,statvfs _ZN6__asan15AsanInitFromRtlEv 104
__interceptor_statvfs,statvfs _ZN11__sanitizer10StackTrace12GetCurrentPcEv 180
__interceptor_statvfs,statvfs _ZN6__asan16GetCurrentThreadEv 220
__interceptor_statvfs,statvfs _ZN11__sanitizer18BufferedStackTrace6UnwindEjmmPvmmb 308
__interceptor_statvfs,statvfs _ZN11__sanitizer18BufferedStackTrace6UnwindEjmmPvmmb 380
__interceptor_statvfs,statvfs _ZN6__asan32ReportStringFunctionSizeOverflowEmmPN11__sanitizer18BufferedStackTraceE 396
__interceptor_statvfs,statvfs __asan_region_is_poisoned 428
__interceptor_statvfs,statvfs _ZN11__sanitizer10StackTrace12GetCurrentPcEv 524
__interceptor_statvfs,statvfs _ZN6__asan16GetCurrentThreadEv 564
__interceptor_statvfs,statvfs _ZN11__sanitizer18BufferedStackTrace6UnwindEjmmPvmmb 644
__interceptor_statvfs,statvfs _ZN6__asan23IsInterceptorSuppressedEPKc 664
__interceptor_statvfs,statvfs _ZN6__asan31HaveStackTraceBasedSuppressionsEv 676
__interceptor_statvfs,statvfs _ZN11__sanitizer10StackTrace12GetCurrentPcEv 688
__interceptor_statvfs,statvfs _ZN6__asan18ReportGenericErrorEmmmmbmjb 724
__interceptor_statvfs,statvfs _ZN11__sanitizer10StackTrace12GetCurrentPcEv 760
__interceptor_statvfs,statvfs _ZN6__asan16GetCurrentThreadEv 804
__interceptor_statvfs,statvfs _ZN11__sanitizer18BufferedStackTrace6UnwindEjmmPvmmb 892
__interceptor_statvfs,statvfs _ZN11__sanitizer18BufferedStackTrace6UnwindEjmmPvmmb 964
__interceptor_statvfs,statvfs _ZN6__asan22IsStackTraceSuppressedEPKN11__sanitizer10StackTraceE 976
__interceptor_statvfs,statvfs _ZN11__sanitizer18BufferedStackTrace6UnwindEjmmPvmmb 1048
__interceptor_statvfs,statvfs _ZN6__asan32ReportStringFunctionSizeOverflowEmmPN11__sanitizer18BufferedStackTraceE 1064
__interceptor_statvfs,statvfs __asan_region_is_poisoned 1096
__interceptor_statvfs,statvfs _ZN6__asan23IsInterceptorSuppressedEPKc 1116
__interceptor_statvfs,statvfs _ZN6__asan31HaveStackTraceBasedSuppressionsEv 1128
__interceptor_statvfs,statvfs _ZN11__sanitizer10StackTrace12GetCurrentPcEv 1148
__interceptor_statvfs,statvfs _ZN6__asan18ReportGenericErrorEmmmmbmjb 1188
__interceptor_statvfs,statvfs _ZN11__sanitizer10StackTrace12GetCurrentPcEv 1216
__interceptor_statvfs,statvfs _ZN6__asan16GetCurrentThreadEv 1256
__interceptor_statvfs,statvfs _ZN11__sanitizer18BufferedStackTrace6UnwindEjmmPvmmb 1332
__interceptor_statvfs,statvfs _ZN11__sanitizer18BufferedStackTrace6UnwindEjmmPvmmb 1400
__interceptor_statvfs,statvfs _ZN6__asan22IsStackTraceSuppressedEPKN11__sanitizer10StackTraceE 1408
__interceptor_statvfs,statvfs _ZN6__asan20asan_init_is_runningE 1428
__interceptor_statvfs,statvfs _ZN6__asan11asan_initedE 1436
__interceptor_statvfs,statvfs _ZN11__sanitizer21common_flags_dont_useE 1444
__interceptor_statvfs,statvfs _ZN11__sanitizer17struct_statvfs_szE 1452
__interceptor_statvfs,statvfs .LC103 1456
__interceptor_statvfs,statvfs .LC103 1460
__interceptor_fstatvfs,fstatvfs _ZN6__asan15AsanInitFromRtlEv 104
__interceptor_fstatvfs,fstatvfs _ZN11__sanitizer10StackTrace12GetCurrentPcEv 188
__interceptor_fstatvfs,fstatvfs _ZN6__asan16GetCurrentThreadEv 228
__interceptor_fstatvfs,fstatvfs _ZN11__sanitizer18BufferedStackTrace6UnwindEjmmPvmmb 308
__interceptor_fstatvfs,fstatvfs _ZN11__sanitizer18BufferedStackTrace6UnwindEjmmPvmmb 376
__interceptor_fstatvfs,fstatvfs _ZN6__asan32ReportStringFunctionSizeOverflowEmmPN11__sanitizer18BufferedStackTraceE 392
__interceptor_fstatvfs,fstatvfs __asan_region_is_poisoned 424
__interceptor_fstatvfs,fstatvfs _ZN6__asan23IsInterceptorSuppressedEPKc 444
__interceptor_fstatvfs,fstatvfs _ZN6__asan31HaveStackTraceBasedSuppressionsEv 456
__interceptor_fstatvfs,fstatvfs _ZN11__sanitizer10StackTrace12GetCurrentPcEv 476
__interceptor_fstatvfs,fstatvfs _ZN6__asan18ReportGenericErrorEmmmmbmjb 516
__interceptor_fstatvfs,fstatvfs _ZN11__sanitizer10StackTrace12GetCurrentPcEv 544
__interceptor_fstatvfs,fstatvfs _ZN6__asan16GetCurrentThreadEv 584
__interceptor_fstatvfs,fstatvfs _ZN11__sanitizer18BufferedStackTrace6UnwindEjmmPvmmb 660
__interceptor_fstatvfs,fstatvfs _ZN11__sanitizer18BufferedStackTrace6UnwindEjmmPvmmb 728
__interceptor_fstatvfs,fstatvfs _ZN6__asan22IsStackTraceSuppressedEPKN11__sanitizer10StackTraceE 736
__interceptor_fstatvfs,fstatvfs _ZN6__asan20asan_init_is_runningE 756
__interceptor_fstatvfs,fstatvfs _ZN6__asan11asan_initedE 764
__interceptor_fstatvfs,fstatvfs _ZN11__sanitizer17struct_statvfs_szE 772
__interceptor_fstatvfs,fstatvfs _ZN11__sanitizer21common_flags_dont_useE 776
__interceptor_fstatvfs,fstatvfs .LC104 780
__interceptor_statvfs64,statvfs64 _ZN6__asan15AsanInitFromRtlEv 104
__interceptor_statvfs64,statvfs64 _ZN11__sanitizer10StackTrace12GetCurrentPcEv 180
__interceptor_statvfs64,statvfs64 _ZN6__asan16GetCurrentThreadEv 220
__interceptor_statvfs64,statvfs64 _ZN11__sanitizer18BufferedStackTrace6UnwindEjmmPvmmb 308
__interceptor_statvfs64,statvfs64 _ZN11__sanitizer18BufferedStackTrace6UnwindEjmmPvmmb 380
__interceptor_statvfs64,statvfs64 _ZN6__asan32ReportStringFunctionSizeOverflowEmmPN11__sanitizer18BufferedStackTraceE 396
__interceptor_statvfs64,statvfs64 __asan_region_is_poisoned 428
__interceptor_statvfs64,statvfs64 _ZN11__sanitizer10StackTrace12GetCurrentPcEv 524
__interceptor_statvfs64,statvfs64 _ZN6__asan16GetCurrentThreadEv 564
__interceptor_statvfs64,statvfs64 _ZN11__sanitizer18BufferedStackTrace6UnwindEjmmPvmmb 644
__interceptor_statvfs64,statvfs64 _ZN6__asan23IsInterceptorSuppressedEPKc 664
__interceptor_statvfs64,statvfs64 _ZN6__asan31HaveStackTraceBasedSuppressionsEv 676
__interceptor_statvfs64,statvfs64 _ZN11__sanitizer10StackTrace12GetCurrentPcEv 688
__interceptor_statvfs64,statvfs64 _ZN6__asan18ReportGenericErrorEmmmmbmjb 724
__interceptor_statvfs64,statvfs64 _ZN11__sanitizer10StackTrace12GetCurrentPcEv 760
__interceptor_statvfs64,statvfs64 _ZN6__asan16GetCurrentThreadEv 804
__interceptor_statvfs64,statvfs64 _ZN11__sanitizer18BufferedStackTrace6UnwindEjmmPvmmb 892
__interceptor_statvfs64,statvfs64 _ZN11__sanitizer18BufferedStackTrace6UnwindEjmmPvmmb 964
__interceptor_statvfs64,statvfs64 _ZN6__asan22IsStackTraceSuppressedEPKN11__sanitizer10StackTraceE 976
__interceptor_statvfs64,statvfs64 _ZN11__sanitizer18BufferedStackTrace6UnwindEjmmPvmmb 1048
__interceptor_statvfs64,statvfs64 _ZN6__asan32ReportStringFunctionSizeOverflowEmmPN11__sanitizer18BufferedStackTraceE 1064
__interceptor_statvfs64,statvfs64 __asan_region_is_poisoned 1096
__interceptor_statvfs64,statvfs64 _ZN6__asan23IsInterceptorSuppressedEPKc 1116
__interceptor_statvfs64,statvfs64 _ZN6__asan31HaveStackTraceBasedSuppressionsEv 1128
__interceptor_statvfs64,statvfs64 _ZN11__sanitizer10StackTrace12GetCurrentPcEv 1148
__interceptor_statvfs64,statvfs64 _ZN6__asan18ReportGenericErrorEmmmmbmjb 1188
__interceptor_statvfs64,statvfs64 _ZN11__sanitizer10StackTrace12GetCurrentPcEv 1216
__interceptor_statvfs64,statvfs64 _ZN6__asan16GetCurrentThreadEv 1256
__interceptor_statvfs64,statvfs64 _ZN11__sanitizer18BufferedStackTrace6UnwindEjmmPvmmb 1332
__interceptor_statvfs64,statvfs64 _ZN11__sanitizer18BufferedStackTrace6UnwindEjmmPvmmb 1400
__interceptor_statvfs64,statvfs64 _ZN6__asan22IsStackTraceSuppressedEPKN11__sanitizer10StackTraceE 1408
__interceptor_statvfs64,statvfs64 _ZN6__asan20asan_init_is_runningE 1428
__interceptor_statvfs64,statvfs64 _ZN6__asan11asan_initedE 1436
__interceptor_statvfs64,statvfs64 _ZN11__sanitizer21common_flags_dont_useE 1444
__interceptor_statvfs64,statvfs64 _ZN11__sanitizer19struct_statvfs64_szE 1452
__interceptor_statvfs64,statvfs64 .LC105 1456
__interceptor_statvfs64,statvfs64 .LC105 1460
__interceptor_fstatvfs64,fstatvfs64 _ZN6__asan15AsanInitFromRtlEv 104
__interceptor_fstatvfs64,fstatvfs64 _ZN11__sanitizer10StackTrace12GetCurrentPcEv 188
__interceptor_fstatvfs64,fstatvfs64 _ZN6__asan16GetCurrentThreadEv 228
__interceptor_fstatvfs64,fstatvfs64 _ZN11__sanitizer18BufferedStackTrace6UnwindEjmmPvmmb 308
__interceptor_fstatvfs64,fstatvfs64 _ZN11__sanitizer18BufferedStackTrace6UnwindEjmmPvmmb 376
__interceptor_fstatvfs64,fstatvfs64 _ZN6__asan32ReportStringFunctionSizeOverflowEmmPN11__sanitizer18BufferedStackTraceE 392
__interceptor_fstatvfs64,fstatvfs64 __asan_region_is_poisoned 424
__interceptor_fstatvfs64,fstatvfs64 _ZN6__asan23IsInterceptorSuppressedEPKc 444
__interceptor_fstatvfs64,fstatvfs64 _ZN6__asan31HaveStackTraceBasedSuppressionsEv 456
__interceptor_fstatvfs64,fstatvfs64 _ZN11__sanitizer10StackTrace12GetCurrentPcEv 476
__interceptor_fstatvfs64,fstatvfs64 _ZN6__asan18ReportGenericErrorEmmmmbmjb 516
__interceptor_fstatvfs64,fstatvfs64 _ZN11__sanitizer10StackTrace12GetCurrentPcEv 544
__interceptor_fstatvfs64,fstatvfs64 _ZN6__asan16GetCurrentThreadEv 584
__interceptor_fstatvfs64,fstatvfs64 _ZN11__sanitizer18BufferedStackTrace6UnwindEjmmPvmmb 660
__interceptor_fstatvfs64,fstatvfs64 _ZN11__sanitizer18BufferedStackTrace6UnwindEjmmPvmmb 728
__interceptor_fstatvfs64,fstatvfs64 _ZN6__asan22IsStackTraceSuppressedEPKN11__sanitizer10StackTraceE 736
__interceptor_fstatvfs64,fstatvfs64 _ZN6__asan20asan_init_is_runningE 756
__interceptor_fstatvfs64,fstatvfs64 _ZN6__asan11asan_initedE 764
__interceptor_fstatvfs64,fstatvfs64 _ZN11__sanitizer19struct_statvfs64_szE 772
__interceptor_fstatvfs64,fstatvfs64 _ZN11__sanitizer21common_flags_dont_useE 776
__interceptor_fstatvfs64,fstatvfs64 .LC106 780
__interceptor_initgroups,initgroups _ZN6__asan15AsanInitFromRtlEv 96
__interceptor_initgroups,initgroups _ZN11__sanitizer10StackTrace12GetCurrentPcEv 172
__interceptor_initgroups,initgroups _ZN6__asan16GetCurrentThreadEv 212
__interceptor_initgroups,initgroups _ZN11__sanitizer18BufferedStackTrace6UnwindEjmmPvmmb 292
__interceptor_initgroups,initgroups _ZN11__sanitizer18BufferedStackTrace6UnwindEjmmPvmmb 360
__interceptor_initgroups,initgroups _ZN6__asan32ReportStringFunctionSizeOverflowEmmPN11__sanitizer18BufferedStackTraceE 376
__interceptor_initgroups,initgroups __asan_region_is_poisoned 408
__interceptor_initgroups,initgroups _ZN6__asan23IsInterceptorSuppressedEPKc 456
__interceptor_initgroups,initgroups _ZN6__asan31HaveStackTraceBasedSuppressionsEv 468
__interceptor_initgroups,initgroups _ZN11__sanitizer10StackTrace12GetCurrentPcEv 488
__interceptor_initgroups,initgroups _ZN6__asan18ReportGenericErrorEmmmmbmjb 520
__interceptor_initgroups,initgroups _ZN11__sanitizer10StackTrace12GetCurrentPcEv 548
__interceptor_initgroups,initgroups _ZN6__asan16GetCurrentThreadEv 588
__interceptor_initgroups,initgroups _ZN11__sanitizer18BufferedStackTrace6UnwindEjmmPvmmb 664
__interceptor_initgroups,initgroups _ZN11__sanitizer18BufferedStackTrace6UnwindEjmmPvmmb 732
__interceptor_initgroups,initgroups _ZN6__asan22IsStackTraceSuppressedEPKN11__sanitizer10StackTraceE 740
__interceptor_initgroups,initgroups _ZN6__asan20asan_init_is_runningE 760
__interceptor_initgroups,initgroups _ZN6__asan11asan_initedE 768
__interceptor_initgroups,initgroups _ZN11__sanitizer21common_flags_dont_useE 776
__interceptor_initgroups,initgroups .LC107 784
__interceptor_ether_ntoa,ether_ntoa _ZN6__asan15AsanInitFromRtlEv 92
__interceptor_ether_ntoa,ether_ntoa _ZN11__sanitizer10StackTrace12GetCurrentPcEv 144
__interceptor_ether_ntoa,ether_ntoa _ZN6__asan16GetCurrentThreadEv 180
__interceptor_ether_ntoa,ether_ntoa _ZN11__sanitizer18BufferedStackTrace6UnwindEjmmPvmmb 256
__interceptor_ether_ntoa,ether_ntoa _ZN11__sanitizer18BufferedStackTrace6UnwindEjmmPvmmb 324
__interceptor_ether_ntoa,ether_ntoa _ZN6__asan32ReportStringFunctionSizeOverflowEmmPN11__sanitizer18BufferedStackTraceE 340
__interceptor_ether_ntoa,ether_ntoa __asan_region_is_poisoned 372
__interceptor_ether_ntoa,ether_ntoa _ZN6__asan23IsInterceptorSuppressedEPKc 416
__interceptor_ether_ntoa,ether_ntoa _ZN6__asan31HaveStackTraceBasedSuppressionsEv 428
__interceptor_ether_ntoa,ether_ntoa _ZN11__sanitizer10StackTrace12GetCurrentPcEv 448
__interceptor_ether_ntoa,ether_ntoa _ZN6__asan18ReportGenericErrorEmmmmbmjb 488
__interceptor_ether_ntoa,ether_ntoa _ZN11__sanitizer10StackTrace12GetCurrentPcEv 516
__interceptor_ether_ntoa,ether_ntoa _ZN6__asan16GetCurrentThreadEv 552
__interceptor_ether_ntoa,ether_ntoa _ZN11__sanitizer18BufferedStackTrace6UnwindEjmmPvmmb 628
__interceptor_ether_ntoa,ether_ntoa _ZN11__sanitizer18BufferedStackTrace6UnwindEjmmPvmmb 700
__interceptor_ether_ntoa,ether_ntoa _ZN6__asan22IsStackTraceSuppressedEPKN11__sanitizer10StackTraceE 708
__interceptor_ether_ntoa,ether_ntoa _ZN6__asan20asan_init_is_runningE 728
__interceptor_ether_ntoa,ether_ntoa _ZN6__asan11asan_initedE 736
__interceptor_ether_ntoa,ether_ntoa _ZN11__sanitizer21common_flags_dont_useE 740
__interceptor_ether_ntoa,ether_ntoa .LC108 748
__interceptor_ether_aton,ether_aton _ZN6__asan15AsanInitFromRtlEv 92
__interceptor_ether_aton,ether_aton _ZN11__sanitizer10StackTrace12GetCurrentPcEv 168
__interceptor_ether_aton,ether_aton _ZN6__asan16GetCurrentThreadEv 208
__interceptor_ether_aton,ether_aton _ZN11__sanitizer18BufferedStackTrace6UnwindEjmmPvmmb 288
__interceptor_ether_aton,ether_aton _ZN11__sanitizer18BufferedStackTrace6UnwindEjmmPvmmb 356
__interceptor_ether_aton,ether_aton _ZN6__asan32ReportStringFunctionSizeOverflowEmmPN11__sanitizer18BufferedStackTraceE 372
__interceptor_ether_aton,ether_aton __asan_region_is_poisoned 404
__interceptor_ether_aton,ether_aton _ZN6__asan23IsInterceptorSuppressedEPKc 444
__interceptor_ether_aton,ether_aton _ZN6__asan31HaveStackTraceBasedSuppressionsEv 456
__interceptor_ether_aton,ether_aton _ZN11__sanitizer10StackTrace12GetCurrentPcEv 476
__interceptor_ether_aton,ether_aton _ZN6__asan18ReportGenericErrorEmmmmbmjb 508
__interceptor_ether_aton,ether_aton _ZN11__sanitizer10StackTrace12GetCurrentPcEv 536
__interceptor_ether_aton,ether_aton _ZN6__asan16GetCurrentThreadEv 576
__interceptor_ether_aton,ether_aton _ZN11__sanitizer18BufferedStackTrace6UnwindEjmmPvmmb 652
__interceptor_ether_aton,ether_aton _ZN11__sanitizer18BufferedStackTrace6UnwindEjmmPvmmb 720
__interceptor_ether_aton,ether_aton _ZN6__asan22IsStackTraceSuppressedEPKN11__sanitizer10StackTraceE 728
__interceptor_ether_aton,ether_aton _ZN6__asan20asan_init_is_runningE 748
__interceptor_ether_aton,ether_aton _ZN6__asan11asan_initedE 756
__interceptor_ether_aton,ether_aton _ZN11__sanitizer21common_flags_dont_useE 764
__interceptor_ether_aton,ether_aton .LC109 772
__interceptor_ether_ntohost,ether_ntohost _ZN6__asan15AsanInitFromRtlEv 96
__interceptor_ether_ntohost,ether_ntohost _ZN11__sanitizer10StackTrace12GetCurrentPcEv 148
__interceptor_ether_ntohost,ether_ntohost _ZN6__asan16GetCurrentThreadEv 188
__interceptor_ether_ntohost,ether_ntohost _ZN11__sanitizer18BufferedStackTrace6UnwindEjmmPvmmb 268
__interceptor_ether_ntohost,ether_ntohost __asan_region_is_poisoned 288
__interceptor_ether_ntohost,ether_ntohost _ZN6__asan23IsInterceptorSuppressedEPKc 312
__interceptor_ether_ntohost,ether_ntohost _ZN6__asan31HaveStackTraceBasedSuppressionsEv 324
__interceptor_ether_ntohost,ether_ntohost _ZN11__sanitizer10StackTrace12GetCurrentPcEv 344
__interceptor_ether_ntohost,ether_ntohost _ZN6__asan18ReportGenericErrorEmmmmbmjb 384
__interceptor_ether_ntohost,ether_ntohost _ZN11__sanitizer18BufferedStackTrace6UnwindEjmmPvmmb 448
__interceptor_ether_ntohost,ether_ntohost _ZN6__asan32ReportStringFunctionSizeOverflowEmmPN11__sanitizer18BufferedStackTraceE 464
__interceptor_ether_ntohost,ether_ntohost __asan_region_is_poisoned 496
__interceptor_ether_ntohost,ether_ntohost _ZN11__sanitizer10StackTrace12GetCurrentPcEv 616
__interceptor_ether_ntohost,ether_ntohost _ZN6__asan16GetCurrentThreadEv 656
__interceptor_ether_ntohost,ether_ntohost _ZN11__sanitizer18BufferedStackTrace6UnwindEjmmPvmmb 736
__interceptor_ether_ntohost,ether_ntohost _ZN6__asan23IsInterceptorSuppressedEPKc 756
__interceptor_ether_ntohost,ether_ntohost _ZN6__asan31HaveStackTraceBasedSuppressionsEv 768
__interceptor_ether_ntohost,ether_ntohost _ZN11__sanitizer10StackTrace12GetCurrentPcEv 788
__interceptor_ether_ntohost,ether_ntohost _ZN6__asan18ReportGenericErrorEmmmmbmjb 828
__interceptor_ether_ntohost,ether_ntohost _ZN11__sanitizer10StackTrace12GetCurrentPcEv 856
__interceptor_ether_ntohost,ether_ntohost _ZN6__asan16GetCurrentThreadEv 900
__interceptor_ether_ntohost,ether_ntohost _ZN11__sanitizer18BufferedStackTrace6UnwindEjmmPvmmb 980
__interceptor_ether_ntohost,ether_ntohost _ZN11__sanitizer18BufferedStackTrace6UnwindEjmmPvmmb 1048
__interceptor_ether_ntohost,ether_ntohost _ZN6__asan22IsStackTraceSuppressedEPKN11__sanitizer10StackTraceE 1056
__interceptor_ether_ntohost,ether_ntohost _ZN11__sanitizer18BufferedStackTrace6UnwindEjmmPvmmb 1128
__interceptor_ether_ntohost,ether_ntohost _ZN6__asan32ReportStringFunctionSizeOverflowEmmPN11__sanitizer18BufferedStackTraceE 1144
__interceptor_ether_ntohost,ether_ntohost _ZN11__sanitizer10StackTrace12GetCurrentPcEv 1196
__interceptor_ether_ntohost,ether_ntohost _ZN6__asan16GetCurrentThreadEv 1232
__interceptor_ether_ntohost,ether_ntohost _ZN11__sanitizer18BufferedStackTrace6UnwindEjmmPvmmb 1308
__interceptor_ether_ntohost,ether_ntohost _ZN11__sanitizer18BufferedStackTrace6UnwindEjmmPvmmb 1380
__interceptor_ether_ntohost,ether_ntohost _ZN6__asan22IsStackTraceSuppressedEPKN11__sanitizer10StackTraceE 1388
__interceptor_ether_ntohost,ether_ntohost _ZN6__asan20asan_init_is_runningE 1408
__interceptor_ether_ntohost,ether_ntohost _ZN6__asan11asan_initedE 1416
__interceptor_ether_ntohost,ether_ntohost _ZN11__sanitizer21common_flags_dont_useE 1420
__interceptor_ether_ntohost,ether_ntohost .LC110 1424
__interceptor_ether_ntohost,ether_ntohost .LC110 1432
__interceptor_ether_hostton,ether_hostton _ZN6__asan15AsanInitFromRtlEv 96
__interceptor_ether_hostton,ether_hostton _ZN11__sanitizer10StackTrace12GetCurrentPcEv 172
__interceptor_ether_hostton,ether_hostton _ZN6__asan16GetCurrentThreadEv 212
__interceptor_ether_hostton,ether_hostton _ZN11__sanitizer18BufferedStackTrace6UnwindEjmmPvmmb 300
__interceptor_ether_hostton,ether_hostton __asan_region_is_poisoned 324
__interceptor_ether_hostton,ether_hostton _ZN6__asan23IsInterceptorSuppressedEPKc 344
__interceptor_ether_hostton,ether_hostton _ZN6__asan31HaveStackTraceBasedSuppressionsEv 356
__interceptor_ether_hostton,ether_hostton _ZN11__sanitizer10StackTrace12GetCurrentPcEv 376
__interceptor_ether_hostton,ether_hostton _ZN6__asan18ReportGenericErrorEmmmmbmjb 416
__interceptor_ether_hostton,ether_hostton _ZN11__sanitizer18BufferedStackTrace6UnwindEjmmPvmmb 480
__interceptor_ether_hostton,ether_hostton _ZN6__asan32ReportStringFunctionSizeOverflowEmmPN11__sanitizer18BufferedStackTraceE 496
__interceptor_ether_hostton,ether_hostton __asan_region_is_poisoned 528
__interceptor_ether_hostton,ether_hostton _ZN11__sanitizer10StackTrace12GetCurrentPcEv 632
__interceptor_ether_hostton,ether_hostton _ZN6__asan16GetCurrentThreadEv 668
__interceptor_ether_hostton,ether_hostton _ZN11__sanitizer18BufferedStackTrace6UnwindEjmmPvmmb 744
__interceptor_ether_hostton,ether_hostton _ZN6__asan23IsInterceptorSuppressedEPKc 764
__interceptor_ether_hostton,ether_hostton _ZN6__asan31HaveStackTraceBasedSuppressionsEv 776
__interceptor_ether_hostton,ether_hostton _ZN11__sanitizer10StackTrace12GetCurrentPcEv 788
__interceptor_ether_hostton,ether_hostton _ZN6__asan18ReportGenericErrorEmmmmbmjb 824
__interceptor_ether_hostton,ether_hostton _ZN11__sanitizer10StackTrace12GetCurrentPcEv 860
__interceptor_ether_hostton,ether_hostton _ZN6__asan16GetCurrentThreadEv 904
__interceptor_ether_hostton,ether_hostton _ZN11__sanitizer18BufferedStackTrace6UnwindEjmmPvmmb 992
__interceptor_ether_hostton,ether_hostton _ZN11__sanitizer18BufferedStackTrace6UnwindEjmmPvmmb 1064
__interceptor_ether_hostton,ether_hostton _ZN6__asan22IsStackTraceSuppressedEPKN11__sanitizer10StackTraceE 1076
__interceptor_ether_hostton,ether_hostton _ZN11__sanitizer18BufferedStackTrace6UnwindEjmmPvmmb 1148
__interceptor_ether_hostton,ether_hostton _ZN6__asan32ReportStringFunctionSizeOverflowEmmPN11__sanitizer18BufferedStackTraceE 1164
__interceptor_ether_hostton,ether_hostton _ZN11__sanitizer10StackTrace12GetCurrentPcEv 1216
__interceptor_ether_hostton,ether_hostton _ZN6__asan16GetCurrentThreadEv 1252
__interceptor_ether_hostton,ether_hostton _ZN11__sanitizer18BufferedStackTrace6UnwindEjmmPvmmb 1328
__interceptor_ether_hostton,ether_hostton _ZN11__sanitizer18BufferedStackTrace6UnwindEjmmPvmmb 1400
__interceptor_ether_hostton,ether_hostton _ZN6__asan22IsStackTraceSuppressedEPKN11__sanitizer10StackTraceE 1408
__interceptor_ether_hostton,ether_hostton _ZN6__asan20asan_init_is_runningE 1428
__interceptor_ether_hostton,ether_hostton _ZN6__asan11asan_initedE 1436
__interceptor_ether_hostton,ether_hostton _ZN11__sanitizer21common_flags_dont_useE 1444
__interceptor_ether_hostton,ether_hostton .LC111 1448
__interceptor_ether_hostton,ether_hostton .LC111 1456
__interceptor_ether_line,ether_line _ZN6__asan15AsanInitFromRtlEv 108
__interceptor_ether_line,ether_line _ZN11__sanitizer10StackTrace12GetCurrentPcEv 188
__interceptor_ether_line,ether_line _ZN6__asan16GetCurrentThreadEv 228
__interceptor_ether_line,ether_line _ZN11__sanitizer18BufferedStackTrace6UnwindEjmmPvmmb 308
__interceptor_ether_line,ether_line _ZN11__sanitizer18BufferedStackTrace6UnwindEjmmPvmmb 376
__interceptor_ether_line,ether_line _ZN6__asan32ReportStringFunctionSizeOverflowEmmPN11__sanitizer18BufferedStackTraceE 396
__interceptor_ether_line,ether_line __asan_region_is_poisoned 428
__interceptor_ether_line,ether_line _ZN11__sanitizer10StackTrace12GetCurrentPcEv 524
__interceptor_ether_line,ether_line _ZN6__asan16GetCurrentThreadEv 560
__interceptor_ether_line,ether_line _ZN11__sanitizer18BufferedStackTrace6UnwindEjmmPvmmb 636
__interceptor_ether_line,ether_line _ZN6__asan23IsInterceptorSuppressedEPKc 656
__interceptor_ether_line,ether_line _ZN6__asan31HaveStackTraceBasedSuppressionsEv 668
__interceptor_ether_line,ether_line _ZN11__sanitizer10StackTrace12GetCurrentPcEv 680
__interceptor_ether_line,ether_line _ZN6__asan18ReportGenericErrorEmmmmbmjb 724
__interceptor_ether_line,ether_line _ZN11__sanitizer10StackTrace12GetCurrentPcEv 760
__interceptor_ether_line,ether_line _ZN6__asan16GetCurrentThreadEv 804
__interceptor_ether_line,ether_line _ZN11__sanitizer18BufferedStackTrace6UnwindEjmmPvmmb 884
__interceptor_ether_line,ether_line _ZN11__sanitizer18BufferedStackTrace6UnwindEjmmPvmmb 952
__interceptor_ether_line,ether_line _ZN6__asan22IsStackTraceSuppressedEPKN11__sanitizer10StackTraceE 964
__interceptor_ether_line,ether_line _ZN11__sanitizer18BufferedStackTrace6UnwindEjmmPvmmb 1036
__interceptor_ether_line,ether_line _ZN6__asan32ReportStringFunctionSizeOverflowEmmPN11__sanitizer18BufferedStackTraceE 1052
__interceptor_ether_line,ether_line __asan_region_is_poisoned 1084
__interceptor_ether_line,ether_line _ZN11__sanitizer10StackTrace12GetCurrentPcEv 1176
__interceptor_ether_line,ether_line _ZN6__asan16GetCurrentThreadEv 1216
__interceptor_ether_line,ether_line _ZN11__sanitizer18BufferedStackTrace6UnwindEjmmPvmmb 1296
__interceptor_ether_line,ether_line _ZN6__asan23IsInterceptorSuppressedEPKc 1316
__interceptor_ether_line,ether_line _ZN6__asan31HaveStackTraceBasedSuppressionsEv 1328
__interceptor_ether_line,ether_line _ZN11__sanitizer10StackTrace12GetCurrentPcEv 1348
__interceptor_ether_line,ether_line _ZN6__asan18ReportGenericErrorEmmmmbmjb 1388
__interceptor_ether_line,ether_line _ZN11__sanitizer10StackTrace12GetCurrentPcEv 1416
__interceptor_ether_line,ether_line _ZN6__asan16GetCurrentThreadEv 1460
__interceptor_ether_line,ether_line _ZN11__sanitizer18BufferedStackTrace6UnwindEjmmPvmmb 1540
__interceptor_ether_line,ether_line _ZN11__sanitizer18BufferedStackTrace6UnwindEjmmPvmmb 1608
__interceptor_ether_line,ether_line _ZN6__asan22IsStackTraceSuppressedEPKN11__sanitizer10StackTraceE 1616
__interceptor_ether_line,ether_line _ZN11__sanitizer18BufferedStackTrace6UnwindEjmmPvmmb 1688
__interceptor_ether_line,ether_line _ZN6__asan32ReportStringFunctionSizeOverflowEmmPN11__sanitizer18BufferedStackTraceE 1704
__interceptor_ether_line,ether_line __asan_region_is_poisoned 1736
__interceptor_ether_line,ether_line _ZN6__asan23IsInterceptorSuppressedEPKc 1756
__interceptor_ether_line,ether_line _ZN6__asan31HaveStackTraceBasedSuppressionsEv 1768
__interceptor_ether_line,ether_line _ZN11__sanitizer10StackTrace12GetCurrentPcEv 1788
__interceptor_ether_line,ether_line _ZN6__asan18ReportGenericErrorEmmmmbmjb 1828
__interceptor_ether_line,ether_line _ZN11__sanitizer10StackTrace12GetCurrentPcEv 1856
__interceptor_ether_line,ether_line _ZN6__asan16GetCurrentThreadEv 1896
__interceptor_ether_line,ether_line _ZN11__sanitizer18BufferedStackTrace6UnwindEjmmPvmmb 1972
__interceptor_ether_line,ether_line _ZN11__sanitizer18BufferedStackTrace6UnwindEjmmPvmmb 2040
__interceptor_ether_line,ether_line _ZN6__asan22IsStackTraceSuppressedEPKN11__sanitizer10StackTraceE 2048
__interceptor_ether_line,ether_line _ZN6__asan20asan_init_is_runningE 2068
__interceptor_ether_line,ether_line _ZN6__asan11asan_initedE 2076
__interceptor_ether_line,ether_line _ZN11__sanitizer21common_flags_dont_useE 2084
__interceptor_ether_line,ether_line .LC112 2092
__interceptor_ether_line,ether_line .LC112 2100
__interceptor_ether_line,ether_line .LC112 2104
__interceptor_ether_ntoa_r,ether_ntoa_r _ZN6__asan15AsanInitFromRtlEv 104
__interceptor_ether_ntoa_r,ether_ntoa_r _ZN11__sanitizer10StackTrace12GetCurrentPcEv 156
__interceptor_ether_ntoa_r,ether_ntoa_r _ZN6__asan16GetCurrentThreadEv 196
__interceptor_ether_ntoa_r,ether_ntoa_r _ZN11__sanitizer18BufferedStackTrace6UnwindEjmmPvmmb 276
__interceptor_ether_ntoa_r,ether_ntoa_r _ZN11__sanitizer18BufferedStackTrace6UnwindEjmmPvmmb 344
__interceptor_ether_ntoa_r,ether_ntoa_r _ZN6__asan32ReportStringFunctionSizeOverflowEmmPN11__sanitizer18BufferedStackTraceE 360
__interceptor_ether_ntoa_r,ether_ntoa_r __asan_region_is_poisoned 392
__interceptor_ether_ntoa_r,ether_ntoa_r _ZN11__sanitizer10StackTrace12GetCurrentPcEv 492
__interceptor_ether_ntoa_r,ether_ntoa_r _ZN6__asan16GetCurrentThreadEv 532
__interceptor_ether_ntoa_r,ether_ntoa_r _ZN11__sanitizer18BufferedStackTrace6UnwindEjmmPvmmb 612
__interceptor_ether_ntoa_r,ether_ntoa_r _ZN6__asan23IsInterceptorSuppressedEPKc 632
__interceptor_ether_ntoa_r,ether_ntoa_r _ZN6__asan31HaveStackTraceBasedSuppressionsEv 644
__interceptor_ether_ntoa_r,ether_ntoa_r _ZN11__sanitizer10StackTrace12GetCurrentPcEv 664
__interceptor_ether_ntoa_r,ether_ntoa_r _ZN6__asan18ReportGenericErrorEmmmmbmjb 704
__interceptor_ether_ntoa_r,ether_ntoa_r _ZN11__sanitizer10StackTrace12GetCurrentPcEv 732
__interceptor_ether_ntoa_r,ether_ntoa_r _ZN6__asan16GetCurrentThreadEv 776
__interceptor_ether_ntoa_r,ether_ntoa_r _ZN11__sanitizer18BufferedStackTrace6UnwindEjmmPvmmb 856
__interceptor_ether_ntoa_r,ether_ntoa_r _ZN11__sanitizer18BufferedStackTrace6UnwindEjmmPvmmb 924
__interceptor_ether_ntoa_r,ether_ntoa_r _ZN6__asan22IsStackTraceSuppressedEPKN11__sanitizer10StackTraceE 932
__interceptor_ether_ntoa_r,ether_ntoa_r _ZN11__sanitizer18BufferedStackTrace6UnwindEjmmPvmmb 1004
__interceptor_ether_ntoa_r,ether_ntoa_r _ZN6__asan32ReportStringFunctionSizeOverflowEmmPN11__sanitizer18BufferedStackTraceE 1020
__interceptor_ether_ntoa_r,ether_ntoa_r __asan_region_is_poisoned 1052
__interceptor_ether_ntoa_r,ether_ntoa_r _ZN6__asan23IsInterceptorSuppressedEPKc 1072
__interceptor_ether_ntoa_r,ether_ntoa_r _ZN6__asan31HaveStackTraceBasedSuppressionsEv 1084
__interceptor_ether_ntoa_r,ether_ntoa_r _ZN11__sanitizer10StackTrace12GetCurrentPcEv 1104
__interceptor_ether_ntoa_r,ether_ntoa_r _ZN6__asan18ReportGenericErrorEmmmmbmjb 1144
__interceptor_ether_ntoa_r,ether_ntoa_r _ZN11__sanitizer10StackTrace12GetCurrentPcEv 1172
__interceptor_ether_ntoa_r,ether_ntoa_r _ZN6__asan16GetCurrentThreadEv 1212
__interceptor_ether_ntoa_r,ether_ntoa_r _ZN11__sanitizer18BufferedStackTrace6UnwindEjmmPvmmb 1288
__interceptor_ether_ntoa_r,ether_ntoa_r _ZN11__sanitizer18BufferedStackTrace6UnwindEjmmPvmmb 1356
__interceptor_ether_ntoa_r,ether_ntoa_r _ZN6__asan22IsStackTraceSuppressedEPKN11__sanitizer10StackTraceE 1364
__interceptor_ether_ntoa_r,ether_ntoa_r _ZN6__asan20asan_init_is_runningE 1384
__interceptor_ether_ntoa_r,ether_ntoa_r _ZN6__asan11asan_initedE 1392
__interceptor_ether_ntoa_r,ether_ntoa_r _ZN11__sanitizer21common_flags_dont_useE 1396
__interceptor_ether_ntoa_r,ether_ntoa_r .LC113 1404
__interceptor_ether_ntoa_r,ether_ntoa_r .LC113 1408
__interceptor_ether_aton_r,ether_aton_r _ZN6__asan15AsanInitFromRtlEv 104
__interceptor_ether_aton_r,ether_aton_r _ZN11__sanitizer10StackTrace12GetCurrentPcEv 180
__interceptor_ether_aton_r,ether_aton_r _ZN6__asan16GetCurrentThreadEv 220
__interceptor_ether_aton_r,ether_aton_r _ZN11__sanitizer18BufferedStackTrace6UnwindEjmmPvmmb 300
__interceptor_ether_aton_r,ether_aton_r _ZN11__sanitizer18BufferedStackTrace6UnwindEjmmPvmmb 368
__interceptor_ether_aton_r,ether_aton_r _ZN6__asan32ReportStringFunctionSizeOverflowEmmPN11__sanitizer18BufferedStackTraceE 384
__interceptor_ether_aton_r,ether_aton_r __asan_region_is_poisoned 416
__interceptor_ether_aton_r,ether_aton_r _ZN11__sanitizer10StackTrace12GetCurrentPcEv 504
__interceptor_ether_aton_r,ether_aton_r _ZN6__asan16GetCurrentThreadEv 540
__interceptor_ether_aton_r,ether_aton_r _ZN11__sanitizer18BufferedStackTrace6UnwindEjmmPvmmb 616
__interceptor_ether_aton_r,ether_aton_r _ZN6__asan23IsInterceptorSuppressedEPKc 636
__interceptor_ether_aton_r,ether_aton_r _ZN6__asan31HaveStackTraceBasedSuppressionsEv 648
__interceptor_ether_aton_r,ether_aton_r _ZN11__sanitizer10StackTrace12GetCurrentPcEv 660
__interceptor_ether_aton_r,ether_aton_r _ZN6__asan18ReportGenericErrorEmmmmbmjb 696
__interceptor_ether_aton_r,ether_aton_r _ZN11__sanitizer10StackTrace12GetCurrentPcEv 732
__interceptor_ether_aton_r,ether_aton_r _ZN6__asan16GetCurrentThreadEv 776
__interceptor_ether_aton_r,ether_aton_r _ZN11__sanitizer18BufferedStackTrace6UnwindEjmmPvmmb 856
__interceptor_ether_aton_r,ether_aton_r _ZN11__sanitizer18BufferedStackTrace6UnwindEjmmPvmmb 924
__interceptor_ether_aton_r,ether_aton_r _ZN6__asan22IsStackTraceSuppressedEPKN11__sanitizer10StackTraceE 936
__interceptor_ether_aton_r,ether_aton_r _ZN11__sanitizer18BufferedStackTrace6UnwindEjmmPvmmb 1008
__interceptor_ether_aton_r,ether_aton_r _ZN6__asan32ReportStringFunctionSizeOverflowEmmPN11__sanitizer18BufferedStackTraceE 1024
__interceptor_ether_aton_r,ether_aton_r __asan_region_is_poisoned 1056
__interceptor_ether_aton_r,ether_aton_r _ZN6__asan23IsInterceptorSuppressedEPKc 1076
__interceptor_ether_aton_r,ether_aton_r _ZN6__asan31HaveStackTraceBasedSuppressionsEv 1088
__interceptor_ether_aton_r,ether_aton_r _ZN11__sanitizer10StackTrace12GetCurrentPcEv 1108
__interceptor_ether_aton_r,ether_aton_r _ZN6__asan18ReportGenericErrorEmmmmbmjb 1148
__interceptor_ether_aton_r,ether_aton_r _ZN11__sanitizer10StackTrace12GetCurrentPcEv 1176
__interceptor_ether_aton_r,ether_aton_r _ZN6__asan16GetCurrentThreadEv 1212
__interceptor_ether_aton_r,ether_aton_r _ZN11__sanitizer18BufferedStackTrace6UnwindEjmmPvmmb 1288
__interceptor_ether_aton_r,ether_aton_r _ZN11__sanitizer18BufferedStackTrace6UnwindEjmmPvmmb 1360
__interceptor_ether_aton_r,ether_aton_r _ZN6__asan22IsStackTraceSuppressedEPKN11__sanitizer10StackTraceE 1368
__interceptor_ether_aton_r,ether_aton_r _ZN6__asan20asan_init_is_runningE 1388
__interceptor_ether_aton_r,ether_aton_r _ZN6__asan11asan_initedE 1396
__interceptor_ether_aton_r,ether_aton_r _ZN11__sanitizer21common_flags_dont_useE 1404
__interceptor_ether_aton_r,ether_aton_r .LC114 1412
__interceptor_ether_aton_r,ether_aton_r .LC114 1416
__interceptor_random_r,random_r _ZN6__asan15AsanInitFromRtlEv 96
__interceptor_random_r,random_r _ZN11__sanitizer10StackTrace12GetCurrentPcEv 188
__interceptor_random_r,random_r _ZN6__asan16GetCurrentThreadEv 224
__interceptor_random_r,random_r _ZN11__sanitizer18BufferedStackTrace6UnwindEjmmPvmmb 300
__interceptor_random_r,random_r __asan_region_is_poisoned 320
__interceptor_random_r,random_r _ZN6__asan23IsInterceptorSuppressedEPKc 340
__interceptor_random_r,random_r _ZN6__asan31HaveStackTraceBasedSuppressionsEv 352
__interceptor_random_r,random_r _ZN11__sanitizer10StackTrace12GetCurrentPcEv 372
__interceptor_random_r,random_r _ZN6__asan18ReportGenericErrorEmmmmbmjb 412
__interceptor_random_r,random_r _ZN11__sanitizer18BufferedStackTrace6UnwindEjmmPvmmb 476
__interceptor_random_r,random_r _ZN6__asan32ReportStringFunctionSizeOverflowEmmPN11__sanitizer18BufferedStackTraceE 492
__interceptor_random_r,random_r _ZN11__sanitizer10StackTrace12GetCurrentPcEv 544
__interceptor_random_r,random_r _ZN6__asan16GetCurrentThreadEv 580
__interceptor_random_r,random_r _ZN11__sanitizer18BufferedStackTrace6UnwindEjmmPvmmb 656
__interceptor_random_r,random_r _ZN11__sanitizer18BufferedStackTrace6UnwindEjmmPvmmb 728
__interceptor_random_r,random_r _ZN6__asan22IsStackTraceSuppressedEPKN11__sanitizer10StackTraceE 736
__interceptor_random_r,random_r _ZN6__asan20asan_init_is_runningE 756
__interceptor_random_r,random_r _ZN6__asan11asan_initedE 764
__interceptor_random_r,random_r _ZN11__sanitizer21common_flags_dont_useE 772
__interceptor_random_r,random_r .LC115 776
__interceptor_pthread_attr_getdetachstate,pthread_attr_getdetachstate _ZN6__asan15AsanInitFromRtlEv 96
__interceptor_pthread_attr_getdetachstate,pthread_attr_getdetachstate _ZN11__sanitizer10StackTrace12GetCurrentPcEv 188
__interceptor_pthread_attr_getdetachstate,pthread_attr_getdetachstate _ZN6__asan16GetCurrentThreadEv 224
__interceptor_pthread_attr_getdetachstate,pthread_attr_getdetachstate _ZN11__sanitizer18BufferedStackTrace6UnwindEjmmPvmmb 300
__interceptor_pthread_attr_getdetachstate,pthread_attr_getdetachstate __asan_region_is_poisoned 320
__interceptor_pthread_attr_getdetachstate,pthread_attr_getdetachstate _ZN6__asan23IsInterceptorSuppressedEPKc 340
__interceptor_pthread_attr_getdetachstate,pthread_attr_getdetachstate _ZN6__asan31HaveStackTraceBasedSuppressionsEv 352
__interceptor_pthread_attr_getdetachstate,pthread_attr_getdetachstate _ZN11__sanitizer10StackTrace12GetCurrentPcEv 372
__interceptor_pthread_attr_getdetachstate,pthread_attr_getdetachstate _ZN6__asan18ReportGenericErrorEmmmmbmjb 412
__interceptor_pthread_attr_getdetachstate,pthread_attr_getdetachstate _ZN11__sanitizer18BufferedStackTrace6UnwindEjmmPvmmb 476
__interceptor_pthread_attr_getdetachstate,pthread_attr_getdetachstate _ZN6__asan32ReportStringFunctionSizeOverflowEmmPN11__sanitizer18BufferedStackTraceE 492
__interceptor_pthread_attr_getdetachstate,pthread_attr_getdetachstate _ZN11__sanitizer10StackTrace12GetCurrentPcEv 544
__interceptor_pthread_attr_getdetachstate,pthread_attr_getdetachstate _ZN6__asan16GetCurrentThreadEv 580
__interceptor_pthread_attr_getdetachstate,pthread_attr_getdetachstate _ZN11__sanitizer18BufferedStackTrace6UnwindEjmmPvmmb 656
__interceptor_pthread_attr_getdetachstate,pthread_attr_getdetachstate _ZN11__sanitizer18BufferedStackTrace6UnwindEjmmPvmmb 728
__interceptor_pthread_attr_getdetachstate,pthread_attr_getdetachstate _ZN6__asan22IsStackTraceSuppressedEPKN11__sanitizer10StackTraceE 736
__interceptor_pthread_attr_getdetachstate,pthread_attr_getdetachstate _ZN6__asan20asan_init_is_runningE 756
__interceptor_pthread_attr_getdetachstate,pthread_attr_getdetachstate _ZN6__asan11asan_initedE 764
__interceptor_pthread_attr_getdetachstate,pthread_attr_getdetachstate _ZN11__sanitizer21common_flags_dont_useE 772
__interceptor_pthread_attr_getdetachstate,pthread_attr_getdetachstate .LC116 776
__interceptor_pthread_attr_getguardsize,pthread_attr_getguardsize _ZN6__asan15AsanInitFromRtlEv 96
__interceptor_pthread_attr_getguardsize,pthread_attr_getguardsize _ZN11__sanitizer10StackTrace12GetCurrentPcEv 188
__interceptor_pthread_attr_getguardsize,pthread_attr_getguardsize _ZN6__asan16GetCurrentThreadEv 224
__interceptor_pthread_attr_getguardsize,pthread_attr_getguardsize _ZN11__sanitizer18BufferedStackTrace6UnwindEjmmPvmmb 300
__interceptor_pthread_attr_getguardsize,pthread_attr_getguardsize __asan_region_is_poisoned 320
__interceptor_pthread_attr_getguardsize,pthread_attr_getguardsize _ZN6__asan23IsInterceptorSuppressedEPKc 340
__interceptor_pthread_attr_getguardsize,pthread_attr_getguardsize _ZN6__asan31HaveStackTraceBasedSuppressionsEv 352
__interceptor_pthread_attr_getguardsize,pthread_attr_getguardsize _ZN11__sanitizer10StackTrace12GetCurrentPcEv 372
__interceptor_pthread_attr_getguardsize,pthread_attr_getguardsize _ZN6__asan18ReportGenericErrorEmmmmbmjb 412
__interceptor_pthread_attr_getguardsize,pthread_attr_getguardsize _ZN11__sanitizer18BufferedStackTrace6UnwindEjmmPvmmb 476
__interceptor_pthread_attr_getguardsize,pthread_attr_getguardsize _ZN6__asan32ReportStringFunctionSizeOverflowEmmPN11__sanitizer18BufferedStackTraceE 492
__interceptor_pthread_attr_getguardsize,pthread_attr_getguardsize _ZN11__sanitizer10StackTrace12GetCurrentPcEv 544
__interceptor_pthread_attr_getguardsize,pthread_attr_getguardsize _ZN6__asan16GetCurrentThreadEv 580
__interceptor_pthread_attr_getguardsize,pthread_attr_getguardsize _ZN11__sanitizer18BufferedStackTrace6UnwindEjmmPvmmb 656
__interceptor_pthread_attr_getguardsize,pthread_attr_getguardsize _ZN11__sanitizer18BufferedStackTrace6UnwindEjmmPvmmb 728
__interceptor_pthread_attr_getguardsize,pthread_attr_getguardsize _ZN6__asan22IsStackTraceSuppressedEPKN11__sanitizer10StackTraceE 736
__interceptor_pthread_attr_getguardsize,pthread_attr_getguardsize _ZN6__asan20asan_init_is_runningE 756
__interceptor_pthread_attr_getguardsize,pthread_attr_getguardsize _ZN6__asan11asan_initedE 764
__interceptor_pthread_attr_getguardsize,pthread_attr_getguardsize _ZN11__sanitizer21common_flags_dont_useE 772
__interceptor_pthread_attr_getguardsize,pthread_attr_getguardsize .LC117 776
__interceptor_pthread_attr_getschedparam,pthread_attr_getschedparam _ZN6__asan15AsanInitFromRtlEv 96
__interceptor_pthread_attr_getschedparam,pthread_attr_getschedparam _ZN11__sanitizer10StackTrace12GetCurrentPcEv 200
__interceptor_pthread_attr_getschedparam,pthread_attr_getschedparam _ZN6__asan16GetCurrentThreadEv 240
__interceptor_pthread_attr_getschedparam,pthread_attr_getschedparam _ZN11__sanitizer18BufferedStackTrace6UnwindEjmmPvmmb 320
__interceptor_pthread_attr_getschedparam,pthread_attr_getschedparam __asan_region_is_poisoned 340
__interceptor_pthread_attr_getschedparam,pthread_attr_getschedparam _ZN6__asan23IsInterceptorSuppressedEPKc 364
__interceptor_pthread_attr_getschedparam,pthread_attr_getschedparam _ZN6__asan31HaveStackTraceBasedSuppressionsEv 376
__interceptor_pthread_attr_getschedparam,pthread_attr_getschedparam _ZN11__sanitizer10StackTrace12GetCurrentPcEv 396
__interceptor_pthread_attr_getschedparam,pthread_attr_getschedparam _ZN6__asan18ReportGenericErrorEmmmmbmjb 436
__interceptor_pthread_attr_getschedparam,pthread_attr_getschedparam _ZN11__sanitizer18BufferedStackTrace6UnwindEjmmPvmmb 500
__interceptor_pthread_attr_getschedparam,pthread_attr_getschedparam _ZN6__asan32ReportStringFunctionSizeOverflowEmmPN11__sanitizer18BufferedStackTraceE 516
__interceptor_pthread_attr_getschedparam,pthread_attr_getschedparam _ZN11__sanitizer10StackTrace12GetCurrentPcEv 568
__interceptor_pthread_attr_getschedparam,pthread_attr_getschedparam _ZN6__asan16GetCurrentThreadEv 604
__interceptor_pthread_attr_getschedparam,pthread_attr_getschedparam _ZN11__sanitizer18BufferedStackTrace6UnwindEjmmPvmmb 680
__interceptor_pthread_attr_getschedparam,pthread_attr_getschedparam _ZN11__sanitizer18BufferedStackTrace6UnwindEjmmPvmmb 752
__interceptor_pthread_attr_getschedparam,pthread_attr_getschedparam _ZN6__asan22IsStackTraceSuppressedEPKN11__sanitizer10StackTraceE 760
__interceptor_pthread_attr_getschedparam,pthread_attr_getschedparam _ZN6__asan20asan_init_is_runningE 780
__interceptor_pthread_attr_getschedparam,pthread_attr_getschedparam _ZN6__asan11asan_initedE 788
__interceptor_pthread_attr_getschedparam,pthread_attr_getschedparam _ZN11__sanitizer21struct_sched_param_szE 796
__interceptor_pthread_attr_getschedparam,pthread_attr_getschedparam _ZN11__sanitizer21common_flags_dont_useE 800
__interceptor_pthread_attr_getschedparam,pthread_attr_getschedparam .LC118 804
__interceptor_pthread_attr_getschedpolicy,pthread_attr_getschedpolicy _ZN6__asan15AsanInitFromRtlEv 96
__interceptor_pthread_attr_getschedpolicy,pthread_attr_getschedpolicy _ZN11__sanitizer10StackTrace12GetCurrentPcEv 188
__interceptor_pthread_attr_getschedpolicy,pthread_attr_getschedpolicy _ZN6__asan16GetCurrentThreadEv 224
__interceptor_pthread_attr_getschedpolicy,pthread_attr_getschedpolicy _ZN11__sanitizer18BufferedStackTrace6UnwindEjmmPvmmb 300
__interceptor_pthread_attr_getschedpolicy,pthread_attr_getschedpolicy __asan_region_is_poisoned 320
__interceptor_pthread_attr_getschedpolicy,pthread_attr_getschedpolicy _ZN6__asan23IsInterceptorSuppressedEPKc 340
__interceptor_pthread_attr_getschedpolicy,pthread_attr_getschedpolicy _ZN6__asan31HaveStackTraceBasedSuppressionsEv 352
__interceptor_pthread_attr_getschedpolicy,pthread_attr_getschedpolicy _ZN11__sanitizer10StackTrace12GetCurrentPcEv 372
__interceptor_pthread_attr_getschedpolicy,pthread_attr_getschedpolicy _ZN6__asan18ReportGenericErrorEmmmmbmjb 412
__interceptor_pthread_attr_getschedpolicy,pthread_attr_getschedpolicy _ZN11__sanitizer18BufferedStackTrace6UnwindEjmmPvmmb 476
__interceptor_pthread_attr_getschedpolicy,pthread_attr_getschedpolicy _ZN6__asan32ReportStringFunctionSizeOverflowEmmPN11__sanitizer18BufferedStackTraceE 492
__interceptor_pthread_attr_getschedpolicy,pthread_attr_getschedpolicy _ZN11__sanitizer10StackTrace12GetCurrentPcEv 544
__interceptor_pthread_attr_getschedpolicy,pthread_attr_getschedpolicy _ZN6__asan16GetCurrentThreadEv 580
__interceptor_pthread_attr_getschedpolicy,pthread_attr_getschedpolicy _ZN11__sanitizer18BufferedStackTrace6UnwindEjmmPvmmb 656
__interceptor_pthread_attr_getschedpolicy,pthread_attr_getschedpolicy _ZN11__sanitizer18BufferedStackTrace6UnwindEjmmPvmmb 728
__interceptor_pthread_attr_getschedpolicy,pthread_attr_getschedpolicy _ZN6__asan22IsStackTraceSuppressedEPKN11__sanitizer10StackTraceE 736
__interceptor_pthread_attr_getschedpolicy,pthread_attr_getschedpolicy _ZN6__asan20asan_init_is_runningE 756
__interceptor_pthread_attr_getschedpolicy,pthread_attr_getschedpolicy _ZN6__asan11asan_initedE 764
__interceptor_pthread_attr_getschedpolicy,pthread_attr_getschedpolicy _ZN11__sanitizer21common_flags_dont_useE 772
__interceptor_pthread_attr_getschedpolicy,pthread_attr_getschedpolicy .LC119 776
__interceptor_pthread_attr_getscope,pthread_attr_getscope _ZN6__asan15AsanInitFromRtlEv 96
__interceptor_pthread_attr_getscope,pthread_attr_getscope _ZN11__sanitizer10StackTrace12GetCurrentPcEv 188
__interceptor_pthread_attr_getscope,pthread_attr_getscope _ZN6__asan16GetCurrentThreadEv 224
__interceptor_pthread_attr_getscope,pthread_attr_getscope _ZN11__sanitizer18BufferedStackTrace6UnwindEjmmPvmmb 300
__interceptor_pthread_attr_getscope,pthread_attr_getscope __asan_region_is_poisoned 320
__interceptor_pthread_attr_getscope,pthread_attr_getscope _ZN6__asan23IsInterceptorSuppressedEPKc 340
__interceptor_pthread_attr_getscope,pthread_attr_getscope _ZN6__asan31HaveStackTraceBasedSuppressionsEv 352
__interceptor_pthread_attr_getscope,pthread_attr_getscope _ZN11__sanitizer10StackTrace12GetCurrentPcEv 372
__interceptor_pthread_attr_getscope,pthread_attr_getscope _ZN6__asan18ReportGenericErrorEmmmmbmjb 412
__interceptor_pthread_attr_getscope,pthread_attr_getscope _ZN11__sanitizer18BufferedStackTrace6UnwindEjmmPvmmb 476
__interceptor_pthread_attr_getscope,pthread_attr_getscope _ZN6__asan32ReportStringFunctionSizeOverflowEmmPN11__sanitizer18BufferedStackTraceE 492
__interceptor_pthread_attr_getscope,pthread_attr_getscope _ZN11__sanitizer10StackTrace12GetCurrentPcEv 544
__interceptor_pthread_attr_getscope,pthread_attr_getscope _ZN6__asan16GetCurrentThreadEv 580
__interceptor_pthread_attr_getscope,pthread_attr_getscope _ZN11__sanitizer18BufferedStackTrace6UnwindEjmmPvmmb 656
__interceptor_pthread_attr_getscope,pthread_attr_getscope _ZN11__sanitizer18BufferedStackTrace6UnwindEjmmPvmmb 728
__interceptor_pthread_attr_getscope,pthread_attr_getscope _ZN6__asan22IsStackTraceSuppressedEPKN11__sanitizer10StackTraceE 736
__interceptor_pthread_attr_getscope,pthread_attr_getscope _ZN6__asan20asan_init_is_runningE 756
__interceptor_pthread_attr_getscope,pthread_attr_getscope _ZN6__asan11asan_initedE 764
__interceptor_pthread_attr_getscope,pthread_attr_getscope _ZN11__sanitizer21common_flags_dont_useE 772
__interceptor_pthread_attr_getscope,pthread_attr_getscope .LC120 776
__interceptor_pthread_attr_getstacksize,pthread_attr_getstacksize _ZN6__asan15AsanInitFromRtlEv 96
__interceptor_pthread_attr_getstacksize,pthread_attr_getstacksize _ZN11__sanitizer10StackTrace12GetCurrentPcEv 188
__interceptor_pthread_attr_getstacksize,pthread_attr_getstacksize _ZN6__asan16GetCurrentThreadEv 224
__interceptor_pthread_attr_getstacksize,pthread_attr_getstacksize _ZN11__sanitizer18BufferedStackTrace6UnwindEjmmPvmmb 300
__interceptor_pthread_attr_getstacksize,pthread_attr_getstacksize __asan_region_is_poisoned 320
__interceptor_pthread_attr_getstacksize,pthread_attr_getstacksize _ZN6__asan23IsInterceptorSuppressedEPKc 340
__interceptor_pthread_attr_getstacksize,pthread_attr_getstacksize _ZN6__asan31HaveStackTraceBasedSuppressionsEv 352
__interceptor_pthread_attr_getstacksize,pthread_attr_getstacksize _ZN11__sanitizer10StackTrace12GetCurrentPcEv 372
__interceptor_pthread_attr_getstacksize,pthread_attr_getstacksize _ZN6__asan18ReportGenericErrorEmmmmbmjb 412
__interceptor_pthread_attr_getstacksize,pthread_attr_getstacksize _ZN11__sanitizer18BufferedStackTrace6UnwindEjmmPvmmb 476
__interceptor_pthread_attr_getstacksize,pthread_attr_getstacksize _ZN6__asan32ReportStringFunctionSizeOverflowEmmPN11__sanitizer18BufferedStackTraceE 492
__interceptor_pthread_attr_getstacksize,pthread_attr_getstacksize _ZN11__sanitizer10StackTrace12GetCurrentPcEv 544
__interceptor_pthread_attr_getstacksize,pthread_attr_getstacksize _ZN6__asan16GetCurrentThreadEv 580
__interceptor_pthread_attr_getstacksize,pthread_attr_getstacksize _ZN11__sanitizer18BufferedStackTrace6UnwindEjmmPvmmb 656
__interceptor_pthread_attr_getstacksize,pthread_attr_getstacksize _ZN11__sanitizer18BufferedStackTrace6UnwindEjmmPvmmb 728
__interceptor_pthread_attr_getstacksize,pthread_attr_getstacksize _ZN6__asan22IsStackTraceSuppressedEPKN11__sanitizer10StackTraceE 736
__interceptor_pthread_attr_getstacksize,pthread_attr_getstacksize _ZN6__asan20asan_init_is_runningE 756
__interceptor_pthread_attr_getstacksize,pthread_attr_getstacksize _ZN6__asan11asan_initedE 764
__interceptor_pthread_attr_getstacksize,pthread_attr_getstacksize _ZN11__sanitizer21common_flags_dont_useE 772
__interceptor_pthread_attr_getstacksize,pthread_attr_getstacksize .LC121 776
__interceptor_pthread_attr_getstack,pthread_attr_getstack _ZN6__asan15AsanInitFromRtlEv 108
__interceptor_pthread_attr_getstack,pthread_attr_getstack _ZN11__sanitizer10StackTrace12GetCurrentPcEv 192
__interceptor_pthread_attr_getstack,pthread_attr_getstack _ZN6__asan16GetCurrentThreadEv 232
__interceptor_pthread_attr_getstack,pthread_attr_getstack _ZN11__sanitizer18BufferedStackTrace6UnwindEjmmPvmmb 312
__interceptor_pthread_attr_getstack,pthread_attr_getstack _ZN11__sanitizer18BufferedStackTrace6UnwindEjmmPvmmb 380
__interceptor_pthread_attr_getstack,pthread_attr_getstack _ZN6__asan32ReportStringFunctionSizeOverflowEmmPN11__sanitizer18BufferedStackTraceE 396
__interceptor_pthread_attr_getstack,pthread_attr_getstack __asan_region_is_poisoned 428
__interceptor_pthread_attr_getstack,pthread_attr_getstack _ZN11__sanitizer10StackTrace12GetCurrentPcEv 492
__interceptor_pthread_attr_getstack,pthread_attr_getstack _ZN6__asan16GetCurrentThreadEv 532
__interceptor_pthread_attr_getstack,pthread_attr_getstack _ZN11__sanitizer18BufferedStackTrace6UnwindEjmmPvmmb 612
__interceptor_pthread_attr_getstack,pthread_attr_getstack _ZN6__asan23IsInterceptorSuppressedEPKc 632
__interceptor_pthread_attr_getstack,pthread_attr_getstack _ZN6__asan31HaveStackTraceBasedSuppressionsEv 644
__interceptor_pthread_attr_getstack,pthread_attr_getstack _ZN11__sanitizer10StackTrace12GetCurrentPcEv 664
__interceptor_pthread_attr_getstack,pthread_attr_getstack _ZN6__asan18ReportGenericErrorEmmmmbmjb 704
__interceptor_pthread_attr_getstack,pthread_attr_getstack _ZN11__sanitizer10StackTrace12GetCurrentPcEv 732
__interceptor_pthread_attr_getstack,pthread_attr_getstack _ZN6__asan16GetCurrentThreadEv 776
__interceptor_pthread_attr_getstack,pthread_attr_getstack _ZN11__sanitizer18BufferedStackTrace6UnwindEjmmPvmmb 856
__interceptor_pthread_attr_getstack,pthread_attr_getstack _ZN11__sanitizer18BufferedStackTrace6UnwindEjmmPvmmb 924
__interceptor_pthread_attr_getstack,pthread_attr_getstack _ZN6__asan22IsStackTraceSuppressedEPKN11__sanitizer10StackTraceE 932
__interceptor_pthread_attr_getstack,pthread_attr_getstack _ZN11__sanitizer18BufferedStackTrace6UnwindEjmmPvmmb 1004
__interceptor_pthread_attr_getstack,pthread_attr_getstack _ZN6__asan32ReportStringFunctionSizeOverflowEmmPN11__sanitizer18BufferedStackTraceE 1020
__interceptor_pthread_attr_getstack,pthread_attr_getstack __asan_region_is_poisoned 1052
__interceptor_pthread_attr_getstack,pthread_attr_getstack _ZN6__asan23IsInterceptorSuppressedEPKc 1072
__interceptor_pthread_attr_getstack,pthread_attr_getstack _ZN6__asan31HaveStackTraceBasedSuppressionsEv 1084
__interceptor_pthread_attr_getstack,pthread_attr_getstack _ZN11__sanitizer10StackTrace12GetCurrentPcEv 1104
__interceptor_pthread_attr_getstack,pthread_attr_getstack _ZN6__asan18ReportGenericErrorEmmmmbmjb 1144
__interceptor_pthread_attr_getstack,pthread_attr_getstack _ZN11__sanitizer10StackTrace12GetCurrentPcEv 1172
__interceptor_pthread_attr_getstack,pthread_attr_getstack _ZN6__asan16GetCurrentThreadEv 1208
__interceptor_pthread_attr_getstack,pthread_attr_getstack _ZN11__sanitizer18BufferedStackTrace6UnwindEjmmPvmmb 1284
__interceptor_pthread_attr_getstack,pthread_attr_getstack _ZN11__sanitizer18BufferedStackTrace6UnwindEjmmPvmmb 1356
__interceptor_pthread_attr_getstack,pthread_attr_getstack _ZN6__asan22IsStackTraceSuppressedEPKN11__sanitizer10StackTraceE 1364
__interceptor_pthread_attr_getstack,pthread_attr_getstack _ZN6__asan20asan_init_is_runningE 1384
__interceptor_pthread_attr_getstack,pthread_attr_getstack _ZN6__asan11asan_initedE 1392
__interceptor_pthread_attr_getstack,pthread_attr_getstack _ZN11__sanitizer21common_flags_dont_useE 1400
__interceptor_pthread_attr_getstack,pthread_attr_getstack .LC122 1404
__interceptor_pthread_attr_getstack,pthread_attr_getstack .LC122 1408
__interceptor_pthread_attr_getinheritsched,pthread_attr_getinheritsched _ZN6__asan15AsanInitFromRtlEv 96
__interceptor_pthread_attr_getinheritsched,pthread_attr_getinheritsched _ZN11__sanitizer10StackTrace12GetCurrentPcEv 188
__interceptor_pthread_attr_getinheritsched,pthread_attr_getinheritsched _ZN6__asan16GetCurrentThreadEv 224
__interceptor_pthread_attr_getinheritsched,pthread_attr_getinheritsched _ZN11__sanitizer18BufferedStackTrace6UnwindEjmmPvmmb 300
__interceptor_pthread_attr_getinheritsched,pthread_attr_getinheritsched __asan_region_is_poisoned 320
__interceptor_pthread_attr_getinheritsched,pthread_attr_getinheritsched _ZN6__asan23IsInterceptorSuppressedEPKc 340
__interceptor_pthread_attr_getinheritsched,pthread_attr_getinheritsched _ZN6__asan31HaveStackTraceBasedSuppressionsEv 352
__interceptor_pthread_attr_getinheritsched,pthread_attr_getinheritsched _ZN11__sanitizer10StackTrace12GetCurrentPcEv 372
__interceptor_pthread_attr_getinheritsched,pthread_attr_getinheritsched _ZN6__asan18ReportGenericErrorEmmmmbmjb 412
__interceptor_pthread_attr_getinheritsched,pthread_attr_getinheritsched _ZN11__sanitizer18BufferedStackTrace6UnwindEjmmPvmmb 476
__interceptor_pthread_attr_getinheritsched,pthread_attr_getinheritsched _ZN6__asan32ReportStringFunctionSizeOverflowEmmPN11__sanitizer18BufferedStackTraceE 492
__interceptor_pthread_attr_getinheritsched,pthread_attr_getinheritsched _ZN11__sanitizer10StackTrace12GetCurrentPcEv 544
__interceptor_pthread_attr_getinheritsched,pthread_attr_getinheritsched _ZN6__asan16GetCurrentThreadEv 580
__interceptor_pthread_attr_getinheritsched,pthread_attr_getinheritsched _ZN11__sanitizer18BufferedStackTrace6UnwindEjmmPvmmb 656
__interceptor_pthread_attr_getinheritsched,pthread_attr_getinheritsched _ZN11__sanitizer18BufferedStackTrace6UnwindEjmmPvmmb 728
__interceptor_pthread_attr_getinheritsched,pthread_attr_getinheritsched _ZN6__asan22IsStackTraceSuppressedEPKN11__sanitizer10StackTraceE 736
__interceptor_pthread_attr_getinheritsched,pthread_attr_getinheritsched _ZN6__asan20asan_init_is_runningE 756
__interceptor_pthread_attr_getinheritsched,pthread_attr_getinheritsched _ZN6__asan11asan_initedE 764
__interceptor_pthread_attr_getinheritsched,pthread_attr_getinheritsched _ZN11__sanitizer21common_flags_dont_useE 772
__interceptor_pthread_attr_getinheritsched,pthread_attr_getinheritsched .LC123 776
__interceptor_pthread_attr_getaffinity_np,pthread_attr_getaffinity_np _ZN6__asan15AsanInitFromRtlEv 100
__interceptor_pthread_attr_getaffinity_np,pthread_attr_getaffinity_np _ZN11__sanitizer10StackTrace12GetCurrentPcEv 212
__interceptor_pthread_attr_getaffinity_np,pthread_attr_getaffinity_np _ZN6__asan16GetCurrentThreadEv 252
__interceptor_pthread_attr_getaffinity_np,pthread_attr_getaffinity_np _ZN11__sanitizer18BufferedStackTrace6UnwindEjmmPvmmb 332
__interceptor_pthread_attr_getaffinity_np,pthread_attr_getaffinity_np _ZN11__sanitizer18BufferedStackTrace6UnwindEjmmPvmmb 400
__interceptor_pthread_attr_getaffinity_np,pthread_attr_getaffinity_np _ZN6__asan32ReportStringFunctionSizeOverflowEmmPN11__sanitizer18BufferedStackTraceE 416
__interceptor_pthread_attr_getaffinity_np,pthread_attr_getaffinity_np __asan_region_is_poisoned 448
__interceptor_pthread_attr_getaffinity_np,pthread_attr_getaffinity_np _ZN6__asan23IsInterceptorSuppressedEPKc 472
__interceptor_pthread_attr_getaffinity_np,pthread_attr_getaffinity_np _ZN6__asan31HaveStackTraceBasedSuppressionsEv 484
__interceptor_pthread_attr_getaffinity_np,pthread_attr_getaffinity_np _ZN11__sanitizer10StackTrace12GetCurrentPcEv 504
__interceptor_pthread_attr_getaffinity_np,pthread_attr_getaffinity_np _ZN6__asan18ReportGenericErrorEmmmmbmjb 544
__interceptor_pthread_attr_getaffinity_np,pthread_attr_getaffinity_np _ZN11__sanitizer10StackTrace12GetCurrentPcEv 572
__interceptor_pthread_attr_getaffinity_np,pthread_attr_getaffinity_np _ZN6__asan16GetCurrentThreadEv 608
__interceptor_pthread_attr_getaffinity_np,pthread_attr_getaffinity_np _ZN11__sanitizer18BufferedStackTrace6UnwindEjmmPvmmb 684
__interceptor_pthread_attr_getaffinity_np,pthread_attr_getaffinity_np _ZN11__sanitizer18BufferedStackTrace6UnwindEjmmPvmmb 756
__interceptor_pthread_attr_getaffinity_np,pthread_attr_getaffinity_np _ZN6__asan22IsStackTraceSuppressedEPKN11__sanitizer10StackTraceE 764
__interceptor_pthread_attr_getaffinity_np,pthread_attr_getaffinity_np _ZN6__asan20asan_init_is_runningE 784
__interceptor_pthread_attr_getaffinity_np,pthread_attr_getaffinity_np _ZN6__asan11asan_initedE 792
__interceptor_pthread_attr_getaffinity_np,pthread_attr_getaffinity_np _ZN11__sanitizer21common_flags_dont_useE 800
__interceptor_pthread_attr_getaffinity_np,pthread_attr_getaffinity_np .LC124 804
__interceptor_pthread_mutexattr_getpshared,pthread_mutexattr_getpshared _ZN6__asan15AsanInitFromRtlEv 96
__interceptor_pthread_mutexattr_getpshared,pthread_mutexattr_getpshared _ZN11__sanitizer10StackTrace12GetCurrentPcEv 188
__interceptor_pthread_mutexattr_getpshared,pthread_mutexattr_getpshared _ZN6__asan16GetCurrentThreadEv 224
__interceptor_pthread_mutexattr_getpshared,pthread_mutexattr_getpshared _ZN11__sanitizer18BufferedStackTrace6UnwindEjmmPvmmb 300
__interceptor_pthread_mutexattr_getpshared,pthread_mutexattr_getpshared __asan_region_is_poisoned 320
__interceptor_pthread_mutexattr_getpshared,pthread_mutexattr_getpshared _ZN6__asan23IsInterceptorSuppressedEPKc 340
__interceptor_pthread_mutexattr_getpshared,pthread_mutexattr_getpshared _ZN6__asan31HaveStackTraceBasedSuppressionsEv 352
__interceptor_pthread_mutexattr_getpshared,pthread_mutexattr_getpshared _ZN11__sanitizer10StackTrace12GetCurrentPcEv 372
__interceptor_pthread_mutexattr_getpshared,pthread_mutexattr_getpshared _ZN6__asan18ReportGenericErrorEmmmmbmjb 412
__interceptor_pthread_mutexattr_getpshared,pthread_mutexattr_getpshared _ZN11__sanitizer18BufferedStackTrace6UnwindEjmmPvmmb 476
__interceptor_pthread_mutexattr_getpshared,pthread_mutexattr_getpshared _ZN6__asan32ReportStringFunctionSizeOverflowEmmPN11__sanitizer18BufferedStackTraceE 492
__interceptor_pthread_mutexattr_getpshared,pthread_mutexattr_getpshared _ZN11__sanitizer10StackTrace12GetCurrentPcEv 544
__interceptor_pthread_mutexattr_getpshared,pthread_mutexattr_getpshared _ZN6__asan16GetCurrentThreadEv 580
__interceptor_pthread_mutexattr_getpshared,pthread_mutexattr_getpshared _ZN11__sanitizer18BufferedStackTrace6UnwindEjmmPvmmb 656
__interceptor_pthread_mutexattr_getpshared,pthread_mutexattr_getpshared _ZN11__sanitizer18BufferedStackTrace6UnwindEjmmPvmmb 728
__interceptor_pthread_mutexattr_getpshared,pthread_mutexattr_getpshared _ZN6__asan22IsStackTraceSuppressedEPKN11__sanitizer10StackTraceE 736
__interceptor_pthread_mutexattr_getpshared,pthread_mutexattr_getpshared _ZN6__asan20asan_init_is_runningE 756
__interceptor_pthread_mutexattr_getpshared,pthread_mutexattr_getpshared _ZN6__asan11asan_initedE 764
__interceptor_pthread_mutexattr_getpshared,pthread_mutexattr_getpshared _ZN11__sanitizer21common_flags_dont_useE 772
__interceptor_pthread_mutexattr_getpshared,pthread_mutexattr_getpshared .LC125 776
__interceptor_pthread_mutexattr_gettype,pthread_mutexattr_gettype _ZN6__asan15AsanInitFromRtlEv 96
__interceptor_pthread_mutexattr_gettype,pthread_mutexattr_gettype _ZN11__sanitizer10StackTrace12GetCurrentPcEv 188
__interceptor_pthread_mutexattr_gettype,pthread_mutexattr_gettype _ZN6__asan16GetCurrentThreadEv 224
__interceptor_pthread_mutexattr_gettype,pthread_mutexattr_gettype _ZN11__sanitizer18BufferedStackTrace6UnwindEjmmPvmmb 300
__interceptor_pthread_mutexattr_gettype,pthread_mutexattr_gettype __asan_region_is_poisoned 320
__interceptor_pthread_mutexattr_gettype,pthread_mutexattr_gettype _ZN6__asan23IsInterceptorSuppressedEPKc 340
__interceptor_pthread_mutexattr_gettype,pthread_mutexattr_gettype _ZN6__asan31HaveStackTraceBasedSuppressionsEv 352
__interceptor_pthread_mutexattr_gettype,pthread_mutexattr_gettype _ZN11__sanitizer10StackTrace12GetCurrentPcEv 372
__interceptor_pthread_mutexattr_gettype,pthread_mutexattr_gettype _ZN6__asan18ReportGenericErrorEmmmmbmjb 412
__interceptor_pthread_mutexattr_gettype,pthread_mutexattr_gettype _ZN11__sanitizer18BufferedStackTrace6UnwindEjmmPvmmb 476
__interceptor_pthread_mutexattr_gettype,pthread_mutexattr_gettype _ZN6__asan32ReportStringFunctionSizeOverflowEmmPN11__sanitizer18BufferedStackTraceE 492
__interceptor_pthread_mutexattr_gettype,pthread_mutexattr_gettype _ZN11__sanitizer10StackTrace12GetCurrentPcEv 544
__interceptor_pthread_mutexattr_gettype,pthread_mutexattr_gettype _ZN6__asan16GetCurrentThreadEv 580
__interceptor_pthread_mutexattr_gettype,pthread_mutexattr_gettype _ZN11__sanitizer18BufferedStackTrace6UnwindEjmmPvmmb 656
__interceptor_pthread_mutexattr_gettype,pthread_mutexattr_gettype _ZN11__sanitizer18BufferedStackTrace6UnwindEjmmPvmmb 728
__interceptor_pthread_mutexattr_gettype,pthread_mutexattr_gettype _ZN6__asan22IsStackTraceSuppressedEPKN11__sanitizer10StackTraceE 736
__interceptor_pthread_mutexattr_gettype,pthread_mutexattr_gettype _ZN6__asan20asan_init_is_runningE 756
__interceptor_pthread_mutexattr_gettype,pthread_mutexattr_gettype _ZN6__asan11asan_initedE 764
__interceptor_pthread_mutexattr_gettype,pthread_mutexattr_gettype _ZN11__sanitizer21common_flags_dont_useE 772
__interceptor_pthread_mutexattr_gettype,pthread_mutexattr_gettype .LC126 776
__interceptor_pthread_mutexattr_getprotocol,pthread_mutexattr_getprotocol _ZN6__asan15AsanInitFromRtlEv 96
__interceptor_pthread_mutexattr_getprotocol,pthread_mutexattr_getprotocol _ZN11__sanitizer10StackTrace12GetCurrentPcEv 188
__interceptor_pthread_mutexattr_getprotocol,pthread_mutexattr_getprotocol _ZN6__asan16GetCurrentThreadEv 224
__interceptor_pthread_mutexattr_getprotocol,pthread_mutexattr_getprotocol _ZN11__sanitizer18BufferedStackTrace6UnwindEjmmPvmmb 300
__interceptor_pthread_mutexattr_getprotocol,pthread_mutexattr_getprotocol __asan_region_is_poisoned 320
__interceptor_pthread_mutexattr_getprotocol,pthread_mutexattr_getprotocol _ZN6__asan23IsInterceptorSuppressedEPKc 340
__interceptor_pthread_mutexattr_getprotocol,pthread_mutexattr_getprotocol _ZN6__asan31HaveStackTraceBasedSuppressionsEv 352
__interceptor_pthread_mutexattr_getprotocol,pthread_mutexattr_getprotocol _ZN11__sanitizer10StackTrace12GetCurrentPcEv 372
__interceptor_pthread_mutexattr_getprotocol,pthread_mutexattr_getprotocol _ZN6__asan18ReportGenericErrorEmmmmbmjb 412
__interceptor_pthread_mutexattr_getprotocol,pthread_mutexattr_getprotocol _ZN11__sanitizer18BufferedStackTrace6UnwindEjmmPvmmb 476
__interceptor_pthread_mutexattr_getprotocol,pthread_mutexattr_getprotocol _ZN6__asan32ReportStringFunctionSizeOverflowEmmPN11__sanitizer18BufferedStackTraceE 492
__interceptor_pthread_mutexattr_getprotocol,pthread_mutexattr_getprotocol _ZN11__sanitizer10StackTrace12GetCurrentPcEv 544
__interceptor_pthread_mutexattr_getprotocol,pthread_mutexattr_getprotocol _ZN6__asan16GetCurrentThreadEv 580
__interceptor_pthread_mutexattr_getprotocol,pthread_mutexattr_getprotocol _ZN11__sanitizer18BufferedStackTrace6UnwindEjmmPvmmb 656
__interceptor_pthread_mutexattr_getprotocol,pthread_mutexattr_getprotocol _ZN11__sanitizer18BufferedStackTrace6UnwindEjmmPvmmb 728
__interceptor_pthread_mutexattr_getprotocol,pthread_mutexattr_getprotocol _ZN6__asan22IsStackTraceSuppressedEPKN11__sanitizer10StackTraceE 736
__interceptor_pthread_mutexattr_getprotocol,pthread_mutexattr_getprotocol _ZN6__asan20asan_init_is_runningE 756
__interceptor_pthread_mutexattr_getprotocol,pthread_mutexattr_getprotocol _ZN6__asan11asan_initedE 764
__interceptor_pthread_mutexattr_getprotocol,pthread_mutexattr_getprotocol _ZN11__sanitizer21common_flags_dont_useE 772
__interceptor_pthread_mutexattr_getprotocol,pthread_mutexattr_getprotocol .LC127 776
__interceptor_pthread_mutexattr_getprioceiling,pthread_mutexattr_getprioceiling _ZN6__asan15AsanInitFromRtlEv 96
__interceptor_pthread_mutexattr_getprioceiling,pthread_mutexattr_getprioceiling _ZN11__sanitizer10StackTrace12GetCurrentPcEv 188
__interceptor_pthread_mutexattr_getprioceiling,pthread_mutexattr_getprioceiling _ZN6__asan16GetCurrentThreadEv 224
__interceptor_pthread_mutexattr_getprioceiling,pthread_mutexattr_getprioceiling _ZN11__sanitizer18BufferedStackTrace6UnwindEjmmPvmmb 300
__interceptor_pthread_mutexattr_getprioceiling,pthread_mutexattr_getprioceiling __asan_region_is_poisoned 320
__interceptor_pthread_mutexattr_getprioceiling,pthread_mutexattr_getprioceiling _ZN6__asan23IsInterceptorSuppressedEPKc 340
__interceptor_pthread_mutexattr_getprioceiling,pthread_mutexattr_getprioceiling _ZN6__asan31HaveStackTraceBasedSuppressionsEv 352
__interceptor_pthread_mutexattr_getprioceiling,pthread_mutexattr_getprioceiling _ZN11__sanitizer10StackTrace12GetCurrentPcEv 372
__interceptor_pthread_mutexattr_getprioceiling,pthread_mutexattr_getprioceiling _ZN6__asan18ReportGenericErrorEmmmmbmjb 412
__interceptor_pthread_mutexattr_getprioceiling,pthread_mutexattr_getprioceiling _ZN11__sanitizer18BufferedStackTrace6UnwindEjmmPvmmb 476
__interceptor_pthread_mutexattr_getprioceiling,pthread_mutexattr_getprioceiling _ZN6__asan32ReportStringFunctionSizeOverflowEmmPN11__sanitizer18BufferedStackTraceE 492
__interceptor_pthread_mutexattr_getprioceiling,pthread_mutexattr_getprioceiling _ZN11__sanitizer10StackTrace12GetCurrentPcEv 544
__interceptor_pthread_mutexattr_getprioceiling,pthread_mutexattr_getprioceiling _ZN6__asan16GetCurrentThreadEv 580
__interceptor_pthread_mutexattr_getprioceiling,pthread_mutexattr_getprioceiling _ZN11__sanitizer18BufferedStackTrace6UnwindEjmmPvmmb 656
__interceptor_pthread_mutexattr_getprioceiling,pthread_mutexattr_getprioceiling _ZN11__sanitizer18BufferedStackTrace6UnwindEjmmPvmmb 728
__interceptor_pthread_mutexattr_getprioceiling,pthread_mutexattr_getprioceiling _ZN6__asan22IsStackTraceSuppressedEPKN11__sanitizer10StackTraceE 736
__interceptor_pthread_mutexattr_getprioceiling,pthread_mutexattr_getprioceiling _ZN6__asan20asan_init_is_runningE 756
__interceptor_pthread_mutexattr_getprioceiling,pthread_mutexattr_getprioceiling _ZN6__asan11asan_initedE 764
__interceptor_pthread_mutexattr_getprioceiling,pthread_mutexattr_getprioceiling _ZN11__sanitizer21common_flags_dont_useE 772
__interceptor_pthread_mutexattr_getprioceiling,pthread_mutexattr_getprioceiling .LC128 776
__interceptor_pthread_mutexattr_getrobust,pthread_mutexattr_getrobust _ZN6__asan15AsanInitFromRtlEv 96
__interceptor_pthread_mutexattr_getrobust,pthread_mutexattr_getrobust _ZN11__sanitizer10StackTrace12GetCurrentPcEv 188
__interceptor_pthread_mutexattr_getrobust,pthread_mutexattr_getrobust _ZN6__asan16GetCurrentThreadEv 224
__interceptor_pthread_mutexattr_getrobust,pthread_mutexattr_getrobust _ZN11__sanitizer18BufferedStackTrace6UnwindEjmmPvmmb 300
__interceptor_pthread_mutexattr_getrobust,pthread_mutexattr_getrobust __asan_region_is_poisoned 320
__interceptor_pthread_mutexattr_getrobust,pthread_mutexattr_getrobust _ZN6__asan23IsInterceptorSuppressedEPKc 340
__interceptor_pthread_mutexattr_getrobust,pthread_mutexattr_getrobust _ZN6__asan31HaveStackTraceBasedSuppressionsEv 352
__interceptor_pthread_mutexattr_getrobust,pthread_mutexattr_getrobust _ZN11__sanitizer10StackTrace12GetCurrentPcEv 372
__interceptor_pthread_mutexattr_getrobust,pthread_mutexattr_getrobust _ZN6__asan18ReportGenericErrorEmmmmbmjb 412
__interceptor_pthread_mutexattr_getrobust,pthread_mutexattr_getrobust _ZN11__sanitizer18BufferedStackTrace6UnwindEjmmPvmmb 476
__interceptor_pthread_mutexattr_getrobust,pthread_mutexattr_getrobust _ZN6__asan32ReportStringFunctionSizeOverflowEmmPN11__sanitizer18BufferedStackTraceE 492
__interceptor_pthread_mutexattr_getrobust,pthread_mutexattr_getrobust _ZN11__sanitizer10StackTrace12GetCurrentPcEv 544
__interceptor_pthread_mutexattr_getrobust,pthread_mutexattr_getrobust _ZN6__asan16GetCurrentThreadEv 580
__interceptor_pthread_mutexattr_getrobust,pthread_mutexattr_getrobust _ZN11__sanitizer18BufferedStackTrace6UnwindEjmmPvmmb 656
__interceptor_pthread_mutexattr_getrobust,pthread_mutexattr_getrobust _ZN11__sanitizer18BufferedStackTrace6UnwindEjmmPvmmb 728
__interceptor_pthread_mutexattr_getrobust,pthread_mutexattr_getrobust _ZN6__asan22IsStackTraceSuppressedEPKN11__sanitizer10StackTraceE 736
__interceptor_pthread_mutexattr_getrobust,pthread_mutexattr_getrobust _ZN6__asan20asan_init_is_runningE 756
__interceptor_pthread_mutexattr_getrobust,pthread_mutexattr_getrobust _ZN6__asan11asan_initedE 764
__interceptor_pthread_mutexattr_getrobust,pthread_mutexattr_getrobust _ZN11__sanitizer21common_flags_dont_useE 772
__interceptor_pthread_mutexattr_getrobust,pthread_mutexattr_getrobust .LC129 776
__interceptor_pthread_mutexattr_getrobust_np,pthread_mutexattr_getrobust_np _ZN6__asan15AsanInitFromRtlEv 96
__interceptor_pthread_mutexattr_getrobust_np,pthread_mutexattr_getrobust_np _ZN11__sanitizer10StackTrace12GetCurrentPcEv 188
__interceptor_pthread_mutexattr_getrobust_np,pthread_mutexattr_getrobust_np _ZN6__asan16GetCurrentThreadEv 224
__interceptor_pthread_mutexattr_getrobust_np,pthread_mutexattr_getrobust_np _ZN11__sanitizer18BufferedStackTrace6UnwindEjmmPvmmb 300
__interceptor_pthread_mutexattr_getrobust_np,pthread_mutexattr_getrobust_np __asan_region_is_poisoned 320
__interceptor_pthread_mutexattr_getrobust_np,pthread_mutexattr_getrobust_np _ZN6__asan23IsInterceptorSuppressedEPKc 340
__interceptor_pthread_mutexattr_getrobust_np,pthread_mutexattr_getrobust_np _ZN6__asan31HaveStackTraceBasedSuppressionsEv 352
__interceptor_pthread_mutexattr_getrobust_np,pthread_mutexattr_getrobust_np _ZN11__sanitizer10StackTrace12GetCurrentPcEv 372
__interceptor_pthread_mutexattr_getrobust_np,pthread_mutexattr_getrobust_np _ZN6__asan18ReportGenericErrorEmmmmbmjb 412
__interceptor_pthread_mutexattr_getrobust_np,pthread_mutexattr_getrobust_np _ZN11__sanitizer18BufferedStackTrace6UnwindEjmmPvmmb 476
__interceptor_pthread_mutexattr_getrobust_np,pthread_mutexattr_getrobust_np _ZN6__asan32ReportStringFunctionSizeOverflowEmmPN11__sanitizer18BufferedStackTraceE 492
__interceptor_pthread_mutexattr_getrobust_np,pthread_mutexattr_getrobust_np _ZN11__sanitizer10StackTrace12GetCurrentPcEv 544
__interceptor_pthread_mutexattr_getrobust_np,pthread_mutexattr_getrobust_np _ZN6__asan16GetCurrentThreadEv 580
__interceptor_pthread_mutexattr_getrobust_np,pthread_mutexattr_getrobust_np _ZN11__sanitizer18BufferedStackTrace6UnwindEjmmPvmmb 656
__interceptor_pthread_mutexattr_getrobust_np,pthread_mutexattr_getrobust_np _ZN11__sanitizer18BufferedStackTrace6UnwindEjmmPvmmb 728
__interceptor_pthread_mutexattr_getrobust_np,pthread_mutexattr_getrobust_np _ZN6__asan22IsStackTraceSuppressedEPKN11__sanitizer10StackTraceE 736
__interceptor_pthread_mutexattr_getrobust_np,pthread_mutexattr_getrobust_np _ZN6__asan20asan_init_is_runningE 756
__interceptor_pthread_mutexattr_getrobust_np,pthread_mutexattr_getrobust_np _ZN6__asan11asan_initedE 764
__interceptor_pthread_mutexattr_getrobust_np,pthread_mutexattr_getrobust_np _ZN11__sanitizer21common_flags_dont_useE 772
__interceptor_pthread_mutexattr_getrobust_np,pthread_mutexattr_getrobust_np .LC130 776
__interceptor_pthread_rwlockattr_getpshared,pthread_rwlockattr_getpshared _ZN6__asan15AsanInitFromRtlEv 96
__interceptor_pthread_rwlockattr_getpshared,pthread_rwlockattr_getpshared _ZN11__sanitizer10StackTrace12GetCurrentPcEv 188
__interceptor_pthread_rwlockattr_getpshared,pthread_rwlockattr_getpshared _ZN6__asan16GetCurrentThreadEv 224
__interceptor_pthread_rwlockattr_getpshared,pthread_rwlockattr_getpshared _ZN11__sanitizer18BufferedStackTrace6UnwindEjmmPvmmb 300
__interceptor_pthread_rwlockattr_getpshared,pthread_rwlockattr_getpshared __asan_region_is_poisoned 320
__interceptor_pthread_rwlockattr_getpshared,pthread_rwlockattr_getpshared _ZN6__asan23IsInterceptorSuppressedEPKc 340
__interceptor_pthread_rwlockattr_getpshared,pthread_rwlockattr_getpshared _ZN6__asan31HaveStackTraceBasedSuppressionsEv 352
__interceptor_pthread_rwlockattr_getpshared,pthread_rwlockattr_getpshared _ZN11__sanitizer10StackTrace12GetCurrentPcEv 372
__interceptor_pthread_rwlockattr_getpshared,pthread_rwlockattr_getpshared _ZN6__asan18ReportGenericErrorEmmmmbmjb 412
__interceptor_pthread_rwlockattr_getpshared,pthread_rwlockattr_getpshared _ZN11__sanitizer18BufferedStackTrace6UnwindEjmmPvmmb 476
__interceptor_pthread_rwlockattr_getpshared,pthread_rwlockattr_getpshared _ZN6__asan32ReportStringFunctionSizeOverflowEmmPN11__sanitizer18BufferedStackTraceE 492
__interceptor_pthread_rwlockattr_getpshared,pthread_rwlockattr_getpshared _ZN11__sanitizer10StackTrace12GetCurrentPcEv 544
__interceptor_pthread_rwlockattr_getpshared,pthread_rwlockattr_getpshared _ZN6__asan16GetCurrentThreadEv 580
__interceptor_pthread_rwlockattr_getpshared,pthread_rwlockattr_getpshared _ZN11__sanitizer18BufferedStackTrace6UnwindEjmmPvmmb 656
__interceptor_pthread_rwlockattr_getpshared,pthread_rwlockattr_getpshared _ZN11__sanitizer18BufferedStackTrace6UnwindEjmmPvmmb 728
__interceptor_pthread_rwlockattr_getpshared,pthread_rwlockattr_getpshared _ZN6__asan22IsStackTraceSuppressedEPKN11__sanitizer10StackTraceE 736
__interceptor_pthread_rwlockattr_getpshared,pthread_rwlockattr_getpshared _ZN6__asan20asan_init_is_runningE 756
__interceptor_pthread_rwlockattr_getpshared,pthread_rwlockattr_getpshared _ZN6__asan11asan_initedE 764
__interceptor_pthread_rwlockattr_getpshared,pthread_rwlockattr_getpshared _ZN11__sanitizer21common_flags_dont_useE 772
__interceptor_pthread_rwlockattr_getpshared,pthread_rwlockattr_getpshared .LC131 776
__interceptor_pthread_rwlockattr_getkind_np,pthread_rwlockattr_getkind_np _ZN6__asan15AsanInitFromRtlEv 96
__interceptor_pthread_rwlockattr_getkind_np,pthread_rwlockattr_getkind_np _ZN11__sanitizer10StackTrace12GetCurrentPcEv 188
__interceptor_pthread_rwlockattr_getkind_np,pthread_rwlockattr_getkind_np _ZN6__asan16GetCurrentThreadEv 224
__interceptor_pthread_rwlockattr_getkind_np,pthread_rwlockattr_getkind_np _ZN11__sanitizer18BufferedStackTrace6UnwindEjmmPvmmb 300
__interceptor_pthread_rwlockattr_getkind_np,pthread_rwlockattr_getkind_np __asan_region_is_poisoned 320
__interceptor_pthread_rwlockattr_getkind_np,pthread_rwlockattr_getkind_np _ZN6__asan23IsInterceptorSuppressedEPKc 340
__interceptor_pthread_rwlockattr_getkind_np,pthread_rwlockattr_getkind_np _ZN6__asan31HaveStackTraceBasedSuppressionsEv 352
__interceptor_pthread_rwlockattr_getkind_np,pthread_rwlockattr_getkind_np _ZN11__sanitizer10StackTrace12GetCurrentPcEv 372
__interceptor_pthread_rwlockattr_getkind_np,pthread_rwlockattr_getkind_np _ZN6__asan18ReportGenericErrorEmmmmbmjb 412
__interceptor_pthread_rwlockattr_getkind_np,pthread_rwlockattr_getkind_np _ZN11__sanitizer18BufferedStackTrace6UnwindEjmmPvmmb 476
__interceptor_pthread_rwlockattr_getkind_np,pthread_rwlockattr_getkind_np _ZN6__asan32ReportStringFunctionSizeOverflowEmmPN11__sanitizer18BufferedStackTraceE 492
__interceptor_pthread_rwlockattr_getkind_np,pthread_rwlockattr_getkind_np _ZN11__sanitizer10StackTrace12GetCurrentPcEv 544
__interceptor_pthread_rwlockattr_getkind_np,pthread_rwlockattr_getkind_np _ZN6__asan16GetCurrentThreadEv 580
__interceptor_pthread_rwlockattr_getkind_np,pthread_rwlockattr_getkind_np _ZN11__sanitizer18BufferedStackTrace6UnwindEjmmPvmmb 656
__interceptor_pthread_rwlockattr_getkind_np,pthread_rwlockattr_getkind_np _ZN11__sanitizer18BufferedStackTrace6UnwindEjmmPvmmb 728
__interceptor_pthread_rwlockattr_getkind_np,pthread_rwlockattr_getkind_np _ZN6__asan22IsStackTraceSuppressedEPKN11__sanitizer10StackTraceE 736
__interceptor_pthread_rwlockattr_getkind_np,pthread_rwlockattr_getkind_np _ZN6__asan20asan_init_is_runningE 756
__interceptor_pthread_rwlockattr_getkind_np,pthread_rwlockattr_getkind_np _ZN6__asan11asan_initedE 764
__interceptor_pthread_rwlockattr_getkind_np,pthread_rwlockattr_getkind_np _ZN11__sanitizer21common_flags_dont_useE 772
__interceptor_pthread_rwlockattr_getkind_np,pthread_rwlockattr_getkind_np .LC132 776
__interceptor_pthread_condattr_getpshared,pthread_condattr_getpshared _ZN6__asan15AsanInitFromRtlEv 96
__interceptor_pthread_condattr_getpshared,pthread_condattr_getpshared _ZN11__sanitizer10StackTrace12GetCurrentPcEv 188
__interceptor_pthread_condattr_getpshared,pthread_condattr_getpshared _ZN6__asan16GetCurrentThreadEv 224
__interceptor_pthread_condattr_getpshared,pthread_condattr_getpshared _ZN11__sanitizer18BufferedStackTrace6UnwindEjmmPvmmb 300
__interceptor_pthread_condattr_getpshared,pthread_condattr_getpshared __asan_region_is_poisoned 320
__interceptor_pthread_condattr_getpshared,pthread_condattr_getpshared _ZN6__asan23IsInterceptorSuppressedEPKc 340
__interceptor_pthread_condattr_getpshared,pthread_condattr_getpshared _ZN6__asan31HaveStackTraceBasedSuppressionsEv 352
__interceptor_pthread_condattr_getpshared,pthread_condattr_getpshared _ZN11__sanitizer10StackTrace12GetCurrentPcEv 372
__interceptor_pthread_condattr_getpshared,pthread_condattr_getpshared _ZN6__asan18ReportGenericErrorEmmmmbmjb 412
__interceptor_pthread_condattr_getpshared,pthread_condattr_getpshared _ZN11__sanitizer18BufferedStackTrace6UnwindEjmmPvmmb 476
__interceptor_pthread_condattr_getpshared,pthread_condattr_getpshared _ZN6__asan32ReportStringFunctionSizeOverflowEmmPN11__sanitizer18BufferedStackTraceE 492
__interceptor_pthread_condattr_getpshared,pthread_condattr_getpshared _ZN11__sanitizer10StackTrace12GetCurrentPcEv 544
__interceptor_pthread_condattr_getpshared,pthread_condattr_getpshared _ZN6__asan16GetCurrentThreadEv 580
__interceptor_pthread_condattr_getpshared,pthread_condattr_getpshared _ZN11__sanitizer18BufferedStackTrace6UnwindEjmmPvmmb 656
__interceptor_pthread_condattr_getpshared,pthread_condattr_getpshared _ZN11__sanitizer18BufferedStackTrace6UnwindEjmmPvmmb 728
__interceptor_pthread_condattr_getpshared,pthread_condattr_getpshared _ZN6__asan22IsStackTraceSuppressedEPKN11__sanitizer10StackTraceE 736
__interceptor_pthread_condattr_getpshared,pthread_condattr_getpshared _ZN6__asan20asan_init_is_runningE 756
__interceptor_pthread_condattr_getpshared,pthread_condattr_getpshared _ZN6__asan11asan_initedE 764
__interceptor_pthread_condattr_getpshared,pthread_condattr_getpshared _ZN11__sanitizer21common_flags_dont_useE 772
__interceptor_pthread_condattr_getpshared,pthread_condattr_getpshared .LC133 776
__interceptor_pthread_condattr_getclock,pthread_condattr_getclock _ZN6__asan15AsanInitFromRtlEv 96
__interceptor_pthread_condattr_getclock,pthread_condattr_getclock _ZN11__sanitizer10StackTrace12GetCurrentPcEv 188
__interceptor_pthread_condattr_getclock,pthread_condattr_getclock _ZN6__asan16GetCurrentThreadEv 224
__interceptor_pthread_condattr_getclock,pthread_condattr_getclock _ZN11__sanitizer18BufferedStackTrace6UnwindEjmmPvmmb 300
__interceptor_pthread_condattr_getclock,pthread_condattr_getclock __asan_region_is_poisoned 320
__interceptor_pthread_condattr_getclock,pthread_condattr_getclock _ZN6__asan23IsInterceptorSuppressedEPKc 340
__interceptor_pthread_condattr_getclock,pthread_condattr_getclock _ZN6__asan31HaveStackTraceBasedSuppressionsEv 352
__interceptor_pthread_condattr_getclock,pthread_condattr_getclock _ZN11__sanitizer10StackTrace12GetCurrentPcEv 372
__interceptor_pthread_condattr_getclock,pthread_condattr_getclock _ZN6__asan18ReportGenericErrorEmmmmbmjb 412
__interceptor_pthread_condattr_getclock,pthread_condattr_getclock _ZN11__sanitizer18BufferedStackTrace6UnwindEjmmPvmmb 476
__interceptor_pthread_condattr_getclock,pthread_condattr_getclock _ZN6__asan32ReportStringFunctionSizeOverflowEmmPN11__sanitizer18BufferedStackTraceE 492
__interceptor_pthread_condattr_getclock,pthread_condattr_getclock _ZN11__sanitizer10StackTrace12GetCurrentPcEv 544
__interceptor_pthread_condattr_getclock,pthread_condattr_getclock _ZN6__asan16GetCurrentThreadEv 580
__interceptor_pthread_condattr_getclock,pthread_condattr_getclock _ZN11__sanitizer18BufferedStackTrace6UnwindEjmmPvmmb 656
__interceptor_pthread_condattr_getclock,pthread_condattr_getclock _ZN11__sanitizer18BufferedStackTrace6UnwindEjmmPvmmb 728
__interceptor_pthread_condattr_getclock,pthread_condattr_getclock _ZN6__asan22IsStackTraceSuppressedEPKN11__sanitizer10StackTraceE 736
__interceptor_pthread_condattr_getclock,pthread_condattr_getclock _ZN6__asan20asan_init_is_runningE 756
__interceptor_pthread_condattr_getclock,pthread_condattr_getclock _ZN6__asan11asan_initedE 764
__interceptor_pthread_condattr_getclock,pthread_condattr_getclock _ZN11__sanitizer21common_flags_dont_useE 772
__interceptor_pthread_condattr_getclock,pthread_condattr_getclock .LC134 776
__interceptor_pthread_barrierattr_getpshared,pthread_barrierattr_getpshared _ZN6__asan15AsanInitFromRtlEv 96
__interceptor_pthread_barrierattr_getpshared,pthread_barrierattr_getpshared _ZN11__sanitizer10StackTrace12GetCurrentPcEv 188
__interceptor_pthread_barrierattr_getpshared,pthread_barrierattr_getpshared _ZN6__asan16GetCurrentThreadEv 224
__interceptor_pthread_barrierattr_getpshared,pthread_barrierattr_getpshared _ZN11__sanitizer18BufferedStackTrace6UnwindEjmmPvmmb 300
__interceptor_pthread_barrierattr_getpshared,pthread_barrierattr_getpshared __asan_region_is_poisoned 320
__interceptor_pthread_barrierattr_getpshared,pthread_barrierattr_getpshared _ZN6__asan23IsInterceptorSuppressedEPKc 340
__interceptor_pthread_barrierattr_getpshared,pthread_barrierattr_getpshared _ZN6__asan31HaveStackTraceBasedSuppressionsEv 352
__interceptor_pthread_barrierattr_getpshared,pthread_barrierattr_getpshared _ZN11__sanitizer10StackTrace12GetCurrentPcEv 372
__interceptor_pthread_barrierattr_getpshared,pthread_barrierattr_getpshared _ZN6__asan18ReportGenericErrorEmmmmbmjb 412
__interceptor_pthread_barrierattr_getpshared,pthread_barrierattr_getpshared _ZN11__sanitizer18BufferedStackTrace6UnwindEjmmPvmmb 476
__interceptor_pthread_barrierattr_getpshared,pthread_barrierattr_getpshared _ZN6__asan32ReportStringFunctionSizeOverflowEmmPN11__sanitizer18BufferedStackTraceE 492
__interceptor_pthread_barrierattr_getpshared,pthread_barrierattr_getpshared _ZN11__sanitizer10StackTrace12GetCurrentPcEv 544
__interceptor_pthread_barrierattr_getpshared,pthread_barrierattr_getpshared _ZN6__asan16GetCurrentThreadEv 580
__interceptor_pthread_barrierattr_getpshared,pthread_barrierattr_getpshared _ZN11__sanitizer18BufferedStackTrace6UnwindEjmmPvmmb 656
__interceptor_pthread_barrierattr_getpshared,pthread_barrierattr_getpshared _ZN11__sanitizer18BufferedStackTrace6UnwindEjmmPvmmb 728
__interceptor_pthread_barrierattr_getpshared,pthread_barrierattr_getpshared _ZN6__asan22IsStackTraceSuppressedEPKN11__sanitizer10StackTraceE 736
__interceptor_pthread_barrierattr_getpshared,pthread_barrierattr_getpshared _ZN6__asan20asan_init_is_runningE 756
__interceptor_pthread_barrierattr_getpshared,pthread_barrierattr_getpshared _ZN6__asan11asan_initedE 764
__interceptor_pthread_barrierattr_getpshared,pthread_barrierattr_getpshared _ZN11__sanitizer21common_flags_dont_useE 772
__interceptor_pthread_barrierattr_getpshared,pthread_barrierattr_getpshared .LC135 776
__interceptor_tmpnam,tmpnam _ZN6__asan15AsanInitFromRtlEv 100
__interceptor_tmpnam,tmpnam _ZN11__sanitizer10StackTrace12GetCurrentPcEv 200
__interceptor_tmpnam,tmpnam _ZN6__asan16GetCurrentThreadEv 240
__interceptor_tmpnam,tmpnam _ZN11__sanitizer18BufferedStackTrace6UnwindEjmmPvmmb 320
__interceptor_tmpnam,tmpnam _ZN11__sanitizer18BufferedStackTrace6UnwindEjmmPvmmb 388
__interceptor_tmpnam,tmpnam _ZN6__asan32ReportStringFunctionSizeOverflowEmmPN11__sanitizer18BufferedStackTraceE 404
__interceptor_tmpnam,tmpnam __asan_region_is_poisoned 436
__interceptor_tmpnam,tmpnam _ZN6__asan23IsInterceptorSuppressedEPKc 460
__interceptor_tmpnam,tmpnam _ZN6__asan31HaveStackTraceBasedSuppressionsEv 472
__interceptor_tmpnam,tmpnam _ZN11__sanitizer10StackTrace12GetCurrentPcEv 492
__interceptor_tmpnam,tmpnam _ZN6__asan18ReportGenericErrorEmmmmbmjb 532
__interceptor_tmpnam,tmpnam _ZN11__sanitizer10StackTrace12GetCurrentPcEv 560
__interceptor_tmpnam,tmpnam _ZN6__asan16GetCurrentThreadEv 596
__interceptor_tmpnam,tmpnam _ZN11__sanitizer18BufferedStackTrace6UnwindEjmmPvmmb 672
__interceptor_tmpnam,tmpnam _ZN11__sanitizer18BufferedStackTrace6UnwindEjmmPvmmb 744
__interceptor_tmpnam,tmpnam _ZN6__asan22IsStackTraceSuppressedEPKN11__sanitizer10StackTraceE 752
__interceptor_tmpnam,tmpnam _ZN6__asan20asan_init_is_runningE 772
__interceptor_tmpnam,tmpnam _ZN6__asan11asan_initedE 780
__interceptor_tmpnam,tmpnam _ZN11__sanitizer21common_flags_dont_useE 788
__interceptor_tmpnam,tmpnam .LC136 792
__interceptor_tmpnam_r,tmpnam_r _ZN6__asan15AsanInitFromRtlEv 104
__interceptor_tmpnam_r,tmpnam_r _ZN11__sanitizer10StackTrace12GetCurrentPcEv 200
__interceptor_tmpnam_r,tmpnam_r _ZN6__asan16GetCurrentThreadEv 244
__interceptor_tmpnam_r,tmpnam_r _ZN11__sanitizer18BufferedStackTrace6UnwindEjmmPvmmb 324
__interceptor_tmpnam_r,tmpnam_r _ZN11__sanitizer18BufferedStackTrace6UnwindEjmmPvmmb 392
__interceptor_tmpnam_r,tmpnam_r _ZN6__asan32ReportStringFunctionSizeOverflowEmmPN11__sanitizer18BufferedStackTraceE 408
__interceptor_tmpnam_r,tmpnam_r __asan_region_is_poisoned 440
__interceptor_tmpnam_r,tmpnam_r _ZN6__asan23IsInterceptorSuppressedEPKc 460
__interceptor_tmpnam_r,tmpnam_r _ZN6__asan31HaveStackTraceBasedSuppressionsEv 472
__interceptor_tmpnam_r,tmpnam_r _ZN11__sanitizer10StackTrace12GetCurrentPcEv 492
__interceptor_tmpnam_r,tmpnam_r _ZN6__asan18ReportGenericErrorEmmmmbmjb 532
__interceptor_tmpnam_r,tmpnam_r _ZN11__sanitizer10StackTrace12GetCurrentPcEv 560
__interceptor_tmpnam_r,tmpnam_r _ZN6__asan16GetCurrentThreadEv 604
__interceptor_tmpnam_r,tmpnam_r _ZN11__sanitizer18BufferedStackTrace6UnwindEjmmPvmmb 680
__interceptor_tmpnam_r,tmpnam_r _ZN11__sanitizer18BufferedStackTrace6UnwindEjmmPvmmb 748
__interceptor_tmpnam_r,tmpnam_r _ZN6__asan22IsStackTraceSuppressedEPKN11__sanitizer10StackTraceE 756
__interceptor_tmpnam_r,tmpnam_r _ZN6__asan20asan_init_is_runningE 776
__interceptor_tmpnam_r,tmpnam_r _ZN6__asan11asan_initedE 784
__interceptor_tmpnam_r,tmpnam_r _ZN11__sanitizer21common_flags_dont_useE 792
__interceptor_tmpnam_r,tmpnam_r .LC137 796
__interceptor_tempnam,tempnam _ZN6__asan15AsanInitFromRtlEv 96
__interceptor_tempnam,tempnam _ZN11__sanitizer10StackTrace12GetCurrentPcEv 172
__interceptor_tempnam,tempnam _ZN6__asan16GetCurrentThreadEv 212
__interceptor_tempnam,tempnam _ZN11__sanitizer18BufferedStackTrace6UnwindEjmmPvmmb 300
__interceptor_tempnam,tempnam _ZN11__sanitizer18BufferedStackTrace6UnwindEjmmPvmmb 372
__interceptor_tempnam,tempnam _ZN6__asan32ReportStringFunctionSizeOverflowEmmPN11__sanitizer18BufferedStackTraceE 388
__interceptor_tempnam,tempnam __asan_region_is_poisoned 420
__interceptor_tempnam,tempnam _ZN11__sanitizer10StackTrace12GetCurrentPcEv 508
__interceptor_tempnam,tempnam _ZN6__asan16GetCurrentThreadEv 548
__interceptor_tempnam,tempnam _ZN11__sanitizer18BufferedStackTrace6UnwindEjmmPvmmb 636
__interceptor_tempnam,tempnam _ZN6__asan23IsInterceptorSuppressedEPKc 660
__interceptor_tempnam,tempnam _ZN6__asan31HaveStackTraceBasedSuppressionsEv 672
__interceptor_tempnam,tempnam _ZN11__sanitizer10StackTrace12GetCurrentPcEv 684
__interceptor_tempnam,tempnam _ZN6__asan18ReportGenericErrorEmmmmbmjb 720
__interceptor_tempnam,tempnam _ZN11__sanitizer10StackTrace12GetCurrentPcEv 756
__interceptor_tempnam,tempnam _ZN6__asan16GetCurrentThreadEv 800
__interceptor_tempnam,tempnam _ZN11__sanitizer18BufferedStackTrace6UnwindEjmmPvmmb 888
__interceptor_tempnam,tempnam _ZN11__sanitizer18BufferedStackTrace6UnwindEjmmPvmmb 960
__interceptor_tempnam,tempnam _ZN6__asan22IsStackTraceSuppressedEPKN11__sanitizer10StackTraceE 972
