onall_symbols_read __ctype_b_loc 31
onall_symbols_read strlen 66
onall_symbols_read strchr 133
onall_symbols_read malloc 153
onall_symbols_read fflush 429
onall_symbols_read fflush 500
onall_symbols_read free 516
onall_symbols_read free 524
onall_symbols_read memmove 648
onall_symbols_read memmove 768
onall_symbols_read memmove 794
onall_symbols_read memmove 876
onall_symbols_read memmove 902
oncleanup free 17
oncleanup free 59
onclaim_file strcmp 44
onclaim_file free 73
onclaim_file __strdup 81
onclaim_file lseek 129
onclaim_file read 145
onclaim_file strtoul 169
onclaim_file lseek 210
onclaim_file malloc 229
onclaim_file read 267
onclaim_file fflush 327
onload fflush 215
assign_char1_from_char4 memset 56
caf_runtime_error stderr 86
caf_runtime_error stderr 94
caf_runtime_error fputs 100
caf_runtime_error stderr 118
caf_runtime_error vfprintf 148
caf_runtime_error stderr 154
caf_runtime_error fputc 160
caf_runtime_error exit 168
caf_internal_error snprintf 148
caf_internal_error memset 180
caf_internal_error _restgpr_30_x 188
convert_type _restgpr_30_x 128
convert_type __fixdfdi 464
convert_type __floatdidf 528
convert_type stderr 550
convert_type stderr 558
convert_type fprintf 576
convert_type __floatdisf 608
convert_type __floatdidf 640
convert_type abort 708
convert_type __floatdisf 736
copy_data memmove 112
copy_data _restgpr_21_x 204
copy_data memset 284
get_for_ref.constprop.0.isra.0 _restgpr_14_x 344
_gfortran_caf_finalize caf_static_list 18
_gfortran_caf_finalize caf_static_list 22
_gfortran_caf_finalize _restgpr_30_x 36
_gfortran_caf_finalize free 48
_gfortran_caf_finalize caf_static_list 54
_gfortran_caf_finalize free 56
_gfortran_caf_finalize caf_static_list 62
_gfortran_caf_register calloc 144
_gfortran_caf_register malloc 156
_gfortran_caf_register malloc 180
_gfortran_caf_register malloc 312
_gfortran_caf_register caf_static_list 318
_gfortran_caf_register caf_static_list 322
_gfortran_caf_register caf_static_list 334
_gfortran_caf_register free 356
_gfortran_caf_register _restgpr_25_x 388
send_by_ref.constprop.0.isra.0 memcpy 96
send_by_ref.constprop.0.isra.0 _gfortran_caf_register 348
send_by_ref.constprop.0.isra.0 _restgpr_14_x 464
send_by_ref.constprop.0.isra.0 _gfortran_caf_register 800
_gfortran_caf_deregister free 56
_gfortran_caf_deregister free 72
_gfortran_caf_deregister _restgpr_28_x 104
_gfortran_caf_stop_numeric stderr 22
_gfortran_caf_stop_numeric stderr 30
_gfortran_caf_stop_numeric fprintf 44
_gfortran_caf_stop_numeric exit 52
_gfortran_caf_stop_str stderr 26
_gfortran_caf_stop_str stderr 34
_gfortran_caf_stop_str fputs 52
_gfortran_caf_stop_str stderr 62
_gfortran_caf_stop_str fputc 72
_gfortran_caf_stop_str exit 80
_gfortran_caf_stop_str __fputc_unlocked 140
_gfortran_caf_stop_str fputc 152
_gfortran_caf_error_stop_str stderr 26
_gfortran_caf_error_stop_str stderr 34
_gfortran_caf_error_stop_str fputs 52
_gfortran_caf_error_stop_str stderr 62
_gfortran_caf_error_stop_str fputc 72
_gfortran_caf_error_stop_str exit 80
_gfortran_caf_error_stop_str __fputc_unlocked 140
_gfortran_caf_error_stop_str fputc 152
_gfortran_caf_fail_image stderr 2
_gfortran_caf_fail_image stderr 10
_gfortran_caf_fail_image fputs 28
_gfortran_caf_fail_image exit 36
_gfortran_caf_stopped_images _gfortran_caf_failed_images 0
_gfortran_caf_error_stop stderr 30
_gfortran_caf_error_stop stderr 38
_gfortran_caf_error_stop fprintf 52
_gfortran_caf_error_stop exit 60
_gfortran_caf_get memmove 292
_gfortran_caf_get _restgpr_14_x 388
_gfortran_caf_get memset 500
_gfortran_caf_get malloc 904
_gfortran_caf_get memcpy 1076
_gfortran_caf_get memmove 1300
_gfortran_caf_get memset 1404
_gfortran_caf_get free 1520
_gfortran_caf_get memmove 1824
_gfortran_caf_get memset 1984
_gfortran_caf_send memmove 296
_gfortran_caf_send _restgpr_14_x 392
_gfortran_caf_send memset 500
_gfortran_caf_send malloc 908
_gfortran_caf_send memcpy 924
_gfortran_caf_send malloc 1016
_gfortran_caf_send memcpy 1180
_gfortran_caf_send memmove 1352
_gfortran_caf_send memset 1460
_gfortran_caf_send free 1592
_gfortran_caf_send memmove 1892
_gfortran_caf_send memset 2052
_gfortran_caf_sendget _gfortran_caf_send 64
_gfortran_caf_sendget _restgpr_30_x 76
_gfortran_caf_get_by_ref memcpy 68
_gfortran_caf_get_by_ref memcpy 88
_gfortran_caf_get_by_ref memcpy 108
_gfortran_caf_get_by_ref memcpy 128
_gfortran_caf_get_by_ref memcpy 148
_gfortran_caf_get_by_ref memcpy 168
_gfortran_caf_get_by_ref memcpy 188
_gfortran_caf_get_by_ref memcpy 208
_gfortran_caf_get_by_ref __assert 284
_gfortran_caf_get_by_ref malloc 468
_gfortran_caf_get_by_ref _restgpr_15_x 960
_gfortran_caf_get_by_ref memset 2592
_gfortran_caf_send_by_ref memcpy 60
_gfortran_caf_send_by_ref memcpy 80
_gfortran_caf_send_by_ref memcpy 100
_gfortran_caf_send_by_ref memcpy 120
_gfortran_caf_send_by_ref memcpy 140
_gfortran_caf_send_by_ref memcpy 160
_gfortran_caf_send_by_ref memcpy 180
_gfortran_caf_send_by_ref _restgpr_21_x 360
_gfortran_caf_send_by_ref memset 420
_gfortran_caf_send_by_ref __assert 532
_gfortran_caf_sendget_by_ref _gfortran_caf_get_by_ref 108
_gfortran_caf_sendget_by_ref _gfortran_caf_send_by_ref 176
_gfortran_caf_sendget_by_ref free 192
_gfortran_caf_sendget_by_ref _restgpr_25_x 200
_gfortran_caf_atomic_define __assert 48
_gfortran_caf_atomic_ref __assert 48
_gfortran_caf_atomic_cas __assert 52
_gfortran_caf_atomic_op __assert 52
_gfortran_caf_lock _restgpr_30_x 80
_gfortran_caf_lock memcpy 148
_gfortran_caf_lock memset 192
_gfortran_caf_lock _gfortran_caf_error_stop_str 212
_gfortran_caf_unlock memcpy 116
_gfortran_caf_unlock memset 160
_gfortran_caf_unlock _gfortran_caf_error_stop_str 180
_gfortran_caf_unlock _restgpr_30_x 188
_gfortran_caf_is_present memcpy 40
_gfortran_caf_is_present memcpy 60
_gfortran_caf_is_present memcpy 80
_gfortran_caf_is_present _restgpr_30_x 412
__absvsi2 abort 48
__absvdi2 abort 56
__addvsi3 abort 56
__addvdi3 abort 80
__subvsi3 abort 56
__subvdi3 abort 80
__mulvsi3 abort 56
__mulvdi3 abort 140
__negvsi2 abort 48
__negvdi2 abort 72
__powitf2 _savefpr_28 20
__powitf2 __gcc_qdiv 128
__powitf2 _restfpr_28_x 156
__powitf2 __gcc_qmul 176
__powitf2 __gcc_qmul 212
__multc3 _savefpr_14 16
__multc3 __gcc_qmul 80
__multc3 __gcc_qmul 108
__multc3 __gcc_qmul 136
__multc3 __gcc_qmul 164
__multc3 __gcc_qsub 192
__multc3 __gcc_qadd 220
__multc3 __gcc_qmul 980
__multc3 __gcc_qmul 1008
__multc3 __gcc_qsub 1028
__multc3 __gcc_qmul 1044
__multc3 __gcc_qmul 1072
__multc3 __gcc_qmul 1100
__multc3 __gcc_qadd 1120
__multc3 __gcc_qmul 1132
__multc3 _restfpr_14_x 1200
__divtc3 _savefpr_18 24
__divtc3 __gcc_qdiv 144
__divtc3 __gcc_qmul 172
__divtc3 __gcc_qadd 184
__divtc3 __gcc_qmul 212
__divtc3 __gcc_qadd 224
__divtc3 __gcc_qdiv 236
__divtc3 __gcc_qmul 264
__divtc3 __gcc_qsub 276
__divtc3 __gcc_qdiv 288
__divtc3 __gcc_qmul 444
__divtc3 __gcc_qmul 472
__divtc3 _restfpr_18_x 532
__divtc3 __gcc_qdiv 552
__divtc3 __gcc_qmul 580
__divtc3 __gcc_qadd 592
__divtc3 __gcc_qmul 620
__divtc3 __gcc_qadd 632
__divtc3 __gcc_qdiv 644
__divtc3 __gcc_qmul 672
__divtc3 __gcc_qmul 1000
__divtc3 __gcc_qmul 1028
__divtc3 __gcc_qadd 1048
__divtc3 __gcc_qmul 1064
__divtc3 __gcc_qmul 1092
__divtc3 __gcc_qmul 1120
__divtc3 __gcc_qsub 1140
__divtc3 __gcc_qmul 1452
__divtc3 __gcc_qmul 1480
__divtc3 __gcc_qadd 1500
__divtc3 __gcc_qmul 1512
__divtc3 __gcc_qmul 1540
__fixsfdi __fixunssfdi 52
__fixsfdi __fixunssfdi 84
__fixdfdi __fixunsdfdi 52
__fixdfdi __fixunsdfdi 84
__fixtfdi __fixunstfdi 76
__fixtfdi __fixunstfdi 108
__fixunstfdi __gcc_qmul 96
__fixunstfdi __floatunditf 180
__fixunstfdi __gcc_qsub 204
__fixunstfdi _restfpr_30_x 328
__fixunstfdi __gcc_qsub 332
__fixunstfdi __gcc_qsub 376
__fixunstfdi __gcc_qsub 492
__floatditf _savefpr_28 20
__floatditf __gcc_qmul 104
__floatditf __gcc_qadd 160
__floatditf __gcc_qadd 172
__floatditf _restfpr_28_x 184
__floatunditf __gcc_qadd 104
__floatunditf __gcc_qmul 116
__floatunditf __gcc_qadd 180
__floatunditf __gcc_qadd 192
__floatunditf _restfpr_30_x 204
__eprintf fprintf 60
__eprintf fflush 68
__eprintf abort 72
__gcc_qsub __gcc_qadd 8
__trampoline_setup abort 112
__eabi __init 68
stack_split_initialize_thread __stack_split_initialize 36
stack_split_initialize_thread __morestack_segments 62
stack_split_initialize_thread __morestack_segments 64
stack_split_initialize_thread __tls_get_addr 64
stack_split_initialize_thread pthread_setspecific 80
stack_split_initialize_thread __morestack_fail 100
stack_split_initialize_thread free 116
stack_split_initialize_thread _restgpr_28_x 136
create_key pthread_key_create 40
create_key __morestack_fail 64
free_segments __morestack_release_segments 4
__wrap_pthread_create pthread_once 60
__wrap_pthread_create __morestack_fail 84
__wrap_pthread_create malloc 92
__wrap_pthread_create __real_pthread_create 132
__wrap_pthread_create _restgpr_27_x 140
__addkf3 __ashldi3 564
__addkf3 __lshrdi3 588
__addkf3 __ashldi3 612
__addkf3 __lshrdi3 644
__addkf3 __lshrdi3 720
__addkf3 __ashldi3 760
__addkf3 __ashldi3 1024
__addkf3 __lshrdi3 1048
__addkf3 __ashldi3 1072
__addkf3 __lshrdi3 1108
__addkf3 __lshrdi3 1180
__addkf3 __ashldi3 1220
__addkf3 __ashldi3 2304
__addkf3 __lshrdi3 2328
__addkf3 __ashldi3 2352
__addkf3 __lshrdi3 2384
__addkf3 __lshrdi3 2468
__addkf3 __ashldi3 2508
__addkf3 __ashldi3 2764
__addkf3 __lshrdi3 2788
__addkf3 __ashldi3 2812
__addkf3 __lshrdi3 2848
__addkf3 __lshrdi3 2928
__addkf3 __ashldi3 2968
__addkf3 __ashldi3 3704
__addkf3 __lshrdi3 3728
__addkf3 __ashldi3 3752
__addkf3 __ashldi3 3828
__addkf3 __lshrdi3 3852
__addkf3 __ashldi3 3876
__addkf3 __lshrdi3 3908
__addkf3 __ashldi3 3992
__addkf3 __lshrdi3 4024
__addkf3 __ashldi3 4064
__addkf3 __sfp_handle_exceptions 4520
__addkf3 _restgpr_14_x 4540
__subkf3 __ashldi3 616
__subkf3 __lshrdi3 640
__subkf3 __ashldi3 664
__subkf3 __lshrdi3 696
__subkf3 __lshrdi3 772
__subkf3 __ashldi3 812
__subkf3 __ashldi3 1076
__subkf3 __lshrdi3 1100
__subkf3 __ashldi3 1124
__subkf3 __lshrdi3 1160
__subkf3 __lshrdi3 1232
__subkf3 __ashldi3 1272
__subkf3 __ashldi3 2364
__subkf3 __lshrdi3 2388
__subkf3 __ashldi3 2412
__subkf3 __lshrdi3 2444
__subkf3 __lshrdi3 2528
__subkf3 __ashldi3 2568
__subkf3 __ashldi3 2824
__subkf3 __lshrdi3 2848
__subkf3 __ashldi3 2872
__subkf3 __lshrdi3 2908
__subkf3 __lshrdi3 2988
__subkf3 __ashldi3 3028
__subkf3 __ashldi3 3760
__subkf3 __lshrdi3 3784
__subkf3 __ashldi3 3808
__subkf3 __ashldi3 3888
__subkf3 __lshrdi3 3912
__subkf3 __ashldi3 3936
__subkf3 __lshrdi3 3968
__subkf3 __ashldi3 4052
__subkf3 __lshrdi3 4084
__subkf3 __ashldi3 4124
__subkf3 __sfp_handle_exceptions 4560
__subkf3 _restgpr_14_x 4580
__mulkf3 __ashldi3 336
__mulkf3 __lshrdi3 360
__mulkf3 __ashldi3 384
__mulkf3 __ashldi3 456
__mulkf3 __ucmpdi2 712
__mulkf3 __ashldi3 900
__mulkf3 __lshrdi3 928
__mulkf3 __ashldi3 956
__mulkf3 __ashldi3 1028
__mulkf3 __sfp_handle_exceptions 2360
__mulkf3 _restgpr_14_x 2388
__mulkf3 __ashldi3 2556
__mulkf3 __lshrdi3 2580
__mulkf3 __ashldi3 2604
__mulkf3 __lshrdi3 2636
__mulkf3 __lshrdi3 2748
__mulkf3 __ashldi3 2792
__divkf3 __ashldi3 332
__divkf3 __lshrdi3 356
__divkf3 __ashldi3 380
__divkf3 __ashldi3 452
__divkf3 __ucmpdi2 700
__divkf3 __ashldi3 884
__divkf3 __lshrdi3 912
__divkf3 __ashldi3 940
__divkf3 __ashldi3 1012
__divkf3 __udivdi3 1264
__divkf3 __umoddi3 1312
__divkf3 __udivdi3 1448
__divkf3 __umoddi3 1496
__divkf3 __udivdi3 2108
__divkf3 __umoddi3 2148
__divkf3 __udivdi3 2280
__divkf3 __umoddi3 2328
__divkf3 __sfp_handle_exceptions 3312
__divkf3 _restgpr_14_x 3340
__divkf3 __ashldi3 3508
__divkf3 __lshrdi3 3532
__divkf3 __ashldi3 3556
__divkf3 __lshrdi3 3588
__divkf3 __lshrdi3 3700
__divkf3 __ashldi3 3744
__unordkf2 _restgpr_24_x 204
__unordkf2 __sfp_handle_exceptions 284
__eqkf2,__nekf2 _restgpr_23_x 320
__eqkf2,__nekf2 __sfp_handle_exceptions 328
__gekf2,__gtkf2 __sfp_handle_exceptions 188
__gekf2,__gtkf2 _restgpr_26_x 316
__lekf2,__ltkf2 __sfp_handle_exceptions 188
__lekf2,__ltkf2 _restgpr_26_x 316
__extendsfkf2 __ashldi3 132
__extendsfkf2 __sfp_handle_exceptions 236
__extendsfkf2 _restgpr_29_x 256
__extenddfkf2 __lshrdi3 184
__extenddfkf2 __ashldi3 208
__extenddfkf2 __ashldi3 240
__extenddfkf2 __sfp_handle_exceptions 356
__extenddfkf2 _restgpr_25_x 376
__trunckfsf2 __ashldi3 312
__trunckfsf2 __lshrdi3 348
__trunckfsf2 __sfp_handle_exceptions 564
__trunckfsf2 _restgpr_20_x 580
__trunckfdf2 __lshrdi3 352
__trunckfdf2 __ashldi3 376
__trunckfdf2 __ashldi3 408
__trunckfdf2 __sfp_handle_exceptions 632
__trunckfdf2 _restfpr_31_x 656
__trunckfdf2 __lshrdi3 672
__trunckfdf2 __ashldi3 716
__fixkfsi __sfp_handle_exceptions 144
__fixkfsi _restgpr_26_x 164
__fixkfsi __ashldi3 264
__fixkfsi __lshrdi3 288
__fixkfdi _restgpr_22_x 156
__fixkfdi __sfp_handle_exceptions 260
__fixkfdi __ashldi3 316
__fixkfdi __lshrdi3 344
__fixkfdi __ashldi3 368
__fixkfdi __ashldi3 432
__fixkfdi __lshrdi3 468
__fixunskfsi _restgpr_25_x 140
__fixunskfsi __lshrdi3 196
__fixunskfsi __ashldi3 216
__fixunskfsi __sfp_handle_exceptions 252
__fixunskfdi _restgpr_22_x 140
__fixunskfdi __lshrdi3 240
__fixunskfdi __ashldi3 264
__fixunskfdi __ashldi3 288
__fixunskfdi __sfp_handle_exceptions 320
__fixunskfdi __ashldi3 360
__fixunskfdi __lshrdi3 388
__floatsikf __ashldi3 68
__floatsikf _restgpr_29_x 120
__floatdikf __lshrdi3 140
__floatdikf __ashldi3 164
__floatdikf _restgpr_24_x 208
__floatdikf __ashldi3 224
__floatunsikf __ashldi3 56
__floatunsikf _restgpr_30_x 100
__floatundikf __lshrdi3 116
__floatundikf __ashldi3 140
__floatundikf _restgpr_25_x 184
__floatundikf __ashldi3 204
__extendkftf2 __trunckfdf2 48
__extendkftf2 __extenddfkf2 88
__extendkftf2 __subkf3 100
__extendkftf2 __trunckfdf2 104
__extendkftf2 _restfpr_31_x 156
__trunctfkf2 __extenddfkf2 88
__trunctfkf2 __extenddfkf2 148
__trunctfkf2 __addkf3 160
__trunctfkf2 _restfpr_31_x 188
__mulkc3 _savevr_20 20
__mulkc3 __mulkf3 60
__mulkc3 __mulkf3 76
__mulkc3 __mulkf3 92
__mulkc3 __mulkf3 108
__mulkc3 __subkf3 124
__mulkc3 __addkf3 140
__mulkc3 __unordkf2 156
__mulkc3 __unordkf2 176
__mulkc3 __unordkf2 240
__mulkc3 __lekf2 268
__mulkc3 __unordkf2 296
__mulkc3 __lekf2 320
__mulkc3 __unordkf2 348
__mulkc3 __lekf2 376
__mulkc3 __floatsikf 396
__mulkc3 __unordkf2 420
__mulkc3 __lekf2 444
__mulkc3 __floatsikf 464
__mulkc3 __unordkf2 484
__mulkc3 __unordkf2 516
__mulkc3 __unordkf2 592
__mulkc3 __lekf2 620
__mulkc3 __unordkf2 648
__mulkc3 __lekf2 672
__mulkc3 __unordkf2 696
__mulkc3 __lekf2 720
__mulkc3 __floatsikf 740
__mulkc3 __unordkf2 764
__mulkc3 __lekf2 788
__mulkc3 __floatsikf 808
__mulkc3 __unordkf2 828
__mulkc3 __unordkf2 860
__mulkc3 __mulkf3 892
__mulkc3 __mulkf3 908
__mulkc3 __subkf3 920
__mulkc3 __mulkf3 932
__mulkc3 __mulkf3 948
__mulkc3 __mulkf3 964
__mulkc3 __addkf3 976
__mulkc3 __mulkf3 984
__mulkc3 _restvr_20 1004
__mulkc3 _restgpr_29_x 1012
__mulkc3 __unordkf2 1064
__mulkc3 __lekf2 1084
__mulkc3 __unordkf2 1128
__mulkc3 __lekf2 1148
__mulkc3 __unordkf2 1192
__mulkc3 __lekf2 1212
__mulkc3 __unordkf2 1256
__mulkc3 __lekf2 1276
__mulkc3 __unordkf2 1296
__mulkc3 __unordkf2 1328
__mulkc3 __unordkf2 1360
__mulkc3 __unordkf2 1392
__divkc3 _savevr_21 24
__divkc3 __lekf2 100
__divkc3 __divkf3 120
__divkc3 __mulkf3 136
__divkc3 __addkf3 144
__divkc3 __mulkf3 160
__divkc3 __addkf3 168
__divkc3 __divkf3 176
__divkc3 __mulkf3 192
__divkc3 __subkf3 200
__divkc3 __divkf3 208
__divkc3 __unordkf2 224
__divkc3 __unordkf2 244
__divkc3 __eqkf2 264
__divkc3 __eqkf2 284
__divkc3 __unordkf2 304
__divkc3 __unordkf2 324
__divkc3 __mulkf3 360
__divkc3 __mulkf3 376
__divkc3 _restvr_21 396
__divkc3 _restgpr_30_x 404
__divkc3 __divkf3 416
__divkc3 __mulkf3 432
__divkc3 __addkf3 440
__divkc3 __mulkf3 456
__divkc3 __addkf3 464
__divkc3 __divkf3 472
__divkc3 __mulkf3 488
__divkc3 __unordkf2 540
__divkc3 __lekf2 560
__divkc3 __unordkf2 604
__divkc3 __lekf2 624
__divkc3 __unordkf2 648
__divkc3 __gekf2 668
__divkc3 __unordkf2 692
__divkc3 __gekf2 712
__divkc3 __unordkf2 736
__divkc3 __lekf2 760
__divkc3 __floatsikf 784
__divkc3 __unordkf2 824
__divkc3 __lekf2 848
__divkc3 __floatsikf 868
__divkc3 __mulkf3 888
__divkc3 __mulkf3 904
__divkc3 __addkf3 916
__divkc3 __mulkf3 928
__divkc3 __mulkf3 944
__divkc3 __mulkf3 960
__divkc3 __subkf3 972
__divkc3 __unordkf2 996
__divkc3 __lekf2 1016
__divkc3 __unordkf2 1040
__divkc3 __lekf2 1060
__divkc3 __unordkf2 1084
__divkc3 __gekf2 1104
__divkc3 __unordkf2 1148
__divkc3 __gekf2 1168
__divkc3 __unordkf2 1192
__divkc3 __lekf2 1216
__divkc3 __floatsikf 1236
__divkc3 __unordkf2 1260
__divkc3 __lekf2 1284
__divkc3 __floatsikf 1304
__divkc3 __mulkf3 1324
__divkc3 __mulkf3 1340
__divkc3 __addkf3 1352
__divkc3 __mulkf3 1360
__divkc3 __mulkf3 1376
__divkc3 __mulkf3 1392
__divkc3 __subkf3 1404
__powikf2 _savevr_30 28
__powikf2 __divkf3 108
__powikf2 _restvr_30 124
__powikf2 _restgpr_29_x 132
__powikf2 __mulkf3 144
__powikf2 __mulkf3 168
read_uleb128 __ashldi3 100
read_uleb128 _restgpr_25_x 136
read_sleb128 __ashldi3 100
read_sleb128 __ashldi3 152
read_sleb128 _restgpr_25_x 176
_Unwind_SetGRValue abort 40
read_encoded_value abort 88
read_encoded_value _restgpr_26_x 144
read_encoded_value _Unwind_GetTextRelBase 148
read_encoded_value _Unwind_GetDataRelBase 160
read_encoded_value _Unwind_GetRegionStart 168
execute_cfa_program _restgpr_14_x 140
execute_cfa_program memcpy 624
execute_cfa_program memcpy 672
execute_cfa_program abort 1264
uw_frame_state_for memset 52
uw_frame_state_for _restgpr_23_x 88
uw_frame_state_for _Unwind_Find_FDE 112
uw_frame_state_for strlen 516
uw_frame_state_for abort 976
_Unwind_SetSpColumn abort 76
_Unwind_GetGR abort 40
uw_install_context_1 abort 116
uw_install_context_1 _Unwind_GetGR 204
uw_install_context_1 _restgpr_25_x 232
uw_install_context_1 memcpy 264
execute_stack_op _restgpr_20_x 104
execute_stack_op _Unwind_GetGR 228
execute_stack_op abort 252
execute_stack_op _Unwind_GetGR 536
uw_update_context_1 memcpy 56
uw_update_context_1 abort 132
uw_update_context_1 _Unwind_GetGR 144
uw_update_context_1 _restgpr_24_x 400
uw_update_context_1 _Unwind_GetGR 428
uw_init_context_1 memset 60
uw_init_context_1 abort 100
uw_init_context_1 pthread_once 148
uw_init_context_1 _restgpr_26_x 216
uw_update_context _restgpr_29_x 64
uw_update_context _Unwind_GetGR 72
_Unwind_RaiseException_Phase2 abort 128
_Unwind_RaiseException_Phase2 _restgpr_25_x 188
_Unwind_ForcedUnwind_Phase2 _restgpr_23_x 228
_Unwind_SetGR abort 40
_Unwind_FindEnclosingFunction _Unwind_Find_FDE 40
__frame_state_for memset 60
__frame_state_for _restgpr_29_x 220
_Unwind_RaiseException memcpy 160
_Unwind_RaiseException memcpy 324
_Unwind_ForcedUnwind memcpy 164
_Unwind_Resume memcpy 156
_Unwind_Resume abort 196
_Unwind_Resume_or_Rethrow _Unwind_RaiseException 128
_Unwind_Resume_or_Rethrow memcpy 296
_Unwind_Resume_or_Rethrow abort 324
_Unwind_Backtrace _savefpr_14 20
_Unwind_Backtrace _restfpr_14_x 168
frame_downheap _restgpr_24_x 56
frame_heapsort _restgpr_25_x 80
size_of_encoded_value abort 68
base_from_object abort 64
base_from_cb_data abort 64
read_encoded_value_with_base _restgpr_27_x 72
read_encoded_value_with_base abort 240
fde_single_encoding_compare _restgpr_26_x 128
get_cie_encoding strlen 44
get_cie_encoding _restgpr_28_x 120
linear_search_fdes _restgpr_21_x 220
_Unwind_IteratePhdrCallback _restgpr_25_x 220
_Unwind_IteratePhdrCallback abort 984
fde_mixed_encoding_compare _restgpr_27_x 148
classify_object_over_fdes _restgpr_21_x 124
add_fdes _restgpr_22_x 80
search_object malloc 308
search_object malloc 336
search_object abort 416
search_object _restgpr_18_x 476
search_object free 828
__register_frame_info_bases pthread_mutex_lock 104
__register_frame_info_bases pthread_mutex_unlock 152
__register_frame_info_bases _restgpr_28_x 160
__register_frame_info __register_frame_info_bases 8
__register_frame malloc 52
__register_frame __register_frame_info 84
__register_frame_info_table_bases pthread_mutex_lock 84
__register_frame_info_table_bases pthread_mutex_unlock 132
__register_frame_info_table_bases _restgpr_28_x 140
__register_frame_info_table __register_frame_info_table_bases 8
__register_frame_table malloc 40
__register_frame_table __register_frame_info_table 72
__deregister_frame_info_bases pthread_mutex_lock 72
__deregister_frame_info_bases pthread_mutex_unlock 120
__deregister_frame_info_bases abort 132
__deregister_frame_info_bases free 208
__deregister_frame_info_bases _restgpr_27_x 264
__deregister_frame_info __deregister_frame_info_bases 0
__deregister_frame __deregister_frame_info_bases 44
__deregister_frame free 48
_Unwind_Find_FDE pthread_mutex_lock 72
_Unwind_Find_FDE dl_iterate_phdr 192
_Unwind_Find_FDE pthread_mutex_unlock 320
_Unwind_Find_FDE _restgpr_25_x 416
__gcc_personality_v0 _restgpr_23_x 64
__gcc_personality_v0 _Unwind_GetLanguageSpecificData 80
__gcc_personality_v0 _Unwind_GetRegionStart 108
__gcc_personality_v0 _Unwind_GetIPInfo 236
__gcc_personality_v0 _Unwind_SetGR 452
__gcc_personality_v0 _Unwind_SetGR 468
__gcc_personality_v0 _Unwind_SetIP 480
emutls_init pthread_key_create 40
emutls_init abort 52
emutls_destroy free 60
emutls_destroy _restgpr_27_x 68
emutls_destroy free 92
emutls_alloc malloc 56
emutls_alloc abort 68
emutls_alloc memcpy 100
emutls_alloc _restgpr_28_x 108
emutls_alloc malloc 120
emutls_alloc memset 164
__emutls_get_address _restgpr_25_x 76
__emutls_get_address pthread_once 120
__emutls_get_address pthread_mutex_lock 128
__emutls_get_address pthread_mutex_unlock 168
__emutls_get_address pthread_getspecific 176
__emutls_get_address calloc 196
__emutls_get_address abort 212
__emutls_get_address pthread_setspecific 228
__emutls_get_address realloc 304
__emutls_get_address memset 344
__gcov_merge_add _restgpr_29_x 36
__gcov_merge_add __gcov_read_counter 40
__gcov_merge_topn _restgpr_25_x 68
__gcov_merge_topn abort 72
__gcov_merge_topn __gcov_read_counter 76
__gcov_merge_topn __gcov_read_counter 148
__gcov_merge_topn __gcov_read_counter 164
__gcov_merge_ior _restgpr_29_x 36
__gcov_merge_ior __gcov_read_counter 40
__gcov_merge_time_profile _restgpr_28_x 40
__gcov_merge_time_profile __gcov_read_counter 44
__gcov_indirect_call_profiler_v4 __gcov_indirect_call 70
__gcov_indirect_call_profiler_v4 __gcov_indirect_call 72
__gcov_indirect_call_profiler_v4 __tls_get_addr 72
__gcov_indirect_call_profiler_v4 __gcov_indirect_call 90
__gcov_indirect_call_profiler_v4 __gcov_indirect_call 92
__gcov_indirect_call_profiler_v4 __tls_get_addr 92
__gcov_indirect_call_profiler_v4 __gcov_indirect_call 202
__gcov_indirect_call_profiler_v4 __gcov_indirect_call 204
__gcov_indirect_call_profiler_v4 __tls_get_addr 204
__gcov_indirect_call_profiler_v4 _restgpr_27_x 220
__gcov_dump_int _restgpr_30_x 68
__gcov_dump_int __gcov_dump_one 84
__gcov_dump __gcov_dump_int 0
__gcov_flush pthread_mutex_lock 48
__gcov_flush __gcov_dump_int 52
__gcov_flush __gcov_reset_int 56
__gcov_flush pthread_mutex_unlock 72
__gcov_flush _restgpr_30_x 80
__gcov_fork __gcov_flush 32
__gcov_fork fork 36
__gcov_fork pthread_mutex_init 68
__gcov_fork _restgpr_30_x 80
__gcov_execl __gcov_flush 104
__gcov_execl execv 272
__gcov_execl _restgpr_28_x 280
__gcov_execlp __gcov_flush 104
__gcov_execlp execvp 272
__gcov_execlp _restgpr_28_x 280
__gcov_execle __gcov_flush 104
__gcov_execle execve 304
__gcov_execle _restgpr_28_x 312
__gcov_execv __gcov_flush 40
__gcov_execv execv 52
__gcov_execv _restgpr_29_x 60
__gcov_execvp __gcov_flush 40
__gcov_execvp execvp 52
__gcov_execvp _restgpr_29_x 60
__gcov_execve __gcov_flush 44
__gcov_execve execve 60
__gcov_execve _restgpr_28_x 68
__gcov_reset_int _restgpr_25_x 68
__gcov_reset_int memset 188
__gcov_reset __gcov_reset_int 0
gcov_write_block fwrite 56
gcov_write_block _restgpr_29_x 104
gcov_write_words _restgpr_29_x 108
gcov_read_words fread 140
gcov_read_words _restgpr_28_x 224
free_fn_data free 76
free_fn_data _restgpr_26_x 88
free_fn_data free 124
gcov_version_string strcpy 104
gcov_version_string _restgpr_30_x 116
gcov_version_string sprintf 156
gcov_error getenv 152
gcov_error fopen64 168
gcov_error vfprintf 216
gcov_error getenv 228
gcov_error fputs 248
gcov_error exit 256
gcov_error _restgpr_28_x 268
gcov_version.part.0 _restgpr_27_x 136
__gcov_rewrite fseek 68
__gcov_open getpid 68
__gcov_open open64 132
__gcov_open fcntl64 164
__gcov_open __errno_location 176
__gcov_open fdopen 200
__gcov_open close 220
__gcov_open setbuf 244
__gcov_open _restgpr_28_x 256
__gcov_close fclose 80
__gcov_close _restgpr_30_x 112
__gcov_write_unsigned _restgpr_31_x 36
__gcov_write_counter _restgpr_29_x 44
__gcov_write_tag_length _restgpr_29_x 44
__gcov_write_summary __gcov_write_tag_length 24
__gcov_write_summary __gcov_write_unsigned 32
__gcov_write_summary __gcov_write_unsigned 56
mangle_path strlen 44
mangle_path malloc 56
mangle_path _restgpr_25_x 104
mangle_path memcpy 212
__gcov_read_summary __gcov_read_unsigned 20
__gcov_read_summary __gcov_read_unsigned 28
__gcov_read_summary _restgpr_31_x 48
__gcov_seek fseek 68
__gcov_seek ftell 76
__gcov_seek _restgpr_29_x 92
__gcov_dump_one getenv 224
__gcov_dump_one atoi 236
__gcov_dump_one getenv 256
__gcov_dump_one strlen 268
__gcov_dump_one malloc 328
__gcov_dump_one memcpy 344
__gcov_dump_one memset 388
__gcov_dump_one abort 556
__gcov_dump_one strlen 740
__gcov_dump_one strlen 752
__gcov_dump_one malloc 764
__gcov_dump_one strcat 792
__gcov_dump_one strcat 824
__gcov_dump_one strlen 880
__gcov_dump_one __gcov_open 908
__gcov_dump_one getpid 952
__gcov_dump_one sprintf 980
__gcov_dump_one strlen 1008
__gcov_dump_one malloc 1032
__gcov_dump_one memcpy 1048
__gcov_dump_one memcpy 1068
__gcov_dump_one memcpy 1088
__gcov_dump_one free 1108
__gcov_dump_one strchr 1152
__gcov_dump_one getenv 1172
__gcov_dump_one access 1216
__gcov_dump_one mkdir 1236
__gcov_dump_one __errno_location 1248
__gcov_dump_one fprintf 1304
__gcov_dump_one free 1312
__gcov_dump_one free 1332
__gcov_dump_one _restgpr_14_x 1364
__gcov_dump_one __gcov_open 1392
__gcov_dump_one __gcov_read_unsigned 1416
__gcov_dump_one __gcov_close 1468
__gcov_dump_one __gcov_read_unsigned 1504
__gcov_dump_one __gcov_read_unsigned 1524
__gcov_dump_one __gcov_read_unsigned 1540
__gcov_dump_one __gcov_read_unsigned 1556
__gcov_dump_one __gcov_read_summary 1576
__gcov_dump_one __gcov_read_unsigned 1584
__gcov_dump_one __gcov_rewrite 1668
__gcov_dump_one __gcov_write_tag_length 1736
__gcov_dump_one __gcov_write_unsigned 1752
__gcov_dump_one __gcov_write_summary 1764
__gcov_dump_one __gcov_write_unsigned 1784
__gcov_dump_one __gcov_read_unsigned 1816
__gcov_dump_one malloc 1888
__gcov_dump_one __gcov_read_unsigned 1920
__gcov_dump_one __gcov_read_unsigned 1928
__gcov_dump_one __gcov_read_unsigned 1936
__gcov_dump_one __gcov_read_unsigned 1964
__gcov_dump_one __gcov_read_unsigned 1984
__gcov_dump_one malloc 2000
__gcov_dump_one __gcov_read_unsigned 2072
__gcov_dump_one __gcov_read_unsigned 2092
__gcov_dump_one __gcov_read_unsigned 2108
__gcov_dump_one __gcov_read_unsigned 2124
__gcov_dump_one __gcov_read_unsigned 2168
__gcov_dump_one __gcov_read_unsigned 2176
__gcov_dump_one __gcov_read_counter 2320
__gcov_dump_one __gcov_write_tag_length 2524
__gcov_dump_one __gcov_write_unsigned 2548
__gcov_dump_one __gcov_write_unsigned 2556
__gcov_dump_one __gcov_write_unsigned 2568
__gcov_dump_one __gcov_write_tag_length 2596
__gcov_dump_one __gcov_write_counter 2736
__gcov_exit __gcov_dump_one 40
__gcov_exit fclose 112
__gcov_exit _restgpr_30_x 128
__gcov_init _restgpr_28_x 156
_ZL29plugin_pragma_user_expressionP10cpp_reader c_binding_oracle 3
_ZL20build_anonymous_node9tree_code _Z9make_node9tree_code 2
_ZL20build_anonymous_node9tree_code input_location 8
_ZL20build_anonymous_node9tree_code _Z10build_declj9tree_codeP9tree_nodeS1_ 26
_ZL27plugin_print_error_functionP18diagnostic_contextPKcP15diagnostic_info current_function_decl 3
_ZL27plugin_print_error_functionP18diagnostic_contextPKcP15diagnostic_info _Z24lhd_print_error_functionP18diagnostic_contextPKcP15diagnostic_info 52
_ZL26rewrite_decls_to_addressesPvS_ _Z11walk_tree_1PP9tree_nodePFS0_S1_PiPvES3_P8hash_setIS0_Lb0E19default_hash_traitsIS0_EEPFS0_S1_S2_S5_S3_SA_E 30
_ZL25plugin_init_extra_pragmasPvS_ _Z17c_register_pragmaPKcS0_PFvP10cpp_readerE 20
_ZL25plugin_init_extra_pragmasPvS_ _Z17c_register_pragmaPKcS0_PFvP10cpp_readerE 40
_ZL25plugin_init_extra_pragmasPvS_ _Z17c_register_pragmaPKcS0_PFvP10cpp_readerE 64
_ZL24safe_lookup_builtin_typePKc _Z14get_identifierPKc 10
_ZL24safe_lookup_builtin_typePKc _Z23identifier_global_valueP9tree_node 18
_ZL24safe_lookup_builtin_typePKc _Z11fancy_abortPKciS0_ 75
_ZL21plugin_binding_oracle16c_oracle_requestP9tree_node _Z11fancy_abortPKciS0_ 62
_ZL21plugin_binding_oracle16c_oracle_requestP9tree_node _ZN10cc1_plugin10connection4sendEc 90
_ZL21plugin_binding_oracle16c_oracle_requestP9tree_node _ZN10cc1_plugin8marshallEPNS_10connectionEPKc 121
_ZL21plugin_binding_oracle16c_oracle_requestP9tree_node _ZN10cc1_plugin16marshall_intlikeEPNS_10connectionEy 138
_ZL21plugin_binding_oracle16c_oracle_requestP9tree_node _ZN10cc1_plugin16marshall_intlikeEPNS_10connectionEy 152
_ZL21plugin_binding_oracle16c_oracle_requestP9tree_node _ZN10cc1_plugin8marshallEPNS_10connectionEPKc 167
_ZL21plugin_binding_oracle16c_oracle_requestP9tree_node _ZN10cc1_plugin10connection7do_waitEb 184
_ZL21plugin_binding_oracle16c_oracle_requestP9tree_node _ZN10cc1_plugin18unmarshall_intlikeEPNS_10connectionEPy 201
_ZL21plugin_binding_oracle16c_oracle_requestP9tree_node _Z11fancy_abortPKciS0_ 250
_ZN10cc1_plugin10unmarshallEPNS_10connectionEP17gcc_c_symbol_kind _ZN10cc1_plugin18unmarshall_intlikeEPNS_10connectionEPy 14
_ZN10cc1_plugin10unmarshallEPNS_10connectionEP20gcc_c_oracle_request _ZN10cc1_plugin18unmarshall_intlikeEPNS_10connectionEPy 14
_ZN10cc1_plugin10unmarshallEPNS_10connectionEP14gcc_qualifiers _ZN10cc1_plugin18unmarshall_intlikeEPNS_10connectionEPy 14
_ZN14plugin_context4markEv _Z12ggc_set_markPKv 273
_ZN14plugin_context4markEv _Z12ggc_set_markPKv 295
_ZN14plugin_context4markEv _Z12ggc_set_markPKv 340
_ZL7gc_markPvS_ _ZN14plugin_context4markEv 13
_Z11plugin_bindPN10cc1_plugin10connectionEyi _Z6c_bindjP9tree_nodeb 22
_Z11plugin_bindPN10cc1_plugin10connectionEyi _Z24rest_of_decl_compilationP9tree_nodeii 34
_Z25plugin_build_pointer_typePN10cc1_plugin10connectionEy _Z18build_pointer_typeP9tree_node 4
_Z22plugin_build_add_fieldPN10cc1_plugin10connectionEyPKcymm _Z14get_identifierPKc 40
_Z22plugin_build_add_fieldPN10cc1_plugin10connectionEyPKcymm _Z10build_declj9tree_codeP9tree_nodeS1_ 61
_Z22plugin_build_add_fieldPN10cc1_plugin10connectionEyPKcymm global_trees 107
_Z22plugin_build_add_fieldPN10cc1_plugin10connectionEyPKcymm _Z13size_int_kind8poly_intILj1ElE14size_type_kind 159
_Z22plugin_build_add_fieldPN10cc1_plugin10connectionEyPKcymm _Z12pos_from_bitPP9tree_nodeS1_jS0_ 193
_Z22plugin_build_add_fieldPN10cc1_plugin10connectionEyPKcymm _Z13size_int_kind8poly_intILj1ElE14size_type_kind 206
_Z22plugin_build_add_fieldPN10cc1_plugin10connectionEyPKcymm _Z13size_int_kind8poly_intILj1ElE14size_type_kind 225
_Z22plugin_build_add_fieldPN10cc1_plugin10connectionEyPKcymm _Z29c_build_bitfield_integer_typemi 307
_Z22plugin_build_add_fieldPN10cc1_plugin10connectionEyPKcymm _Z16vector_type_modePK9tree_node 324
_Z22plugin_build_add_fieldPN10cc1_plugin10connectionEyPKcymm _Z11fancy_abortPKciS0_ 349
_Z29plugin_finish_record_or_unionPN10cc1_plugin10connectionEym _Z8nreverseP9tree_node 34
_Z29plugin_finish_record_or_unionPN10cc1_plugin10connectionEym global_trees 61
_Z29plugin_finish_record_or_unionPN10cc1_plugin10connectionEym _Z13size_int_kind8poly_intILj1ElE14size_type_kind 126
_Z29plugin_finish_record_or_unionPN10cc1_plugin10connectionEym _Z13size_int_kind8poly_intILj1ElE14size_type_kind 141
_Z29plugin_finish_record_or_unionPN10cc1_plugin10connectionEym _Z19compute_record_modeP9tree_node 154
_Z29plugin_finish_record_or_unionPN10cc1_plugin10connectionEym _Z22finish_bitfield_layoutP9tree_node 162
_Z29plugin_finish_record_or_unionPN10cc1_plugin10connectionEym _Z19compute_record_modeP9tree_node 365
_Z29plugin_finish_record_or_unionPN10cc1_plugin10connectionEym _Z11layout_typeP9tree_node 404
_Z29plugin_finish_record_or_unionPN10cc1_plugin10connectionEym _Z11fancy_abortPKciS0_ 429
_Z30plugin_build_add_enum_constantPN10cc1_plugin10connectionEyPKcm _Z13build_int_cstP9tree_node8poly_intILj1ElE 33
_Z30plugin_build_add_enum_constantPN10cc1_plugin10connectionEyPKcm _Z14get_identifierPKc 44
_Z30plugin_build_add_enum_constantPN10cc1_plugin10connectionEyPKcm _Z10build_declj9tree_codeP9tree_nodeS1_ 65
_Z30plugin_build_add_enum_constantPN10cc1_plugin10connectionEyPKcm c_binding_oracle 82
_Z30plugin_build_add_enum_constantPN10cc1_plugin10connectionEyPKcm c_binding_oracle 89
_Z30plugin_build_add_enum_constantPN10cc1_plugin10connectionEyPKcm _Z8pushdeclP9tree_node 98
_Z30plugin_build_add_enum_constantPN10cc1_plugin10connectionEyPKcm c_binding_oracle 119
_Z30plugin_build_add_enum_constantPN10cc1_plugin10connectionEyPKcm _Z9tree_consP9tree_nodeS0_S0_ 124
_Z30plugin_build_add_enum_constantPN10cc1_plugin10connectionEyPKcm _Z11fancy_abortPKciS0_ 167
_Z23plugin_finish_enum_typePN10cc1_plugin10connectionEy _Z22finish_enum_value_listP9tree_node 8
_Z23plugin_finish_enum_typePN10cc1_plugin10connectionEy _Z11finish_enumP9tree_node 16
_Z16plugin_char_typePN10cc1_plugin10connectionE integer_types 3
_Z20plugin_float_type_v0PN10cc1_plugin10connectionEm global_trees 3
_Z20plugin_float_type_v0PN10cc1_plugin10connectionEm global_trees 29
_Z20plugin_float_type_v0PN10cc1_plugin10connectionEm global_trees 51
_Z20plugin_float_type_v0PN10cc1_plugin10connectionEm global_trees 72
_Z17plugin_float_typePN10cc1_plugin10connectionEmPKc global_trees 67
_Z17plugin_float_typePN10cc1_plugin10connectionEmPKc global_trees 93
_Z17plugin_float_typePN10cc1_plugin10connectionEmPKc global_trees 115
_Z17plugin_float_typePN10cc1_plugin10connectionEmPKc global_trees 136
_Z17plugin_float_typePN10cc1_plugin10connectionEmPKc global_trees 147
_Z17plugin_float_typePN10cc1_plugin10connectionEmPKc _Z11fancy_abortPKciS0_ 170
_Z17plugin_float_typePN10cc1_plugin10connectionEmPKc _Z11fancy_abortPKciS0_ 190
_Z16plugin_void_typePN10cc1_plugin10connectionE global_trees 3
_Z16plugin_bool_typePN10cc1_plugin10connectionE global_trees 3
_Z27plugin_build_qualified_typePN10cc1_plugin10connectionEy14gcc_qualifiers _Z20build_qualified_typeP9tree_nodei 9
_Z12plugin_errorPN10cc1_plugin10connectionEPKc _Z5errorPKcz 12
_Z12plugin_errorPN10cc1_plugin10connectionEPKc global_trees 19
_ZN14plugin_contextC1Ei,_ZN14plugin_contextC2Ei _ZTVN10cc1_plugin10connectionE 10
_ZN14plugin_contextC1Ei,_ZN14plugin_contextC2Ei _ZN10cc1_plugin9callbacksC1Ev 29
_ZN14plugin_contextC1Ei,_ZN14plugin_contextC2Ei _ZTV14plugin_context 36
_ZN14plugin_contextC1Ei,_ZN14plugin_contextC2Ei _Z29hash_table_higher_prime_indexm 84
_ZN14plugin_contextC1Ei,_ZN14plugin_contextC2Ei prime_tab 105
_ZN14plugin_contextC1Ei,_ZN14plugin_contextC2Ei xcalloc 113
_ZN14plugin_contextC1Ei,_ZN14plugin_contextC2Ei _Z29hash_table_higher_prime_indexm 172
_ZN14plugin_contextC1Ei,_ZN14plugin_contextC2Ei prime_tab 193
_ZN14plugin_contextC1Ei,_ZN14plugin_contextC2Ei xcalloc 201
_ZN14plugin_contextC1Ei,_ZN14plugin_contextC2Ei _Z29hash_table_higher_prime_indexm 278
_ZN14plugin_contextC1Ei,_ZN14plugin_contextC2Ei prime_tab 299
_ZN14plugin_contextC1Ei,_ZN14plugin_contextC2Ei xcalloc 307
_ZN14plugin_contextC1Ei,_ZN14plugin_contextC2Ei _ZN10cc1_plugin10connectionD2Ev 340
_ZN14plugin_contextC1Ei,_ZN14plugin_contextC2Ei _Unwind_Resume 348
_ZN14plugin_contextC1Ei,_ZN14plugin_contextC2Ei _ZN10hash_tableI15nofree_ptr_hashI9tree_nodeELb0E11xcallocatorED1Ev 360
_ZN14plugin_contextC1Ei,_ZN14plugin_contextC2Ei _ZN10hash_tableI16decl_addr_hasherLb0E11xcallocatorED1Ev 369
plugin_init __errno_location 91
plugin_init strtol 116
plugin_init _Znwm 161
plugin_init _ZN14plugin_contextC2Ei 175
plugin_init _ZN10cc1_plugin10connection7requireEc 195
plugin_init input_location 209
plugin_init _Z11fatal_errorjPKcz 221
plugin_init input_location 238
plugin_init _Z11fatal_errorjPKcz 250
plugin_init _ZN10cc1_plugin18unmarshall_intlikeEPNS_10connectionEPy 269
plugin_init register_callback 306
plugin_init register_callback 327
plugin_init register_callback 348
plugin_init _ZN10cc1_plugin8callbackIiPKcXadL_Z21plugin_push_namespacePNS_10connectionES2_EEEENS_6statusES4_ 360
plugin_init lang_hooks 372
plugin_init _ZN10cc1_plugin9callbacks12add_callbackEPKcPFNS_6statusEPNS_10connectionEE 385
plugin_init _ZN10cc1_plugin8callbackIiyXadL_Z17plugin_push_classPNS_10connectionEyEEEENS_6statusES2_ 397
plugin_init _ZN10cc1_plugin9callbacks12add_callbackEPKcPFNS_6statusEPNS_10connectionEE 411
plugin_init _ZN10cc1_plugin8callbackIiyXadL_Z20plugin_push_functionPNS_10connectionEyEEEENS_6statusES2_ 423
plugin_init _ZN10cc1_plugin9callbacks12add_callbackEPKcPFNS_6statusEPNS_10connectionEE 437
plugin_init _ZN10cc1_plugin8callbackIiyyXadL_Z22plugin_reactivate_declPNS_10connectionEyyEEEENS_6statusES2_ 449
plugin_init _ZN10cc1_plugin9callbacks12add_callbackEPKcPFNS_6statusEPNS_10connectionEE 463
plugin_init _ZN10cc1_plugin8callbackIiXadL_Z24plugin_pop_binding_levelPNS_10connectionEEEEENS_6statusES2_ 475
plugin_init _ZN10cc1_plugin9callbacks12add_callbackEPKcPFNS_6statusEPNS_10connectionEE 489
plugin_init _ZN10cc1_plugin8callbackIyXadL_Z37plugin_get_current_binding_level_declPNS_10connectionEEEEENS_6statusES2_ 501
plugin_init _ZN10cc1_plugin9callbacks12add_callbackEPKcPFNS_6statusEPNS_10connectionEE 515
plugin_init _ZN10cc1_plugin8callbackIiXadL_Z28plugin_make_namespace_inlinePNS_10connectionEEEEENS_6statusES2_ 527
plugin_init _ZN10cc1_plugin9callbacks12add_callbackEPKcPFNS_6statusEPNS_10connectionEE 541
plugin_init _ZN10cc1_plugin8callbackIiyXadL_Z26plugin_add_using_namespacePNS_10connectionEyEEEENS_6statusES2_ 553
plugin_init _ZN10cc1_plugin9callbacks12add_callbackEPKcPFNS_6statusEPNS_10connectionEE 567
plugin_init _ZN10cc1_plugin8callbackIiPKcyXadL_Z26plugin_add_namespace_aliasPNS_10connectionES2_yEEEENS_6statusES4_ 579
plugin_init _ZN10cc1_plugin9callbacks12add_callbackEPKcPFNS_6statusEPNS_10connectionEE 593
plugin_init _ZN10cc1_plugin8callbackIi18gcc_cp_symbol_kindyXadL_Z21plugin_add_using_declPNS_10connectionES1_yEEEENS_6statusES3_ 605
plugin_init _ZN10cc1_plugin9callbacks12add_callbackEPKcPFNS_6statusEPNS_10connectionEE 619
plugin_init _ZN10cc1_plugin8callbackIyPKc18gcc_cp_symbol_kindyS2_yS2_jXadL_Z17plugin_build_declPNS_10connectionES2_S3_yS2_yS2_jEEEENS_6statusES5_ 631
plugin_init _ZN10cc1_plugin9callbacks12add_callbackEPKcPFNS_6statusEPNS_10connectionEE 645
plugin_init _ZN10cc1_plugin8callbackIyPKcyyXadL_Z25plugin_define_cdtor_clonePNS_10connectionES2_yyEEEENS_6statusES4_ 657
plugin_init _ZN10cc1_plugin9callbacks12add_callbackEPKcPFNS_6statusEPNS_10connectionEE 671
plugin_init _ZN10cc1_plugin8callbackIyyXadL_Z20plugin_get_decl_typePNS_10connectionEyEEEENS_6statusES2_ 683
plugin_init _ZN10cc1_plugin9callbacks12add_callbackEPKcPFNS_6statusEPNS_10connectionEE 697
plugin_init _ZN10cc1_plugin8callbackIyyXadL_Z20plugin_get_type_declPNS_10connectionEyEEEENS_6statusES2_ 709
plugin_init _ZN10cc1_plugin9callbacks12add_callbackEPKcPFNS_6statusEPNS_10connectionEE 723
plugin_init _ZN10cc1_plugin8callbackIiyyXadL_Z17plugin_add_friendPNS_10connectionEyyEEEENS_6statusES2_ 735
plugin_init _ZN10cc1_plugin9callbacks12add_callbackEPKcPFNS_6statusEPNS_10connectionEE 749
plugin_init _ZN10cc1_plugin8callbackIyyXadL_Z25plugin_build_pointer_typePNS_10connectionEyEEEENS_6statusES2_ 761
plugin_init _ZN10cc1_plugin9callbacks12add_callbackEPKcPFNS_6statusEPNS_10connectionEE 775
plugin_init _ZN10cc1_plugin8callbackIyy21gcc_cp_ref_qualifiersXadL_Z27plugin_build_reference_typePNS_10connectionEyS1_EEEENS_6statusES3_ 787
plugin_init _ZN10cc1_plugin9callbacks12add_callbackEPKcPFNS_6statusEPNS_10connectionEE 801
plugin_init _ZN10cc1_plugin8callbackIyyyXadL_Z35plugin_build_pointer_to_member_typePNS_10connectionEyyEEEENS_6statusES2_ 813
plugin_init _ZN10cc1_plugin9callbacks12add_callbackEPKcPFNS_6statusEPNS_10connectionEE 827
plugin_init _ZN10cc1_plugin8callbackIiXadL_Z26plugin_start_template_declPNS_10connectionEEEEENS_6statusES2_ 839
plugin_init _ZN10cc1_plugin9callbacks12add_callbackEPKcPFNS_6statusEPNS_10connectionEE 853
plugin_init _ZN10cc1_plugin8callbackIyPKciyS2_jXadL_Z36plugin_build_type_template_parameterPNS_10connectionES2_iyS2_jEEEENS_6statusES4_ 865
plugin_init _ZN10cc1_plugin9callbacks12add_callbackEPKcPFNS_6statusEPNS_10connectionEE 879
plugin_init _ZN10cc1_plugin8callbackIyPKciyS2_jXadL_Z40plugin_build_template_template_parameterPNS_10connectionES2_iyS2_jEEEENS_6statusES4_ 891
plugin_init _ZN10cc1_plugin9callbacks12add_callbackEPKcPFNS_6statusEPNS_10connectionEE 905
plugin_init _ZN10cc1_plugin8callbackIyyPKcyS2_jXadL_Z37plugin_build_value_template_parameterPNS_10connectionEyS2_yS2_jEEEENS_6statusES4_ 917
plugin_init _ZN10cc1_plugin9callbacks12add_callbackEPKcPFNS_6statusEPNS_10connectionEE 931
plugin_init _ZN10cc1_plugin8callbackIyyPKcPK20gcc_cp_template_argsXadL_Z31plugin_build_dependent_typenamePNS_10connectionEyS2_S5_EEEENS_6statusES7_ 943
plugin_init _ZN10cc1_plugin9callbacks12add_callbackEPKcPFNS_6statusEPNS_10connectionEE 957
plugin_init _ZN10cc1_plugin8callbackIyyPKcXadL_Z37plugin_build_dependent_class_templatePNS_10connectionEyS2_EEEENS_6statusES4_ 969
plugin_init _ZN10cc1_plugin9callbacks12add_callbackEPKcPFNS_6statusEPNS_10connectionEE 983
plugin_init _ZN10cc1_plugin8callbackIyyPK20gcc_cp_template_argsXadL_Z39plugin_build_dependent_type_template_idPNS_10connectionEyS3_EEEENS_6statusES5_ 995
plugin_init _ZN10cc1_plugin9callbacks12add_callbackEPKcPFNS_6statusEPNS_10connectionEE 1009
plugin_init _ZN10cc1_plugin8callbackIyy18gcc_cp_symbol_kindPKcyPK20gcc_cp_template_argsXadL_Z27plugin_build_dependent_exprPNS_10connectionEyS1_S3_yS6_EEEENS_6statusES8_ 1021
plugin_init _ZN10cc1_plugin9callbacks12add_callbackEPKcPFNS_6statusEPNS_10connectionEE 1035
plugin_init _ZN10cc1_plugin8callbackIyymXadL_Z25plugin_build_literal_exprPNS_10connectionEymEEEENS_6statusES2_ 1047
plugin_init _ZN10cc1_plugin9callbacks12add_callbackEPKcPFNS_6statusEPNS_10connectionEE 1061
plugin_init _ZN10cc1_plugin8callbackIyyiXadL_Z22plugin_build_decl_exprPNS_10connectionEyiEEEENS_6statusES2_ 1073
plugin_init _ZN10cc1_plugin9callbacks12add_callbackEPKcPFNS_6statusEPNS_10connectionEE 1087
plugin_init _ZN10cc1_plugin8callbackIyPKcyXadL_Z23plugin_build_unary_exprPNS_10connectionES2_yEEEENS_6statusES4_ 1099
plugin_init _ZN10cc1_plugin9callbacks12add_callbackEPKcPFNS_6statusEPNS_10connectionEE 1113
plugin_init _ZN10cc1_plugin8callbackIyPKcyyXadL_Z24plugin_build_binary_exprPNS_10connectionES2_yyEEEENS_6statusES4_ 1125
plugin_init _ZN10cc1_plugin9callbacks12add_callbackEPKcPFNS_6statusEPNS_10connectionEE 1139
plugin_init _ZN10cc1_plugin8callbackIyPKcyyyXadL_Z25plugin_build_ternary_exprPNS_10connectionES2_yyyEEEENS_6statusES4_ 1151
plugin_init _ZN10cc1_plugin9callbacks12add_callbackEPKcPFNS_6statusEPNS_10connectionEE 1165
plugin_init _ZN10cc1_plugin8callbackIyPKcyXadL_Z28plugin_build_unary_type_exprPNS_10connectionES2_yEEEENS_6statusES4_ 1177
plugin_init _ZN10cc1_plugin9callbacks12add_callbackEPKcPFNS_6statusEPNS_10connectionEE 1191
plugin_init _ZN10cc1_plugin8callbackIyPKcyyXadL_Z22plugin_build_cast_exprPNS_10connectionES2_yyEEEENS_6statusES4_ 1203
plugin_init _ZN10cc1_plugin9callbacks12add_callbackEPKcPFNS_6statusEPNS_10connectionEE 1217
plugin_init _ZN10cc1_plugin8callbackIyPKcyPK20gcc_cp_function_argsXadL_Z33plugin_build_expression_list_exprPNS_10connectionES2_yS5_EEEENS_6statusES7_ 1229
plugin_init _ZN10cc1_plugin9callbacks12add_callbackEPKcPFNS_6statusEPNS_10connectionEE 1243
plugin_init _ZN10cc1_plugin8callbackIyPKcPK20gcc_cp_function_argsyS5_XadL_Z21plugin_build_new_exprPNS_10connectionES2_S5_yS5_EEEENS_6statusES7_ 1255
plugin_init _ZN10cc1_plugin9callbacks12add_callbackEPKcPFNS_6statusEPNS_10connectionEE 1269
plugin_init _ZN10cc1_plugin8callbackIyyiPK20gcc_cp_function_argsXadL_Z22plugin_build_call_exprPNS_10connectionEyiS3_EEEENS_6statusES5_ 1281
plugin_init _ZN10cc1_plugin9callbacks12add_callbackEPKcPFNS_6statusEPNS_10connectionEE 1295
plugin_init _ZN10cc1_plugin8callbackIyyXadL_Z20plugin_get_expr_typePNS_10connectionEyEEEENS_6statusES2_ 1307
plugin_init _ZN10cc1_plugin9callbacks12add_callbackEPKcPFNS_6statusEPNS_10connectionEE 1321
plugin_init _ZN10cc1_plugin8callbackIyyPK20gcc_cp_template_argsyPKcjXadL_Z45plugin_build_function_template_specializationPNS_10connectionEyS3_yS5_jEEEENS_6statusES7_ 1333
plugin_init _ZN10cc1_plugin9callbacks12add_callbackEPKcPFNS_6statusEPNS_10connectionEE 1347
plugin_init _ZN10cc1_plugin8callbackIyyPK20gcc_cp_template_argsPKcjXadL_Z42plugin_build_class_template_specializationPNS_10connectionEyS3_S5_jEEEENS_6statusES7_ 1359
plugin_init _ZN10cc1_plugin9callbacks12add_callbackEPKcPFNS_6statusEPNS_10connectionEE 1373
plugin_init _ZN10cc1_plugin8callbackIyyPK15gcc_vbase_arrayPKcjXadL_Z23plugin_start_class_typePNS_10connectionEyS3_S5_jEEEENS_6statusES7_ 1385
plugin_init _ZN10cc1_plugin9callbacks12add_callbackEPKcPFNS_6statusEPNS_10connectionEE 1399
plugin_init _ZN10cc1_plugin8callbackIyiy18gcc_cp_symbol_kindPKcjXadL_Z31plugin_start_closure_class_typePNS_10connectionEiyS1_S3_jEEEENS_6statusES5_ 1411
plugin_init _ZN10cc1_plugin9callbacks12add_callbackEPKcPFNS_6statusEPNS_10connectionEE 1425
plugin_init _ZN10cc1_plugin8callbackIyPKcy18gcc_cp_symbol_kindmmXadL_Z18plugin_build_fieldPNS_10connectionES2_yS3_mmEEEENS_6statusES5_ 1437
plugin_init _ZN10cc1_plugin9callbacks12add_callbackEPKcPFNS_6statusEPNS_10connectionEE 1451
plugin_init _ZN10cc1_plugin8callbackIimXadL_Z24plugin_finish_class_typePNS_10connectionEmEEEENS_6statusES2_ 1463
plugin_init _ZN10cc1_plugin9callbacks12add_callbackEPKcPFNS_6statusEPNS_10connectionEE 1477
plugin_init _ZN10cc1_plugin8callbackIyPKcy18gcc_cp_symbol_kindS2_jXadL_Z22plugin_start_enum_typePNS_10connectionES2_yS3_S2_jEEEENS_6statusES5_ 1489
plugin_init _ZN10cc1_plugin9callbacks12add_callbackEPKcPFNS_6statusEPNS_10connectionEE 1503
plugin_init _ZN10cc1_plugin8callbackIyyPKcmXadL_Z26plugin_build_enum_constantPNS_10connectionEyS2_mEEEENS_6statusES4_ 1515
plugin_init _ZN10cc1_plugin9callbacks12add_callbackEPKcPFNS_6statusEPNS_10connectionEE 1529
plugin_init _ZN10cc1_plugin8callbackIiyXadL_Z23plugin_finish_enum_typePNS_10connectionEyEEEENS_6statusES2_ 1541
plugin_init _ZN10cc1_plugin9callbacks12add_callbackEPKcPFNS_6statusEPNS_10connectionEE 1555
plugin_init _ZN10cc1_plugin8callbackIyyPK14gcc_type_arrayiXadL_Z26plugin_build_function_typePNS_10connectionEyS3_iEEEENS_6statusES5_ 1567
plugin_init _ZN10cc1_plugin9callbacks12add_callbackEPKcPFNS_6statusEPNS_10connectionEE 1581
plugin_init _ZN10cc1_plugin8callbackIyyPK14gcc_type_arrayXadL_Z35plugin_build_exception_spec_variantPNS_10connectionEyS3_EEEENS_6statusES5_ 1593
plugin_init _ZN10cc1_plugin9callbacks12add_callbackEPKcPFNS_6statusEPNS_10connectionEE 1607
plugin_init _ZN10cc1_plugin8callbackIyyy17gcc_cp_qualifiers21gcc_cp_ref_qualifiersXadL_Z24plugin_build_method_typePNS_10connectionEyyS1_S2_EEEENS_6statusES4_ 1619
plugin_init _ZN10cc1_plugin9callbacks12add_callbackEPKcPFNS_6statusEPNS_10connectionEE 1633
plugin_init _ZN10cc1_plugin8callbackIyyiXadL_Z34plugin_get_function_parameter_declPNS_10connectionEyiEEEENS_6statusES2_ 1645
plugin_init _ZN10cc1_plugin9callbacks12add_callbackEPKcPFNS_6statusEPNS_10connectionEE 1659
plugin_init _ZN10cc1_plugin8callbackIyyXadL_Z24plugin_build_lambda_exprPNS_10connectionEyEEEENS_6statusES2_ 1671
plugin_init _ZN10cc1_plugin9callbacks12add_callbackEPKcPFNS_6statusEPNS_10connectionEE 1685
plugin_init _ZN10cc1_plugin8callbackIyimPKcXadL_Z19plugin_get_int_typePNS_10connectionEimS2_EEEENS_6statusES4_ 1697
plugin_init _ZN10cc1_plugin9callbacks12add_callbackEPKcPFNS_6statusEPNS_10connectionEE 1711
plugin_init _ZN10cc1_plugin8callbackIyXadL_Z20plugin_get_char_typePNS_10connectionEEEEENS_6statusES2_ 1723
plugin_init _ZN10cc1_plugin9callbacks12add_callbackEPKcPFNS_6statusEPNS_10connectionEE 1737
plugin_init _ZN10cc1_plugin8callbackIymPKcXadL_Z21plugin_get_float_typePNS_10connectionEmS2_EEEENS_6statusES4_ 1749
plugin_init _ZN10cc1_plugin9callbacks12add_callbackEPKcPFNS_6statusEPNS_10connectionEE 1763
plugin_init _ZN10cc1_plugin8callbackIyXadL_Z20plugin_get_void_typePNS_10connectionEEEEENS_6statusES2_ 1775
plugin_init _ZN10cc1_plugin9callbacks12add_callbackEPKcPFNS_6statusEPNS_10connectionEE 1789
plugin_init _ZN10cc1_plugin8callbackIyXadL_Z20plugin_get_bool_typePNS_10connectionEEEEENS_6statusES2_ 1801
plugin_init _ZN10cc1_plugin9callbacks12add_callbackEPKcPFNS_6statusEPNS_10connectionEE 1815
plugin_init _ZN10cc1_plugin8callbackIyXadL_Z23plugin_get_nullptr_typePNS_10connectionEEEEENS_6statusES2_ 1827
plugin_init _ZN10cc1_plugin9callbacks12add_callbackEPKcPFNS_6statusEPNS_10connectionEE 1841
plugin_init _ZN10cc1_plugin8callbackIyXadL_Z27plugin_get_nullptr_constantPNS_10connectionEEEEENS_6statusES2_ 1853
plugin_init _ZN10cc1_plugin9callbacks12add_callbackEPKcPFNS_6statusEPNS_10connectionEE 1867
plugin_init _ZN10cc1_plugin8callbackIyyiXadL_Z23plugin_build_array_typePNS_10connectionEyiEEEENS_6statusES2_ 1879
plugin_init _ZN10cc1_plugin9callbacks12add_callbackEPKcPFNS_6statusEPNS_10connectionEE 1893
plugin_init _ZN10cc1_plugin8callbackIyyyXadL_Z33plugin_build_dependent_array_typePNS_10connectionEyyEEEENS_6statusES2_ 1905
plugin_init _ZN10cc1_plugin9callbacks12add_callbackEPKcPFNS_6statusEPNS_10connectionEE 1919
plugin_init _ZN10cc1_plugin8callbackIyyPKcXadL_Z27plugin_build_vla_array_typePNS_10connectionEyS2_EEEENS_6statusES4_ 1931
plugin_init _ZN10cc1_plugin9callbacks12add_callbackEPKcPFNS_6statusEPNS_10connectionEE 1945
plugin_init _ZN10cc1_plugin8callbackIyy17gcc_cp_qualifiersXadL_Z27plugin_build_qualified_typePNS_10connectionEyS1_EEEENS_6statusES3_ 1957
plugin_init _ZN10cc1_plugin9callbacks12add_callbackEPKcPFNS_6statusEPNS_10connectionEE 1971
plugin_init _ZN10cc1_plugin8callbackIyyXadL_Z25plugin_build_complex_typePNS_10connectionEyEEEENS_6statusES2_ 1983
plugin_init _ZN10cc1_plugin9callbacks12add_callbackEPKcPFNS_6statusEPNS_10connectionEE 1997
plugin_init _ZN10cc1_plugin8callbackIyyiXadL_Z24plugin_build_vector_typePNS_10connectionEyiEEEENS_6statusES2_ 2009
plugin_init _ZN10cc1_plugin9callbacks12add_callbackEPKcPFNS_6statusEPNS_10connectionEE 2023
plugin_init _ZN10cc1_plugin8callbackIiyPKcmS2_jXadL_Z21plugin_build_constantPNS_10connectionEyS2_mS2_jEEEENS_6statusES4_ 2035
plugin_init _ZN10cc1_plugin9callbacks12add_callbackEPKcPFNS_6statusEPNS_10connectionEE 2049
plugin_init _ZN10cc1_plugin8callbackIyPKcXadL_Z12plugin_errorPNS_10connectionES2_EEEENS_6statusES4_ 2061
plugin_init _ZN10cc1_plugin9callbacks12add_callbackEPKcPFNS_6statusEPNS_10connectionEE 2075
plugin_init _ZN10cc1_plugin8callbackIiyPKcS2_jXadL_Z24plugin_add_static_assertPNS_10connectionEyS2_S2_jEEEENS_6statusES4_ 2087
plugin_init _ZN10cc1_plugin9callbacks12add_callbackEPKcPFNS_6statusEPNS_10connectionEE 2101
plugin_init input_location 2124
plugin_init _Z11fatal_errorjPKcz 2136
plugin_init input_location 2146
plugin_init _Z11fatal_errorjPKcz 2158
plugin_init _ZdlPv 2169
plugin_init _Unwind_Resume 2177
_Z23plugin_build_union_typePN10cc1_plugin10connectionE prime_tab 77
_Z23plugin_build_union_typePN10cc1_plugin10connectionE prime_tab 83
_Z23plugin_build_union_typePN10cc1_plugin10connectionE prime_tab 90
_Z23plugin_build_union_typePN10cc1_plugin10connectionE prime_tab 96
_Z23plugin_build_union_typePN10cc1_plugin10connectionE _ZN10hash_tableI15nofree_ptr_hashI9tree_nodeELb0E11xcallocatorE6expandEv 338
_Z24plugin_build_record_typePN10cc1_plugin10connectionE prime_tab 77
_Z24plugin_build_record_typePN10cc1_plugin10connectionE prime_tab 83
_Z24plugin_build_record_typePN10cc1_plugin10connectionE prime_tab 90
_Z24plugin_build_record_typePN10cc1_plugin10connectionE prime_tab 96
_Z24plugin_build_record_typePN10cc1_plugin10connectionE _ZN10hash_tableI15nofree_ptr_hashI9tree_nodeELb0E11xcallocatorE6expandEv 338
_Z25plugin_build_complex_typePN10cc1_plugin10connectionEy _Z18build_complex_typeP9tree_nodeb 15
_Z25plugin_build_complex_typePN10cc1_plugin10connectionEy prime_tab 77
_Z25plugin_build_complex_typePN10cc1_plugin10connectionEy prime_tab 83
_Z25plugin_build_complex_typePN10cc1_plugin10connectionEy prime_tab 90
_Z25plugin_build_complex_typePN10cc1_plugin10connectionEy prime_tab 96
_Z25plugin_build_complex_typePN10cc1_plugin10connectionEy _ZN10hash_tableI15nofree_ptr_hashI9tree_nodeELb0E11xcallocatorE6expandEv 338
_Z22plugin_build_enum_typePN10cc1_plugin10connectionEy global_trees 3
_Z22plugin_build_enum_typePN10cc1_plugin10connectionEy prime_tab 139
_Z22plugin_build_enum_typePN10cc1_plugin10connectionEy prime_tab 145
_Z22plugin_build_enum_typePN10cc1_plugin10connectionEy prime_tab 152
_Z22plugin_build_enum_typePN10cc1_plugin10connectionEy prime_tab 158
_Z22plugin_build_enum_typePN10cc1_plugin10connectionEy _ZN10hash_tableI15nofree_ptr_hashI9tree_nodeELb0E11xcallocatorE6expandEv 402
_Z24plugin_build_vector_typePN10cc1_plugin10connectionEyi _Z17build_vector_typeP9tree_node8poly_intILj1ElE 16
_Z24plugin_build_vector_typePN10cc1_plugin10connectionEyi prime_tab 78
_Z24plugin_build_vector_typePN10cc1_plugin10connectionEyi prime_tab 84
_Z24plugin_build_vector_typePN10cc1_plugin10connectionEyi prime_tab 91
_Z24plugin_build_vector_typePN10cc1_plugin10connectionEyi prime_tab 97
_Z24plugin_build_vector_typePN10cc1_plugin10connectionEyi _ZN10hash_tableI15nofree_ptr_hashI9tree_nodeELb0E11xcallocatorE6expandEv 338
_Z23plugin_build_array_typePN10cc1_plugin10connectionEyi _Z22build_array_type_neltsP9tree_node8poly_intILj1EmE 25
_Z23plugin_build_array_typePN10cc1_plugin10connectionEyi prime_tab 87
_Z23plugin_build_array_typePN10cc1_plugin10connectionEyi prime_tab 93
_Z23plugin_build_array_typePN10cc1_plugin10connectionEyi prime_tab 100
_Z23plugin_build_array_typePN10cc1_plugin10connectionEyi prime_tab 106
_Z23plugin_build_array_typePN10cc1_plugin10connectionEyi _ZN10hash_tableI15nofree_ptr_hashI9tree_nodeELb0E11xcallocatorE6expandEv 354
_Z23plugin_build_array_typePN10cc1_plugin10connectionEyi _Z16build_array_typeP9tree_nodeS0_b 381
_ZL16plugin_int_checkPN10cc1_plugin10connectionEimP9tree_node prime_tab 142
_ZL16plugin_int_checkPN10cc1_plugin10connectionEimP9tree_node prime_tab 148
_ZL16plugin_int_checkPN10cc1_plugin10connectionEimP9tree_node prime_tab 154
_ZL16plugin_int_checkPN10cc1_plugin10connectionEimP9tree_node prime_tab 160
_ZL16plugin_int_checkPN10cc1_plugin10connectionEimP9tree_node _ZN10hash_tableI15nofree_ptr_hashI9tree_nodeELb0E11xcallocatorE6expandEv 402
_ZL16plugin_int_checkPN10cc1_plugin10connectionEimP9tree_node global_trees 451
_ZL16plugin_int_checkPN10cc1_plugin10connectionEimP9tree_node _Z11fancy_abortPKciS0_ 472
_ZL16plugin_int_checkPN10cc1_plugin10connectionEimP9tree_node _Z11fancy_abortPKciS0_ 492
_ZL16plugin_int_checkPN10cc1_plugin10connectionEimP9tree_node _Z11fancy_abortPKciS0_ 512
_Z18plugin_int_type_v0PN10cc1_plugin10connectionEim _Z22c_common_type_for_sizeji 20
_Z15plugin_int_typePN10cc1_plugin10connectionEimPKc _Z11fancy_abortPKciS0_ 85
_Z15plugin_int_typePN10cc1_plugin10connectionEimPKc _Z18plugin_int_type_v0PN10cc1_plugin10connectionEim 65
_Z27plugin_build_vla_array_typePN10cc1_plugin10connectionEyPKc _Z14get_identifierPKc 18
_Z27plugin_build_vla_array_typePN10cc1_plugin10connectionEyPKc _Z11lookup_nameP9tree_node 26
_Z27plugin_build_vla_array_typePN10cc1_plugin10connectionEyPKc _Z13build_one_cstP9tree_node 38
_Z27plugin_build_vla_array_typePN10cc1_plugin10connectionEyPKc _Z15fold_build2_locj9tree_codeP9tree_nodeS1_S1_ 60
_Z27plugin_build_vla_array_typePN10cc1_plugin10connectionEyPKc _Z24compute_array_index_typeP9tree_nodeS0_i 75
_Z27plugin_build_vla_array_typePN10cc1_plugin10connectionEyPKc _Z22build_cplus_array_typeP9tree_nodeS0_ 86
_Z27plugin_build_vla_array_typePN10cc1_plugin10connectionEyPKc prime_tab 148
_Z27plugin_build_vla_array_typePN10cc1_plugin10connectionEyPKc prime_tab 154
_Z27plugin_build_vla_array_typePN10cc1_plugin10connectionEyPKc prime_tab 161
_Z27plugin_build_vla_array_typePN10cc1_plugin10connectionEyPKc prime_tab 167
_Z27plugin_build_vla_array_typePN10cc1_plugin10connectionEyPKc _ZN10hash_tableI15nofree_ptr_hashI9tree_nodeELb0E11xcallocatorE6expandEv 418
_Z26plugin_build_function_typePN10cc1_plugin10connectionEyPK14gcc_type_arrayi _Znam 56
_Z26plugin_build_function_typePN10cc1_plugin10connectionEyPK14gcc_type_arrayi _Z33build_varargs_function_type_arrayP9tree_nodeiPS0_ 126
_Z26plugin_build_function_typePN10cc1_plugin10connectionEyPK14gcc_type_arrayi _ZdaPv 140
_Z26plugin_build_function_typePN10cc1_plugin10connectionEyPK14gcc_type_arrayi prime_tab 195
_Z26plugin_build_function_typePN10cc1_plugin10connectionEyPK14gcc_type_arrayi prime_tab 201
_Z26plugin_build_function_typePN10cc1_plugin10connectionEyPK14gcc_type_arrayi prime_tab 207
_Z26plugin_build_function_typePN10cc1_plugin10connectionEyPK14gcc_type_arrayi prime_tab 213
_Z26plugin_build_function_typePN10cc1_plugin10connectionEyPK14gcc_type_arrayi _Z25build_function_type_arrayP9tree_nodeiPS0_ 431
_Z26plugin_build_function_typePN10cc1_plugin10connectionEyPK14gcc_type_arrayi _ZN10hash_tableI15nofree_ptr_hashI9tree_nodeELb0E11xcallocatorE6expandEv 485
_Z21plugin_build_constantPN10cc1_plugin10connectionEyPKcmS3_j _Z13build_int_cstP9tree_node8poly_intILj1ElE 36
_Z21plugin_build_constantPN10cc1_plugin10connectionEyPKcmS3_j _Z20build_qualified_typeP9tree_nodei 58
_Z21plugin_build_constantPN10cc1_plugin10connectionEyPKcmS3_j _Z14get_identifierPKc 69
_Z21plugin_build_constantPN10cc1_plugin10connectionEyPKcmS3_j htab_hash_string 92
_Z21plugin_build_constantPN10cc1_plugin10connectionEyPKcmS3_j _ZN10hash_tableI13string_hasherLb0E11xcallocatorE19find_slot_with_hashERKPKcj13insert_option 114
_Z21plugin_build_constantPN10cc1_plugin10connectionEyPKcmS3_j line_table 136
_Z21plugin_build_constantPN10cc1_plugin10connectionEyPKcmS3_j _Z11linemap_addP9line_maps9lc_reasonjPKcj 148
_Z21plugin_build_constantPN10cc1_plugin10connectionEyPKcmS3_j line_table 155
_Z21plugin_build_constantPN10cc1_plugin10connectionEyPKcmS3_j _Z18linemap_line_startP9line_mapsjj 165
_Z21plugin_build_constantPN10cc1_plugin10connectionEyPKcmS3_j line_table 172
_Z21plugin_build_constantPN10cc1_plugin10connectionEyPKcmS3_j _Z11linemap_addP9line_maps9lc_reasonjPKcj 191
_Z21plugin_build_constantPN10cc1_plugin10connectionEyPKcmS3_j _Z10build_declj9tree_codeP9tree_nodeS1_ 209
_Z21plugin_build_constantPN10cc1_plugin10connectionEyPKcmS3_j _Z14cp_finish_declP9tree_nodeS0_bS0_i 244
_Z21plugin_build_constantPN10cc1_plugin10connectionEyPKcmS3_j cp_binding_oracle 251
_Z21plugin_build_constantPN10cc1_plugin10connectionEyPKcmS3_j cp_binding_oracle 263
_Z21plugin_build_constantPN10cc1_plugin10connectionEyPKcmS3_j _Z8pushdeclP9tree_nodeb 272
_Z21plugin_build_constantPN10cc1_plugin10connectionEyPKcmS3_j cp_binding_oracle 279
_Z21plugin_build_constantPN10cc1_plugin10connectionEyPKcmS3_j xstrdup 310
_Z14plugin_tagbindPN10cc1_plugin10connectionEPKcyS3_j _Z14get_identifierPKc 28
_Z14plugin_tagbindPN10cc1_plugin10connectionEPKcyS3_j htab_hash_string 51
_Z14plugin_tagbindPN10cc1_plugin10connectionEPKcyS3_j _ZN10hash_tableI13string_hasherLb0E11xcallocatorE19find_slot_with_hashERKPKcj13insert_option 73
_Z14plugin_tagbindPN10cc1_plugin10connectionEPKcyS3_j line_table 91
_Z14plugin_tagbindPN10cc1_plugin10connectionEPKcyS3_j _Z11linemap_addP9line_maps9lc_reasonjPKcj 103
_Z14plugin_tagbindPN10cc1_plugin10connectionEPKcyS3_j line_table 110
_Z14plugin_tagbindPN10cc1_plugin10connectionEPKcyS3_j _Z18linemap_line_startP9line_mapsjj 120
_Z14plugin_tagbindPN10cc1_plugin10connectionEPKcyS3_j line_table 127
_Z14plugin_tagbindPN10cc1_plugin10connectionEPKcyS3_j _Z11linemap_addP9line_maps9lc_reasonjPKcj 146
_Z14plugin_tagbindPN10cc1_plugin10connectionEPKcyS3_j _Z9c_pushtagjP9tree_nodeS0_ 159
_Z14plugin_tagbindPN10cc1_plugin10connectionEPKcyS3_j xstrdup 217
_Z17plugin_build_declPN10cc1_plugin10connectionEPKc17gcc_c_symbol_kindyS3_yS3_j _Z14get_identifierPKc 33
_Z17plugin_build_declPN10cc1_plugin10connectionEPKc17gcc_c_symbol_kindyS3_yS3_j global_trees 66
_Z17plugin_build_declPN10cc1_plugin10connectionEPKc17gcc_c_symbol_kindyS3_yS3_j htab_hash_string 126
_Z17plugin_build_declPN10cc1_plugin10connectionEPKc17gcc_c_symbol_kindyS3_yS3_j _ZN10hash_tableI13string_hasherLb0E11xcallocatorE19find_slot_with_hashERKPKcj13insert_option 147
_Z17plugin_build_declPN10cc1_plugin10connectionEPKc17gcc_c_symbol_kindyS3_yS3_j line_table 171
_Z17plugin_build_declPN10cc1_plugin10connectionEPKc17gcc_c_symbol_kindyS3_yS3_j _Z11linemap_addP9line_maps9lc_reasonjPKcj 180
_Z17plugin_build_declPN10cc1_plugin10connectionEPKc17gcc_c_symbol_kindyS3_yS3_j line_table 191
_Z17plugin_build_declPN10cc1_plugin10connectionEPKc17gcc_c_symbol_kindyS3_yS3_j _Z18linemap_line_startP9line_mapsjj 198
_Z17plugin_build_declPN10cc1_plugin10connectionEPKc17gcc_c_symbol_kindyS3_yS3_j line_table 205
_Z17plugin_build_declPN10cc1_plugin10connectionEPKc17gcc_c_symbol_kindyS3_yS3_j _Z11linemap_addP9line_maps9lc_reasonjPKcj 226
_Z17plugin_build_declPN10cc1_plugin10connectionEPKc17gcc_c_symbol_kindyS3_yS3_j _Z10build_declj9tree_codeP9tree_nodeS1_ 244
_Z17plugin_build_declPN10cc1_plugin10connectionEPKc17gcc_c_symbol_kindyS3_yS3_j _Z14get_identifierPKc 290
_Z17plugin_build_declPN10cc1_plugin10connectionEPKc17gcc_c_symbol_kindyS3_yS3_j _Z11lookup_nameP9tree_node 298
_Z17plugin_build_declPN10cc1_plugin10connectionEPKc17gcc_c_symbol_kindyS3_yS3_j _ZN10hash_tableI16decl_addr_hasherLb0E11xcallocatorE19find_slot_with_hashERKP15decl_addr_valuej13insert_option 353
_Z17plugin_build_declPN10cc1_plugin10connectionEPKc17gcc_c_symbol_kindyS3_yS3_j xmalloc 376
_Z17plugin_build_declPN10cc1_plugin10connectionEPKc17gcc_c_symbol_kindyS3_yS3_j prime_tab 452
_Z17plugin_build_declPN10cc1_plugin10connectionEPKc17gcc_c_symbol_kindyS3_yS3_j prime_tab 458
_Z17plugin_build_declPN10cc1_plugin10connectionEPKc17gcc_c_symbol_kindyS3_yS3_j prime_tab 464
_Z17plugin_build_declPN10cc1_plugin10connectionEPKc17gcc_c_symbol_kindyS3_yS3_j prime_tab 470
_Z17plugin_build_declPN10cc1_plugin10connectionEPKc17gcc_c_symbol_kindyS3_yS3_j _Z11fancy_abortPKciS0_ 718
_Z17plugin_build_declPN10cc1_plugin10connectionEPKc17gcc_c_symbol_kindyS3_yS3_j _ZN10hash_tableI15nofree_ptr_hashI9tree_nodeELb0E11xcallocatorE6expandEv 773
_Z17plugin_build_declPN10cc1_plugin10connectionEPKc17gcc_c_symbol_kindyS3_yS3_j global_trees 799
_Z17plugin_build_declPN10cc1_plugin10connectionEPKc17gcc_c_symbol_kindyS3_yS3_j _Z18build_int_cst_typeP9tree_node8poly_intILj1ElE 804
_Z17plugin_build_declPN10cc1_plugin10connectionEPKc17gcc_c_symbol_kindyS3_yS3_j global_trees 843
_Z17plugin_build_declPN10cc1_plugin10connectionEPKc17gcc_c_symbol_kindyS3_yS3_j xstrdup 868
_Z17plugin_build_declPN10cc1_plugin10connectionEPKc17gcc_c_symbol_kindyS3_yS3_j _Z11fancy_abortPKciS0_ 904
_ZL16address_rewriterPP9tree_nodePiPv tree_code_type 11
_ZL16address_rewriterPP9tree_nodePiPv _ZN10hash_tableI16decl_addr_hasherLb0E11xcallocatorE14find_with_hashERKP15decl_addr_valuej 92
_ZL16address_rewriterPP9tree_nodePiPv global_trees 107
_ZL16address_rewriterPP9tree_nodePiPv _Z18build_pointer_typeP9tree_node 125
_ZL16address_rewriterPP9tree_nodePiPv _Z15fold_build1_locj9tree_codeP9tree_nodeS1_ 144
_ZL16address_rewriterPP9tree_nodePiPv _Z15fold_build1_locj9tree_codeP9tree_nodeS1_ 166
_ZL16address_rewriterPP9tree_nodePiPv tree_contains_struct 220
_ZL16address_rewriterPP9tree_nodePiPv _Z19decl_assembler_nameP9tree_node 228
_ZL16address_rewriterPP9tree_nodePiPv _ZN10cc1_plugin10connection4sendEc 245
_ZL16address_rewriterPP9tree_nodePiPv _ZN10cc1_plugin8marshallEPNS_10connectionEPKc 262
_ZL16address_rewriterPP9tree_nodePiPv _ZN10cc1_plugin16marshall_intlikeEPNS_10connectionEy 279
_ZL16address_rewriterPP9tree_nodePiPv _ZN10cc1_plugin8marshallEPNS_10connectionEPKc 294
_ZL16address_rewriterPP9tree_nodePiPv _ZN10cc1_plugin10connection7do_waitEb 311
_ZL16address_rewriterPP9tree_nodePiPv _ZN10cc1_plugin18unmarshall_intlikeEPNS_10connectionEPy 332
_ZL16address_rewriterPP9tree_nodePiPv global_trees 366
_ZL16address_rewriterPP9tree_nodePiPv _Z18build_int_cst_typeP9tree_node8poly_intILj1ElE 371
_ZNK16generic_wide_intI20wide_int_ref_storageILb1ELb0EEE9sign_maskEv.part.23 _Z11fancy_abortPKciS0_ 17
_ZN10cc1_plugin8callbackIyPKcXadL_Z12plugin_errorPNS_10connectionES2_EEEENS_6statusES4_ _ZN10cc1_plugin16unmarshall_checkEPNS_10connectionEy 23
_ZN10cc1_plugin8callbackIyPKcXadL_Z12plugin_errorPNS_10connectionES2_EEEENS_6statusES4_ _ZdaPv 43
_ZN10cc1_plugin8callbackIyPKcXadL_Z12plugin_errorPNS_10connectionES2_EEEENS_6statusES4_ _ZN10cc1_plugin10unmarshallEPNS_10connectionEPPc 71
_ZN10cc1_plugin8callbackIyPKcXadL_Z12plugin_errorPNS_10connectionES2_EEEENS_6statusES4_ _Z5errorPKcz 91
_ZN10cc1_plugin8callbackIyPKcXadL_Z12plugin_errorPNS_10connectionES2_EEEENS_6statusES4_ global_trees 106
_ZN10cc1_plugin8callbackIyPKcXadL_Z12plugin_errorPNS_10connectionES2_EEEENS_6statusES4_ _ZN10cc1_plugin10connection4sendEc 111
_ZN10cc1_plugin8callbackIyPKcXadL_Z12plugin_errorPNS_10connectionES2_EEEENS_6statusES4_ _ZN10cc1_plugin16marshall_intlikeEPNS_10connectionEy 126
_ZN10cc1_plugin8callbackIyPKcXadL_Z12plugin_errorPNS_10connectionES2_EEEENS_6statusES4_ _ZdaPv 147
_ZN10cc1_plugin8callbackIyPKcXadL_Z12plugin_errorPNS_10connectionES2_EEEENS_6statusES4_ _Unwind_Resume 155
_ZN10cc1_plugin8callbackIyyXadL_Z25plugin_build_pointer_typePNS_10connectionEyEEEENS_6statusES2_ _ZN10cc1_plugin16unmarshall_checkEPNS_10connectionEy 15
_ZN10cc1_plugin8callbackIyyXadL_Z25plugin_build_pointer_typePNS_10connectionEyEEEENS_6statusES2_ _ZN10cc1_plugin18unmarshall_intlikeEPNS_10connectionEPy 41
_ZN10cc1_plugin8callbackIyyXadL_Z25plugin_build_pointer_typePNS_10connectionEyEEEENS_6statusES2_ _Z18build_pointer_typeP9tree_node 55
_ZN10cc1_plugin8callbackIyyXadL_Z25plugin_build_pointer_typePNS_10connectionEyEEEENS_6statusES2_ _ZN10cc1_plugin10connection4sendEc 71
_ZN10cc1_plugin8callbackIyyXadL_Z25plugin_build_pointer_typePNS_10connectionEyEEEENS_6statusES2_ _ZN10cc1_plugin16marshall_intlikeEPNS_10connectionEy 86
_ZN10cc1_plugin8callbackIymXadL_Z20plugin_float_type_v0PNS_10connectionEmEEEENS_6statusES2_ _ZN10cc1_plugin16unmarshall_checkEPNS_10connectionEy 15
_ZN10cc1_plugin8callbackIymXadL_Z20plugin_float_type_v0PNS_10connectionEmEEEENS_6statusES2_ _ZN10cc1_plugin18unmarshall_intlikeEPNS_10connectionEPy 41
_ZN10cc1_plugin8callbackIymXadL_Z20plugin_float_type_v0PNS_10connectionEmEEEENS_6statusES2_ global_trees 52
_ZN10cc1_plugin8callbackIymXadL_Z20plugin_float_type_v0PNS_10connectionEmEEEENS_6statusES2_ global_trees 83
_ZN10cc1_plugin8callbackIymXadL_Z20plugin_float_type_v0PNS_10connectionEmEEEENS_6statusES2_ global_trees 105
_ZN10cc1_plugin8callbackIymXadL_Z20plugin_float_type_v0PNS_10connectionEmEEEENS_6statusES2_ global_trees 126
_ZN10cc1_plugin8callbackIymXadL_Z20plugin_float_type_v0PNS_10connectionEmEEEENS_6statusES2_ _ZN10cc1_plugin10connection4sendEc 142
_ZN10cc1_plugin8callbackIymXadL_Z20plugin_float_type_v0PNS_10connectionEmEEEENS_6statusES2_ _ZN10cc1_plugin16marshall_intlikeEPNS_10connectionEy 157
_ZN10cc1_plugin8callbackIyXadL_Z16plugin_char_typePNS_10connectionEEEEENS_6statusES2_ _ZN10cc1_plugin16unmarshall_checkEPNS_10connectionEy 12
_ZN10cc1_plugin8callbackIyXadL_Z16plugin_char_typePNS_10connectionEEEEENS_6statusES2_ integer_types 43
_ZN10cc1_plugin8callbackIyXadL_Z16plugin_char_typePNS_10connectionEEEEENS_6statusES2_ _ZN10cc1_plugin10connection4sendEc 48
_ZN10cc1_plugin8callbackIyXadL_Z16plugin_char_typePNS_10connectionEEEEENS_6statusES2_ _ZN10cc1_plugin16marshall_intlikeEPNS_10connectionEy 69
_ZN10cc1_plugin8callbackIyXadL_Z16plugin_bool_typePNS_10connectionEEEEENS_6statusES2_ _ZN10cc1_plugin16unmarshall_checkEPNS_10connectionEy 12
_ZN10cc1_plugin8callbackIyXadL_Z16plugin_bool_typePNS_10connectionEEEEENS_6statusES2_ global_trees 43
_ZN10cc1_plugin8callbackIyXadL_Z16plugin_bool_typePNS_10connectionEEEEENS_6statusES2_ _ZN10cc1_plugin10connection4sendEc 48
_ZN10cc1_plugin8callbackIyXadL_Z16plugin_bool_typePNS_10connectionEEEEENS_6statusES2_ _ZN10cc1_plugin16marshall_intlikeEPNS_10connectionEy 69
_ZN10cc1_plugin8callbackIyXadL_Z16plugin_void_typePNS_10connectionEEEEENS_6statusES2_ _ZN10cc1_plugin16unmarshall_checkEPNS_10connectionEy 12
_ZN10cc1_plugin8callbackIyXadL_Z16plugin_void_typePNS_10connectionEEEEENS_6statusES2_ global_trees 43
_ZN10cc1_plugin8callbackIyXadL_Z16plugin_void_typePNS_10connectionEEEEENS_6statusES2_ _ZN10cc1_plugin10connection4sendEc 48
_ZN10cc1_plugin8callbackIyXadL_Z16plugin_void_typePNS_10connectionEEEEENS_6statusES2_ _ZN10cc1_plugin16marshall_intlikeEPNS_10connectionEy 69
_ZN10cc1_plugin8callbackIiyiXadL_Z11plugin_bindPNS_10connectionEyiEEEENS_6statusES2_ _ZN10cc1_plugin16unmarshall_checkEPNS_10connectionEy 15
_ZN10cc1_plugin8callbackIiyiXadL_Z11plugin_bindPNS_10connectionEyiEEEENS_6statusES2_ _ZN10cc1_plugin18unmarshall_intlikeEPNS_10connectionEPy 41
_ZN10cc1_plugin8callbackIiyiXadL_Z11plugin_bindPNS_10connectionEyiEEEENS_6statusES2_ _ZN10cc1_plugin18unmarshall_intlikeEPNS_10connectionEPy 63
_ZN10cc1_plugin8callbackIiyiXadL_Z11plugin_bindPNS_10connectionEyiEEEENS_6statusES2_ _Z11plugin_bindPN10cc1_plugin10connectionEyi 82
_ZN10cc1_plugin8callbackIiyiXadL_Z11plugin_bindPNS_10connectionEyiEEEENS_6statusES2_ _ZN10cc1_plugin10connection4sendEc 97
_ZN10cc1_plugin8callbackIiyiXadL_Z11plugin_bindPNS_10connectionEyiEEEENS_6statusES2_ _ZN10cc1_plugin16marshall_intlikeEPNS_10connectionEy 112
_ZN10cc1_plugin8callbackIiyPKcymmXadL_Z22plugin_build_add_fieldPNS_10connectionEyS2_ymmEEEENS_6statusES4_ _ZN10cc1_plugin16unmarshall_checkEPNS_10connectionEy 29
_ZN10cc1_plugin8callbackIiyPKcymmXadL_Z22plugin_build_add_fieldPNS_10connectionEyS2_ymmEEEENS_6statusES4_ _ZdaPv 49
_ZN10cc1_plugin8callbackIiyPKcymmXadL_Z22plugin_build_add_fieldPNS_10connectionEyS2_ymmEEEENS_6statusES4_ _ZN10cc1_plugin18unmarshall_intlikeEPNS_10connectionEPy 81
_ZN10cc1_plugin8callbackIiyPKcymmXadL_Z22plugin_build_add_fieldPNS_10connectionEyS2_ymmEEEENS_6statusES4_ _ZN10cc1_plugin10unmarshallEPNS_10connectionEPPc 103
_ZN10cc1_plugin8callbackIiyPKcymmXadL_Z22plugin_build_add_fieldPNS_10connectionEyS2_ymmEEEENS_6statusES4_ _ZN10cc1_plugin18unmarshall_intlikeEPNS_10connectionEPy 120
_ZN10cc1_plugin8callbackIiyPKcymmXadL_Z22plugin_build_add_fieldPNS_10connectionEyS2_ymmEEEENS_6statusES4_ _ZN10cc1_plugin18unmarshall_intlikeEPNS_10connectionEPy 144
_ZN10cc1_plugin8callbackIiyPKcymmXadL_Z22plugin_build_add_fieldPNS_10connectionEyS2_ymmEEEENS_6statusES4_ _ZN10cc1_plugin18unmarshall_intlikeEPNS_10connectionEPy 168
_ZN10cc1_plugin8callbackIiyPKcymmXadL_Z22plugin_build_add_fieldPNS_10connectionEyS2_ymmEEEENS_6statusES4_ _Z22plugin_build_add_fieldPN10cc1_plugin10connectionEyPKcymm 204
_ZN10cc1_plugin8callbackIiyPKcymmXadL_Z22plugin_build_add_fieldPNS_10connectionEyS2_ymmEEEENS_6statusES4_ _ZN10cc1_plugin10connection4sendEc 219
_ZN10cc1_plugin8callbackIiyPKcymmXadL_Z22plugin_build_add_fieldPNS_10connectionEyS2_ymmEEEENS_6statusES4_ _ZN10cc1_plugin16marshall_intlikeEPNS_10connectionEy 238
_ZN10cc1_plugin8callbackIiyPKcymmXadL_Z22plugin_build_add_fieldPNS_10connectionEyS2_ymmEEEENS_6statusES4_ _ZdaPv 262
_ZN10cc1_plugin8callbackIiyPKcymmXadL_Z22plugin_build_add_fieldPNS_10connectionEyS2_ymmEEEENS_6statusES4_ _Unwind_Resume 270
_ZN10cc1_plugin8callbackIiymXadL_Z29plugin_finish_record_or_unionPNS_10connectionEymEEEENS_6statusES2_ _ZN10cc1_plugin16unmarshall_checkEPNS_10connectionEy 15
_ZN10cc1_plugin8callbackIiymXadL_Z29plugin_finish_record_or_unionPNS_10connectionEymEEEENS_6statusES2_ _ZN10cc1_plugin18unmarshall_intlikeEPNS_10connectionEPy 41
_ZN10cc1_plugin8callbackIiymXadL_Z29plugin_finish_record_or_unionPNS_10connectionEymEEEENS_6statusES2_ _ZN10cc1_plugin18unmarshall_intlikeEPNS_10connectionEPy 63
_ZN10cc1_plugin8callbackIiymXadL_Z29plugin_finish_record_or_unionPNS_10connectionEymEEEENS_6statusES2_ _Z29plugin_finish_record_or_unionPN10cc1_plugin10connectionEym 83
_ZN10cc1_plugin8callbackIiymXadL_Z29plugin_finish_record_or_unionPNS_10connectionEymEEEENS_6statusES2_ _ZN10cc1_plugin10connection4sendEc 98
_ZN10cc1_plugin8callbackIiymXadL_Z29plugin_finish_record_or_unionPNS_10connectionEymEEEENS_6statusES2_ _ZN10cc1_plugin16marshall_intlikeEPNS_10connectionEy 113
_ZN10cc1_plugin8callbackIiyPKcmXadL_Z30plugin_build_add_enum_constantPNS_10connectionEyS2_mEEEENS_6statusES4_ _ZN10cc1_plugin16unmarshall_checkEPNS_10connectionEy 25
_ZN10cc1_plugin8callbackIiyPKcmXadL_Z30plugin_build_add_enum_constantPNS_10connectionEyS2_mEEEENS_6statusES4_ _ZdaPv 45
_ZN10cc1_plugin8callbackIiyPKcmXadL_Z30plugin_build_add_enum_constantPNS_10connectionEyS2_mEEEENS_6statusES4_ _ZN10cc1_plugin18unmarshall_intlikeEPNS_10connectionEPy 73
_ZN10cc1_plugin8callbackIiyPKcmXadL_Z30plugin_build_add_enum_constantPNS_10connectionEyS2_mEEEENS_6statusES4_ _ZN10cc1_plugin10unmarshallEPNS_10connectionEPPc 95
_ZN10cc1_plugin8callbackIiyPKcmXadL_Z30plugin_build_add_enum_constantPNS_10connectionEyS2_mEEEENS_6statusES4_ _ZN10cc1_plugin18unmarshall_intlikeEPNS_10connectionEPy 112
_ZN10cc1_plugin8callbackIiyPKcmXadL_Z30plugin_build_add_enum_constantPNS_10connectionEyS2_mEEEENS_6statusES4_ _Z30plugin_build_add_enum_constantPN10cc1_plugin10connectionEyPKcm 138
_ZN10cc1_plugin8callbackIiyPKcmXadL_Z30plugin_build_add_enum_constantPNS_10connectionEyS2_mEEEENS_6statusES4_ _ZN10cc1_plugin10connection4sendEc 153
_ZN10cc1_plugin8callbackIiyPKcmXadL_Z30plugin_build_add_enum_constantPNS_10connectionEyS2_mEEEENS_6statusES4_ _ZN10cc1_plugin16marshall_intlikeEPNS_10connectionEy 168
_ZN10cc1_plugin8callbackIiyPKcmXadL_Z30plugin_build_add_enum_constantPNS_10connectionEyS2_mEEEENS_6statusES4_ _ZdaPv 192
_ZN10cc1_plugin8callbackIiyPKcmXadL_Z30plugin_build_add_enum_constantPNS_10connectionEyS2_mEEEENS_6statusES4_ _Unwind_Resume 200
_ZN10cc1_plugin8callbackIiyXadL_Z23plugin_finish_enum_typePNS_10connectionEyEEEENS_6statusES2_ _ZN10cc1_plugin16unmarshall_checkEPNS_10connectionEy 15
_ZN10cc1_plugin8callbackIiyXadL_Z23plugin_finish_enum_typePNS_10connectionEyEEEENS_6statusES2_ _ZN10cc1_plugin18unmarshall_intlikeEPNS_10connectionEPy 41
_ZN10cc1_plugin8callbackIiyXadL_Z23plugin_finish_enum_typePNS_10connectionEyEEEENS_6statusES2_ _Z22finish_enum_value_listP9tree_node 58
_ZN10cc1_plugin8callbackIiyXadL_Z23plugin_finish_enum_typePNS_10connectionEyEEEENS_6statusES2_ _Z11finish_enumP9tree_node 66
_ZN10cc1_plugin8callbackIiyXadL_Z23plugin_finish_enum_typePNS_10connectionEyEEEENS_6statusES2_ _ZN10cc1_plugin10connection4sendEc 79
_ZN10cc1_plugin8callbackIiyXadL_Z23plugin_finish_enum_typePNS_10connectionEyEEEENS_6statusES2_ _ZN10cc1_plugin16marshall_intlikeEPNS_10connectionEy 96
_ZN10cc1_plugin8callbackIymPKcXadL_Z17plugin_float_typePNS_10connectionEmS2_EEEENS_6statusES4_ _ZN10cc1_plugin16unmarshall_checkEPNS_10connectionEy 23
_ZN10cc1_plugin8callbackIymPKcXadL_Z17plugin_float_typePNS_10connectionEmS2_EEEENS_6statusES4_ _ZdaPv 43
_ZN10cc1_plugin8callbackIymPKcXadL_Z17plugin_float_typePNS_10connectionEmS2_EEEENS_6statusES4_ _ZN10cc1_plugin18unmarshall_intlikeEPNS_10connectionEPy 73
_ZN10cc1_plugin8callbackIymPKcXadL_Z17plugin_float_typePNS_10connectionEmS2_EEEENS_6statusES4_ _ZN10cc1_plugin10unmarshallEPNS_10connectionEPPc 95
_ZN10cc1_plugin8callbackIymPKcXadL_Z17plugin_float_typePNS_10connectionEmS2_EEEENS_6statusES4_ _Z17plugin_float_typePN10cc1_plugin10connectionEmPKc 114
_ZN10cc1_plugin8callbackIymPKcXadL_Z17plugin_float_typePNS_10connectionEmS2_EEEENS_6statusES4_ _ZN10cc1_plugin10connection4sendEc 130
_ZN10cc1_plugin8callbackIymPKcXadL_Z17plugin_float_typePNS_10connectionEmS2_EEEENS_6statusES4_ _ZN10cc1_plugin16marshall_intlikeEPNS_10connectionEy 145
_ZN10cc1_plugin8callbackIymPKcXadL_Z17plugin_float_typePNS_10connectionEmS2_EEEENS_6statusES4_ _ZdaPv 166
_ZN10cc1_plugin8callbackIymPKcXadL_Z17plugin_float_typePNS_10connectionEmS2_EEEENS_6statusES4_ _Unwind_Resume 174
_ZN10cc1_plugin8callbackIyy14gcc_qualifiersXadL_Z27plugin_build_qualified_typePNS_10connectionEyS1_EEEENS_6statusES3_ _ZN10cc1_plugin16unmarshall_checkEPNS_10connectionEy 15
_ZN10cc1_plugin8callbackIyy14gcc_qualifiersXadL_Z27plugin_build_qualified_typePNS_10connectionEyS1_EEEENS_6statusES3_ _ZN10cc1_plugin18unmarshall_intlikeEPNS_10connectionEPy 41
_ZN10cc1_plugin8callbackIyy14gcc_qualifiersXadL_Z27plugin_build_qualified_typePNS_10connectionEyS1_EEEENS_6statusES3_ _ZN10cc1_plugin18unmarshall_intlikeEPNS_10connectionEPy 63
_ZN10cc1_plugin8callbackIyy14gcc_qualifiersXadL_Z27plugin_build_qualified_typePNS_10connectionEyS1_EEEENS_6statusES3_ _Z27plugin_build_qualified_typePN10cc1_plugin10connectionEy14gcc_qualifiers 82
_ZN10cc1_plugin8callbackIyy14gcc_qualifiersXadL_Z27plugin_build_qualified_typePNS_10connectionEyS1_EEEENS_6statusES3_ _ZN10cc1_plugin10connection4sendEc 98
_ZN10cc1_plugin8callbackIyy14gcc_qualifiersXadL_Z27plugin_build_qualified_typePNS_10connectionEyS1_EEEENS_6statusES3_ _ZN10cc1_plugin16marshall_intlikeEPNS_10connectionEy 113
_ZN10hash_tableI16decl_addr_hasherLb0E11xcallocatorED1Ev,_ZN10hash_tableI16decl_addr_hasherLb0E11xcallocatorED2Ev free 46
_ZN10hash_tableI16decl_addr_hasherLb0E11xcallocatorED1Ev,_ZN10hash_tableI16decl_addr_hasherLb0E11xcallocatorED2Ev _Z8ggc_freePv 82
_ZN10hash_tableI16decl_addr_hasherLb0E11xcallocatorED1Ev,_ZN10hash_tableI16decl_addr_hasherLb0E11xcallocatorED2Ev free 101
_ZN10hash_tableI15nofree_ptr_hashI9tree_nodeELb0E11xcallocatorED1Ev,_ZN10hash_tableI15nofree_ptr_hashI9tree_nodeELb0E11xcallocatorED2Ev _Z8ggc_freePv 35
_ZN10hash_tableI15nofree_ptr_hashI9tree_nodeELb0E11xcallocatorED1Ev,_ZN10hash_tableI15nofree_ptr_hashI9tree_nodeELb0E11xcallocatorED2Ev free 49
_ZN14plugin_contextD1Ev,_ZN14plugin_contextD2Ev _ZTV14plugin_context 19
_ZN14plugin_contextD1Ev,_ZN14plugin_contextD2Ev _Z8ggc_freePv 55
_ZN14plugin_contextD1Ev,_ZN14plugin_contextD2Ev _ZN10hash_tableI15nofree_ptr_hashI9tree_nodeELb0E11xcallocatorED1Ev 64
_ZN14plugin_contextD1Ev,_ZN14plugin_contextD2Ev _ZN10hash_tableI16decl_addr_hasherLb0E11xcallocatorED1Ev 73
_ZN14plugin_contextD1Ev,_ZN14plugin_contextD2Ev free 97
_ZN14plugin_contextD1Ev,_ZN14plugin_contextD2Ev _ZN10hash_tableI15nofree_ptr_hashI9tree_nodeELb0E11xcallocatorED1Ev 121
_ZN14plugin_contextD1Ev,_ZN14plugin_contextD2Ev _ZN10hash_tableI16decl_addr_hasherLb0E11xcallocatorED1Ev 130
_ZN14plugin_contextD1Ev,_ZN14plugin_contextD2Ev _ZN10cc1_plugin10connectionD2Ev 138
_ZN14plugin_contextD1Ev,_ZN14plugin_contextD2Ev _Unwind_Resume 146
_ZN14plugin_contextD1Ev,_ZN14plugin_contextD2Ev _ZN10cc1_plugin10connectionD2Ev 87
_ZN14plugin_contextD0Ev _ZTV14plugin_context 19
_ZN14plugin_contextD0Ev _Z8ggc_freePv 55
_ZN14plugin_contextD0Ev _ZN10hash_tableI15nofree_ptr_hashI9tree_nodeELb0E11xcallocatorED1Ev 64
_ZN14plugin_contextD0Ev _ZN10hash_tableI16decl_addr_hasherLb0E11xcallocatorED1Ev 73
_ZN14plugin_contextD0Ev _ZN10cc1_plugin10connectionD2Ev 81
_ZN14plugin_contextD0Ev free 105
_ZN14plugin_contextD0Ev _ZN10hash_tableI15nofree_ptr_hashI9tree_nodeELb0E11xcallocatorED1Ev 129
_ZN14plugin_contextD0Ev _ZN10hash_tableI16decl_addr_hasherLb0E11xcallocatorED1Ev 138
_ZN14plugin_contextD0Ev _ZN10cc1_plugin10connectionD2Ev 146
_ZN14plugin_contextD0Ev _Unwind_Resume 154
_ZN14plugin_contextD0Ev _ZdlPv 95
_ZN10hash_tableI16decl_addr_hasherLb0E11xcallocatorE14find_with_hashERKP15decl_addr_valuej prime_tab 32
_ZN10hash_tableI16decl_addr_hasherLb0E11xcallocatorE14find_with_hashERKP15decl_addr_valuej prime_tab 39
_ZN10hash_tableI16decl_addr_hasherLb0E11xcallocatorE14find_with_hashERKP15decl_addr_valuej prime_tab 46
_ZN10hash_tableI16decl_addr_hasherLb0E11xcallocatorE14find_with_hashERKP15decl_addr_valuej prime_tab 125
_ZN10hash_tableI15nofree_ptr_hashI9tree_nodeELb0E11xcallocatorE6expandEv xcalloc 85
_ZN10hash_tableI15nofree_ptr_hashI9tree_nodeELb0E11xcallocatorE6expandEv prime_tab 144
_ZN10hash_tableI15nofree_ptr_hashI9tree_nodeELb0E11xcallocatorE6expandEv prime_tab 154
_ZN10hash_tableI15nofree_ptr_hashI9tree_nodeELb0E11xcallocatorE6expandEv _Z26ggc_internal_cleared_allocmPFvPvEmm 367
_ZN10hash_tableI15nofree_ptr_hashI9tree_nodeELb0E11xcallocatorE6expandEv _Z11fancy_abortPKciS0_ 396
_ZN10hash_tableI15nofree_ptr_hashI9tree_nodeELb0E11xcallocatorE6expandEv _Z29hash_table_higher_prime_indexm 417
_ZN10hash_tableI15nofree_ptr_hashI9tree_nodeELb0E11xcallocatorE6expandEv prime_tab 432
_ZN10hash_tableI15nofree_ptr_hashI9tree_nodeELb0E11xcallocatorE6expandEv _Z8ggc_freePv 333
_ZN10hash_tableI15nofree_ptr_hashI9tree_nodeELb0E11xcallocatorE6expandEv free 463
_ZN10cc1_plugin8callbackIyXadL_Z23plugin_build_union_typePNS_10connectionEEEEENS_6statusES2_ _ZN10cc1_plugin16unmarshall_checkEPNS_10connectionEy 12
_ZN10cc1_plugin8callbackIyXadL_Z23plugin_build_union_typePNS_10connectionEEEEENS_6statusES2_ _Z23plugin_build_union_typePN10cc1_plugin10connectionE 36
_ZN10cc1_plugin8callbackIyXadL_Z23plugin_build_union_typePNS_10connectionEEEEENS_6statusES2_ _ZN10cc1_plugin10connection4sendEc 52
_ZN10cc1_plugin8callbackIyXadL_Z23plugin_build_union_typePNS_10connectionEEEEENS_6statusES2_ _ZN10cc1_plugin16marshall_intlikeEPNS_10connectionEy 73
_ZN10cc1_plugin8callbackIyXadL_Z24plugin_build_record_typePNS_10connectionEEEEENS_6statusES2_ _ZN10cc1_plugin16unmarshall_checkEPNS_10connectionEy 12
_ZN10cc1_plugin8callbackIyXadL_Z24plugin_build_record_typePNS_10connectionEEEEENS_6statusES2_ _Z24plugin_build_record_typePN10cc1_plugin10connectionE 36
_ZN10cc1_plugin8callbackIyXadL_Z24plugin_build_record_typePNS_10connectionEEEEENS_6statusES2_ _ZN10cc1_plugin10connection4sendEc 52
_ZN10cc1_plugin8callbackIyXadL_Z24plugin_build_record_typePNS_10connectionEEEEENS_6statusES2_ _ZN10cc1_plugin16marshall_intlikeEPNS_10connectionEy 73
_ZN10cc1_plugin8callbackIyyXadL_Z25plugin_build_complex_typePNS_10connectionEyEEEENS_6statusES2_ _ZN10cc1_plugin16unmarshall_checkEPNS_10connectionEy 15
_ZN10cc1_plugin8callbackIyyXadL_Z25plugin_build_complex_typePNS_10connectionEyEEEENS_6statusES2_ _ZN10cc1_plugin18unmarshall_intlikeEPNS_10connectionEPy 41
_ZN10cc1_plugin8callbackIyyXadL_Z25plugin_build_complex_typePNS_10connectionEyEEEENS_6statusES2_ _Z25plugin_build_complex_typePN10cc1_plugin10connectionEy 58
_ZN10cc1_plugin8callbackIyyXadL_Z25plugin_build_complex_typePNS_10connectionEyEEEENS_6statusES2_ _ZN10cc1_plugin10connection4sendEc 74
_ZN10cc1_plugin8callbackIyyXadL_Z25plugin_build_complex_typePNS_10connectionEyEEEENS_6statusES2_ _ZN10cc1_plugin16marshall_intlikeEPNS_10connectionEy 89
_ZN10cc1_plugin8callbackIyyXadL_Z22plugin_build_enum_typePNS_10connectionEyEEEENS_6statusES2_ _ZN10cc1_plugin16unmarshall_checkEPNS_10connectionEy 15
_ZN10cc1_plugin8callbackIyyXadL_Z22plugin_build_enum_typePNS_10connectionEyEEEENS_6statusES2_ _ZN10cc1_plugin18unmarshall_intlikeEPNS_10connectionEPy 41
_ZN10cc1_plugin8callbackIyyXadL_Z22plugin_build_enum_typePNS_10connectionEyEEEENS_6statusES2_ _Z22plugin_build_enum_typePN10cc1_plugin10connectionEy 58
_ZN10cc1_plugin8callbackIyyXadL_Z22plugin_build_enum_typePNS_10connectionEyEEEENS_6statusES2_ _ZN10cc1_plugin10connection4sendEc 74
_ZN10cc1_plugin8callbackIyyXadL_Z22plugin_build_enum_typePNS_10connectionEyEEEENS_6statusES2_ _ZN10cc1_plugin16marshall_intlikeEPNS_10connectionEy 89
_ZN10cc1_plugin8callbackIyyiXadL_Z24plugin_build_vector_typePNS_10connectionEyiEEEENS_6statusES2_ _ZN10cc1_plugin16unmarshall_checkEPNS_10connectionEy 15
_ZN10cc1_plugin8callbackIyyiXadL_Z24plugin_build_vector_typePNS_10connectionEyiEEEENS_6statusES2_ _ZN10cc1_plugin18unmarshall_intlikeEPNS_10connectionEPy 41
_ZN10cc1_plugin8callbackIyyiXadL_Z24plugin_build_vector_typePNS_10connectionEyiEEEENS_6statusES2_ _ZN10cc1_plugin18unmarshall_intlikeEPNS_10connectionEPy 63
_ZN10cc1_plugin8callbackIyyiXadL_Z24plugin_build_vector_typePNS_10connectionEyiEEEENS_6statusES2_ _Z24plugin_build_vector_typePN10cc1_plugin10connectionEyi 82
_ZN10cc1_plugin8callbackIyyiXadL_Z24plugin_build_vector_typePNS_10connectionEyiEEEENS_6statusES2_ _ZN10cc1_plugin10connection4sendEc 98
_ZN10cc1_plugin8callbackIyyiXadL_Z24plugin_build_vector_typePNS_10connectionEyiEEEENS_6statusES2_ _ZN10cc1_plugin16marshall_intlikeEPNS_10connectionEy 113
_ZN10cc1_plugin8callbackIyyiXadL_Z23plugin_build_array_typePNS_10connectionEyiEEEENS_6statusES2_ _ZN10cc1_plugin16unmarshall_checkEPNS_10connectionEy 15
_ZN10cc1_plugin8callbackIyyiXadL_Z23plugin_build_array_typePNS_10connectionEyiEEEENS_6statusES2_ _ZN10cc1_plugin18unmarshall_intlikeEPNS_10connectionEPy 41
_ZN10cc1_plugin8callbackIyyiXadL_Z23plugin_build_array_typePNS_10connectionEyiEEEENS_6statusES2_ _ZN10cc1_plugin18unmarshall_intlikeEPNS_10connectionEPy 63
_ZN10cc1_plugin8callbackIyyiXadL_Z23plugin_build_array_typePNS_10connectionEyiEEEENS_6statusES2_ _Z23plugin_build_array_typePN10cc1_plugin10connectionEyi 82
_ZN10cc1_plugin8callbackIyyiXadL_Z23plugin_build_array_typePNS_10connectionEyiEEEENS_6statusES2_ _ZN10cc1_plugin10connection4sendEc 98
_ZN10cc1_plugin8callbackIyyiXadL_Z23plugin_build_array_typePNS_10connectionEyiEEEENS_6statusES2_ _ZN10cc1_plugin16marshall_intlikeEPNS_10connectionEy 113
_ZN10cc1_plugin8callbackIyimXadL_Z18plugin_int_type_v0PNS_10connectionEimEEEENS_6statusES2_ _ZN10cc1_plugin16unmarshall_checkEPNS_10connectionEy 15
_ZN10cc1_plugin8callbackIyimXadL_Z18plugin_int_type_v0PNS_10connectionEimEEEENS_6statusES2_ _ZN10cc1_plugin18unmarshall_intlikeEPNS_10connectionEPy 41
_ZN10cc1_plugin8callbackIyimXadL_Z18plugin_int_type_v0PNS_10connectionEimEEEENS_6statusES2_ _ZN10cc1_plugin18unmarshall_intlikeEPNS_10connectionEPy 63
_ZN10cc1_plugin8callbackIyimXadL_Z18plugin_int_type_v0PNS_10connectionEimEEEENS_6statusES2_ _Z18plugin_int_type_v0PN10cc1_plugin10connectionEim 82
_ZN10cc1_plugin8callbackIyimXadL_Z18plugin_int_type_v0PNS_10connectionEimEEEENS_6statusES2_ _ZN10cc1_plugin10connection4sendEc 98
_ZN10cc1_plugin8callbackIyimXadL_Z18plugin_int_type_v0PNS_10connectionEimEEEENS_6statusES2_ _ZN10cc1_plugin16marshall_intlikeEPNS_10connectionEy 113
_ZN10cc1_plugin8callbackIyimPKcXadL_Z15plugin_int_typePNS_10connectionEimS2_EEEENS_6statusES4_ _ZN10cc1_plugin16unmarshall_checkEPNS_10connectionEy 25
_ZN10cc1_plugin8callbackIyimPKcXadL_Z15plugin_int_typePNS_10connectionEimS2_EEEENS_6statusES4_ _ZdaPv 45
_ZN10cc1_plugin8callbackIyimPKcXadL_Z15plugin_int_typePNS_10connectionEimS2_EEEENS_6statusES4_ _ZN10cc1_plugin18unmarshall_intlikeEPNS_10connectionEPy 73
_ZN10cc1_plugin8callbackIyimPKcXadL_Z15plugin_int_typePNS_10connectionEimS2_EEEENS_6statusES4_ _ZN10cc1_plugin18unmarshall_intlikeEPNS_10connectionEPy 97
_ZN10cc1_plugin8callbackIyimPKcXadL_Z15plugin_int_typePNS_10connectionEimS2_EEEENS_6statusES4_ _ZN10cc1_plugin10unmarshallEPNS_10connectionEPPc 119
_ZN10cc1_plugin8callbackIyimPKcXadL_Z15plugin_int_typePNS_10connectionEimS2_EEEENS_6statusES4_ _Z15plugin_int_typePN10cc1_plugin10connectionEimPKc 141
_ZN10cc1_plugin8callbackIyimPKcXadL_Z15plugin_int_typePNS_10connectionEimS2_EEEENS_6statusES4_ _ZN10cc1_plugin10connection4sendEc 157
_ZN10cc1_plugin8callbackIyimPKcXadL_Z15plugin_int_typePNS_10connectionEimS2_EEEENS_6statusES4_ _ZN10cc1_plugin16marshall_intlikeEPNS_10connectionEy 176
_ZN10cc1_plugin8callbackIyimPKcXadL_Z15plugin_int_typePNS_10connectionEimS2_EEEENS_6statusES4_ _ZdaPv 200
_ZN10cc1_plugin8callbackIyimPKcXadL_Z15plugin_int_typePNS_10connectionEimS2_EEEENS_6statusES4_ _Unwind_Resume 208
_ZN10cc1_plugin8callbackIyyPKcXadL_Z27plugin_build_vla_array_typePNS_10connectionEyS2_EEEENS_6statusES4_ _ZN10cc1_plugin16unmarshall_checkEPNS_10connectionEy 23
_ZN10cc1_plugin8callbackIyyPKcXadL_Z27plugin_build_vla_array_typePNS_10connectionEyS2_EEEENS_6statusES4_ _ZdaPv 43
_ZN10cc1_plugin8callbackIyyPKcXadL_Z27plugin_build_vla_array_typePNS_10connectionEyS2_EEEENS_6statusES4_ _ZN10cc1_plugin18unmarshall_intlikeEPNS_10connectionEPy 73
_ZN10cc1_plugin8callbackIyyPKcXadL_Z27plugin_build_vla_array_typePNS_10connectionEyS2_EEEENS_6statusES4_ _ZN10cc1_plugin10unmarshallEPNS_10connectionEPPc 95
_ZN10cc1_plugin8callbackIyyPKcXadL_Z27plugin_build_vla_array_typePNS_10connectionEyS2_EEEENS_6statusES4_ _Z27plugin_build_vla_array_typePN10cc1_plugin10connectionEyPKc 114
_ZN10cc1_plugin8callbackIyyPKcXadL_Z27plugin_build_vla_array_typePNS_10connectionEyS2_EEEENS_6statusES4_ _ZN10cc1_plugin10connection4sendEc 130
_ZN10cc1_plugin8callbackIyyPKcXadL_Z27plugin_build_vla_array_typePNS_10connectionEyS2_EEEENS_6statusES4_ _ZN10cc1_plugin16marshall_intlikeEPNS_10connectionEy 145
_ZN10cc1_plugin8callbackIyyPKcXadL_Z27plugin_build_vla_array_typePNS_10connectionEyS2_EEEENS_6statusES4_ _ZdaPv 166
_ZN10cc1_plugin8callbackIyyPKcXadL_Z27plugin_build_vla_array_typePNS_10connectionEyS2_EEEENS_6statusES4_ _Unwind_Resume 174
_ZN10cc1_plugin8callbackIyyPK14gcc_type_arrayiXadL_Z26plugin_build_function_typePNS_10connectionEyS3_iEEEENS_6statusES5_ _ZN10cc1_plugin16unmarshall_checkEPNS_10connectionEy 30
_ZN10cc1_plugin8callbackIyyPK14gcc_type_arrayiXadL_Z26plugin_build_function_typePNS_10connectionEyS3_iEEEENS_6statusES5_ _ZN10cc1_plugin18unmarshall_intlikeEPNS_10connectionEPy 50
_ZN10cc1_plugin8callbackIyyPK14gcc_type_arrayiXadL_Z26plugin_build_function_typePNS_10connectionEyS3_iEEEENS_6statusES5_ _ZdaPv 79
_ZN10cc1_plugin8callbackIyyPK14gcc_type_arrayiXadL_Z26plugin_build_function_typePNS_10connectionEyS3_iEEEENS_6statusES5_ _ZdlPv 91
_ZN10cc1_plugin8callbackIyyPK14gcc_type_arrayiXadL_Z26plugin_build_function_typePNS_10connectionEyS3_iEEEENS_6statusES5_ _ZN10cc1_plugin10unmarshallEPNS_10connectionEPP14gcc_type_array 127
_ZN10cc1_plugin8callbackIyyPK14gcc_type_arrayiXadL_Z26plugin_build_function_typePNS_10connectionEyS3_iEEEENS_6statusES5_ _ZN10cc1_plugin18unmarshall_intlikeEPNS_10connectionEPy 153
_ZN10cc1_plugin8callbackIyyPK14gcc_type_arrayiXadL_Z26plugin_build_function_typePNS_10connectionEyS3_iEEEENS_6statusES5_ _Z26plugin_build_function_typePN10cc1_plugin10connectionEyPK14gcc_type_arrayi 178
_ZN10cc1_plugin8callbackIyyPK14gcc_type_arrayiXadL_Z26plugin_build_function_typePNS_10connectionEyS3_iEEEENS_6statusES5_ _ZN10cc1_plugin10connection4sendEc 194
_ZN10cc1_plugin8callbackIyyPK14gcc_type_arrayiXadL_Z26plugin_build_function_typePNS_10connectionEyS3_iEEEENS_6statusES5_ _ZN10cc1_plugin16marshall_intlikeEPNS_10connectionEy 209
_ZN10cc1_plugin8callbackIyyPK14gcc_type_arrayiXadL_Z26plugin_build_function_typePNS_10connectionEyS3_iEEEENS_6statusES5_ _ZN10cc1_plugin16argument_wrapperIPK14gcc_type_arrayED1Ev 227
_ZN10cc1_plugin8callbackIyyPK14gcc_type_arrayiXadL_Z26plugin_build_function_typePNS_10connectionEyS3_iEEEENS_6statusES5_ _Unwind_Resume 235
_ZN10hash_tableI13string_hasherLb0E11xcallocatorE6expandEv xcalloc 81
_ZN10hash_tableI13string_hasherLb0E11xcallocatorE6expandEv htab_hash_string 143
_ZN10hash_tableI13string_hasherLb0E11xcallocatorE6expandEv prime_tab 172
_ZN10hash_tableI13string_hasherLb0E11xcallocatorE6expandEv prime_tab 178
_ZN10hash_tableI13string_hasherLb0E11xcallocatorE6expandEv _Z26ggc_internal_cleared_allocmPFvPvEmm 375
_ZN10hash_tableI13string_hasherLb0E11xcallocatorE6expandEv _Z11fancy_abortPKciS0_ 404
_ZN10hash_tableI13string_hasherLb0E11xcallocatorE6expandEv _Z29hash_table_higher_prime_indexm 433
_ZN10hash_tableI13string_hasherLb0E11xcallocatorE6expandEv prime_tab 449
_ZN10hash_tableI13string_hasherLb0E11xcallocatorE6expandEv _Z8ggc_freePv 342
_ZN10hash_tableI13string_hasherLb0E11xcallocatorE6expandEv free 473
_ZN10hash_tableI13string_hasherLb0E11xcallocatorE19find_slot_with_hashERKPKcj13insert_option prime_tab 66
_ZN10hash_tableI13string_hasherLb0E11xcallocatorE19find_slot_with_hashERKPKcj13insert_option prime_tab 72
_ZN10hash_tableI13string_hasherLb0E11xcallocatorE19find_slot_with_hashERKPKcj13insert_option prime_tab 79
_ZN10hash_tableI13string_hasherLb0E11xcallocatorE19find_slot_with_hashERKPKcj13insert_option prime_tab 85
_ZN10hash_tableI13string_hasherLb0E11xcallocatorE19find_slot_with_hashERKPKcj13insert_option strcmp 176
_ZN10hash_tableI13string_hasherLb0E11xcallocatorE19find_slot_with_hashERKPKcj13insert_option strcmp 281
_ZN10hash_tableI13string_hasherLb0E11xcallocatorE19find_slot_with_hashERKPKcj13insert_option _ZN10hash_tableI13string_hasherLb0E11xcallocatorE6expandEv 442
_ZN10cc1_plugin8callbackIiyPKcmS2_jXadL_Z21plugin_build_constantPNS_10connectionEyS2_mS2_jEEEENS_6statusES4_ _ZN10cc1_plugin16unmarshall_checkEPNS_10connectionEy 36
_ZN10cc1_plugin8callbackIiyPKcmS2_jXadL_Z21plugin_build_constantPNS_10connectionEyS2_mS2_jEEEENS_6statusES4_ _ZdaPv 57
_ZN10cc1_plugin8callbackIiyPKcmS2_jXadL_Z21plugin_build_constantPNS_10connectionEyS2_mS2_jEEEENS_6statusES4_ _ZdaPv 71
_ZN10cc1_plugin8callbackIiyPKcmS2_jXadL_Z21plugin_build_constantPNS_10connectionEyS2_mS2_jEEEENS_6statusES4_ _ZN10cc1_plugin18unmarshall_intlikeEPNS_10connectionEPy 105
_ZN10cc1_plugin8callbackIiyPKcmS2_jXadL_Z21plugin_build_constantPNS_10connectionEyS2_mS2_jEEEENS_6statusES4_ _ZN10cc1_plugin10unmarshallEPNS_10connectionEPPc 127
_ZN10cc1_plugin8callbackIiyPKcmS2_jXadL_Z21plugin_build_constantPNS_10connectionEyS2_mS2_jEEEENS_6statusES4_ _ZN10cc1_plugin18unmarshall_intlikeEPNS_10connectionEPy 144
_ZN10cc1_plugin8callbackIiyPKcmS2_jXadL_Z21plugin_build_constantPNS_10connectionEyS2_mS2_jEEEENS_6statusES4_ _ZN10cc1_plugin10unmarshallEPNS_10connectionEPPc 168
_ZN10cc1_plugin8callbackIiyPKcmS2_jXadL_Z21plugin_build_constantPNS_10connectionEyS2_mS2_jEEEENS_6statusES4_ _ZN10cc1_plugin18unmarshall_intlikeEPNS_10connectionEPy 189
_ZN10cc1_plugin8callbackIiyPKcmS2_jXadL_Z21plugin_build_constantPNS_10connectionEyS2_mS2_jEEEENS_6statusES4_ _Z21plugin_build_constantPN10cc1_plugin10connectionEyPKcmS3_j 227
_ZN10cc1_plugin8callbackIiyPKcmS2_jXadL_Z21plugin_build_constantPNS_10connectionEyS2_mS2_jEEEENS_6statusES4_ _ZN10cc1_plugin10connection4sendEc 242
_ZN10cc1_plugin8callbackIiyPKcmS2_jXadL_Z21plugin_build_constantPNS_10connectionEyS2_mS2_jEEEENS_6statusES4_ _ZN10cc1_plugin16marshall_intlikeEPNS_10connectionEy 261
_ZN10cc1_plugin8callbackIiyPKcmS2_jXadL_Z21plugin_build_constantPNS_10connectionEyS2_mS2_jEEEENS_6statusES4_ _ZdaPv 286
_ZN10cc1_plugin8callbackIiyPKcmS2_jXadL_Z21plugin_build_constantPNS_10connectionEyS2_mS2_jEEEENS_6statusES4_ _ZdaPv 300
_ZN10cc1_plugin8callbackIiyPKcmS2_jXadL_Z21plugin_build_constantPNS_10connectionEyS2_mS2_jEEEENS_6statusES4_ _Unwind_Resume 308
_ZN10cc1_plugin8callbackIiPKcyS2_jXadL_Z14plugin_tagbindPNS_10connectionES2_yS2_jEEEENS_6statusES4_ _ZN10cc1_plugin16unmarshall_checkEPNS_10connectionEy 34
_ZN10cc1_plugin8callbackIiPKcyS2_jXadL_Z14plugin_tagbindPNS_10connectionES2_yS2_jEEEENS_6statusES4_ _ZdaPv 55
_ZN10cc1_plugin8callbackIiPKcyS2_jXadL_Z14plugin_tagbindPNS_10connectionES2_yS2_jEEEENS_6statusES4_ _ZdaPv 69
_ZN10cc1_plugin8callbackIiPKcyS2_jXadL_Z14plugin_tagbindPNS_10connectionES2_yS2_jEEEENS_6statusES4_ _ZN10cc1_plugin10unmarshallEPNS_10connectionEPPc 95
_ZN10cc1_plugin8callbackIiPKcyS2_jXadL_Z14plugin_tagbindPNS_10connectionES2_yS2_jEEEENS_6statusES4_ _ZN10cc1_plugin18unmarshall_intlikeEPNS_10connectionEPy 112
_ZN10cc1_plugin8callbackIiPKcyS2_jXadL_Z14plugin_tagbindPNS_10connectionES2_yS2_jEEEENS_6statusES4_ _ZN10cc1_plugin10unmarshallEPNS_10connectionEPPc 136
_ZN10cc1_plugin8callbackIiPKcyS2_jXadL_Z14plugin_tagbindPNS_10connectionES2_yS2_jEEEENS_6statusES4_ _ZN10cc1_plugin18unmarshall_intlikeEPNS_10connectionEPy 153
_ZN10cc1_plugin8callbackIiPKcyS2_jXadL_Z14plugin_tagbindPNS_10connectionES2_yS2_jEEEENS_6statusES4_ _Z14plugin_tagbindPN10cc1_plugin10connectionEPKcyS3_j 184
_ZN10cc1_plugin8callbackIiPKcyS2_jXadL_Z14plugin_tagbindPNS_10connectionES2_yS2_jEEEENS_6statusES4_ _ZN10cc1_plugin10connection4sendEc 199
_ZN10cc1_plugin8callbackIiPKcyS2_jXadL_Z14plugin_tagbindPNS_10connectionES2_yS2_jEEEENS_6statusES4_ _ZN10cc1_plugin16marshall_intlikeEPNS_10connectionEy 218
_ZN10cc1_plugin8callbackIiPKcyS2_jXadL_Z14plugin_tagbindPNS_10connectionES2_yS2_jEEEENS_6statusES4_ _ZdaPv 243
_ZN10cc1_plugin8callbackIiPKcyS2_jXadL_Z14plugin_tagbindPNS_10connectionES2_yS2_jEEEENS_6statusES4_ _ZdaPv 257
_ZN10cc1_plugin8callbackIiPKcyS2_jXadL_Z14plugin_tagbindPNS_10connectionES2_yS2_jEEEENS_6statusES4_ _Unwind_Resume 265
_ZN10hash_tableI16decl_addr_hasherLb0E11xcallocatorE6expandEv xcalloc 85
_ZN10hash_tableI16decl_addr_hasherLb0E11xcallocatorE6expandEv prime_tab 147
_ZN10hash_tableI16decl_addr_hasherLb0E11xcallocatorE6expandEv prime_tab 154
_ZN10hash_tableI16decl_addr_hasherLb0E11xcallocatorE6expandEv _Z26ggc_internal_cleared_allocmPFvPvEmm 367
_ZN10hash_tableI16decl_addr_hasherLb0E11xcallocatorE6expandEv _Z11fancy_abortPKciS0_ 396
_ZN10hash_tableI16decl_addr_hasherLb0E11xcallocatorE6expandEv _Z29hash_table_higher_prime_indexm 417
_ZN10hash_tableI16decl_addr_hasherLb0E11xcallocatorE6expandEv prime_tab 432
_ZN10hash_tableI16decl_addr_hasherLb0E11xcallocatorE6expandEv _Z8ggc_freePv 337
_ZN10hash_tableI16decl_addr_hasherLb0E11xcallocatorE6expandEv free 463
_ZN10hash_tableI16decl_addr_hasherLb0E11xcallocatorE19find_slot_with_hashERKP15decl_addr_valuej13insert_option prime_tab 45
_ZN10hash_tableI16decl_addr_hasherLb0E11xcallocatorE19find_slot_with_hashERKP15decl_addr_valuej13insert_option prime_tab 51
_ZN10hash_tableI16decl_addr_hasherLb0E11xcallocatorE19find_slot_with_hashERKP15decl_addr_valuej13insert_option prime_tab 58
_ZN10hash_tableI16decl_addr_hasherLb0E11xcallocatorE19find_slot_with_hashERKP15decl_addr_valuej13insert_option prime_tab 64
_ZN10hash_tableI16decl_addr_hasherLb0E11xcallocatorE19find_slot_with_hashERKP15decl_addr_valuej13insert_option _ZN10hash_tableI16decl_addr_hasherLb0E11xcallocatorE6expandEv 350
_ZN10cc1_plugin8callbackIyPKc17gcc_c_symbol_kindyS2_yS2_jXadL_Z17plugin_build_declPNS_10connectionES2_S3_yS2_yS2_jEEEENS_6statusES5_ _ZN10cc1_plugin16unmarshall_checkEPNS_10connectionEy 50
_ZN10cc1_plugin8callbackIyPKc17gcc_c_symbol_kindyS2_yS2_jXadL_Z17plugin_build_declPNS_10connectionES2_S3_yS2_yS2_jEEEENS_6statusES5_ _ZdaPv 71
_ZN10cc1_plugin8callbackIyPKc17gcc_c_symbol_kindyS2_yS2_jXadL_Z17plugin_build_declPNS_10connectionES2_S3_yS2_yS2_jEEEENS_6statusES5_ _ZdaPv 85
_ZN10cc1_plugin8callbackIyPKc17gcc_c_symbol_kindyS2_yS2_jXadL_Z17plugin_build_declPNS_10connectionES2_S3_yS2_yS2_jEEEENS_6statusES5_ _ZdaPv 99
_ZN10cc1_plugin8callbackIyPKc17gcc_c_symbol_kindyS2_yS2_jXadL_Z17plugin_build_declPNS_10connectionES2_S3_yS2_yS2_jEEEENS_6statusES5_ _ZN10cc1_plugin10unmarshallEPNS_10connectionEPPc 136
_ZN10cc1_plugin8callbackIyPKc17gcc_c_symbol_kindyS2_yS2_jXadL_Z17plugin_build_declPNS_10connectionES2_S3_yS2_yS2_jEEEENS_6statusES5_ _ZN10cc1_plugin18unmarshall_intlikeEPNS_10connectionEPy 152
_ZN10cc1_plugin8callbackIyPKc17gcc_c_symbol_kindyS2_yS2_jXadL_Z17plugin_build_declPNS_10connectionES2_S3_yS2_yS2_jEEEENS_6statusES5_ _ZN10cc1_plugin18unmarshall_intlikeEPNS_10connectionEPy 175
_ZN10cc1_plugin8callbackIyPKc17gcc_c_symbol_kindyS2_yS2_jXadL_Z17plugin_build_declPNS_10connectionES2_S3_yS2_yS2_jEEEENS_6statusES5_ _ZN10cc1_plugin10unmarshallEPNS_10connectionEPPc 198
_ZN10cc1_plugin8callbackIyPKc17gcc_c_symbol_kindyS2_yS2_jXadL_Z17plugin_build_declPNS_10connectionES2_S3_yS2_yS2_jEEEENS_6statusES5_ _ZN10cc1_plugin18unmarshall_intlikeEPNS_10connectionEPy 218
_ZN10cc1_plugin8callbackIyPKc17gcc_c_symbol_kindyS2_yS2_jXadL_Z17plugin_build_declPNS_10connectionES2_S3_yS2_yS2_jEEEENS_6statusES5_ _ZN10cc1_plugin10unmarshallEPNS_10connectionEPPc 245
_ZN10cc1_plugin8callbackIyPKc17gcc_c_symbol_kindyS2_yS2_jXadL_Z17plugin_build_declPNS_10connectionES2_S3_yS2_yS2_jEEEENS_6statusES5_ _ZN10cc1_plugin18unmarshall_intlikeEPNS_10connectionEPy 265
_ZN10cc1_plugin8callbackIyPKc17gcc_c_symbol_kindyS2_yS2_jXadL_Z17plugin_build_declPNS_10connectionES2_S3_yS2_yS2_jEEEENS_6statusES5_ _Z17plugin_build_declPN10cc1_plugin10connectionEPKc17gcc_c_symbol_kindyS3_yS3_j 309
_ZN10cc1_plugin8callbackIyPKc17gcc_c_symbol_kindyS2_yS2_jXadL_Z17plugin_build_declPNS_10connectionES2_S3_yS2_yS2_jEEEENS_6statusES5_ _ZN10cc1_plugin10connection4sendEc 327
_ZN10cc1_plugin8callbackIyPKc17gcc_c_symbol_kindyS2_yS2_jXadL_Z17plugin_build_declPNS_10connectionES2_S3_yS2_yS2_jEEEENS_6statusES5_ _ZN10cc1_plugin16marshall_intlikeEPNS_10connectionEy 346
_ZN10cc1_plugin8callbackIyPKc17gcc_c_symbol_kindyS2_yS2_jXadL_Z17plugin_build_declPNS_10connectionES2_S3_yS2_yS2_jEEEENS_6statusES5_ _ZdaPv 371
_ZN10cc1_plugin8callbackIyPKc17gcc_c_symbol_kindyS2_yS2_jXadL_Z17plugin_build_declPNS_10connectionES2_S3_yS2_yS2_jEEEENS_6statusES5_ _ZdaPv 385
_ZN10cc1_plugin8callbackIyPKc17gcc_c_symbol_kindyS2_yS2_jXadL_Z17plugin_build_declPNS_10connectionES2_S3_yS2_yS2_jEEEENS_6statusES5_ _ZdaPv 399
_ZN10cc1_plugin8callbackIyPKc17gcc_c_symbol_kindyS2_yS2_jXadL_Z17plugin_build_declPNS_10connectionES2_S3_yS2_yS2_jEEEENS_6statusES5_ _Unwind_Resume 407
_ZL9eq_methodPKvS0_ strcmp 11
_ZL11hash_methodPKv htab_hash_string 4
_ZN10cc1_plugin9callbacksC1Ev,_ZN10cc1_plugin9callbacksC2Ev free 3
_ZN10cc1_plugin9callbacksC1Ev,_ZN10cc1_plugin9callbacksC2Ev xcalloc 12
_ZN10cc1_plugin9callbacksC1Ev,_ZN10cc1_plugin9callbacksC2Ev htab_create_alloc 35
_ZN10cc1_plugin9callbacksD1Ev,_ZN10cc1_plugin9callbacksD2Ev htab_delete 4
_ZN10cc1_plugin9callbacks12add_callbackEPKcPFNS_6statusEPNS_10connectionEE htab_find_slot 26
_ZN10cc1_plugin9callbacks12add_callbackEPKcPFNS_6statusEPNS_10connectionEE xmalloc 39
_ZN10cc1_plugin9callbacks13find_callbackEPKc htab_find 15
_ZN10cc1_plugin10connectionD1Ev,_ZN10cc1_plugin10connectionD2Ev _ZTVN10cc1_plugin10connectionE 3
_ZN10cc1_plugin10connectionD1Ev,_ZN10cc1_plugin10connectionD2Ev _ZN10cc1_plugin9callbacksD1Ev 12
_ZN10cc1_plugin10connectionD0Ev _ZTVN10cc1_plugin10connectionE 7
_ZN10cc1_plugin10connectionD0Ev _ZN10cc1_plugin9callbacksD1Ev 16
_ZN10cc1_plugin10connectionD0Ev _ZdlPv 25
_ZN10cc1_plugin10connection4sendEc write 23
_ZN10cc1_plugin10connection4sendEPKvi write 11
_ZN10cc1_plugin10connection7requireEc read 21
_ZN10cc1_plugin10connection3getEPvi read 11
_ZN10cc1_plugin10connection7do_waitEb select 155
_ZN10cc1_plugin10connection7do_waitEb read 280
_ZN10cc1_plugin10connection7do_waitEb __errno_location 345
_ZN10cc1_plugin10connection7do_waitEb read 398
_ZN10cc1_plugin10connection7do_waitEb _ZN10cc1_plugin10connection5printEPKc 431
_ZN10cc1_plugin10connection7do_waitEb _ZN10cc1_plugin10unmarshallEPNS_10connectionEPPc 476
_ZN10cc1_plugin10connection7do_waitEb _ZN10cc1_plugin9callbacks13find_callbackEPKc 496
_ZN10cc1_plugin16marshall_intlikeEPNS_10connectionEy _ZN10cc1_plugin10connection4sendEc 19
_ZN10cc1_plugin16marshall_intlikeEPNS_10connectionEy _ZN10cc1_plugin10connection4sendEPKvi 41
_ZN10cc1_plugin18unmarshall_intlikeEPNS_10connectionEPy _ZN10cc1_plugin10connection7requireEc 18
_ZN10cc1_plugin18unmarshall_intlikeEPNS_10connectionEPy _ZN10cc1_plugin10connection3getEPvi 58
_ZN10cc1_plugin16unmarshall_checkEPNS_10connectionEy _ZN10cc1_plugin18unmarshall_intlikeEPNS_10connectionEPy 14
_ZN10cc1_plugin8marshallEPNS_10connectionEPKc _ZN10cc1_plugin10connection4sendEc 18
_ZN10cc1_plugin8marshallEPNS_10connectionEPKc strlen 35
_ZN10cc1_plugin8marshallEPNS_10connectionEPKc _ZN10cc1_plugin10connection4sendEPKvi 58
_ZN10cc1_plugin8marshallEPNS_10connectionEPKc _ZN10cc1_plugin10connection4sendEPKvi 77
_ZN10cc1_plugin8marshallEPNS_10connectionEPKc _ZN10cc1_plugin10connection4sendEPKvi 119
_ZN10cc1_plugin10unmarshallEPNS_10connectionEPPc _ZN10cc1_plugin10connection7requireEc 20
_ZN10cc1_plugin10unmarshallEPNS_10connectionEPPc _ZN10cc1_plugin10connection3getEPvi 62
_ZN10cc1_plugin10unmarshallEPNS_10connectionEPPc _ZSt7nothrow 86
_ZN10cc1_plugin10unmarshallEPNS_10connectionEPPc _ZnamRKSt9nothrow_t 91
_ZN10cc1_plugin10unmarshallEPNS_10connectionEPPc _ZN10cc1_plugin10connection3getEPvi 114
_ZN10cc1_plugin10unmarshallEPNS_10connectionEPPc _ZdaPv 130
_ZN10cc1_plugin20marshall_array_startEPNS_10connectionEcm _ZN10cc1_plugin10connection4sendEc 17
_ZN10cc1_plugin20marshall_array_startEPNS_10connectionEcm _ZN10cc1_plugin10connection4sendEPKvi 44
_ZN10cc1_plugin20marshall_array_elmtsEPNS_10connectionEmPv _ZN10cc1_plugin10connection4sendEPKvi 9
_ZN10cc1_plugin22unmarshall_array_startEPNS_10connectionEcPm _ZN10cc1_plugin10connection7requireEc 17
_ZN10cc1_plugin22unmarshall_array_startEPNS_10connectionEcPm _ZN10cc1_plugin10connection3getEPvi 46
_ZN10cc1_plugin22unmarshall_array_elmtsEPNS_10connectionEmPv _ZN10cc1_plugin10connection3getEPvi 9
_ZN10cc1_plugin8marshallEPNS_10connectionEPK14gcc_type_array _ZN10cc1_plugin20marshall_array_startEPNS_10connectionEcm 27
_ZN10cc1_plugin8marshallEPNS_10connectionEPK14gcc_type_array _ZN10cc1_plugin20marshall_array_startEPNS_10connectionEcm 77
_ZN10cc1_plugin8marshallEPNS_10connectionEPK14gcc_type_array _ZN10cc1_plugin10connection4sendEPKvi 55
_ZN10cc1_plugin10unmarshallEPNS_10connectionEPP14gcc_type_array _ZN10cc1_plugin22unmarshall_array_startEPNS_10connectionEcPm 26
_ZN10cc1_plugin10unmarshallEPNS_10connectionEPP14gcc_type_array _Znwm 56
_ZN10cc1_plugin10unmarshallEPNS_10connectionEPP14gcc_type_array _Znam 103
_ZN10cc1_plugin10unmarshallEPNS_10connectionEPP14gcc_type_array _ZN10cc1_plugin10connection3getEPvi 131
_ZN10cc1_plugin10unmarshallEPNS_10connectionEPP14gcc_type_array _ZdaPv 153
_ZN10cc1_plugin10unmarshallEPNS_10connectionEPP14gcc_type_array _ZdlPv 170
_ZL24at_fake_function_scope_pv cfun 7
_ZL24at_fake_function_scope_pv current_function_decl 19
_ZL24at_fake_function_scope_pv _Z13current_scopev 30
_ZL24at_fake_function_scope_pv current_function_decl 37
_ZL18push_fake_functionP9tree_node10scope_kind current_function_decl 12
_ZL18push_fake_functionP9tree_node10scope_kind _Z11begin_scope10scope_kindP9tree_node 19
_ZL18push_fake_functionP9tree_node10scope_kind function_depth 25
_ZL18push_fake_functionP9tree_node10scope_kind _Z11begin_scope10scope_kindP9tree_node 39
_ZL17get_current_scopev _Z20at_namespace_scope_pv 5
_ZL17get_current_scopev scope_chain 16
_ZL17get_current_scopev _Z16at_class_scope_pv 33
_ZL17get_current_scopev scope_chain 44
_ZL17get_current_scopev current_function_decl 76
_ZL17get_current_scopev _Z19at_function_scope_pv 89
_ZL17get_current_scopev _Z11fancy_abortPKciS0_ 113
_ZL15reactivate_declP9tree_nodeP16cp_binding_level cfun 37
_ZL15reactivate_declP9tree_nodeP16cp_binding_level _Z16at_class_scope_pv 86
_ZL15reactivate_declP9tree_nodeP16cp_binding_level cp_global_trees 126
_ZL15reactivate_declP9tree_nodeP16cp_binding_level cfun 161
_ZL15reactivate_declP9tree_nodeP16cp_binding_level _Z12push_bindingP9tree_nodeS0_P16cp_binding_level 355
_ZL15reactivate_declP9tree_nodeP16cp_binding_level _Z9tree_consP9tree_nodeS0_S0_ 413
_ZL15reactivate_declP9tree_nodeP16cp_binding_level _Z15build_tree_listP9tree_nodeS0_ 431
_ZL15reactivate_declP9tree_nodeP16cp_binding_level scope_chain 481
_ZL15reactivate_declP9tree_nodeP16cp_binding_level _Z11fancy_abortPKciS0_ 582
_ZL15reactivate_declP9tree_nodeP16cp_binding_level scope_chain 612
_ZL15reactivate_declP9tree_nodeP16cp_binding_level _Z9tree_consP9tree_nodeS0_S0_ 649
_ZL15reactivate_declP9tree_nodeP16cp_binding_level _Z16strip_using_declP9tree_node 700
_ZL15reactivate_declP9tree_nodeP16cp_binding_level _Z16strip_using_declP9tree_node 713
_ZL15reactivate_declP9tree_nodeP16cp_binding_level global_trees 749
_ZL15reactivate_declP9tree_nodeP16cp_binding_level _Z9comptypesP9tree_nodeS0_i 935
_ZL15reactivate_declP9tree_nodeP16cp_binding_level _Z9comptypesP9tree_nodeS0_i 1044
_ZL15reactivate_declP9tree_nodeP16cp_binding_level _Z19uses_template_parmsP9tree_node 1082
_ZL15reactivate_declP9tree_nodeP16cp_binding_level _Z19uses_template_parmsP9tree_node 1115
_ZL15reactivate_declP9tree_nodeP16cp_binding_level _Z11fancy_abortPKciS0_ 1165
_ZL15reactivate_declP9tree_nodeP16cp_binding_level _Z11fancy_abortPKciS0_ 1185
_ZL15reactivate_declP9tree_nodeP16cp_binding_level _Z11fancy_abortPKciS0_ 1205
_ZL15reactivate_declP9tree_nodeP16cp_binding_level scope_chain 1212
_ZL15reactivate_declP9tree_nodeP16cp_binding_level _Z16dependent_type_pP9tree_node 1280
_ZL15reactivate_declP9tree_nodeP16cp_binding_level _Z16dependent_type_pP9tree_node 1331
_ZL15reactivate_declP9tree_nodeP16cp_binding_level tree_code_type 1416
_ZL15reactivate_declP9tree_nodeP16cp_binding_level _Z15duplicate_declsP9tree_nodeS0_b 1437
_ZL8targlistPK20gcc_cp_template_args _Z13make_tree_veci 14
_ZL8targlistPK20gcc_cp_template_args _Z11fancy_abortPKciS0_ 132
_ZL9pop_scopev _Z19toplevel_bindings_pv 5
_ZL9pop_scopev scope_chain 16
_ZL9pop_scopev cp_global_trees 23
_ZL9pop_scopev _Z20at_namespace_scope_pv 38
_ZL9pop_scopev _Z16at_class_scope_pv 51
_ZL9pop_scopev _Z19at_function_scope_pv 77
_ZL9pop_scopev cfun 92
_ZL9pop_scopev _Z11leave_scopev 166
_ZL9pop_scopev cfun 173
_ZL9pop_scopev function_depth 179
_ZL9pop_scopev current_function_decl 222
_ZL9pop_scopev _Z11leave_scopev 237
_ZL9pop_scopev cfun 244
_ZL9pop_scopev current_function_decl 251
_ZL9pop_scopev current_function_decl 316
_ZL9pop_scopev scope_chain 379
_ZL9pop_scopev scope_chain 403
_ZL9pop_scopev scope_chain 427
_ZL9pop_scopev scope_chain 467
_ZL9pop_scopev _Z11fancy_abortPKciS0_ 504
_ZL9pop_scopev scope_chain 515
_ZL9pop_scopev _Z11fancy_abortPKciS0_ 547
_ZL9pop_scopev _Z11fancy_abortPKciS0_ 567
_ZL9pop_scopev _Z11fancy_abortPKciS0_ 587
_ZL9pop_scopev _Z13pop_namespacev 333
_ZL9pop_scopev _Z8popclassv 349
_ZL9pop_scopev _Z18pop_from_top_levelv 365
_ZL21plugin_binding_oracle17cp_oracle_requestP9tree_node _ZN10cc1_plugin10connection4sendEc 43
_ZL21plugin_binding_oracle17cp_oracle_requestP9tree_node _ZN10cc1_plugin8marshallEPNS_10connectionEPKc 73
_ZL21plugin_binding_oracle17cp_oracle_requestP9tree_node _ZN10cc1_plugin16marshall_intlikeEPNS_10connectionEy 90
_ZL21plugin_binding_oracle17cp_oracle_requestP9tree_node _ZN10cc1_plugin16marshall_intlikeEPNS_10connectionEy 104
_ZL21plugin_binding_oracle17cp_oracle_requestP9tree_node _ZN10cc1_plugin8marshallEPNS_10connectionEPKc 119
_ZL21plugin_binding_oracle17cp_oracle_requestP9tree_node _ZN10cc1_plugin10connection7do_waitEb 136
_ZL21plugin_binding_oracle17cp_oracle_requestP9tree_node _ZN10cc1_plugin18unmarshall_intlikeEPNS_10connectionEPy 153
_ZL21plugin_binding_oracle17cp_oracle_requestP9tree_node _Z11fancy_abortPKciS0_ 175
_ZL21plugin_binding_oracle17cp_oracle_requestP9tree_node _Z11fancy_abortPKciS0_ 195
_ZN10cc1_plugin10unmarshallEPNS_10connectionEP18gcc_cp_symbol_kind _ZN10cc1_plugin18unmarshall_intlikeEPNS_10connectionEPy 14
_ZN10cc1_plugin10unmarshallEPNS_10connectionEP21gcc_cp_oracle_request _ZN10cc1_plugin18unmarshall_intlikeEPNS_10connectionEPy 14
_ZN10cc1_plugin10unmarshallEPNS_10connectionEP17gcc_cp_qualifiers _ZN10cc1_plugin18unmarshall_intlikeEPNS_10connectionEPy 14
_ZN10cc1_plugin10unmarshallEPNS_10connectionEP21gcc_cp_ref_qualifiers _ZN10cc1_plugin18unmarshall_intlikeEPNS_10connectionEPy 14
_ZN10cc1_plugin8marshallEPNS_10connectionEPK15gcc_vbase_array _ZN10cc1_plugin20marshall_array_startEPNS_10connectionEcm 27
_ZN10cc1_plugin8marshallEPNS_10connectionEPK15gcc_vbase_array _ZN10cc1_plugin20marshall_array_elmtsEPNS_10connectionEmPv 51
_ZN10cc1_plugin8marshallEPNS_10connectionEPK15gcc_vbase_array _ZN10cc1_plugin20marshall_array_startEPNS_10connectionEcm 85
_ZN10cc1_plugin8marshallEPNS_10connectionEPK15gcc_vbase_array _ZN10cc1_plugin20marshall_array_elmtsEPNS_10connectionEmPv 132
_ZN10cc1_plugin10unmarshallEPNS_10connectionEPP15gcc_vbase_array _ZN10cc1_plugin22unmarshall_array_startEPNS_10connectionEcPm 28
_ZN10cc1_plugin10unmarshallEPNS_10connectionEPP15gcc_vbase_array _Znwm 65
_ZN10cc1_plugin10unmarshallEPNS_10connectionEPP15gcc_vbase_array _Znam 107
_ZN10cc1_plugin10unmarshallEPNS_10connectionEPP15gcc_vbase_array _ZN10cc1_plugin22unmarshall_array_elmtsEPNS_10connectionEmPv 136
_ZN10cc1_plugin10unmarshallEPNS_10connectionEPP15gcc_vbase_array _ZdaPv 159
_ZN10cc1_plugin10unmarshallEPNS_10connectionEPP15gcc_vbase_array _ZdlPv 175
_ZN10cc1_plugin10unmarshallEPNS_10connectionEPP15gcc_vbase_array _Znam 263
_ZN10cc1_plugin10unmarshallEPNS_10connectionEPP15gcc_vbase_array _ZN10cc1_plugin22unmarshall_array_elmtsEPNS_10connectionEmPv 292
_ZN10cc1_plugin10unmarshallEPNS_10connectionEPP15gcc_vbase_array _ZdaPv 319
_ZN10cc1_plugin8marshallEPNS_10connectionEPK20gcc_cp_template_args _ZN10cc1_plugin20marshall_array_startEPNS_10connectionEcm 27
_ZN10cc1_plugin8marshallEPNS_10connectionEPK20gcc_cp_template_args _ZN10cc1_plugin20marshall_array_elmtsEPNS_10connectionEmPv 46
_ZN10cc1_plugin8marshallEPNS_10connectionEPK20gcc_cp_template_args _ZN10cc1_plugin20marshall_array_startEPNS_10connectionEcm 77
_ZN10cc1_plugin8marshallEPNS_10connectionEPK20gcc_cp_template_args _ZN10cc1_plugin20marshall_array_elmtsEPNS_10connectionEmPv 116
_ZN10cc1_plugin10unmarshallEPNS_10connectionEPP20gcc_cp_template_args _ZN10cc1_plugin22unmarshall_array_startEPNS_10connectionEcPm 26
_ZN10cc1_plugin10unmarshallEPNS_10connectionEPP20gcc_cp_template_args _Znwm 48
_ZN10cc1_plugin10unmarshallEPNS_10connectionEPP20gcc_cp_template_args _Znam 63
_ZN10cc1_plugin10unmarshallEPNS_10connectionEPP20gcc_cp_template_args _ZN10cc1_plugin22unmarshall_array_elmtsEPNS_10connectionEmPv 84
_ZN10cc1_plugin10unmarshallEPNS_10connectionEPP20gcc_cp_template_args _ZdaPv 107
_ZN10cc1_plugin10unmarshallEPNS_10connectionEPP20gcc_cp_template_args _ZdlPv 123
_ZN10cc1_plugin10unmarshallEPNS_10connectionEPP20gcc_cp_template_args _Znam 214
_ZN10cc1_plugin10unmarshallEPNS_10connectionEPP20gcc_cp_template_args _ZN10cc1_plugin22unmarshall_array_elmtsEPNS_10connectionEmPv 243
_ZN10cc1_plugin10unmarshallEPNS_10connectionEPP20gcc_cp_template_args _ZdaPv 270
_ZN10cc1_plugin8marshallEPNS_10connectionEPK20gcc_cp_function_args _ZN10cc1_plugin20marshall_array_startEPNS_10connectionEcm 27
_ZN10cc1_plugin8marshallEPNS_10connectionEPK20gcc_cp_function_args _ZN10cc1_plugin20marshall_array_startEPNS_10connectionEcm 77
_ZN10cc1_plugin8marshallEPNS_10connectionEPK20gcc_cp_function_args _ZN10cc1_plugin20marshall_array_elmtsEPNS_10connectionEmPv 55
_ZN10cc1_plugin10unmarshallEPNS_10connectionEPP20gcc_cp_function_args _ZN10cc1_plugin22unmarshall_array_startEPNS_10connectionEcPm 26
_ZN10cc1_plugin10unmarshallEPNS_10connectionEPP20gcc_cp_function_args _Znwm 56
_ZN10cc1_plugin10unmarshallEPNS_10connectionEPP20gcc_cp_function_args _Znam 103
_ZN10cc1_plugin10unmarshallEPNS_10connectionEPP20gcc_cp_function_args _ZN10cc1_plugin22unmarshall_array_elmtsEPNS_10connectionEmPv 132
_ZN10cc1_plugin10unmarshallEPNS_10connectionEPP20gcc_cp_function_args _ZdaPv 155
_ZN10cc1_plugin10unmarshallEPNS_10connectionEPP20gcc_cp_function_args _ZdlPv 171
_Z21plugin_push_namespacePN10cc1_plugin10connectionEPKc _Z14get_identifierPKc 18
_Z21plugin_push_namespacePN10cc1_plugin10connectionEPKc _Z14push_namespaceP9tree_nodeb 28
_Z21plugin_push_namespacePN10cc1_plugin10connectionEPKc _Z17push_to_top_levelv 49
_Z17plugin_push_classPN10cc1_plugin10connectionEy _Z13current_scopev 26
_Z17plugin_push_classPN10cc1_plugin10connectionEy cp_global_trees 33
_Z17plugin_push_classPN10cc1_plugin10connectionEy _Z13current_scopev 40
_Z17plugin_push_classPN10cc1_plugin10connectionEy _Z9pushclassP9tree_node 53
_Z17plugin_push_classPN10cc1_plugin10connectionEy _Z13current_scopev 73
_Z17plugin_push_classPN10cc1_plugin10connectionEy _Z11fancy_abortPKciS0_ 99
_Z17plugin_push_classPN10cc1_plugin10connectionEy _Z11fancy_abortPKciS0_ 119
_Z20plugin_push_functionPN10cc1_plugin10connectionEy _Z13current_scopev 20
_Z20plugin_push_functionPN10cc1_plugin10connectionEy cp_global_trees 27
_Z20plugin_push_functionPN10cc1_plugin10connectionEy _Z13current_scopev 34
_Z20plugin_push_functionPN10cc1_plugin10connectionEy _Z13current_scopev 73
_Z20plugin_push_functionPN10cc1_plugin10connectionEy _Z11fancy_abortPKciS0_ 99
_Z20plugin_push_functionPN10cc1_plugin10connectionEy _Z11fancy_abortPKciS0_ 119
_Z22plugin_reactivate_declPN10cc1_plugin10connectionEyy cfun 58
_Z22plugin_reactivate_declPN10cc1_plugin10connectionEyy cp_global_trees 97
_Z22plugin_reactivate_declPN10cc1_plugin10connectionEyy scope_chain 155
_Z22plugin_reactivate_declPN10cc1_plugin10connectionEyy _Z16at_class_scope_pv 174
_Z22plugin_reactivate_declPN10cc1_plugin10connectionEyy cfun 190
_Z22plugin_reactivate_declPN10cc1_plugin10connectionEyy scope_chain 220
_Z22plugin_reactivate_declPN10cc1_plugin10connectionEyy _Z11fancy_abortPKciS0_ 249
_Z22plugin_reactivate_declPN10cc1_plugin10connectionEyy _Z11fancy_abortPKciS0_ 269
_Z22plugin_reactivate_declPN10cc1_plugin10connectionEyy _Z11fancy_abortPKciS0_ 289
_Z22plugin_reactivate_declPN10cc1_plugin10connectionEyy _Z11fancy_abortPKciS0_ 309
_Z26plugin_add_using_namespacePN10cc1_plugin10connectionEy _Z22finish_using_directiveP9tree_nodeS0_ 16
_Z26plugin_add_using_namespacePN10cc1_plugin10connectionEy _Z11fancy_abortPKciS0_ 46
_Z26plugin_add_namespace_aliasPN10cc1_plugin10connectionEPKcy _Z14get_identifierPKc 8
_Z26plugin_add_namespace_aliasPN10cc1_plugin10connectionEPKcy _Z18do_namespace_aliasP9tree_nodeS0_ 19
_Z21plugin_add_using_declPN10cc1_plugin10connectionE18gcc_cp_symbol_kindy _Z21template_parm_scope_pv 45
_Z21plugin_add_using_declPN10cc1_plugin10connectionE18gcc_cp_symbol_kindy _Z16at_class_scope_pv 58
_Z21plugin_add_using_declPN10cc1_plugin10connectionE18gcc_cp_symbol_kindy _Z20at_namespace_scope_pv 112
_Z21plugin_add_using_declPN10cc1_plugin10connectionE18gcc_cp_symbol_kindy _Z27finish_nonmember_using_declP9tree_nodeS0_ 131
_Z21plugin_add_using_declPN10cc1_plugin10connectionE18gcc_cp_symbol_kindy _Z19do_class_using_declP9tree_nodeS0_ 167
_Z21plugin_add_using_declPN10cc1_plugin10connectionE18gcc_cp_symbol_kindy tree_code_type 190
_Z21plugin_add_using_declPN10cc1_plugin10connectionE18gcc_cp_symbol_kindy scope_chain 229
_Z21plugin_add_using_declPN10cc1_plugin10connectionE18gcc_cp_symbol_kindy global_trees 236
_Z21plugin_add_using_declPN10cc1_plugin10connectionE18gcc_cp_symbol_kindy _Z25finish_member_declarationP9tree_node 248
_Z21plugin_add_using_declPN10cc1_plugin10connectionE18gcc_cp_symbol_kindy cp_global_trees 294
_Z21plugin_add_using_declPN10cc1_plugin10connectionE18gcc_cp_symbol_kindy scope_chain 311
_Z21plugin_add_using_declPN10cc1_plugin10connectionE18gcc_cp_symbol_kindy global_trees 318
_Z21plugin_add_using_declPN10cc1_plugin10connectionE18gcc_cp_symbol_kindy scope_chain 339
_Z21plugin_add_using_declPN10cc1_plugin10connectionE18gcc_cp_symbol_kindy global_trees 346
_Z21plugin_add_using_declPN10cc1_plugin10connectionE18gcc_cp_symbol_kindy _Z11fancy_abortPKciS0_ 386
_Z21plugin_add_using_declPN10cc1_plugin10connectionE18gcc_cp_symbol_kindy _Z11fancy_abortPKciS0_ 406
_Z21plugin_add_using_declPN10cc1_plugin10connectionE18gcc_cp_symbol_kindy _Z11fancy_abortPKciS0_ 426
_Z21plugin_add_using_declPN10cc1_plugin10connectionE18gcc_cp_symbol_kindy _Z11fancy_abortPKciS0_ 446
_Z21plugin_add_using_declPN10cc1_plugin10connectionE18gcc_cp_symbol_kindy _Z11fancy_abortPKciS0_ 466
_Z17plugin_add_friendPN10cc1_plugin10connectionEyy tree_code_type 24
_Z17plugin_add_friendPN10cc1_plugin10connectionEyy _Z10add_friendP9tree_nodeS0_b 45
_Z17plugin_add_friendPN10cc1_plugin10connectionEyy _Z17make_friend_classP9tree_nodeS0_b 74
_Z17plugin_add_friendPN10cc1_plugin10connectionEyy _Z16at_class_scope_pv 102
_Z17plugin_add_friendPN10cc1_plugin10connectionEyy scope_chain 118
_Z17plugin_add_friendPN10cc1_plugin10connectionEyy _Z11fancy_abortPKciS0_ 144
_Z17plugin_add_friendPN10cc1_plugin10connectionEyy _Z11fancy_abortPKciS0_ 164
_Z27plugin_build_reference_typePN10cc1_plugin10connectionEy21gcc_cp_ref_qualifiers _Z11fancy_abortPKciS0_ 38
_Z27plugin_build_reference_typePN10cc1_plugin10connectionEy21gcc_cp_ref_qualifiers _Z23cp_build_reference_typeP9tree_nodeb 51
_Z18plugin_build_fieldPN10cc1_plugin10connectionEPKcy18gcc_cp_symbol_kindmm scope_chain 32
_Z18plugin_build_fieldPN10cc1_plugin10connectionEPKcy18gcc_cp_symbol_kindmm _Z16at_class_scope_pv 41
_Z18plugin_build_fieldPN10cc1_plugin10connectionEPKcy18gcc_cp_symbol_kindmm _Z14get_identifierPKc 118
_Z18plugin_build_fieldPN10cc1_plugin10connectionEPKcy18gcc_cp_symbol_kindmm _Z10build_declj9tree_codeP9tree_nodeS1_ 139
_Z18plugin_build_fieldPN10cc1_plugin10connectionEPKcy18gcc_cp_symbol_kindmm tree_code_type 157
_Z18plugin_build_fieldPN10cc1_plugin10connectionEPKcy18gcc_cp_symbol_kindmm scope_chain 206
_Z18plugin_build_fieldPN10cc1_plugin10connectionEPKcy18gcc_cp_symbol_kindmm global_trees 213
_Z18plugin_build_fieldPN10cc1_plugin10connectionEPKcy18gcc_cp_symbol_kindmm scope_chain 227
_Z18plugin_build_fieldPN10cc1_plugin10connectionEPKcy18gcc_cp_symbol_kindmm global_trees 234
_Z18plugin_build_fieldPN10cc1_plugin10connectionEPKcy18gcc_cp_symbol_kindmm global_trees 287
_Z18plugin_build_fieldPN10cc1_plugin10connectionEPKcy18gcc_cp_symbol_kindmm _Z13size_int_kind8poly_intILj1ElE14size_type_kind 339
_Z18plugin_build_fieldPN10cc1_plugin10connectionEPKcy18gcc_cp_symbol_kindmm _Z12pos_from_bitPP9tree_nodeS1_jS0_ 373
_Z18plugin_build_fieldPN10cc1_plugin10connectionEPKcy18gcc_cp_symbol_kindmm _Z13size_int_kind8poly_intILj1ElE14size_type_kind 386
_Z18plugin_build_fieldPN10cc1_plugin10connectionEPKcy18gcc_cp_symbol_kindmm _Z13size_int_kind8poly_intILj1ElE14size_type_kind 405
_Z18plugin_build_fieldPN10cc1_plugin10connectionEPKcy18gcc_cp_symbol_kindmm _Z29c_build_bitfield_integer_typemi 491
_Z18plugin_build_fieldPN10cc1_plugin10connectionEPKcy18gcc_cp_symbol_kindmm scope_chain 519
_Z18plugin_build_fieldPN10cc1_plugin10connectionEPKcy18gcc_cp_symbol_kindmm global_trees 526
_Z18plugin_build_fieldPN10cc1_plugin10connectionEPKcy18gcc_cp_symbol_kindmm _Z16vector_type_modePK9tree_node 548
_Z18plugin_build_fieldPN10cc1_plugin10connectionEPKcy18gcc_cp_symbol_kindmm _Z11fancy_abortPKciS0_ 573
_Z18plugin_build_fieldPN10cc1_plugin10connectionEPKcy18gcc_cp_symbol_kindmm _Z11fancy_abortPKciS0_ 593
_Z18plugin_build_fieldPN10cc1_plugin10connectionEPKcy18gcc_cp_symbol_kindmm _Z11fancy_abortPKciS0_ 613
_Z18plugin_build_fieldPN10cc1_plugin10connectionEPKcy18gcc_cp_symbol_kindmm _Z11fancy_abortPKciS0_ 633
_Z18plugin_build_fieldPN10cc1_plugin10connectionEPKcy18gcc_cp_symbol_kindmm _Z11fancy_abortPKciS0_ 653
_Z24plugin_finish_class_typePN10cc1_plugin10connectionEm scope_chain 9
_Z24plugin_finish_class_typePN10cc1_plugin10connectionEm _Z13finish_structP9tree_nodeS0_ 38
_Z24plugin_finish_class_typePN10cc1_plugin10connectionEm _Z16compare_tree_intPK9tree_nodem 50
_Z24plugin_finish_class_typePN10cc1_plugin10connectionEm _Z11fancy_abortPKciS0_ 86
_Z24plugin_finish_class_typePN10cc1_plugin10connectionEm _Z11fancy_abortPKciS0_ 106
_Z26plugin_build_enum_constantPN10cc1_plugin10connectionEyPKcm _Z13build_int_cstP9tree_node8poly_intILj1ElE 23
_Z26plugin_build_enum_constantPN10cc1_plugin10connectionEyPKcm _Z14get_identifierPKc 34
_Z26plugin_build_enum_constantPN10cc1_plugin10connectionEyPKcm _Z16build_enumeratorP9tree_nodeS0_S0_S0_j 56
_Z26plugin_build_enum_constantPN10cc1_plugin10connectionEyPKcm _Z11fancy_abortPKciS0_ 92
_Z34plugin_get_function_parameter_declPN10cc1_plugin10connectionEyi _Z25skip_artificial_parms_forPK9tree_nodePS_ 29
_Z34plugin_get_function_parameter_declPN10cc1_plugin10connectionEyi _Z11fancy_abortPKciS0_ 107
_Z34plugin_get_function_parameter_declPN10cc1_plugin10connectionEyi _Z11fancy_abortPKciS0_ 127
_Z34plugin_get_function_parameter_declPN10cc1_plugin10connectionEyi _Z11fancy_abortPKciS0_ 147
_Z26plugin_start_template_declPN10cc1_plugin10connectionE _Z24begin_template_parm_listv 5
_Z26plugin_start_template_declPN10cc1_plugin10connectionE scope_chain 12
_Z20plugin_get_type_declPN10cc1_plugin10connectionEy _Z11fancy_abortPKciS0_ 28
_Z20plugin_get_decl_typePN10cc1_plugin10connectionEy _Z11fancy_abortPKciS0_ 28
_Z20plugin_get_char_typePN10cc1_plugin10connectionE integer_types 3
_Z21plugin_get_float_typePN10cc1_plugin10connectionEmPKc global_trees 67
_Z21plugin_get_float_typePN10cc1_plugin10connectionEmPKc global_trees 93
_Z21plugin_get_float_typePN10cc1_plugin10connectionEmPKc global_trees 115
_Z21plugin_get_float_typePN10cc1_plugin10connectionEmPKc global_trees 136
_Z21plugin_get_float_typePN10cc1_plugin10connectionEmPKc global_trees 147
_Z21plugin_get_float_typePN10cc1_plugin10connectionEmPKc _Z11fancy_abortPKciS0_ 170
_Z21plugin_get_float_typePN10cc1_plugin10connectionEmPKc _Z11fancy_abortPKciS0_ 190
_Z20plugin_get_void_typePN10cc1_plugin10connectionE global_trees 3
_Z20plugin_get_bool_typePN10cc1_plugin10connectionE global_trees 3
_Z23plugin_get_nullptr_typePN10cc1_plugin10connectionE cp_global_trees 3
_Z27plugin_get_nullptr_constantPN10cc1_plugin10connectionE cp_global_trees 3
_Z27plugin_build_qualified_typePN10cc1_plugin10connectionEy17gcc_cp_qualifiers _Z11fancy_abortPKciS0_ 48
_Z27plugin_build_qualified_typePN10cc1_plugin10connectionEy17gcc_cp_qualifiers _Z20build_qualified_typeP9tree_nodei 83
_Z27plugin_build_qualified_typePN10cc1_plugin10connectionEy17gcc_cp_qualifiers _Z20build_qualified_typeP9tree_nodei 104
_ZL33plugin_pragma_pop_user_expressionP10cpp_reader cp_binding_oracle 21
_ZL33plugin_pragma_pop_user_expressionP10cpp_reader _Z19at_function_scope_pv 33
_ZL33plugin_pragma_pop_user_expressionP10cpp_reader cfun 48
_ZL33plugin_pragma_pop_user_expressionP10cpp_reader cfun 88
_ZL33plugin_pragma_pop_user_expressionP10cpp_reader cfun 128
_ZL33plugin_pragma_pop_user_expressionP10cpp_reader current_function_decl 144
_ZL33plugin_pragma_pop_user_expressionP10cpp_reader _ZN10cc1_plugin4callIiEENS_6statusEPNS_10connectionEPKcPT_ 182
_ZL33plugin_pragma_pop_user_expressionP10cpp_reader cfun 189
_ZL33plugin_pragma_pop_user_expressionP10cpp_reader cp_binding_oracle 210
_ZL33plugin_pragma_pop_user_expressionP10cpp_reader _Z19at_function_scope_pv 219
_ZL33plugin_pragma_pop_user_expressionP10cpp_reader scope_chain 243
_ZL33plugin_pragma_pop_user_expressionP10cpp_reader scope_chain 259
_ZL33plugin_pragma_pop_user_expressionP10cpp_reader scope_chain 275
_ZL33plugin_pragma_pop_user_expressionP10cpp_reader cfun 291
_ZL33plugin_pragma_pop_user_expressionP10cpp_reader _Z11fancy_abortPKciS0_ 313
_ZL33plugin_pragma_pop_user_expressionP10cpp_reader _Z11fancy_abortPKciS0_ 333
_ZL33plugin_pragma_pop_user_expressionP10cpp_reader _Z11fancy_abortPKciS0_ 353
_ZL33plugin_pragma_pop_user_expressionP10cpp_reader _Z11fancy_abortPKciS0_ 373
_ZL34plugin_pragma_push_user_expressionP10cpp_reader cfun 38
_ZL34plugin_pragma_push_user_expressionP10cpp_reader cp_binding_oracle 91
_ZL34plugin_pragma_push_user_expressionP10cpp_reader cp_binding_oracle 105
_ZL34plugin_pragma_push_user_expressionP10cpp_reader _Z19at_function_scope_pv 114
_ZL34plugin_pragma_push_user_expressionP10cpp_reader _Z19at_function_scope_pv 127
_ZL34plugin_pragma_push_user_expressionP10cpp_reader cfun 142
_ZL34plugin_pragma_push_user_expressionP10cpp_reader _ZN10cc1_plugin4callIiEENS_6statusEPNS_10connectionEPKcPT_ 199
_ZL34plugin_pragma_push_user_expressionP10cpp_reader current_function_decl 219
_ZL34plugin_pragma_push_user_expressionP10cpp_reader scope_chain 226
_ZL34plugin_pragma_push_user_expressionP10cpp_reader cfun 233
_ZL34plugin_pragma_push_user_expressionP10cpp_reader scope_chain 277
_ZL34plugin_pragma_push_user_expressionP10cpp_reader cfun 301
_ZL34plugin_pragma_push_user_expressionP10cpp_reader _Z19at_function_scope_pv 312
_ZL34plugin_pragma_push_user_expressionP10cpp_reader cfun 327
_ZL34plugin_pragma_push_user_expressionP10cpp_reader _Z26get_identifier_with_lengthPKcm 391
_ZL34plugin_pragma_push_user_expressionP10cpp_reader _Z11lookup_nameP9tree_node 399
_ZL34plugin_pragma_push_user_expressionP10cpp_reader cfun 409
_ZL34plugin_pragma_push_user_expressionP10cpp_reader input_location 446
_ZL34plugin_pragma_push_user_expressionP10cpp_reader _Z21cp_build_indirect_refjP9tree_node12ref_operatori 461
_ZL34plugin_pragma_push_user_expressionP10cpp_reader cfun 474
_ZL34plugin_pragma_push_user_expressionP10cpp_reader scope_chain 524
_ZL34plugin_pragma_push_user_expressionP10cpp_reader scope_chain 543
_ZL34plugin_pragma_push_user_expressionP10cpp_reader scope_chain 562
_ZL34plugin_pragma_push_user_expressionP10cpp_reader _Z19at_function_scope_pv 587
_ZL34plugin_pragma_push_user_expressionP10cpp_reader _Z11fancy_abortPKciS0_ 615
_ZL34plugin_pragma_push_user_expressionP10cpp_reader current_function_decl 627
_ZL34plugin_pragma_push_user_expressionP10cpp_reader _Z17set_global_friendP9tree_node 632
_ZL34plugin_pragma_push_user_expressionP10cpp_reader scope_chain 644
_ZL34plugin_pragma_push_user_expressionP10cpp_reader scope_chain 660
_ZL34plugin_pragma_push_user_expressionP10cpp_reader cfun 676
_ZL34plugin_pragma_push_user_expressionP10cpp_reader _Z19at_function_scope_pv 681
_ZL34plugin_pragma_push_user_expressionP10cpp_reader cfun 696
_ZL34plugin_pragma_push_user_expressionP10cpp_reader cfun 883
_ZL34plugin_pragma_push_user_expressionP10cpp_reader scope_chain 977
_ZL34plugin_pragma_push_user_expressionP10cpp_reader _Z11fancy_abortPKciS0_ 1009
_ZL34plugin_pragma_push_user_expressionP10cpp_reader _Z11fancy_abortPKciS0_ 1029
_ZL34plugin_pragma_push_user_expressionP10cpp_reader _Z11fancy_abortPKciS0_ 1049
_ZL34plugin_pragma_push_user_expressionP10cpp_reader _Z11fancy_abortPKciS0_ 1069
_ZL34plugin_pragma_push_user_expressionP10cpp_reader _Z11fancy_abortPKciS0_ 1089
_ZL34plugin_pragma_push_user_expressionP10cpp_reader _Z11fancy_abortPKciS0_ 1109
_ZL34plugin_pragma_push_user_expressionP10cpp_reader _Z11fancy_abortPKciS0_ 1129
_ZL34plugin_pragma_push_user_expressionP10cpp_reader _Z11fancy_abortPKciS0_ 1149
_ZL34plugin_pragma_push_user_expressionP10cpp_reader _Z11fancy_abortPKciS0_ 1169
_ZL34plugin_pragma_push_user_expressionP10cpp_reader _Z11fancy_abortPKciS0_ 1189
_ZL34plugin_pragma_push_user_expressionP10cpp_reader _Z11fancy_abortPKciS0_ 1209
_ZL34plugin_pragma_push_user_expressionP10cpp_reader _Z11fancy_abortPKciS0_ 1229
_Z28plugin_make_namespace_inlinePN10cc1_plugin10connectionE scope_chain 9
_Z28plugin_make_namespace_inlinePN10cc1_plugin10connectionE _Z19toplevel_bindings_pv 18
_Z28plugin_make_namespace_inlinePN10cc1_plugin10connectionE cp_global_trees 33
_Z28plugin_make_namespace_inlinePN10cc1_plugin10connectionE _ZN5va_gc7reserveIP9tree_nodeS_EEvRP3vecIT_T0_8vl_embedEjb 164
_Z28plugin_make_namespace_inlinePN10cc1_plugin10connectionE _Z11fancy_abortPKciS0_ 209
_Z28plugin_make_namespace_inlinePN10cc1_plugin10connectionE _Z11fancy_abortPKciS0_ 229
_Z21plugin_build_new_exprPN10cc1_plugin10connectionEPKcPK20gcc_cp_function_argsyS6_ _Z16make_tree_vectorv 62
_Z21plugin_build_new_exprPN10cc1_plugin10connectionEPKcPK20gcc_cp_function_argsyS6_ _ZN5va_gc7reserveIP9tree_nodeS_EEvRP3vecIT_T0_8vl_embedEjb 161
_Z21plugin_build_new_exprPN10cc1_plugin10connectionEPKcPK20gcc_cp_function_argsyS6_ _Z16make_tree_vectorv 187
_Z21plugin_build_new_exprPN10cc1_plugin10connectionEPKcPK20gcc_cp_function_argsyS6_ _ZN5va_gc7reserveIP9tree_nodeS_EEvRP3vecIT_T0_8vl_embedEjb 284
_Z21plugin_build_new_exprPN10cc1_plugin10connectionEPKcPK20gcc_cp_function_argsyS6_ tree_code_type 320
_Z21plugin_build_new_exprPN10cc1_plugin10connectionEPKcPK20gcc_cp_function_argsyS6_ _Z11fancy_abortPKciS0_ 387
_Z21plugin_build_new_exprPN10cc1_plugin10connectionEPKcPK20gcc_cp_function_argsyS6_ _Z11fancy_abortPKciS0_ 458
_Z21plugin_build_new_exprPN10cc1_plugin10connectionEPKcPK20gcc_cp_function_argsyS6_ scope_chain 480
_Z21plugin_build_new_exprPN10cc1_plugin10connectionEPKcPK20gcc_cp_function_argsyS6_ _Z16dependent_type_pP9tree_node 501
_Z21plugin_build_new_exprPN10cc1_plugin10connectionEPKcPK20gcc_cp_function_argsyS6_ input_location 519
_Z21plugin_build_new_exprPN10cc1_plugin10connectionEPKcPK20gcc_cp_function_argsyS6_ _Z9build_newjPP3vecIP9tree_node5va_gc8vl_embedES1_S1_S6_ii 551
_Z21plugin_build_new_exprPN10cc1_plugin10connectionEPKcPK20gcc_cp_function_argsyS6_ scope_chain 558
_Z21plugin_build_new_exprPN10cc1_plugin10connectionEPKcPK20gcc_cp_function_argsyS6_ _Z19release_tree_vectorP3vecIP9tree_node5va_gc8vl_embedE 582
_Z21plugin_build_new_exprPN10cc1_plugin10connectionEPKcPK20gcc_cp_function_argsyS6_ _Z19release_tree_vectorP3vecIP9tree_node5va_gc8vl_embedE 597
_Z21plugin_build_new_exprPN10cc1_plugin10connectionEPKcPK20gcc_cp_function_argsyS6_ _ZN14plugin_context8preserveEP9tree_node 610
_Z21plugin_build_new_exprPN10cc1_plugin10connectionEPKcPK20gcc_cp_function_argsyS6_ scope_chain 676
_Z21plugin_build_new_exprPN10cc1_plugin10connectionEPKcPK20gcc_cp_function_argsyS6_ global_trees 683
_Z21plugin_build_new_exprPN10cc1_plugin10connectionEPKcPK20gcc_cp_function_argsyS6_ _Z28value_dependent_expression_pP9tree_node 699
_Z21plugin_build_new_exprPN10cc1_plugin10connectionEPKcPK20gcc_cp_function_argsyS6_ _Z15fold_build2_locj9tree_codeP9tree_nodeS1_S1_ 727
_Z21plugin_build_new_exprPN10cc1_plugin10connectionEPKcPK20gcc_cp_function_argsyS6_ scope_chain 737
_Z21plugin_build_new_exprPN10cc1_plugin10connectionEPKcPK20gcc_cp_function_argsyS6_ _Z28value_dependent_expression_pP9tree_node 796
_Z21plugin_build_new_exprPN10cc1_plugin10connectionEPKcPK20gcc_cp_function_argsyS6_ _Z30any_type_dependent_arguments_pPK3vecIP9tree_node5va_gc8vl_embedE 819
_Z21plugin_build_new_exprPN10cc1_plugin10connectionEPKcPK20gcc_cp_function_argsyS6_ _Z30any_type_dependent_arguments_pPK3vecIP9tree_node5va_gc8vl_embedE 842
_Z21plugin_build_new_exprPN10cc1_plugin10connectionEPKcPK20gcc_cp_function_argsyS6_ scope_chain 857
_Z21plugin_build_new_exprPN10cc1_plugin10connectionEPKcPK20gcc_cp_function_argsyS6_ input_location 867
_Z21plugin_build_new_exprPN10cc1_plugin10connectionEPKcPK20gcc_cp_function_argsyS6_ _Z9build_newjPP3vecIP9tree_node5va_gc8vl_embedES1_S1_S6_ii 903
_Z21plugin_build_new_exprPN10cc1_plugin10connectionEPKcPK20gcc_cp_function_argsyS6_ _Z27type_dependent_expression_pP9tree_node 924
_Z21plugin_build_new_exprPN10cc1_plugin10connectionEPKcPK20gcc_cp_function_argsyS6_ scope_chain 939
_Z21plugin_build_new_exprPN10cc1_plugin10connectionEPKcPK20gcc_cp_function_argsyS6_ _Z16fold_convert_locjP9tree_nodeS0_ 956
_Z21plugin_build_new_exprPN10cc1_plugin10connectionEPKcPK20gcc_cp_function_argsyS6_ _Z15fold_build2_locj9tree_codeP9tree_nodeS1_S1_ 976
_Z21plugin_build_new_exprPN10cc1_plugin10connectionEPKcPK20gcc_cp_function_argsyS6_ scope_chain 986
_Z21plugin_build_new_exprPN10cc1_plugin10connectionEPKcPK20gcc_cp_function_argsyS6_ _Z11fancy_abortPKciS0_ 1035
_Z21plugin_build_new_exprPN10cc1_plugin10connectionEPKcPK20gcc_cp_function_argsyS6_ _Z11fancy_abortPKciS0_ 1055
_Z21plugin_build_new_exprPN10cc1_plugin10connectionEPKcPK20gcc_cp_function_argsyS6_ _Z11fancy_abortPKciS0_ 1075
_Z21plugin_build_new_exprPN10cc1_plugin10connectionEPKcPK20gcc_cp_function_argsyS6_ _Z11fancy_abortPKciS0_ 1095
_Z20plugin_get_expr_typePN10cc1_plugin10connectionEy prime_tab 80
_Z20plugin_get_expr_typePN10cc1_plugin10connectionEy prime_tab 86
_Z20plugin_get_expr_typePN10cc1_plugin10connectionEy prime_tab 93
_Z20plugin_get_expr_typePN10cc1_plugin10connectionEy prime_tab 99
_Z20plugin_get_expr_typePN10cc1_plugin10connectionEy _ZN10hash_tableI15nofree_ptr_hashI9tree_nodeELb0E11xcallocatorE6expandEv 338
_Z20plugin_get_expr_typePN10cc1_plugin10connectionEy _Z18make_decltype_autov 385
_Z35plugin_build_pointer_to_member_typePN10cc1_plugin10connectionEyy _Z17build_ptrmem_typeP9tree_nodeS0_ 16
_Z35plugin_build_pointer_to_member_typePN10cc1_plugin10connectionEyy prime_tab 78
_Z35plugin_build_pointer_to_member_typePN10cc1_plugin10connectionEyy prime_tab 84
_Z35plugin_build_pointer_to_member_typePN10cc1_plugin10connectionEyy prime_tab 91
_Z35plugin_build_pointer_to_member_typePN10cc1_plugin10connectionEyy prime_tab 97
_Z35plugin_build_pointer_to_member_typePN10cc1_plugin10connectionEyy _ZN10hash_tableI15nofree_ptr_hashI9tree_nodeELb0E11xcallocatorE6expandEv 338
_Z25plugin_build_literal_exprPN10cc1_plugin10connectionEym _Z18build_int_cst_typeP9tree_node8poly_intILj1ElE 16
_Z25plugin_build_literal_exprPN10cc1_plugin10connectionEym prime_tab 78
_Z25plugin_build_literal_exprPN10cc1_plugin10connectionEym prime_tab 84
_Z25plugin_build_literal_exprPN10cc1_plugin10connectionEym prime_tab 91
_Z25plugin_build_literal_exprPN10cc1_plugin10connectionEym prime_tab 97
_Z25plugin_build_literal_exprPN10cc1_plugin10connectionEym _ZN10hash_tableI15nofree_ptr_hashI9tree_nodeELb0E11xcallocatorE6expandEv 338
_Z22plugin_build_decl_exprPN10cc1_plugin10connectionEyi tree_code_type 15
_Z22plugin_build_decl_exprPN10cc1_plugin10connectionEyi tree_code_type 52
_Z22plugin_build_decl_exprPN10cc1_plugin10connectionEyi _Z16build_offset_refP9tree_nodeS0_bi 74
_Z22plugin_build_decl_exprPN10cc1_plugin10connectionEyi prime_tab 136
_Z22plugin_build_decl_exprPN10cc1_plugin10connectionEyi prime_tab 143
_Z22plugin_build_decl_exprPN10cc1_plugin10connectionEyi prime_tab 150
_Z22plugin_build_decl_exprPN10cc1_plugin10connectionEyi prime_tab 156
_Z22plugin_build_decl_exprPN10cc1_plugin10connectionEyi _ZN10hash_tableI15nofree_ptr_hashI9tree_nodeELb0E11xcallocatorE6expandEv 402
_Z22plugin_build_decl_exprPN10cc1_plugin10connectionEyi _Z11fancy_abortPKciS0_ 463
_Z22plugin_build_decl_exprPN10cc1_plugin10connectionEyi _Z11fancy_abortPKciS0_ 483
_Z39plugin_build_dependent_type_template_idPN10cc1_plugin10connectionEyPK20gcc_cp_template_args _Z20finish_template_typeP9tree_nodeS0_i 29
_Z39plugin_build_dependent_type_template_idPN10cc1_plugin10connectionEyPK20gcc_cp_template_args prime_tab 95
_Z39plugin_build_dependent_type_template_idPN10cc1_plugin10connectionEyPK20gcc_cp_template_args prime_tab 101
_Z39plugin_build_dependent_type_template_idPN10cc1_plugin10connectionEyPK20gcc_cp_template_args prime_tab 108
_Z39plugin_build_dependent_type_template_idPN10cc1_plugin10connectionEyPK20gcc_cp_template_args prime_tab 114
_Z39plugin_build_dependent_type_template_idPN10cc1_plugin10connectionEyPK20gcc_cp_template_args _ZN10hash_tableI15nofree_ptr_hashI9tree_nodeELb0E11xcallocatorE6expandEv 354
_Z37plugin_build_dependent_class_templatePN10cc1_plugin10connectionEyPKc _Z14get_identifierPKc 16
_Z37plugin_build_dependent_class_templatePN10cc1_plugin10connectionEyPKc _Z27make_unbound_class_templateP9tree_nodeS0_S0_i 34
_Z37plugin_build_dependent_class_templatePN10cc1_plugin10connectionEyPKc prime_tab 96
_Z37plugin_build_dependent_class_templatePN10cc1_plugin10connectionEyPKc prime_tab 102
_Z37plugin_build_dependent_class_templatePN10cc1_plugin10connectionEyPKc prime_tab 109
_Z37plugin_build_dependent_class_templatePN10cc1_plugin10connectionEyPKc prime_tab 115
_Z37plugin_build_dependent_class_templatePN10cc1_plugin10connectionEyPKc _ZN10hash_tableI15nofree_ptr_hashI9tree_nodeELb0E11xcallocatorE6expandEv 354
_Z24plugin_build_lambda_exprPN10cc1_plugin10connectionEy tree_code_type 42
_Z24plugin_build_lambda_exprPN10cc1_plugin10connectionEy _Z19build_lambda_objectP9tree_node 75
_Z24plugin_build_lambda_exprPN10cc1_plugin10connectionEy prime_tab 137
_Z24plugin_build_lambda_exprPN10cc1_plugin10connectionEy prime_tab 143
_Z24plugin_build_lambda_exprPN10cc1_plugin10connectionEy prime_tab 150
_Z24plugin_build_lambda_exprPN10cc1_plugin10connectionEy prime_tab 156
_Z24plugin_build_lambda_exprPN10cc1_plugin10connectionEy _ZN10hash_tableI15nofree_ptr_hashI9tree_nodeELb0E11xcallocatorE6expandEv 402
_Z24plugin_build_lambda_exprPN10cc1_plugin10connectionEy _Z11fancy_abortPKciS0_ 456
_Z24plugin_build_method_typePN10cc1_plugin10connectionEyy17gcc_cp_qualifiers21gcc_cp_ref_qualifiers _Z11fancy_abortPKciS0_ 67
_Z24plugin_build_method_typePN10cc1_plugin10connectionEyy17gcc_cp_qualifiers21gcc_cp_ref_qualifiers _Z16build_memfn_typeP9tree_nodeS0_i16cp_ref_qualifier 94
_Z24plugin_build_method_typePN10cc1_plugin10connectionEyy17gcc_cp_qualifiers21gcc_cp_ref_qualifiers prime_tab 156
_Z24plugin_build_method_typePN10cc1_plugin10connectionEyy17gcc_cp_qualifiers21gcc_cp_ref_qualifiers prime_tab 162
_Z24plugin_build_method_typePN10cc1_plugin10connectionEyy17gcc_cp_qualifiers21gcc_cp_ref_qualifiers prime_tab 169
_Z24plugin_build_method_typePN10cc1_plugin10connectionEyy17gcc_cp_qualifiers21gcc_cp_ref_qualifiers prime_tab 175
_Z24plugin_build_method_typePN10cc1_plugin10connectionEyy17gcc_cp_qualifiers21gcc_cp_ref_qualifiers _Z17apply_memfn_qualsP9tree_nodei16cp_ref_qualifier 427
_Z24plugin_build_method_typePN10cc1_plugin10connectionEyy17gcc_cp_qualifiers21gcc_cp_ref_qualifiers _ZN10hash_tableI15nofree_ptr_hashI9tree_nodeELb0E11xcallocatorE6expandEv 466
_Z24plugin_build_method_typePN10cc1_plugin10connectionEyy17gcc_cp_qualifiers21gcc_cp_ref_qualifiers _Z11fancy_abortPKciS0_ 522
_Z19plugin_get_int_typePN10cc1_plugin10connectionEimPKc prime_tab 172
_Z19plugin_get_int_typePN10cc1_plugin10connectionEimPKc prime_tab 178
_Z19plugin_get_int_typePN10cc1_plugin10connectionEimPKc prime_tab 185
_Z19plugin_get_int_typePN10cc1_plugin10connectionEimPKc prime_tab 191
_Z19plugin_get_int_typePN10cc1_plugin10connectionEimPKc _ZN10hash_tableI15nofree_ptr_hashI9tree_nodeELb0E11xcallocatorE6expandEv 426
_Z19plugin_get_int_typePN10cc1_plugin10connectionEimPKc _Z22c_common_type_for_sizeji 456
_Z19plugin_get_int_typePN10cc1_plugin10connectionEimPKc global_trees 475
_Z19plugin_get_int_typePN10cc1_plugin10connectionEimPKc _Z11fancy_abortPKciS0_ 519
_Z19plugin_get_int_typePN10cc1_plugin10connectionEimPKc _Z11fancy_abortPKciS0_ 539
_Z19plugin_get_int_typePN10cc1_plugin10connectionEimPKc _Z11fancy_abortPKciS0_ 559
_Z19plugin_get_int_typePN10cc1_plugin10connectionEimPKc _Z11fancy_abortPKciS0_ 579
_Z31plugin_build_dependent_typenamePN10cc1_plugin10connectionEyPKcPK20gcc_cp_template_args _Z14get_identifierPKc 23
_Z31plugin_build_dependent_typenamePN10cc1_plugin10connectionEyPKcPK20gcc_cp_template_args _Z16build_min_nt_locj9tree_codez 59
_Z31plugin_build_dependent_typenamePN10cc1_plugin10connectionEyPKcPK20gcc_cp_template_args _Z18make_typename_typeP9tree_nodeS0_9tag_typesi 83
_Z31plugin_build_dependent_typenamePN10cc1_plugin10connectionEyPKcPK20gcc_cp_template_args prime_tab 145
_Z31plugin_build_dependent_typenamePN10cc1_plugin10connectionEyPKcPK20gcc_cp_template_args prime_tab 151
_Z31plugin_build_dependent_typenamePN10cc1_plugin10connectionEyPKcPK20gcc_cp_template_args prime_tab 158
_Z31plugin_build_dependent_typenamePN10cc1_plugin10connectionEyPKcPK20gcc_cp_template_args prime_tab 164
_Z31plugin_build_dependent_typenamePN10cc1_plugin10connectionEyPKcPK20gcc_cp_template_args _ZN10hash_tableI15nofree_ptr_hashI9tree_nodeELb0E11xcallocatorE6expandEv 410
_Z28plugin_build_unary_type_exprPN10cc1_plugin10connectionEPKcy scope_chain 70
_Z28plugin_build_unary_type_exprPN10cc1_plugin10connectionEPKcy _Z16dependent_type_pP9tree_node 82
_Z28plugin_build_unary_type_exprPN10cc1_plugin10connectionEPKcy scope_chain 96
_Z28plugin_build_unary_type_exprPN10cc1_plugin10connectionEPKcy _Z10get_typeidP9tree_nodei 113
_Z28plugin_build_unary_type_exprPN10cc1_plugin10connectionEPKcy scope_chain 128
_Z28plugin_build_unary_type_exprPN10cc1_plugin10connectionEPKcy prime_tab 187
_Z28plugin_build_unary_type_exprPN10cc1_plugin10connectionEPKcy prime_tab 194
_Z28plugin_build_unary_type_exprPN10cc1_plugin10connectionEPKcy prime_tab 200
_Z28plugin_build_unary_type_exprPN10cc1_plugin10connectionEPKcy prime_tab 206
_Z28plugin_build_unary_type_exprPN10cc1_plugin10connectionEPKcy scope_chain 401
_Z28plugin_build_unary_type_exprPN10cc1_plugin10connectionEPKcy _Z16dependent_type_pP9tree_node 413
_Z28plugin_build_unary_type_exprPN10cc1_plugin10connectionEPKcy scope_chain 427
_Z28plugin_build_unary_type_exprPN10cc1_plugin10connectionEPKcy _Z19make_pack_expansionP9tree_nodei 466
_Z28plugin_build_unary_type_exprPN10cc1_plugin10connectionEPKcy input_location 490
_Z28plugin_build_unary_type_exprPN10cc1_plugin10connectionEPKcy _Z26cxx_sizeof_or_alignof_typejP9tree_node9tree_codebb 512
_Z28plugin_build_unary_type_exprPN10cc1_plugin10connectionEPKcy _Z11fancy_abortPKciS0_ 609
_Z28plugin_build_unary_type_exprPN10cc1_plugin10connectionEPKcy _ZN10hash_tableI15nofree_ptr_hashI9tree_nodeELb0E11xcallocatorE6expandEv 637
_Z28plugin_build_unary_type_exprPN10cc1_plugin10connectionEPKcy scope_chain 659
_Z28plugin_build_unary_type_exprPN10cc1_plugin10connectionEPKcy _Z16dependent_type_pP9tree_node 671
_Z28plugin_build_unary_type_exprPN10cc1_plugin10connectionEPKcy scope_chain 689
_Z25plugin_build_ternary_exprPN10cc1_plugin10connectionEPKcyyy scope_chain 38
_Z25plugin_build_ternary_exprPN10cc1_plugin10connectionEPKcyyy _Z27type_dependent_expression_pP9tree_node 62
_Z25plugin_build_ternary_exprPN10cc1_plugin10connectionEPKcyyy _Z24build_x_conditional_exprjP9tree_nodeS0_S0_i 92
_Z25plugin_build_ternary_exprPN10cc1_plugin10connectionEPKcyyy scope_chain 99
_Z25plugin_build_ternary_exprPN10cc1_plugin10connectionEPKcyyy prime_tab 165
_Z25plugin_build_ternary_exprPN10cc1_plugin10connectionEPKcyyy prime_tab 171
_Z25plugin_build_ternary_exprPN10cc1_plugin10connectionEPKcyyy prime_tab 178
_Z25plugin_build_ternary_exprPN10cc1_plugin10connectionEPKcyyy prime_tab 184
_Z25plugin_build_ternary_exprPN10cc1_plugin10connectionEPKcyyy _ZN10hash_tableI15nofree_ptr_hashI9tree_nodeELb0E11xcallocatorE6expandEv 434
_Z25plugin_build_ternary_exprPN10cc1_plugin10connectionEPKcyyy _Z28value_dependent_expression_pP9tree_node 460
_Z25plugin_build_ternary_exprPN10cc1_plugin10connectionEPKcyyy _Z27type_dependent_expression_pP9tree_node 476
_Z25plugin_build_ternary_exprPN10cc1_plugin10connectionEPKcyyy _Z28value_dependent_expression_pP9tree_node 492
_Z25plugin_build_ternary_exprPN10cc1_plugin10connectionEPKcyyy _Z27type_dependent_expression_pP9tree_node 508
_Z25plugin_build_ternary_exprPN10cc1_plugin10connectionEPKcyyy _Z28value_dependent_expression_pP9tree_node 524
_Z25plugin_build_ternary_exprPN10cc1_plugin10connectionEPKcyyy scope_chain 539
_Z25plugin_build_ternary_exprPN10cc1_plugin10connectionEPKcyyy _Z24build_x_conditional_exprjP9tree_nodeS0_S0_i 565
_Z25plugin_build_ternary_exprPN10cc1_plugin10connectionEPKcyyy _Z11fancy_abortPKciS0_ 619
_Z33plugin_build_dependent_array_typePN10cc1_plugin10connectionEyy _Z26get_identifier_with_lengthPKcm 30
_Z33plugin_build_dependent_array_typePN10cc1_plugin10connectionEyy scope_chain 37
_Z33plugin_build_dependent_array_typePN10cc1_plugin10connectionEyy _Z16dependent_type_pP9tree_node 52
_Z33plugin_build_dependent_array_typePN10cc1_plugin10connectionEyy _Z24compute_array_index_typeP9tree_nodeS0_i 76
_Z33plugin_build_dependent_array_typePN10cc1_plugin10connectionEyy _Z22build_cplus_array_typeP9tree_nodeS0_ 87
_Z33plugin_build_dependent_array_typePN10cc1_plugin10connectionEyy scope_chain 94
_Z33plugin_build_dependent_array_typePN10cc1_plugin10connectionEyy prime_tab 160
_Z33plugin_build_dependent_array_typePN10cc1_plugin10connectionEyy prime_tab 166
_Z33plugin_build_dependent_array_typePN10cc1_plugin10connectionEyy prime_tab 173
_Z33plugin_build_dependent_array_typePN10cc1_plugin10connectionEyy prime_tab 179
_Z33plugin_build_dependent_array_typePN10cc1_plugin10connectionEyy _Z27type_dependent_expression_pP9tree_node 428
_Z33plugin_build_dependent_array_typePN10cc1_plugin10connectionEyy _Z28value_dependent_expression_pP9tree_node 444
_Z33plugin_build_dependent_array_typePN10cc1_plugin10connectionEyy scope_chain 459
_Z33plugin_build_dependent_array_typePN10cc1_plugin10connectionEyy _Z24compute_array_index_typeP9tree_nodeS0_i 479
_Z33plugin_build_dependent_array_typePN10cc1_plugin10connectionEyy _Z22build_cplus_array_typeP9tree_nodeS0_ 490
_Z33plugin_build_dependent_array_typePN10cc1_plugin10connectionEyy _ZN10hash_tableI15nofree_ptr_hashI9tree_nodeELb0E11xcallocatorE6expandEv 514
_Z22plugin_build_cast_exprPN10cc1_plugin10connectionEPKcyy _Z15cp_build_c_castjP9tree_nodeS0_i 68
_Z22plugin_build_cast_exprPN10cc1_plugin10connectionEPKcyy scope_chain 81
_Z22plugin_build_cast_exprPN10cc1_plugin10connectionEPKcyy _Z16dependent_type_pP9tree_node 93
_Z22plugin_build_cast_exprPN10cc1_plugin10connectionEPKcyy input_location 118
_Z22plugin_build_cast_exprPN10cc1_plugin10connectionEPKcyy scope_chain 128
_Z22plugin_build_cast_exprPN10cc1_plugin10connectionEPKcyy prime_tab 194
_Z22plugin_build_cast_exprPN10cc1_plugin10connectionEPKcyy prime_tab 200
_Z22plugin_build_cast_exprPN10cc1_plugin10connectionEPKcyy prime_tab 207
_Z22plugin_build_cast_exprPN10cc1_plugin10connectionEPKcyy prime_tab 213
_Z22plugin_build_cast_exprPN10cc1_plugin10connectionEPKcyy _Z17build_static_castjP9tree_nodeS0_i 418
_Z22plugin_build_cast_exprPN10cc1_plugin10connectionEPKcyy _Z11fancy_abortPKciS0_ 444
_Z22plugin_build_cast_exprPN10cc1_plugin10connectionEPKcyy _ZN10hash_tableI15nofree_ptr_hashI9tree_nodeELb0E11xcallocatorE6expandEv 530
_Z22plugin_build_cast_exprPN10cc1_plugin10connectionEPKcyy _Z27type_dependent_expression_pP9tree_node 556
_Z22plugin_build_cast_exprPN10cc1_plugin10connectionEPKcyy _Z28value_dependent_expression_pP9tree_node 572
_Z22plugin_build_cast_exprPN10cc1_plugin10connectionEPKcyy scope_chain 587
_Z22plugin_build_cast_exprPN10cc1_plugin10connectionEPKcyy input_location 604
_Z22plugin_build_cast_exprPN10cc1_plugin10connectionEPKcyy _Z16build_const_castjP9tree_nodeS0_i 626
_Z22plugin_build_cast_exprPN10cc1_plugin10connectionEPKcyy _Z18build_dynamic_castjP9tree_nodeS0_i 642
_Z22plugin_build_cast_exprPN10cc1_plugin10connectionEPKcyy _Z22build_reinterpret_castjP9tree_nodeS0_i 658
_Z27plugin_build_dependent_exprPN10cc1_plugin10connectionEy18gcc_cp_symbol_kindPKcyPK20gcc_cp_template_args _Z14get_identifierPKc 74
_Z27plugin_build_dependent_exprPN10cc1_plugin10connectionEy18gcc_cp_symbol_kindPKcyPK20gcc_cp_template_args tree_code_type 89
_Z27plugin_build_dependent_exprPN10cc1_plugin10connectionEy18gcc_cp_symbol_kindPKcyPK20gcc_cp_template_args _Z21lookup_qualified_nameP9tree_nodeS0_ibb 120
_Z27plugin_build_dependent_exprPN10cc1_plugin10connectionEy18gcc_cp_symbol_kindPKcyPK20gcc_cp_template_args _Z24lookup_template_functionP9tree_nodeS0_ 147
_Z27plugin_build_dependent_exprPN10cc1_plugin10connectionEy18gcc_cp_symbol_kindPKcyPK20gcc_cp_template_args _Z20build_qualified_nameP9tree_nodeS0_S0_b 176
_Z27plugin_build_dependent_exprPN10cc1_plugin10connectionEy18gcc_cp_symbol_kindPKcyPK20gcc_cp_template_args prime_tab 234
_Z27plugin_build_dependent_exprPN10cc1_plugin10connectionEy18gcc_cp_symbol_kindPKcyPK20gcc_cp_template_args prime_tab 241
_Z27plugin_build_dependent_exprPN10cc1_plugin10connectionEy18gcc_cp_symbol_kindPKcyPK20gcc_cp_template_args prime_tab 247
_Z27plugin_build_dependent_exprPN10cc1_plugin10connectionEy18gcc_cp_symbol_kindPKcyPK20gcc_cp_template_args prime_tab 253
_Z27plugin_build_dependent_exprPN10cc1_plugin10connectionEy18gcc_cp_symbol_kindPKcyPK20gcc_cp_template_args _ZN10hash_tableI15nofree_ptr_hashI9tree_nodeELb0E11xcallocatorE6expandEv 501
_Z27plugin_build_dependent_exprPN10cc1_plugin10connectionEy18gcc_cp_symbol_kindPKcyPK20gcc_cp_template_args _Z11fancy_abortPKciS0_ 756
_Z27plugin_build_dependent_exprPN10cc1_plugin10connectionEy18gcc_cp_symbol_kindPKcyPK20gcc_cp_template_args _Z17dependent_scope_pP9tree_node 772
_Z27plugin_build_dependent_exprPN10cc1_plugin10connectionEy18gcc_cp_symbol_kindPKcyPK20gcc_cp_template_args ovl_op_mapping 911
_Z27plugin_build_dependent_exprPN10cc1_plugin10connectionEy18gcc_cp_symbol_kindPKcyPK20gcc_cp_template_args ovl_op_info 929
_Z27plugin_build_dependent_exprPN10cc1_plugin10connectionEy18gcc_cp_symbol_kindPKcyPK20gcc_cp_template_args _Z11fancy_abortPKciS0_ 958
_Z27plugin_build_dependent_exprPN10cc1_plugin10connectionEy18gcc_cp_symbol_kindPKcyPK20gcc_cp_template_args xstrndup 1070
_Z27plugin_build_dependent_exprPN10cc1_plugin10connectionEy18gcc_cp_symbol_kindPKcyPK20gcc_cp_template_args _Z22cp_literal_operator_idPKc 1081
_Z27plugin_build_dependent_exprPN10cc1_plugin10connectionEy18gcc_cp_symbol_kindPKcyPK20gcc_cp_template_args free 1092
_Z27plugin_build_dependent_exprPN10cc1_plugin10connectionEy18gcc_cp_symbol_kindPKcyPK20gcc_cp_template_args _Z11fancy_abortPKciS0_ 1126
_Z27plugin_build_dependent_exprPN10cc1_plugin10connectionEy18gcc_cp_symbol_kindPKcyPK20gcc_cp_template_args cp_global_trees 1679
_Z27plugin_build_dependent_exprPN10cc1_plugin10connectionEy18gcc_cp_symbol_kindPKcyPK20gcc_cp_template_args cp_global_trees 1718
_Z27plugin_build_dependent_exprPN10cc1_plugin10connectionEy18gcc_cp_symbol_kindPKcyPK20gcc_cp_template_args _Z17make_conv_op_nameP9tree_node 1761
_Z27plugin_build_dependent_exprPN10cc1_plugin10connectionEy18gcc_cp_symbol_kindPKcyPK20gcc_cp_template_args _Z22cp_literal_operator_idPKc 2091
_Z27plugin_build_dependent_exprPN10cc1_plugin10connectionEy18gcc_cp_symbol_kindPKcyPK20gcc_cp_template_args _Z11fancy_abortPKciS0_ 2155
_Z27plugin_build_dependent_exprPN10cc1_plugin10connectionEy18gcc_cp_symbol_kindPKcyPK20gcc_cp_template_args _Z11fancy_abortPKciS0_ 2175
_Z27plugin_build_dependent_exprPN10cc1_plugin10connectionEy18gcc_cp_symbol_kindPKcyPK20gcc_cp_template_args _Z11fancy_abortPKciS0_ 2195
_Z27plugin_build_dependent_exprPN10cc1_plugin10connectionEy18gcc_cp_symbol_kindPKcyPK20gcc_cp_template_args _Z11fancy_abortPKciS0_ 2215
_Z23plugin_build_unary_exprPN10cc1_plugin10connectionEPKcy scope_chain 115
_Z23plugin_build_unary_exprPN10cc1_plugin10connectionEPKcy _Z27type_dependent_expression_pP9tree_node 141
_Z23plugin_build_unary_exprPN10cc1_plugin10connectionEPKcy _Z11fancy_abortPKciS0_ 266
_Z23plugin_build_unary_exprPN10cc1_plugin10connectionEPKcy scope_chain 324
_Z23plugin_build_unary_exprPN10cc1_plugin10connectionEPKcy _Z11fancy_abortPKciS0_ 425
_Z23plugin_build_unary_exprPN10cc1_plugin10connectionEPKcy _Z19make_pack_expansionP9tree_nodei 441
_Z23plugin_build_unary_exprPN10cc1_plugin10connectionEPKcy scope_chain 456
_Z23plugin_build_unary_exprPN10cc1_plugin10connectionEPKcy prime_tab 522
_Z23plugin_build_unary_exprPN10cc1_plugin10connectionEPKcy prime_tab 528
_Z23plugin_build_unary_exprPN10cc1_plugin10connectionEPKcy prime_tab 535
_Z23plugin_build_unary_exprPN10cc1_plugin10connectionEPKcy prime_tab 541
_Z23plugin_build_unary_exprPN10cc1_plugin10connectionEPKcy _Z19make_pack_expansionP9tree_nodei 737
_Z23plugin_build_unary_exprPN10cc1_plugin10connectionEPKcy _Z20finish_noexcept_exprP9tree_nodei 761
_Z23plugin_build_unary_exprPN10cc1_plugin10connectionEPKcy _Z12build_typeidP9tree_nodei 785
_Z23plugin_build_unary_exprPN10cc1_plugin10connectionEPKcy input_location 818
_Z23plugin_build_unary_exprPN10cc1_plugin10connectionEPKcy _Z11build_throwjP9tree_node 826
_Z23plugin_build_unary_exprPN10cc1_plugin10connectionEPKcy input_location 842
_Z23plugin_build_unary_exprPN10cc1_plugin10connectionEPKcy _Z13delete_sanityjP9tree_nodeS0_bii 877
_Z23plugin_build_unary_exprPN10cc1_plugin10connectionEPKcy input_location 898
_Z23plugin_build_unary_exprPN10cc1_plugin10connectionEPKcy _Z26cxx_sizeof_or_alignof_exprjP9tree_node9tree_codeb 914
_Z23plugin_build_unary_exprPN10cc1_plugin10connectionEPKcy _Z16cp_expr_locationPK9tree_node 932
_Z23plugin_build_unary_exprPN10cc1_plugin10connectionEPKcy _Z16build_x_unary_opj9tree_code7cp_expri 953
_Z23plugin_build_unary_exprPN10cc1_plugin10connectionEPKcy _Z28value_dependent_expression_pP9tree_node 1108
_Z23plugin_build_unary_exprPN10cc1_plugin10connectionEPKcy scope_chain 1123
_Z23plugin_build_unary_exprPN10cc1_plugin10connectionEPKcy _ZN10hash_tableI15nofree_ptr_hashI9tree_nodeELb0E11xcallocatorE6expandEv 1210
_Z23plugin_build_unary_exprPN10cc1_plugin10connectionEPKcy _Z11fancy_abortPKciS0_ 1414
_Z23plugin_build_unary_exprPN10cc1_plugin10connectionEPKcy _Z11fancy_abortPKciS0_ 1434
_Z23plugin_build_unary_exprPN10cc1_plugin10connectionEPKcy _Z11fancy_abortPKciS0_ 1454
_Z23plugin_build_unary_exprPN10cc1_plugin10connectionEPKcy _Z11fancy_abortPKciS0_ 1474
_Z24plugin_build_binary_exprPN10cc1_plugin10connectionEPKcyy _Z11fancy_abortPKciS0_ 448
_Z24plugin_build_binary_exprPN10cc1_plugin10connectionEPKcyy scope_chain 531
_Z24plugin_build_binary_exprPN10cc1_plugin10connectionEPKcyy _Z27type_dependent_expression_pP9tree_node 543
_Z24plugin_build_binary_exprPN10cc1_plugin10connectionEPKcyy _Z13build_x_arrowjP9tree_nodei 588
_Z24plugin_build_binary_exprPN10cc1_plugin10connectionEPKcyy _Z16cp_expr_locationPK9tree_node 599
_Z24plugin_build_binary_exprPN10cc1_plugin10connectionEPKcyy _Z31finish_class_member_access_expr7cp_exprP9tree_nodebi 620
_Z24plugin_build_binary_exprPN10cc1_plugin10connectionEPKcyy scope_chain 632
_Z24plugin_build_binary_exprPN10cc1_plugin10connectionEPKcyy prime_tab 698
_Z24plugin_build_binary_exprPN10cc1_plugin10connectionEPKcyy prime_tab 704
_Z24plugin_build_binary_exprPN10cc1_plugin10connectionEPKcyy prime_tab 711
_Z24plugin_build_binary_exprPN10cc1_plugin10connectionEPKcyy prime_tab 717
_Z24plugin_build_binary_exprPN10cc1_plugin10connectionEPKcyy _Z17build_x_binary_opRK13op_location_t9tree_codeP9tree_nodeS2_S4_S2_PS4_i 1241
_Z24plugin_build_binary_exprPN10cc1_plugin10connectionEPKcyy _Z28value_dependent_expression_pP9tree_node 1260
_Z24plugin_build_binary_exprPN10cc1_plugin10connectionEPKcyy _Z27type_dependent_expression_pP9tree_node 1276
_Z24plugin_build_binary_exprPN10cc1_plugin10connectionEPKcyy _Z28value_dependent_expression_pP9tree_node 1292
_Z24plugin_build_binary_exprPN10cc1_plugin10connectionEPKcyy scope_chain 1307
_Z24plugin_build_binary_exprPN10cc1_plugin10connectionEPKcyy _ZN10hash_tableI15nofree_ptr_hashI9tree_nodeELb0E11xcallocatorE6expandEv 1338
_Z35plugin_build_exception_spec_variantPN10cc1_plugin10connectionEyPK14gcc_type_array cp_global_trees 25
_Z35plugin_build_exception_spec_variantPN10cc1_plugin10connectionEyPK14gcc_type_array cp_global_trees 37
_Z35plugin_build_exception_spec_variantPN10cc1_plugin10connectionEyPK14gcc_type_array _Z23add_exception_specifierP9tree_nodeS0_i 79
_Z35plugin_build_exception_spec_variantPN10cc1_plugin10connectionEyPK14gcc_type_array _Z23build_exception_variantP9tree_nodeS0_ 103
_Z35plugin_build_exception_spec_variantPN10cc1_plugin10connectionEyPK14gcc_type_array prime_tab 165
_Z35plugin_build_exception_spec_variantPN10cc1_plugin10connectionEyPK14gcc_type_array prime_tab 171
_Z35plugin_build_exception_spec_variantPN10cc1_plugin10connectionEyPK14gcc_type_array prime_tab 178
_Z35plugin_build_exception_spec_variantPN10cc1_plugin10connectionEyPK14gcc_type_array prime_tab 184
_Z35plugin_build_exception_spec_variantPN10cc1_plugin10connectionEyPK14gcc_type_array _ZN10hash_tableI15nofree_ptr_hashI9tree_nodeELb0E11xcallocatorE6expandEv 426
_Z22plugin_build_call_exprPN10cc1_plugin10connectionEyiPK20gcc_cp_function_args _Z16make_tree_vectorv 35
_Z22plugin_build_call_exprPN10cc1_plugin10connectionEyiPK20gcc_cp_function_args _ZN5va_gc7reserveIP9tree_nodeS_EEvRP3vecIT_T0_8vl_embedEjb 134
_Z22plugin_build_call_exprPN10cc1_plugin10connectionEyiPK20gcc_cp_function_args _Z16is_overloaded_fnP9tree_node 202
_Z22plugin_build_call_exprPN10cc1_plugin10connectionEyiPK20gcc_cp_function_args _Z16finish_call_exprP9tree_nodePP3vecIS0_5va_gc8vl_embedEbbi 300
_Z22plugin_build_call_exprPN10cc1_plugin10connectionEyiPK20gcc_cp_function_args _Z19release_tree_vectorP3vecIP9tree_node5va_gc8vl_embedE 320
_Z22plugin_build_call_exprPN10cc1_plugin10connectionEyiPK20gcc_cp_function_args prime_tab 371
_Z22plugin_build_call_exprPN10cc1_plugin10connectionEyiPK20gcc_cp_function_args prime_tab 377
_Z22plugin_build_call_exprPN10cc1_plugin10connectionEyiPK20gcc_cp_function_args prime_tab 384
_Z22plugin_build_call_exprPN10cc1_plugin10connectionEyiPK20gcc_cp_function_args prime_tab 390
_Z22plugin_build_call_exprPN10cc1_plugin10connectionEyiPK20gcc_cp_function_args _Z31build_offset_ref_call_from_treeP9tree_nodePP3vecIS0_5va_gc8vl_embedEi 653
_Z22plugin_build_call_exprPN10cc1_plugin10connectionEyiPK20gcc_cp_function_args _Z12get_first_fnP9tree_node 678
_Z22plugin_build_call_exprPN10cc1_plugin10connectionEyiPK20gcc_cp_function_args _Z30any_type_dependent_arguments_pPK3vecIP9tree_node5va_gc8vl_embedE 740
_Z22plugin_build_call_exprPN10cc1_plugin10connectionEyiPK20gcc_cp_function_args _Z16cp_expr_locationPK9tree_node 766
_Z22plugin_build_call_exprPN10cc1_plugin10connectionEyiPK20gcc_cp_function_args _Z21perform_koenig_lookup7cp_exprP3vecIP9tree_node5va_gc8vl_embedEi 781
_Z22plugin_build_call_exprPN10cc1_plugin10connectionEyiPK20gcc_cp_function_args _Z27type_dependent_expression_pP9tree_node 833
_Z22plugin_build_call_exprPN10cc1_plugin10connectionEyiPK20gcc_cp_function_args _Z17build_nt_call_vecP9tree_nodeP3vecIS0_5va_gc8vl_embedE 868
_Z22plugin_build_call_exprPN10cc1_plugin10connectionEyiPK20gcc_cp_function_args _ZN10hash_tableI15nofree_ptr_hashI9tree_nodeELb0E11xcallocatorE6expandEv 901
_Z22plugin_build_call_exprPN10cc1_plugin10connectionEyiPK20gcc_cp_function_args _Z27type_dependent_expression_pP9tree_node 958
_Z22plugin_build_call_exprPN10cc1_plugin10connectionEyiPK20gcc_cp_function_args _Z30any_type_dependent_arguments_pPK3vecIP9tree_node5va_gc8vl_embedE 972
_Z22plugin_build_call_exprPN10cc1_plugin10connectionEyiPK20gcc_cp_function_args _Z21build_new_method_callP9tree_nodeS0_PP3vecIS0_5va_gc8vl_embedES0_iPS0_i 1029
_Z22plugin_build_call_exprPN10cc1_plugin10connectionEyiPK20gcc_cp_function_args _Z16finish_call_exprP9tree_nodePP3vecIS0_5va_gc8vl_embedEbbi 1061
_Z33plugin_build_expression_list_exprPN10cc1_plugin10connectionEPKcyPK20gcc_cp_function_args _Z11fancy_abortPKciS0_ 82
_Z33plugin_build_expression_list_exprPN10cc1_plugin10connectionEPKcyPK20gcc_cp_function_args tree_code_type 107
_Z33plugin_build_expression_list_exprPN10cc1_plugin10connectionEPKcyPK20gcc_cp_function_args _Z15build_tree_listP9tree_nodeS0_ 147
_Z33plugin_build_expression_list_exprPN10cc1_plugin10connectionEPKcyPK20gcc_cp_function_args input_location 190
_Z33plugin_build_expression_list_exprPN10cc1_plugin10connectionEPKcyPK20gcc_cp_function_args _Z21build_functional_castjP9tree_nodeS0_i 195
_Z33plugin_build_expression_list_exprPN10cc1_plugin10connectionEPKcyPK20gcc_cp_function_args prime_tab 253
_Z33plugin_build_expression_list_exprPN10cc1_plugin10connectionEPKcyPK20gcc_cp_function_args prime_tab 259
_Z33plugin_build_expression_list_exprPN10cc1_plugin10connectionEPKcyPK20gcc_cp_function_args prime_tab 265
_Z33plugin_build_expression_list_exprPN10cc1_plugin10connectionEPKcyPK20gcc_cp_function_args prime_tab 271
_Z33plugin_build_expression_list_exprPN10cc1_plugin10connectionEPKcyPK20gcc_cp_function_args tree_code_type 519
_Z33plugin_build_expression_list_exprPN10cc1_plugin10connectionEPKcyPK20gcc_cp_function_args _Z9make_node9tree_code 536
_Z33plugin_build_expression_list_exprPN10cc1_plugin10connectionEPKcyPK20gcc_cp_function_args _ZN10vec_prefix22calculate_allocation_1Ejj 653
_Z33plugin_build_expression_list_exprPN10cc1_plugin10connectionEPKcyPK20gcc_cp_function_args _Z20ggc_round_alloc_sizem 672
_Z33plugin_build_expression_list_exprPN10cc1_plugin10connectionEPKcyPK20gcc_cp_function_args _Z11ggc_reallocPvm 718
_Z33plugin_build_expression_list_exprPN10cc1_plugin10connectionEPKcyPK20gcc_cp_function_args _Z8ggc_freePv 788
_Z33plugin_build_expression_list_exprPN10cc1_plugin10connectionEPKcyPK20gcc_cp_function_args _Z20ggc_round_alloc_sizem 814
_Z33plugin_build_expression_list_exprPN10cc1_plugin10connectionEPKcyPK20gcc_cp_function_args _Z23finish_compound_literalP9tree_nodeS0_i5fcl_t 893
_Z33plugin_build_expression_list_exprPN10cc1_plugin10connectionEPKcyPK20gcc_cp_function_args _Z9make_node9tree_code 930
_Z33plugin_build_expression_list_exprPN10cc1_plugin10connectionEPKcyPK20gcc_cp_function_args _ZN10vec_prefix22calculate_allocation_1Ejj 1047
_Z33plugin_build_expression_list_exprPN10cc1_plugin10connectionEPKcyPK20gcc_cp_function_args _Z20ggc_round_alloc_sizem 1080
_Z33plugin_build_expression_list_exprPN10cc1_plugin10connectionEPKcyPK20gcc_cp_function_args _Z11ggc_reallocPvm 1145
_Z33plugin_build_expression_list_exprPN10cc1_plugin10connectionEPKcyPK20gcc_cp_function_args _Z20ggc_round_alloc_sizem 1211
_Z33plugin_build_expression_list_exprPN10cc1_plugin10connectionEPKcyPK20gcc_cp_function_args _ZN10hash_tableI15nofree_ptr_hashI9tree_nodeELb0E11xcallocatorE6expandEv 1285
_Z33plugin_build_expression_list_exprPN10cc1_plugin10connectionEPKcyPK20gcc_cp_function_args _Z11fancy_abortPKciS0_ 1330
_Z33plugin_build_expression_list_exprPN10cc1_plugin10connectionEPKcyPK20gcc_cp_function_args _Z11fancy_abortPKciS0_ 1350
_Z33plugin_build_expression_list_exprPN10cc1_plugin10connectionEPKcyPK20gcc_cp_function_args _Z11fancy_abortPKciS0_ 1370
_Z33plugin_build_expression_list_exprPN10cc1_plugin10connectionEPKcyPK20gcc_cp_function_args _Z11fancy_abortPKciS0_ 1390
_Z42plugin_build_class_template_specializationPN10cc1_plugin10connectionEyPK20gcc_cp_template_argsPKcj htab_hash_string 40
_Z42plugin_build_class_template_specializationPN10cc1_plugin10connectionEyPK20gcc_cp_template_argsPKcj _ZN10hash_tableI13string_hasherLb0E11xcallocatorE19find_slot_with_hashERKPKcj13insert_option 61
_Z42plugin_build_class_template_specializationPN10cc1_plugin10connectionEyPK20gcc_cp_template_argsPKcj line_table 83
_Z42plugin_build_class_template_specializationPN10cc1_plugin10connectionEyPK20gcc_cp_template_argsPKcj _Z11linemap_addP9line_maps9lc_reasonjPKcj 95
_Z42plugin_build_class_template_specializationPN10cc1_plugin10connectionEyPK20gcc_cp_template_argsPKcj line_table 102
_Z42plugin_build_class_template_specializationPN10cc1_plugin10connectionEyPK20gcc_cp_template_argsPKcj _Z18linemap_line_startP9line_mapsjj 112
_Z42plugin_build_class_template_specializationPN10cc1_plugin10connectionEyPK20gcc_cp_template_argsPKcj line_table 119
_Z42plugin_build_class_template_specializationPN10cc1_plugin10connectionEyPK20gcc_cp_template_argsPKcj _Z11linemap_addP9line_maps9lc_reasonjPKcj 138
_Z42plugin_build_class_template_specializationPN10cc1_plugin10connectionEyPK20gcc_cp_template_argsPKcj _Z20finish_template_typeP9tree_nodeS0_i 159
_Z42plugin_build_class_template_specializationPN10cc1_plugin10connectionEyPK20gcc_cp_template_argsPKcj prime_tab 224
_Z42plugin_build_class_template_specializationPN10cc1_plugin10connectionEyPK20gcc_cp_template_argsPKcj prime_tab 230
_Z42plugin_build_class_template_specializationPN10cc1_plugin10connectionEyPK20gcc_cp_template_argsPKcj prime_tab 237
_Z42plugin_build_class_template_specializationPN10cc1_plugin10connectionEyPK20gcc_cp_template_argsPKcj prime_tab 243
_Z42plugin_build_class_template_specializationPN10cc1_plugin10connectionEyPK20gcc_cp_template_argsPKcj _ZN10hash_tableI15nofree_ptr_hashI9tree_nodeELb0E11xcallocatorE6expandEv 490
_Z42plugin_build_class_template_specializationPN10cc1_plugin10connectionEyPK20gcc_cp_template_argsPKcj xstrdup 539
_Z24plugin_add_static_assertPN10cc1_plugin10connectionEyPKcS3_j strlen 42
_Z24plugin_add_static_assertPN10cc1_plugin10connectionEyPKcS3_j _Z12build_stringjPKc 55
_Z24plugin_add_static_assertPN10cc1_plugin10connectionEyPKcS3_j c_global_trees 65
_Z24plugin_add_static_assertPN10cc1_plugin10connectionEyPKcS3_j _Z15fix_string_typeP9tree_node 77
_Z24plugin_add_static_assertPN10cc1_plugin10connectionEyPKcS3_j htab_hash_string 95
_Z24plugin_add_static_assertPN10cc1_plugin10connectionEyPKcS3_j _ZN10hash_tableI13string_hasherLb0E11xcallocatorE19find_slot_with_hashERKPKcj13insert_option 116
_Z24plugin_add_static_assertPN10cc1_plugin10connectionEyPKcS3_j line_table 134
_Z24plugin_add_static_assertPN10cc1_plugin10connectionEyPKcS3_j _Z11linemap_addP9line_maps9lc_reasonjPKcj 146
_Z24plugin_add_static_assertPN10cc1_plugin10connectionEyPKcS3_j line_table 153
_Z24plugin_add_static_assertPN10cc1_plugin10connectionEyPKcS3_j _Z18linemap_line_startP9line_mapsjj 163
_Z24plugin_add_static_assertPN10cc1_plugin10connectionEyPKcS3_j line_table 170
_Z24plugin_add_static_assertPN10cc1_plugin10connectionEyPKcS3_j _Z11linemap_addP9line_maps9lc_reasonjPKcj 189
_Z24plugin_add_static_assertPN10cc1_plugin10connectionEyPKcS3_j _Z16at_class_scope_pv 194
_Z24plugin_add_static_assertPN10cc1_plugin10connectionEyPKcS3_j _Z20finish_static_assertP9tree_nodeS0_jb 210
_Z24plugin_add_static_assertPN10cc1_plugin10connectionEyPKcS3_j xstrdup 262
_Z22plugin_start_enum_typePN10cc1_plugin10connectionEPKcy18gcc_cp_symbol_kindS3_j _Z16at_class_scope_pv 73
_Z22plugin_start_enum_typePN10cc1_plugin10connectionEPKcy18gcc_cp_symbol_kindS3_j global_trees 96
_Z22plugin_start_enum_typePN10cc1_plugin10connectionEPKcy18gcc_cp_symbol_kindS3_j _Z14get_identifierPKc 127
_Z22plugin_start_enum_typePN10cc1_plugin10connectionEPKcy18gcc_cp_symbol_kindS3_j _Z10start_enumP9tree_nodeS0_S0_S0_bPb 158
_Z22plugin_start_enum_typePN10cc1_plugin10connectionEPKcy18gcc_cp_symbol_kindS3_j htab_hash_string 196
_Z22plugin_start_enum_typePN10cc1_plugin10connectionEPKcy18gcc_cp_symbol_kindS3_j _ZN10hash_tableI13string_hasherLb0E11xcallocatorE19find_slot_with_hashERKPKcj13insert_option 217
_Z22plugin_start_enum_typePN10cc1_plugin10connectionEPKcy18gcc_cp_symbol_kindS3_j line_table 244
_Z22plugin_start_enum_typePN10cc1_plugin10connectionEPKcy18gcc_cp_symbol_kindS3_j _Z11linemap_addP9line_maps9lc_reasonjPKcj 256
_Z22plugin_start_enum_typePN10cc1_plugin10connectionEPKcy18gcc_cp_symbol_kindS3_j line_table 263
_Z22plugin_start_enum_typePN10cc1_plugin10connectionEPKcy18gcc_cp_symbol_kindS3_j _Z18linemap_line_startP9line_mapsjj 273
_Z22plugin_start_enum_typePN10cc1_plugin10connectionEPKcy18gcc_cp_symbol_kindS3_j line_table 280
_Z22plugin_start_enum_typePN10cc1_plugin10connectionEPKcy18gcc_cp_symbol_kindS3_j _Z11linemap_addP9line_maps9lc_reasonjPKcj 300
_Z22plugin_start_enum_typePN10cc1_plugin10connectionEPKcy18gcc_cp_symbol_kindS3_j tree_code_type 333
_Z22plugin_start_enum_typePN10cc1_plugin10connectionEPKcy18gcc_cp_symbol_kindS3_j scope_chain 384
_Z22plugin_start_enum_typePN10cc1_plugin10connectionEPKcy18gcc_cp_symbol_kindS3_j global_trees 391
_Z22plugin_start_enum_typePN10cc1_plugin10connectionEPKcy18gcc_cp_symbol_kindS3_j prime_tab 457
_Z22plugin_start_enum_typePN10cc1_plugin10connectionEPKcy18gcc_cp_symbol_kindS3_j prime_tab 463
_Z22plugin_start_enum_typePN10cc1_plugin10connectionEPKcy18gcc_cp_symbol_kindS3_j prime_tab 470
_Z22plugin_start_enum_typePN10cc1_plugin10connectionEPKcy18gcc_cp_symbol_kindS3_j prime_tab 476
_Z22plugin_start_enum_typePN10cc1_plugin10connectionEPKcy18gcc_cp_symbol_kindS3_j scope_chain 711
_Z22plugin_start_enum_typePN10cc1_plugin10connectionEPKcy18gcc_cp_symbol_kindS3_j global_trees 718
_Z22plugin_start_enum_typePN10cc1_plugin10connectionEPKcy18gcc_cp_symbol_kindS3_j _ZN10hash_tableI15nofree_ptr_hashI9tree_nodeELb0E11xcallocatorE6expandEv 757
_Z22plugin_start_enum_typePN10cc1_plugin10connectionEPKcy18gcc_cp_symbol_kindS3_j scope_chain 779
_Z22plugin_start_enum_typePN10cc1_plugin10connectionEPKcy18gcc_cp_symbol_kindS3_j global_trees 786
_Z22plugin_start_enum_typePN10cc1_plugin10connectionEPKcy18gcc_cp_symbol_kindS3_j _Z14make_anon_namev 801
_Z22plugin_start_enum_typePN10cc1_plugin10connectionEPKcy18gcc_cp_symbol_kindS3_j xstrdup 838
_Z22plugin_start_enum_typePN10cc1_plugin10connectionEPKcy18gcc_cp_symbol_kindS3_j _Z11fancy_abortPKciS0_ 870
_Z22plugin_start_enum_typePN10cc1_plugin10connectionEPKcy18gcc_cp_symbol_kindS3_j _Z11fancy_abortPKciS0_ 895
_Z22plugin_start_enum_typePN10cc1_plugin10connectionEPKcy18gcc_cp_symbol_kindS3_j _Z11fancy_abortPKciS0_ 915
_Z22plugin_start_enum_typePN10cc1_plugin10connectionEPKcy18gcc_cp_symbol_kindS3_j _Z11fancy_abortPKciS0_ 935
_Z36plugin_build_type_template_parameterPN10cc1_plugin10connectionEPKciyS3_j htab_hash_string 45
_Z36plugin_build_type_template_parameterPN10cc1_plugin10connectionEPKciyS3_j _ZN10hash_tableI13string_hasherLb0E11xcallocatorE19find_slot_with_hashERKPKcj13insert_option 66
_Z36plugin_build_type_template_parameterPN10cc1_plugin10connectionEPKciyS3_j line_table 88
_Z36plugin_build_type_template_parameterPN10cc1_plugin10connectionEPKciyS3_j _Z11linemap_addP9line_maps9lc_reasonjPKcj 100
_Z36plugin_build_type_template_parameterPN10cc1_plugin10connectionEPKciyS3_j line_table 107
_Z36plugin_build_type_template_parameterPN10cc1_plugin10connectionEPKciyS3_j _Z18linemap_line_startP9line_mapsjj 117
_Z36plugin_build_type_template_parameterPN10cc1_plugin10connectionEPKciyS3_j line_table 124
_Z36plugin_build_type_template_parameterPN10cc1_plugin10connectionEPKciyS3_j _Z11linemap_addP9line_maps9lc_reasonjPKcj 143
_Z36plugin_build_type_template_parameterPN10cc1_plugin10connectionEPKciyS3_j _Z21template_parm_scope_pv 148
_Z36plugin_build_type_template_parameterPN10cc1_plugin10connectionEPKciyS3_j _Z14get_identifierPKc 164
_Z36plugin_build_type_template_parameterPN10cc1_plugin10connectionEPKciyS3_j cp_global_trees 171
_Z36plugin_build_type_template_parameterPN10cc1_plugin10connectionEPKciyS3_j _Z25finish_template_type_parmP9tree_nodeS0_ 179
_Z36plugin_build_type_template_parameterPN10cc1_plugin10connectionEPKciyS3_j _Z15build_tree_listP9tree_nodeS0_ 190
_Z36plugin_build_type_template_parameterPN10cc1_plugin10connectionEPKciyS3_j scope_chain 218
_Z36plugin_build_type_template_parameterPN10cc1_plugin10connectionEPKciyS3_j _Z21process_template_parmP9tree_nodejS0_bb 243
_Z36plugin_build_type_template_parameterPN10cc1_plugin10connectionEPKciyS3_j scope_chain 255
_Z36plugin_build_type_template_parameterPN10cc1_plugin10connectionEPKciyS3_j _Z9tree_lastP9tree_node 268
_Z36plugin_build_type_template_parameterPN10cc1_plugin10connectionEPKciyS3_j prime_tab 338
_Z36plugin_build_type_template_parameterPN10cc1_plugin10connectionEPKciyS3_j prime_tab 344
_Z36plugin_build_type_template_parameterPN10cc1_plugin10connectionEPKciyS3_j prime_tab 351
_Z36plugin_build_type_template_parameterPN10cc1_plugin10connectionEPKciyS3_j prime_tab 357
_Z36plugin_build_type_template_parameterPN10cc1_plugin10connectionEPKciyS3_j _ZN10hash_tableI15nofree_ptr_hashI9tree_nodeELb0E11xcallocatorE6expandEv 602
_Z36plugin_build_type_template_parameterPN10cc1_plugin10connectionEPKciyS3_j xstrdup 637
_Z36plugin_build_type_template_parameterPN10cc1_plugin10connectionEPKciyS3_j _Z11fancy_abortPKciS0_ 669
_Z36plugin_build_type_template_parameterPN10cc1_plugin10connectionEPKciyS3_j _Z11fancy_abortPKciS0_ 689
_Z31plugin_start_closure_class_typePN10cc1_plugin10connectionEiy18gcc_cp_symbol_kindPKcj _Z16at_class_scope_pv 68
_Z31plugin_start_closure_class_typePN10cc1_plugin10connectionEiy18gcc_cp_symbol_kindPKcj _Z19at_function_scope_pv 85
_Z31plugin_start_closure_class_typePN10cc1_plugin10connectionEiy18gcc_cp_symbol_kindPKcj _Z17build_lambda_exprv 138
_Z31plugin_start_closure_class_typePN10cc1_plugin10connectionEiy18gcc_cp_symbol_kindPKcj htab_hash_string 161
_Z31plugin_start_closure_class_typePN10cc1_plugin10connectionEiy18gcc_cp_symbol_kindPKcj _ZN10hash_tableI13string_hasherLb0E11xcallocatorE19find_slot_with_hashERKPKcj13insert_option 182
_Z31plugin_start_closure_class_typePN10cc1_plugin10connectionEiy18gcc_cp_symbol_kindPKcj line_table 209
_Z31plugin_start_closure_class_typePN10cc1_plugin10connectionEiy18gcc_cp_symbol_kindPKcj _Z11linemap_addP9line_maps9lc_reasonjPKcj 221
_Z31plugin_start_closure_class_typePN10cc1_plugin10connectionEiy18gcc_cp_symbol_kindPKcj line_table 228
_Z31plugin_start_closure_class_typePN10cc1_plugin10connectionEiy18gcc_cp_symbol_kindPKcj _Z18linemap_line_startP9line_mapsjj 238
_Z31plugin_start_closure_class_typePN10cc1_plugin10connectionEiy18gcc_cp_symbol_kindPKcj line_table 245
_Z31plugin_start_closure_class_typePN10cc1_plugin10connectionEiy18gcc_cp_symbol_kindPKcj _Z11linemap_addP9line_maps9lc_reasonjPKcj 265
_Z31plugin_start_closure_class_typePN10cc1_plugin10connectionEiy18gcc_cp_symbol_kindPKcj _Z17begin_lambda_typeP9tree_node 280
_Z31plugin_start_closure_class_typePN10cc1_plugin10connectionEiy18gcc_cp_symbol_kindPKcj _Z20determine_visibilityP9tree_node 307
_Z31plugin_start_closure_class_typePN10cc1_plugin10connectionEiy18gcc_cp_symbol_kindPKcj tree_code_type 331
_Z31plugin_start_closure_class_typePN10cc1_plugin10connectionEiy18gcc_cp_symbol_kindPKcj scope_chain 380
_Z31plugin_start_closure_class_typePN10cc1_plugin10connectionEiy18gcc_cp_symbol_kindPKcj global_trees 387
_Z31plugin_start_closure_class_typePN10cc1_plugin10connectionEiy18gcc_cp_symbol_kindPKcj prime_tab 445
_Z31plugin_start_closure_class_typePN10cc1_plugin10connectionEiy18gcc_cp_symbol_kindPKcj prime_tab 451
_Z31plugin_start_closure_class_typePN10cc1_plugin10connectionEiy18gcc_cp_symbol_kindPKcj prime_tab 458
_Z31plugin_start_closure_class_typePN10cc1_plugin10connectionEiy18gcc_cp_symbol_kindPKcj prime_tab 464
_Z31plugin_start_closure_class_typePN10cc1_plugin10connectionEiy18gcc_cp_symbol_kindPKcj scope_chain 649
_Z31plugin_start_closure_class_typePN10cc1_plugin10connectionEiy18gcc_cp_symbol_kindPKcj global_trees 656
_Z31plugin_start_closure_class_typePN10cc1_plugin10connectionEiy18gcc_cp_symbol_kindPKcj _ZN10hash_tableI15nofree_ptr_hashI9tree_nodeELb0E11xcallocatorE6expandEv 741
_Z31plugin_start_closure_class_typePN10cc1_plugin10connectionEiy18gcc_cp_symbol_kindPKcj scope_chain 763
_Z31plugin_start_closure_class_typePN10cc1_plugin10connectionEiy18gcc_cp_symbol_kindPKcj global_trees 770
_Z31plugin_start_closure_class_typePN10cc1_plugin10connectionEiy18gcc_cp_symbol_kindPKcj current_function_decl 816
_Z31plugin_start_closure_class_typePN10cc1_plugin10connectionEiy18gcc_cp_symbol_kindPKcj _Z11fancy_abortPKciS0_ 866
_Z31plugin_start_closure_class_typePN10cc1_plugin10connectionEiy18gcc_cp_symbol_kindPKcj _Z16at_class_scope_pv 897
_Z31plugin_start_closure_class_typePN10cc1_plugin10connectionEiy18gcc_cp_symbol_kindPKcj scope_chain 912
_Z31plugin_start_closure_class_typePN10cc1_plugin10connectionEiy18gcc_cp_symbol_kindPKcj _Z11fancy_abortPKciS0_ 947
_Z31plugin_start_closure_class_typePN10cc1_plugin10connectionEiy18gcc_cp_symbol_kindPKcj xstrdup 966
_Z31plugin_start_closure_class_typePN10cc1_plugin10connectionEiy18gcc_cp_symbol_kindPKcj _Z11fancy_abortPKciS0_ 997
_Z31plugin_start_closure_class_typePN10cc1_plugin10connectionEiy18gcc_cp_symbol_kindPKcj _Z11fancy_abortPKciS0_ 1017
_Z31plugin_start_closure_class_typePN10cc1_plugin10connectionEiy18gcc_cp_symbol_kindPKcj _Z11fancy_abortPKciS0_ 1037
_Z31plugin_start_closure_class_typePN10cc1_plugin10connectionEiy18gcc_cp_symbol_kindPKcj _Z11fancy_abortPKciS0_ 1057
_Z31plugin_start_closure_class_typePN10cc1_plugin10connectionEiy18gcc_cp_symbol_kindPKcj _Z11fancy_abortPKciS0_ 1077
_Z31plugin_start_closure_class_typePN10cc1_plugin10connectionEiy18gcc_cp_symbol_kindPKcj _Z11fancy_abortPKciS0_ 1097
_Z31plugin_start_closure_class_typePN10cc1_plugin10connectionEiy18gcc_cp_symbol_kindPKcj _Z11fancy_abortPKciS0_ 1122
_Z40plugin_build_template_template_parameterPN10cc1_plugin10connectionEPKciyS3_j htab_hash_string 45
_Z40plugin_build_template_template_parameterPN10cc1_plugin10connectionEPKciyS3_j _ZN10hash_tableI13string_hasherLb0E11xcallocatorE19find_slot_with_hashERKPKcj13insert_option 66
_Z40plugin_build_template_template_parameterPN10cc1_plugin10connectionEPKciyS3_j line_table 88
_Z40plugin_build_template_template_parameterPN10cc1_plugin10connectionEPKciyS3_j _Z11linemap_addP9line_maps9lc_reasonjPKcj 100
_Z40plugin_build_template_template_parameterPN10cc1_plugin10connectionEPKciyS3_j line_table 107
_Z40plugin_build_template_template_parameterPN10cc1_plugin10connectionEPKciyS3_j _Z18linemap_line_startP9line_mapsjj 117
_Z40plugin_build_template_template_parameterPN10cc1_plugin10connectionEPKciyS3_j line_table 124
_Z40plugin_build_template_template_parameterPN10cc1_plugin10connectionEPKciyS3_j _Z11linemap_addP9line_maps9lc_reasonjPKcj 143
_Z40plugin_build_template_template_parameterPN10cc1_plugin10connectionEPKciyS3_j _Z21template_parm_scope_pv 148
_Z40plugin_build_template_template_parameterPN10cc1_plugin10connectionEPKciyS3_j scope_chain 163
_Z40plugin_build_template_template_parameterPN10cc1_plugin10connectionEPKciyS3_j _Z22end_template_parm_listP9tree_node 176
_Z40plugin_build_template_template_parameterPN10cc1_plugin10connectionEPKciyS3_j _Z21template_parm_scope_pv 181
_Z40plugin_build_template_template_parameterPN10cc1_plugin10connectionEPKciyS3_j _Z14get_identifierPKc 197
_Z40plugin_build_template_template_parameterPN10cc1_plugin10connectionEPKciyS3_j cp_global_trees 204
_Z40plugin_build_template_template_parameterPN10cc1_plugin10connectionEPKciyS3_j _Z29finish_template_template_parmP9tree_nodeS0_ 212
_Z40plugin_build_template_template_parameterPN10cc1_plugin10connectionEPKciyS3_j _Z15build_tree_listP9tree_nodeS0_ 223
_Z40plugin_build_template_template_parameterPN10cc1_plugin10connectionEPKciyS3_j scope_chain 251
_Z40plugin_build_template_template_parameterPN10cc1_plugin10connectionEPKciyS3_j _Z21process_template_parmP9tree_nodejS0_bb 276
_Z40plugin_build_template_template_parameterPN10cc1_plugin10connectionEPKciyS3_j scope_chain 288
_Z40plugin_build_template_template_parameterPN10cc1_plugin10connectionEPKciyS3_j _Z9tree_lastP9tree_node 301
_Z40plugin_build_template_template_parameterPN10cc1_plugin10connectionEPKciyS3_j prime_tab 367
_Z40plugin_build_template_template_parameterPN10cc1_plugin10connectionEPKciyS3_j prime_tab 373
_Z40plugin_build_template_template_parameterPN10cc1_plugin10connectionEPKciyS3_j prime_tab 380
_Z40plugin_build_template_template_parameterPN10cc1_plugin10connectionEPKciyS3_j prime_tab 386
_Z40plugin_build_template_template_parameterPN10cc1_plugin10connectionEPKciyS3_j _ZN10hash_tableI15nofree_ptr_hashI9tree_nodeELb0E11xcallocatorE6expandEv 634
_Z40plugin_build_template_template_parameterPN10cc1_plugin10connectionEPKciyS3_j xstrdup 669
_Z40plugin_build_template_template_parameterPN10cc1_plugin10connectionEPKciyS3_j _Z11fancy_abortPKciS0_ 701
_Z40plugin_build_template_template_parameterPN10cc1_plugin10connectionEPKciyS3_j _Z11fancy_abortPKciS0_ 721
_Z40plugin_build_template_template_parameterPN10cc1_plugin10connectionEPKciyS3_j _Z11fancy_abortPKciS0_ 741
_Z37plugin_build_value_template_parameterPN10cc1_plugin10connectionEyPKcyS3_j htab_hash_string 50
_Z37plugin_build_value_template_parameterPN10cc1_plugin10connectionEyPKcyS3_j _ZN10hash_tableI13string_hasherLb0E11xcallocatorE19find_slot_with_hashERKPKcj13insert_option 71
_Z37plugin_build_value_template_parameterPN10cc1_plugin10connectionEyPKcyS3_j line_table 93
_Z37plugin_build_value_template_parameterPN10cc1_plugin10connectionEyPKcyS3_j _Z11linemap_addP9line_maps9lc_reasonjPKcj 105
_Z37plugin_build_value_template_parameterPN10cc1_plugin10connectionEyPKcyS3_j line_table 112
_Z37plugin_build_value_template_parameterPN10cc1_plugin10connectionEyPKcyS3_j _Z18linemap_line_startP9line_mapsjj 122
_Z37plugin_build_value_template_parameterPN10cc1_plugin10connectionEyPKcyS3_j line_table 129
_Z37plugin_build_value_template_parameterPN10cc1_plugin10connectionEyPKcyS3_j _Z11linemap_addP9line_maps9lc_reasonjPKcj 148
_Z37plugin_build_value_template_parameterPN10cc1_plugin10connectionEyPKcyS3_j _Z21template_parm_scope_pv 153
_Z37plugin_build_value_template_parameterPN10cc1_plugin10connectionEyPKcyS3_j _Z14get_identifierPKc 191
_Z37plugin_build_value_template_parameterPN10cc1_plugin10connectionEyPKcyS3_j _Z14grokdeclaratorPK13cp_declaratorP21cp_decl_specifier_seq12decl_contextiPP9tree_node 265
_Z37plugin_build_value_template_parameterPN10cc1_plugin10connectionEyPKcyS3_j _Z15build_tree_listP9tree_nodeS0_ 278
_Z37plugin_build_value_template_parameterPN10cc1_plugin10connectionEyPKcyS3_j scope_chain 285
_Z37plugin_build_value_template_parameterPN10cc1_plugin10connectionEyPKcyS3_j _Z21process_template_parmP9tree_nodejS0_bb 312
_Z37plugin_build_value_template_parameterPN10cc1_plugin10connectionEyPKcyS3_j scope_chain 324
_Z37plugin_build_value_template_parameterPN10cc1_plugin10connectionEyPKcyS3_j _Z9tree_lastP9tree_node 337
_Z37plugin_build_value_template_parameterPN10cc1_plugin10connectionEyPKcyS3_j prime_tab 403
_Z37plugin_build_value_template_parameterPN10cc1_plugin10connectionEyPKcyS3_j prime_tab 409
_Z37plugin_build_value_template_parameterPN10cc1_plugin10connectionEyPKcyS3_j prime_tab 416
_Z37plugin_build_value_template_parameterPN10cc1_plugin10connectionEyPKcyS3_j prime_tab 422
_Z37plugin_build_value_template_parameterPN10cc1_plugin10connectionEyPKcyS3_j _ZN10hash_tableI15nofree_ptr_hashI9tree_nodeELb0E11xcallocatorE6expandEv 674
_Z37plugin_build_value_template_parameterPN10cc1_plugin10connectionEyPKcyS3_j xstrdup 717
_Z37plugin_build_value_template_parameterPN10cc1_plugin10connectionEyPKcyS3_j _Z11fancy_abortPKciS0_ 749
_Z23plugin_start_class_typePN10cc1_plugin10connectionEyPK15gcc_vbase_arrayPKcj htab_hash_string 40
_Z23plugin_start_class_typePN10cc1_plugin10connectionEyPK15gcc_vbase_arrayPKcj _ZN10hash_tableI13string_hasherLb0E11xcallocatorE19find_slot_with_hashERKPKcj13insert_option 62
_Z23plugin_start_class_typePN10cc1_plugin10connectionEyPK15gcc_vbase_arrayPKcj line_table 84
_Z23plugin_start_class_typePN10cc1_plugin10connectionEyPK15gcc_vbase_arrayPKcj _Z11linemap_addP9line_maps9lc_reasonjPKcj 96
_Z23plugin_start_class_typePN10cc1_plugin10connectionEyPK15gcc_vbase_arrayPKcj line_table 103
_Z23plugin_start_class_typePN10cc1_plugin10connectionEyPK15gcc_vbase_arrayPKcj _Z18linemap_line_startP9line_mapsjj 112
_Z23plugin_start_class_typePN10cc1_plugin10connectionEyPK15gcc_vbase_arrayPKcj line_table 119
_Z23plugin_start_class_typePN10cc1_plugin10connectionEyPK15gcc_vbase_arrayPKcj _Z11linemap_addP9line_maps9lc_reasonjPKcj 138
_Z23plugin_start_class_typePN10cc1_plugin10connectionEyPK15gcc_vbase_arrayPKcj _Z11fancy_abortPKciS0_ 262
_Z23plugin_start_class_typePN10cc1_plugin10connectionEyPK15gcc_vbase_arrayPKcj ridpointers 275
_Z23plugin_start_class_typePN10cc1_plugin10connectionEyPK15gcc_vbase_arrayPKcj _Z21finish_base_specifierP9tree_nodeS0_b 303
_Z23plugin_start_class_typePN10cc1_plugin10connectionEyPK15gcc_vbase_arrayPKcj ridpointers 355
_Z23plugin_start_class_typePN10cc1_plugin10connectionEyPK15gcc_vbase_arrayPKcj ridpointers 371
_Z23plugin_start_class_typePN10cc1_plugin10connectionEyPK15gcc_vbase_arrayPKcj _Z8nreverseP9tree_node 390
_Z23plugin_start_class_typePN10cc1_plugin10connectionEyPK15gcc_vbase_arrayPKcj _Z14xref_basetypesP9tree_nodeS0_ 404
_Z23plugin_start_class_typePN10cc1_plugin10connectionEyPK15gcc_vbase_arrayPKcj _Z22begin_class_definitionP9tree_node 416
_Z23plugin_start_class_typePN10cc1_plugin10connectionEyPK15gcc_vbase_arrayPKcj prime_tab 473
_Z23plugin_start_class_typePN10cc1_plugin10connectionEyPK15gcc_vbase_arrayPKcj prime_tab 479
_Z23plugin_start_class_typePN10cc1_plugin10connectionEyPK15gcc_vbase_arrayPKcj prime_tab 486
_Z23plugin_start_class_typePN10cc1_plugin10connectionEyPK15gcc_vbase_arrayPKcj prime_tab 492
_Z23plugin_start_class_typePN10cc1_plugin10connectionEyPK15gcc_vbase_arrayPKcj xstrdup 718
_Z23plugin_start_class_typePN10cc1_plugin10connectionEyPK15gcc_vbase_arrayPKcj _ZN10hash_tableI15nofree_ptr_hashI9tree_nodeELb0E11xcallocatorE6expandEv 774
_Z23plugin_start_class_typePN10cc1_plugin10connectionEyPK15gcc_vbase_arrayPKcj _Z11fancy_abortPKciS0_ 815
_Z23plugin_start_class_typePN10cc1_plugin10connectionEyPK15gcc_vbase_arrayPKcj _Z11fancy_abortPKciS0_ 835
_Z23plugin_start_class_typePN10cc1_plugin10connectionEyPK15gcc_vbase_arrayPKcj _Z11fancy_abortPKciS0_ 855
_ZL19record_decl_addressP14plugin_context15decl_addr_value prime_tab 74
_ZL19record_decl_addressP14plugin_context15decl_addr_value prime_tab 80
_ZL19record_decl_addressP14plugin_context15decl_addr_value prime_tab 87
_ZL19record_decl_addressP14plugin_context15decl_addr_value prime_tab 93
_ZL19record_decl_addressP14plugin_context15decl_addr_value xmalloc 302
_ZL19record_decl_addressP14plugin_context15decl_addr_value _Z11fancy_abortPKciS0_ 357
_ZL19record_decl_addressP14plugin_context15decl_addr_value _ZN10hash_tableI16decl_addr_hasherLb0E11xcallocatorE6expandEv 373
_Z17plugin_build_declPN10cc1_plugin10connectionEPKc18gcc_cp_symbol_kindyS3_yS3_j strchr 59
_Z17plugin_build_declPN10cc1_plugin10connectionEPKc18gcc_cp_symbol_kindyS3_yS3_j _Z21template_parm_scope_pv 129
_Z17plugin_build_declPN10cc1_plugin10connectionEPKc18gcc_cp_symbol_kindyS3_yS3_j scope_chain 143
_Z17plugin_build_declPN10cc1_plugin10connectionEPKc18gcc_cp_symbol_kindyS3_yS3_j _Z22end_template_parm_listP9tree_node 156
_Z17plugin_build_declPN10cc1_plugin10connectionEPKc18gcc_cp_symbol_kindyS3_yS3_j htab_hash_string 212
_Z17plugin_build_declPN10cc1_plugin10connectionEPKc18gcc_cp_symbol_kindyS3_yS3_j _ZN10hash_tableI13string_hasherLb0E11xcallocatorE19find_slot_with_hashERKPKcj13insert_option 233
_Z17plugin_build_declPN10cc1_plugin10connectionEPKc18gcc_cp_symbol_kindyS3_yS3_j line_table 263
_Z17plugin_build_declPN10cc1_plugin10connectionEPKc18gcc_cp_symbol_kindyS3_yS3_j _Z11linemap_addP9line_maps9lc_reasonjPKcj 272
_Z17plugin_build_declPN10cc1_plugin10connectionEPKc18gcc_cp_symbol_kindyS3_yS3_j line_table 286
_Z17plugin_build_declPN10cc1_plugin10connectionEPKc18gcc_cp_symbol_kindyS3_yS3_j _Z18linemap_line_startP9line_mapsjj 293
_Z17plugin_build_declPN10cc1_plugin10connectionEPKc18gcc_cp_symbol_kindyS3_yS3_j line_table 300
_Z17plugin_build_declPN10cc1_plugin10connectionEPKc18gcc_cp_symbol_kindyS3_yS3_j _Z11linemap_addP9line_maps9lc_reasonjPKcj 320
_Z17plugin_build_declPN10cc1_plugin10connectionEPKc18gcc_cp_symbol_kindyS3_yS3_j _Z16at_class_scope_pv 330
_Z17plugin_build_declPN10cc1_plugin10connectionEPKc18gcc_cp_symbol_kindyS3_yS3_j _Z14get_identifierPKc 389
_Z17plugin_build_declPN10cc1_plugin10connectionEPKc18gcc_cp_symbol_kindyS3_yS3_j _Z19build_lang_decl_locj9tree_codeP9tree_nodeS1_ 442
_Z17plugin_build_declPN10cc1_plugin10connectionEPKc18gcc_cp_symbol_kindyS3_yS3_j scope_chain 482
_Z17plugin_build_declPN10cc1_plugin10connectionEPKc18gcc_cp_symbol_kindyS3_yS3_j cp_global_trees 493
_Z17plugin_build_declPN10cc1_plugin10connectionEPKc18gcc_cp_symbol_kindyS3_yS3_j tree_code_type 522
_Z17plugin_build_declPN10cc1_plugin10connectionEPKc18gcc_cp_symbol_kindyS3_yS3_j scope_chain 575
_Z17plugin_build_declPN10cc1_plugin10connectionEPKc18gcc_cp_symbol_kindyS3_yS3_j global_trees 582
_Z17plugin_build_declPN10cc1_plugin10connectionEPKc18gcc_cp_symbol_kindyS3_yS3_j _Z14get_identifierPKc 684
_Z17plugin_build_declPN10cc1_plugin10connectionEPKc18gcc_cp_symbol_kindyS3_yS3_j _Z11lookup_nameP9tree_node 692
_Z17plugin_build_declPN10cc1_plugin10connectionEPKc18gcc_cp_symbol_kindyS3_yS3_j _Z30grok_special_member_propertiesP9tree_node 758
_Z17plugin_build_declPN10cc1_plugin10connectionEPKc18gcc_cp_symbol_kindyS3_yS3_j cp_binding_oracle 790
_Z17plugin_build_declPN10cc1_plugin10connectionEPKc18gcc_cp_symbol_kindyS3_yS3_j cp_binding_oracle 800
_Z17plugin_build_declPN10cc1_plugin10connectionEPKc18gcc_cp_symbol_kindyS3_yS3_j _Z18push_template_declP9tree_node 809
_Z17plugin_build_declPN10cc1_plugin10connectionEPKc18gcc_cp_symbol_kindyS3_yS3_j cp_binding_oracle 819
_Z17plugin_build_declPN10cc1_plugin10connectionEPKc18gcc_cp_symbol_kindyS3_yS3_j _Z17end_template_declv 833
_Z17plugin_build_declPN10cc1_plugin10connectionEPKc18gcc_cp_symbol_kindyS3_yS3_j _Z21template_parm_scope_pv 838
_Z17plugin_build_declPN10cc1_plugin10connectionEPKc18gcc_cp_symbol_kindyS3_yS3_j scope_chain 867
_Z17plugin_build_declPN10cc1_plugin10connectionEPKc18gcc_cp_symbol_kindyS3_yS3_j _Z19toplevel_bindings_pv 889
_Z17plugin_build_declPN10cc1_plugin10connectionEPKc18gcc_cp_symbol_kindyS3_yS3_j _Z24rest_of_decl_compilationP9tree_nodeii 902
_Z17plugin_build_declPN10cc1_plugin10connectionEPKc18gcc_cp_symbol_kindyS3_yS3_j prime_tab 957
_Z17plugin_build_declPN10cc1_plugin10connectionEPKc18gcc_cp_symbol_kindyS3_yS3_j prime_tab 963
_Z17plugin_build_declPN10cc1_plugin10connectionEPKc18gcc_cp_symbol_kindyS3_yS3_j prime_tab 969
_Z17plugin_build_declPN10cc1_plugin10connectionEPKc18gcc_cp_symbol_kindyS3_yS3_j prime_tab 975
_Z17plugin_build_declPN10cc1_plugin10connectionEPKc18gcc_cp_symbol_kindyS3_yS3_j _Z21template_parm_scope_pv 1173
_Z17plugin_build_declPN10cc1_plugin10connectionEPKc18gcc_cp_symbol_kindyS3_yS3_j _Z11fancy_abortPKciS0_ 1204
_Z17plugin_build_declPN10cc1_plugin10connectionEPKc18gcc_cp_symbol_kindyS3_yS3_j _Z21template_parm_scope_pv 1225
_Z17plugin_build_declPN10cc1_plugin10connectionEPKc18gcc_cp_symbol_kindyS3_yS3_j _Z11fancy_abortPKciS0_ 1352
_Z17plugin_build_declPN10cc1_plugin10connectionEPKc18gcc_cp_symbol_kindyS3_yS3_j _Z25finish_member_declarationP9tree_node 1430
_Z17plugin_build_declPN10cc1_plugin10connectionEPKc18gcc_cp_symbol_kindyS3_yS3_j _Z10build_declj9tree_codeP9tree_nodeS1_ 1457
_Z17plugin_build_declPN10cc1_plugin10connectionEPKc18gcc_cp_symbol_kindyS3_yS3_j _Z20at_namespace_scope_pv 1495
_Z17plugin_build_declPN10cc1_plugin10connectionEPKc18gcc_cp_symbol_kindyS3_yS3_j _ZN10hash_tableI15nofree_ptr_hashI9tree_nodeELb0E11xcallocatorE6expandEv 1541
_Z17plugin_build_declPN10cc1_plugin10connectionEPKc18gcc_cp_symbol_kindyS3_yS3_j _Z14get_identifierPKc 1588
_Z17plugin_build_declPN10cc1_plugin10connectionEPKc18gcc_cp_symbol_kindyS3_yS3_j _Z19build_lang_decl_locj9tree_codeP9tree_nodeS1_ 1647
_Z17plugin_build_declPN10cc1_plugin10connectionEPKc18gcc_cp_symbol_kindyS3_yS3_j global_trees 1698
_Z17plugin_build_declPN10cc1_plugin10connectionEPKc18gcc_cp_symbol_kindyS3_yS3_j global_trees 1715
_Z17plugin_build_declPN10cc1_plugin10connectionEPKc18gcc_cp_symbol_kindyS3_yS3_j _Z18cp_build_parm_declP9tree_nodeS0_S0_ 1732
_Z17plugin_build_declPN10cc1_plugin10connectionEPKc18gcc_cp_symbol_kindyS3_yS3_j _Z8nreverseP9tree_node 1768
_Z17plugin_build_declPN10cc1_plugin10connectionEPKc18gcc_cp_symbol_kindyS3_yS3_j ridpointers 1906
_Z17plugin_build_declPN10cc1_plugin10connectionEPKc18gcc_cp_symbol_kindyS3_yS3_j global_trees 1986
_Z17plugin_build_declPN10cc1_plugin10connectionEPKc18gcc_cp_symbol_kindyS3_yS3_j scope_chain 2043
_Z17plugin_build_declPN10cc1_plugin10connectionEPKc18gcc_cp_symbol_kindyS3_yS3_j global_trees 2050
_Z17plugin_build_declPN10cc1_plugin10connectionEPKc18gcc_cp_symbol_kindyS3_yS3_j scope_chain 2072
_Z17plugin_build_declPN10cc1_plugin10connectionEPKc18gcc_cp_symbol_kindyS3_yS3_j global_trees 2079
_Z17plugin_build_declPN10cc1_plugin10connectionEPKc18gcc_cp_symbol_kindyS3_yS3_j _Z14make_anon_namev 2113
_Z17plugin_build_declPN10cc1_plugin10connectionEPKc18gcc_cp_symbol_kindyS3_yS3_j _Z19at_function_scope_pv 2123
_Z17plugin_build_declPN10cc1_plugin10connectionEPKc18gcc_cp_symbol_kindyS3_yS3_j _Z15make_class_type9tree_code 2140
_Z17plugin_build_declPN10cc1_plugin10connectionEPKc18gcc_cp_symbol_kindyS3_yS3_j _Z10build_declj9tree_codeP9tree_nodeS1_ 2165
_Z17plugin_build_declPN10cc1_plugin10connectionEPKc18gcc_cp_symbol_kindyS3_yS3_j cp_binding_oracle 2251
_Z17plugin_build_declPN10cc1_plugin10connectionEPKc18gcc_cp_symbol_kindyS3_yS3_j cp_binding_oracle 2263
_Z17plugin_build_declPN10cc1_plugin10connectionEPKc18gcc_cp_symbol_kindyS3_yS3_j _Z8pushdeclP9tree_nodeb 2272
_Z17plugin_build_declPN10cc1_plugin10connectionEPKc18gcc_cp_symbol_kindyS3_yS3_j cp_binding_oracle 2279
_Z17plugin_build_declPN10cc1_plugin10connectionEPKc18gcc_cp_symbol_kindyS3_yS3_j ovl_op_mapping 2443
_Z17plugin_build_declPN10cc1_plugin10connectionEPKc18gcc_cp_symbol_kindyS3_yS3_j ovl_op_info 2471
_Z17plugin_build_declPN10cc1_plugin10connectionEPKc18gcc_cp_symbol_kindyS3_yS3_j _Z27finish_member_template_declP9tree_node 2492
_Z17plugin_build_declPN10cc1_plugin10connectionEPKc18gcc_cp_symbol_kindyS3_yS3_j _Z17end_template_declv 2500
_Z17plugin_build_declPN10cc1_plugin10connectionEPKc18gcc_cp_symbol_kindyS3_yS3_j _Z21template_parm_scope_pv 2505
_Z17plugin_build_declPN10cc1_plugin10connectionEPKc18gcc_cp_symbol_kindyS3_yS3_j _Z25finish_member_declarationP9tree_node 2521
_Z17plugin_build_declPN10cc1_plugin10connectionEPKc18gcc_cp_symbol_kindyS3_yS3_j _Z22maybe_retrofit_in_chrgP9tree_node 2540
_Z17plugin_build_declPN10cc1_plugin10connectionEPKc18gcc_cp_symbol_kindyS3_yS3_j _Z11fancy_abortPKciS0_ 2602
_Z17plugin_build_declPN10cc1_plugin10connectionEPKc18gcc_cp_symbol_kindyS3_yS3_j ovl_op_mapping 2674
_Z17plugin_build_declPN10cc1_plugin10connectionEPKc18gcc_cp_symbol_kindyS3_yS3_j cp_binding_oracle 2707
_Z17plugin_build_declPN10cc1_plugin10connectionEPKc18gcc_cp_symbol_kindyS3_yS3_j cp_binding_oracle 2725
_Z17plugin_build_declPN10cc1_plugin10connectionEPKc18gcc_cp_symbol_kindyS3_yS3_j _Z7pushtagP9tree_nodeS0_9tag_scope 2734
_Z17plugin_build_declPN10cc1_plugin10connectionEPKc18gcc_cp_symbol_kindyS3_yS3_j cp_binding_oracle 2741
_Z17plugin_build_declPN10cc1_plugin10connectionEPKc18gcc_cp_symbol_kindyS3_yS3_j _Z22current_decl_namespacev 2771
_Z17plugin_build_declPN10cc1_plugin10connectionEPKc18gcc_cp_symbol_kindyS3_yS3_j _Z22current_decl_namespacev 2871
_Z17plugin_build_declPN10cc1_plugin10connectionEPKc18gcc_cp_symbol_kindyS3_yS3_j cp_global_trees 2878
_Z17plugin_build_declPN10cc1_plugin10connectionEPKc18gcc_cp_symbol_kindyS3_yS3_j _Z22current_decl_namespacev 2885
_Z17plugin_build_declPN10cc1_plugin10connectionEPKc18gcc_cp_symbol_kindyS3_yS3_j _Z19clone_function_declP9tree_nodeb 3013
_Z17plugin_build_declPN10cc1_plugin10connectionEPKc18gcc_cp_symbol_kindyS3_yS3_j scope_chain 3020
_Z17plugin_build_declPN10cc1_plugin10connectionEPKc18gcc_cp_symbol_kindyS3_yS3_j _Z8nreverseP9tree_node 3045
_Z17plugin_build_declPN10cc1_plugin10connectionEPKc18gcc_cp_symbol_kindyS3_yS3_j xstrdup 3071
_Z17plugin_build_declPN10cc1_plugin10connectionEPKc18gcc_cp_symbol_kindyS3_yS3_j tree_code_type 3114
_Z17plugin_build_declPN10cc1_plugin10connectionEPKc18gcc_cp_symbol_kindyS3_yS3_j _Z17name_unnamed_typeP9tree_nodeS0_ 3155
_Z17plugin_build_declPN10cc1_plugin10connectionEPKc18gcc_cp_symbol_kindyS3_yS3_j _Z11fancy_abortPKciS0_ 3196
_Z17plugin_build_declPN10cc1_plugin10connectionEPKc18gcc_cp_symbol_kindyS3_yS3_j cp_binding_oracle 3216
_Z17plugin_build_declPN10cc1_plugin10connectionEPKc18gcc_cp_symbol_kindyS3_yS3_j cp_binding_oracle 3234
_Z17plugin_build_declPN10cc1_plugin10connectionEPKc18gcc_cp_symbol_kindyS3_yS3_j _Z7pushtagP9tree_nodeS0_9tag_scope 3243
_Z17plugin_build_declPN10cc1_plugin10connectionEPKc18gcc_cp_symbol_kindyS3_yS3_j cp_binding_oracle 3250
_Z17plugin_build_declPN10cc1_plugin10connectionEPKc18gcc_cp_symbol_kindyS3_yS3_j _Z13cp_type_qualsPK9tree_node 3518
_Z17plugin_build_declPN10cc1_plugin10connectionEPKc18gcc_cp_symbol_kindyS3_yS3_j scope_chain 3525
_Z17plugin_build_declPN10cc1_plugin10connectionEPKc18gcc_cp_symbol_kindyS3_yS3_j _Z15build_this_parmP9tree_nodeS0_i 3539
_Z17plugin_build_declPN10cc1_plugin10connectionEPKc18gcc_cp_symbol_kindyS3_yS3_j global_trees 3599
_Z17plugin_build_declPN10cc1_plugin10connectionEPKc18gcc_cp_symbol_kindyS3_yS3_j _Z18build_int_cst_typeP9tree_node8poly_intILj1ElE 3604
_Z17plugin_build_declPN10cc1_plugin10connectionEPKc18gcc_cp_symbol_kindyS3_yS3_j global_trees 3843
_Z17plugin_build_declPN10cc1_plugin10connectionEPKc18gcc_cp_symbol_kindyS3_yS3_j scope_chain 4342
_Z17plugin_build_declPN10cc1_plugin10connectionEPKc18gcc_cp_symbol_kindyS3_yS3_j xstrndup 4556
_Z17plugin_build_declPN10cc1_plugin10connectionEPKc18gcc_cp_symbol_kindyS3_yS3_j _Z22cp_literal_operator_idPKc 4567
_Z17plugin_build_declPN10cc1_plugin10connectionEPKc18gcc_cp_symbol_kindyS3_yS3_j free 4580
_Z17plugin_build_declPN10cc1_plugin10connectionEPKc18gcc_cp_symbol_kindyS3_yS3_j _Z11fancy_abortPKciS0_ 4626
_Z17plugin_build_declPN10cc1_plugin10connectionEPKc18gcc_cp_symbol_kindyS3_yS3_j _Z17make_conv_op_nameP9tree_node 5268
_Z17plugin_build_declPN10cc1_plugin10connectionEPKc18gcc_cp_symbol_kindyS3_yS3_j _Z22cp_literal_operator_idPKc 5293
_Z17plugin_build_declPN10cc1_plugin10connectionEPKc18gcc_cp_symbol_kindyS3_yS3_j _Z11fancy_abortPKciS0_ 5337
_Z17plugin_build_declPN10cc1_plugin10connectionEPKc18gcc_cp_symbol_kindyS3_yS3_j _Z11fancy_abortPKciS0_ 5357
_Z17plugin_build_declPN10cc1_plugin10connectionEPKc18gcc_cp_symbol_kindyS3_yS3_j _Z11fancy_abortPKciS0_ 5377
_Z17plugin_build_declPN10cc1_plugin10connectionEPKc18gcc_cp_symbol_kindyS3_yS3_j _Z11fancy_abortPKciS0_ 5397
_Z17plugin_build_declPN10cc1_plugin10connectionEPKc18gcc_cp_symbol_kindyS3_yS3_j _Z11fancy_abortPKciS0_ 5417
_Z17plugin_build_declPN10cc1_plugin10connectionEPKc18gcc_cp_symbol_kindyS3_yS3_j _Z11fancy_abortPKciS0_ 5437
_Z17plugin_build_declPN10cc1_plugin10connectionEPKc18gcc_cp_symbol_kindyS3_yS3_j _Z11fancy_abortPKciS0_ 5457
_Z17plugin_build_declPN10cc1_plugin10connectionEPKc18gcc_cp_symbol_kindyS3_yS3_j _Z11fancy_abortPKciS0_ 5477
_Z17plugin_build_declPN10cc1_plugin10connectionEPKc18gcc_cp_symbol_kindyS3_yS3_j _Z11fancy_abortPKciS0_ 5497
_Z17plugin_build_declPN10cc1_plugin10connectionEPKc18gcc_cp_symbol_kindyS3_yS3_j _Z11fancy_abortPKciS0_ 5517
_Z17plugin_build_declPN10cc1_plugin10connectionEPKc18gcc_cp_symbol_kindyS3_yS3_j _Z11fancy_abortPKciS0_ 5537
_Z17plugin_build_declPN10cc1_plugin10connectionEPKc18gcc_cp_symbol_kindyS3_yS3_j _Z11fancy_abortPKciS0_ 5562
_Z17plugin_build_declPN10cc1_plugin10connectionEPKc18gcc_cp_symbol_kindyS3_yS3_j _Z11fancy_abortPKciS0_ 5582
_Z17plugin_build_declPN10cc1_plugin10connectionEPKc18gcc_cp_symbol_kindyS3_yS3_j _Z11fancy_abortPKciS0_ 5602
_Z17plugin_build_declPN10cc1_plugin10connectionEPKc18gcc_cp_symbol_kindyS3_yS3_j _Z11fancy_abortPKciS0_ 5622
_Z17plugin_build_declPN10cc1_plugin10connectionEPKc18gcc_cp_symbol_kindyS3_yS3_j _Z11fancy_abortPKciS0_ 5642
_Z17plugin_build_declPN10cc1_plugin10connectionEPKc18gcc_cp_symbol_kindyS3_yS3_j _Z11fancy_abortPKciS0_ 5662
_Z17plugin_build_declPN10cc1_plugin10connectionEPKc18gcc_cp_symbol_kindyS3_yS3_j _Z11fancy_abortPKciS0_ 5682
_Z17plugin_build_declPN10cc1_plugin10connectionEPKc18gcc_cp_symbol_kindyS3_yS3_j _Z11fancy_abortPKciS0_ 5702
_Z17plugin_build_declPN10cc1_plugin10connectionEPKc18gcc_cp_symbol_kindyS3_yS3_j _Z11fancy_abortPKciS0_ 5722
_Z25plugin_define_cdtor_clonePN10cc1_plugin10connectionEPKcyy cp_global_trees 63
_Z25plugin_define_cdtor_clonePN10cc1_plugin10connectionEPKcyy cp_global_trees 108
_Z25plugin_define_cdtor_clonePN10cc1_plugin10connectionEPKcyy cp_global_trees 115
_Z25plugin_define_cdtor_clonePN10cc1_plugin10connectionEPKcyy _Z11fancy_abortPKciS0_ 195
_Z25plugin_define_cdtor_clonePN10cc1_plugin10connectionEPKcyy _Z11fancy_abortPKciS0_ 249
_Z25plugin_define_cdtor_clonePN10cc1_plugin10connectionEPKcyy cp_global_trees 259
_Z25plugin_define_cdtor_clonePN10cc1_plugin10connectionEPKcyy cp_global_trees 291
_Z25plugin_define_cdtor_clonePN10cc1_plugin10connectionEPKcyy cp_global_trees 298
_Z25plugin_define_cdtor_clonePN10cc1_plugin10connectionEPKcyy global_trees 315
_Z25plugin_define_cdtor_clonePN10cc1_plugin10connectionEPKcyy _Z18build_int_cst_typeP9tree_node8poly_intILj1ElE 323
_Z25plugin_define_cdtor_clonePN10cc1_plugin10connectionEPKcyy cp_global_trees 354
_Z25plugin_define_cdtor_clonePN10cc1_plugin10connectionEPKcyy cp_global_trees 361
_Z25plugin_define_cdtor_clonePN10cc1_plugin10connectionEPKcyy cp_global_trees 371
_Z25plugin_define_cdtor_clonePN10cc1_plugin10connectionEPKcyy cp_global_trees 378
_Z25plugin_define_cdtor_clonePN10cc1_plugin10connectionEPKcyy cp_global_trees 395
_Z25plugin_define_cdtor_clonePN10cc1_plugin10connectionEPKcyy cp_global_trees 402
_Z25plugin_define_cdtor_clonePN10cc1_plugin10connectionEPKcyy cp_global_trees 419
_Z25plugin_define_cdtor_clonePN10cc1_plugin10connectionEPKcyy cp_global_trees 426
_Z25plugin_define_cdtor_clonePN10cc1_plugin10connectionEPKcyy _Z11fancy_abortPKciS0_ 451
_Z45plugin_build_function_template_specializationPN10cc1_plugin10connectionEyPK20gcc_cp_template_argsyPKcj htab_hash_string 46
_Z45plugin_build_function_template_specializationPN10cc1_plugin10connectionEyPK20gcc_cp_template_argsyPKcj _ZN10hash_tableI13string_hasherLb0E11xcallocatorE19find_slot_with_hashERKPKcj13insert_option 67
_Z45plugin_build_function_template_specializationPN10cc1_plugin10connectionEyPK20gcc_cp_template_argsyPKcj line_table 89
_Z45plugin_build_function_template_specializationPN10cc1_plugin10connectionEyPK20gcc_cp_template_argsyPKcj _Z11linemap_addP9line_maps9lc_reasonjPKcj 101
_Z45plugin_build_function_template_specializationPN10cc1_plugin10connectionEyPK20gcc_cp_template_argsyPKcj line_table 108
_Z45plugin_build_function_template_specializationPN10cc1_plugin10connectionEyPK20gcc_cp_template_argsyPKcj _Z18linemap_line_startP9line_mapsjj 118
_Z45plugin_build_function_template_specializationPN10cc1_plugin10connectionEyPK20gcc_cp_template_argsyPKcj line_table 125
_Z45plugin_build_function_template_specializationPN10cc1_plugin10connectionEyPK20gcc_cp_template_argsyPKcj _Z11linemap_addP9line_maps9lc_reasonjPKcj 145
_Z45plugin_build_function_template_specializationPN10cc1_plugin10connectionEyPK20gcc_cp_template_argsyPKcj _Z6tsubstP9tree_nodeS0_iS0_ 171
_Z45plugin_build_function_template_specializationPN10cc1_plugin10connectionEyPK20gcc_cp_template_argsyPKcj global_trees 182
_Z45plugin_build_function_template_specializationPN10cc1_plugin10connectionEyPK20gcc_cp_template_argsyPKcj _Z18build_int_cst_typeP9tree_node8poly_intILj1ElE 200
_Z45plugin_build_function_template_specializationPN10cc1_plugin10connectionEyPK20gcc_cp_template_argsyPKcj prime_tab 262
_Z45plugin_build_function_template_specializationPN10cc1_plugin10connectionEyPK20gcc_cp_template_argsyPKcj prime_tab 269
_Z45plugin_build_function_template_specializationPN10cc1_plugin10connectionEyPK20gcc_cp_template_argsyPKcj prime_tab 275
_Z45plugin_build_function_template_specializationPN10cc1_plugin10connectionEyPK20gcc_cp_template_argsyPKcj prime_tab 281
_Z45plugin_build_function_template_specializationPN10cc1_plugin10connectionEyPK20gcc_cp_template_argsyPKcj _ZN10hash_tableI15nofree_ptr_hashI9tree_nodeELb0E11xcallocatorE6expandEv 525
_Z45plugin_build_function_template_specializationPN10cc1_plugin10connectionEyPK20gcc_cp_template_argsyPKcj xstrdup 557
_ZL16set_access_flagsP9tree_node18gcc_cp_symbol_kind.part.0 _Z11fancy_abortPKciS0_ 17
_ZN10cc1_plugin8callbackIiPKcyXadL_Z26plugin_add_namespace_aliasPNS_10connectionES2_yEEEENS_6statusES4_ _ZN10cc1_plugin16unmarshall_checkEPNS_10connectionEy 23
_ZN10cc1_plugin8callbackIiPKcyXadL_Z26plugin_add_namespace_aliasPNS_10connectionES2_yEEEENS_6statusES4_ _ZdaPv 43
_ZN10cc1_plugin8callbackIiPKcyXadL_Z26plugin_add_namespace_aliasPNS_10connectionES2_yEEEENS_6statusES4_ _ZN10cc1_plugin10unmarshallEPNS_10connectionEPPc 71
_ZN10cc1_plugin8callbackIiPKcyXadL_Z26plugin_add_namespace_aliasPNS_10connectionES2_yEEEENS_6statusES4_ _ZN10cc1_plugin18unmarshall_intlikeEPNS_10connectionEPy 88
_ZN10cc1_plugin8callbackIiPKcyXadL_Z26plugin_add_namespace_aliasPNS_10connectionES2_yEEEENS_6statusES4_ _Z14get_identifierPKc 108
_ZN10cc1_plugin8callbackIiPKcyXadL_Z26plugin_add_namespace_aliasPNS_10connectionES2_yEEEENS_6statusES4_ _Z18do_namespace_aliasP9tree_nodeS0_ 119
_ZN10cc1_plugin8callbackIiPKcyXadL_Z26plugin_add_namespace_aliasPNS_10connectionES2_yEEEENS_6statusES4_ _ZN10cc1_plugin10connection4sendEc 132
_ZN10cc1_plugin8callbackIiPKcyXadL_Z26plugin_add_namespace_aliasPNS_10connectionES2_yEEEENS_6statusES4_ _ZN10cc1_plugin16marshall_intlikeEPNS_10connectionEy 149
_ZN10cc1_plugin8callbackIiPKcyXadL_Z26plugin_add_namespace_aliasPNS_10connectionES2_yEEEENS_6statusES4_ _ZdaPv 170
_ZN10cc1_plugin8callbackIiPKcyXadL_Z26plugin_add_namespace_aliasPNS_10connectionES2_yEEEENS_6statusES4_ _Unwind_Resume 178
_ZN10cc1_plugin8callbackIiXadL_Z26plugin_start_template_declPNS_10connectionEEEEENS_6statusES2_ _ZN10cc1_plugin16unmarshall_checkEPNS_10connectionEy 7
_ZN10cc1_plugin8callbackIiXadL_Z26plugin_start_template_declPNS_10connectionEEEEENS_6statusES2_ _Z24begin_template_parm_listv 25
_ZN10cc1_plugin8callbackIiXadL_Z26plugin_start_template_declPNS_10connectionEEEEENS_6statusES2_ scope_chain 32
_ZN10cc1_plugin8callbackIiXadL_Z26plugin_start_template_declPNS_10connectionEEEEENS_6statusES2_ _ZN10cc1_plugin10connection4sendEc 57
_ZN10cc1_plugin8callbackIiXadL_Z26plugin_start_template_declPNS_10connectionEEEEENS_6statusES2_ _ZN10cc1_plugin16marshall_intlikeEPNS_10connectionEy 75
_ZN10cc1_plugin8callbackIiXadL_Z24plugin_pop_binding_levelPNS_10connectionEEEEENS_6statusES2_ _ZN10cc1_plugin16unmarshall_checkEPNS_10connectionEy 7
_ZN10cc1_plugin8callbackIiXadL_Z24plugin_pop_binding_levelPNS_10connectionEEEEENS_6statusES2_ _ZN10cc1_plugin10connection4sendEc 38
_ZN10cc1_plugin8callbackIiXadL_Z24plugin_pop_binding_levelPNS_10connectionEEEEENS_6statusES2_ _ZN10cc1_plugin16marshall_intlikeEPNS_10connectionEy 56
_ZN10cc1_plugin8callbackIyXadL_Z27plugin_get_nullptr_constantPNS_10connectionEEEEENS_6statusES2_ _ZN10cc1_plugin16unmarshall_checkEPNS_10connectionEy 12
_ZN10cc1_plugin8callbackIyXadL_Z27plugin_get_nullptr_constantPNS_10connectionEEEEENS_6statusES2_ cp_global_trees 43
_ZN10cc1_plugin8callbackIyXadL_Z27plugin_get_nullptr_constantPNS_10connectionEEEEENS_6statusES2_ _ZN10cc1_plugin10connection4sendEc 48
_ZN10cc1_plugin8callbackIyXadL_Z27plugin_get_nullptr_constantPNS_10connectionEEEEENS_6statusES2_ _ZN10cc1_plugin16marshall_intlikeEPNS_10connectionEy 69
_ZN10cc1_plugin8callbackIyXadL_Z23plugin_get_nullptr_typePNS_10connectionEEEEENS_6statusES2_ _ZN10cc1_plugin16unmarshall_checkEPNS_10connectionEy 12
_ZN10cc1_plugin8callbackIyXadL_Z23plugin_get_nullptr_typePNS_10connectionEEEEENS_6statusES2_ cp_global_trees 43
_ZN10cc1_plugin8callbackIyXadL_Z23plugin_get_nullptr_typePNS_10connectionEEEEENS_6statusES2_ _ZN10cc1_plugin10connection4sendEc 48
_ZN10cc1_plugin8callbackIyXadL_Z23plugin_get_nullptr_typePNS_10connectionEEEEENS_6statusES2_ _ZN10cc1_plugin16marshall_intlikeEPNS_10connectionEy 69
_ZN10cc1_plugin8callbackIyXadL_Z20plugin_get_bool_typePNS_10connectionEEEEENS_6statusES2_ _ZN10cc1_plugin16unmarshall_checkEPNS_10connectionEy 12
_ZN10cc1_plugin8callbackIyXadL_Z20plugin_get_bool_typePNS_10connectionEEEEENS_6statusES2_ global_trees 43
_ZN10cc1_plugin8callbackIyXadL_Z20plugin_get_bool_typePNS_10connectionEEEEENS_6statusES2_ _ZN10cc1_plugin10connection4sendEc 48
_ZN10cc1_plugin8callbackIyXadL_Z20plugin_get_bool_typePNS_10connectionEEEEENS_6statusES2_ _ZN10cc1_plugin16marshall_intlikeEPNS_10connectionEy 69
_ZN10cc1_plugin8callbackIyXadL_Z20plugin_get_void_typePNS_10connectionEEEEENS_6statusES2_ _ZN10cc1_plugin16unmarshall_checkEPNS_10connectionEy 12
_ZN10cc1_plugin8callbackIyXadL_Z20plugin_get_void_typePNS_10connectionEEEEENS_6statusES2_ global_trees 43
_ZN10cc1_plugin8callbackIyXadL_Z20plugin_get_void_typePNS_10connectionEEEEENS_6statusES2_ _ZN10cc1_plugin10connection4sendEc 48
_ZN10cc1_plugin8callbackIyXadL_Z20plugin_get_void_typePNS_10connectionEEEEENS_6statusES2_ _ZN10cc1_plugin16marshall_intlikeEPNS_10connectionEy 69
_ZN10cc1_plugin8callbackIyXadL_Z20plugin_get_char_typePNS_10connectionEEEEENS_6statusES2_ _ZN10cc1_plugin16unmarshall_checkEPNS_10connectionEy 12
_ZN10cc1_plugin8callbackIyXadL_Z20plugin_get_char_typePNS_10connectionEEEEENS_6statusES2_ integer_types 43
_ZN10cc1_plugin8callbackIyXadL_Z20plugin_get_char_typePNS_10connectionEEEEENS_6statusES2_ _ZN10cc1_plugin10connection4sendEc 48
_ZN10cc1_plugin8callbackIyXadL_Z20plugin_get_char_typePNS_10connectionEEEEENS_6statusES2_ _ZN10cc1_plugin16marshall_intlikeEPNS_10connectionEy 69
_ZN10cc1_plugin8callbackIyXadL_Z37plugin_get_current_binding_level_declPNS_10connectionEEEEENS_6statusES2_ _ZN10cc1_plugin16unmarshall_checkEPNS_10connectionEy 12
_ZN10cc1_plugin8callbackIyXadL_Z37plugin_get_current_binding_level_declPNS_10connectionEEEEENS_6statusES2_ _ZN10cc1_plugin10connection4sendEc 49
_ZN10cc1_plugin8callbackIyXadL_Z37plugin_get_current_binding_level_declPNS_10connectionEEEEENS_6statusES2_ _ZN10cc1_plugin16marshall_intlikeEPNS_10connectionEy 70
_ZN10cc1_plugin8callbackIyyXadL_Z20plugin_get_decl_typePNS_10connectionEyEEEENS_6statusES2_ _ZN10cc1_plugin16unmarshall_checkEPNS_10connectionEy 15
_ZN10cc1_plugin8callbackIyyXadL_Z20plugin_get_decl_typePNS_10connectionEyEEEENS_6statusES2_ _ZN10cc1_plugin18unmarshall_intlikeEPNS_10connectionEPy 41
_ZN10cc1_plugin8callbackIyyXadL_Z20plugin_get_decl_typePNS_10connectionEyEEEENS_6statusES2_ _ZN10cc1_plugin10connection4sendEc 72
_ZN10cc1_plugin8callbackIyyXadL_Z20plugin_get_decl_typePNS_10connectionEyEEEENS_6statusES2_ _ZN10cc1_plugin16marshall_intlikeEPNS_10connectionEy 87
_ZN10cc1_plugin8callbackIyyXadL_Z20plugin_get_decl_typePNS_10connectionEyEEEENS_6statusES2_ _Z11fancy_abortPKciS0_ 109
_ZN10cc1_plugin8callbackIyyXadL_Z20plugin_get_type_declPNS_10connectionEyEEEENS_6statusES2_ _ZN10cc1_plugin16unmarshall_checkEPNS_10connectionEy 15
_ZN10cc1_plugin8callbackIyyXadL_Z20plugin_get_type_declPNS_10connectionEyEEEENS_6statusES2_ _ZN10cc1_plugin18unmarshall_intlikeEPNS_10connectionEPy 41
_ZN10cc1_plugin8callbackIyyXadL_Z20plugin_get_type_declPNS_10connectionEyEEEENS_6statusES2_ _ZN10cc1_plugin10connection4sendEc 72
_ZN10cc1_plugin8callbackIyyXadL_Z20plugin_get_type_declPNS_10connectionEyEEEENS_6statusES2_ _ZN10cc1_plugin16marshall_intlikeEPNS_10connectionEy 87
_ZN10cc1_plugin8callbackIyyXadL_Z20plugin_get_type_declPNS_10connectionEyEEEENS_6statusES2_ _Z11fancy_abortPKciS0_ 109
_ZN10cc1_plugin8callbackIiyXadL_Z26plugin_add_using_namespacePNS_10connectionEyEEEENS_6statusES2_ _ZN10cc1_plugin16unmarshall_checkEPNS_10connectionEy 14
_ZN10cc1_plugin8callbackIiyXadL_Z26plugin_add_using_namespacePNS_10connectionEyEEEENS_6statusES2_ _ZN10cc1_plugin18unmarshall_intlikeEPNS_10connectionEPy 41
_ZN10cc1_plugin8callbackIiyXadL_Z26plugin_add_using_namespacePNS_10connectionEyEEEENS_6statusES2_ _Z22finish_using_directiveP9tree_nodeS0_ 63
_ZN10cc1_plugin8callbackIiyXadL_Z26plugin_add_using_namespacePNS_10connectionEyEEEENS_6statusES2_ _ZN10cc1_plugin10connection4sendEc 76
_ZN10cc1_plugin8callbackIiyXadL_Z26plugin_add_using_namespacePNS_10connectionEyEEEENS_6statusES2_ _ZN10cc1_plugin16marshall_intlikeEPNS_10connectionEy 93
_ZN10cc1_plugin8callbackIiyXadL_Z26plugin_add_using_namespacePNS_10connectionEyEEEENS_6statusES2_ _Z11fancy_abortPKciS0_ 115
_ZN10cc1_plugin16argument_wrapperIPK14gcc_type_arrayED1Ev,_ZN10cc1_plugin16argument_wrapperIPK14gcc_type_arrayED2Ev _ZdaPv 25
_ZN10cc1_plugin16argument_wrapperIPK14gcc_type_arrayED1Ev,_ZN10cc1_plugin16argument_wrapperIPK14gcc_type_arrayED2Ev _ZdlPv 37
_ZN10cc1_plugin16argument_wrapperIPK14gcc_type_arrayED1Ev,_ZN10cc1_plugin16argument_wrapperIPK14gcc_type_arrayED2Ev _ZdlPv 52
_ZN10cc1_plugin16argument_wrapperIPK20gcc_cp_template_argsED1Ev,_ZN10cc1_plugin16argument_wrapperIPK20gcc_cp_template_argsED2Ev _ZdaPv 22
_ZN10cc1_plugin16argument_wrapperIPK20gcc_cp_template_argsED1Ev,_ZN10cc1_plugin16argument_wrapperIPK20gcc_cp_template_argsED2Ev _ZdaPv 39
_ZN10cc1_plugin16argument_wrapperIPK20gcc_cp_template_argsED1Ev,_ZN10cc1_plugin16argument_wrapperIPK20gcc_cp_template_argsED2Ev _ZdlPv 51
_ZN10cc1_plugin16argument_wrapperIPK20gcc_cp_template_argsED1Ev,_ZN10cc1_plugin16argument_wrapperIPK20gcc_cp_template_argsED2Ev _ZdlPv 68
_ZN10cc1_plugin16argument_wrapperIPK20gcc_cp_function_argsED1Ev,_ZN10cc1_plugin16argument_wrapperIPK20gcc_cp_function_argsED2Ev _ZdaPv 25
_ZN10cc1_plugin16argument_wrapperIPK20gcc_cp_function_argsED1Ev,_ZN10cc1_plugin16argument_wrapperIPK20gcc_cp_function_argsED2Ev _ZdlPv 37
_ZN10cc1_plugin16argument_wrapperIPK20gcc_cp_function_argsED1Ev,_ZN10cc1_plugin16argument_wrapperIPK20gcc_cp_function_argsED2Ev _ZdlPv 52
_ZN10cc1_plugin8callbackIiPKcXadL_Z21plugin_push_namespacePNS_10connectionES2_EEEENS_6statusES4_ _ZN10cc1_plugin16unmarshall_checkEPNS_10connectionEy 23
_ZN10cc1_plugin8callbackIiPKcXadL_Z21plugin_push_namespacePNS_10connectionES2_EEEENS_6statusES4_ _ZdaPv 43
_ZN10cc1_plugin8callbackIiPKcXadL_Z21plugin_push_namespacePNS_10connectionES2_EEEENS_6statusES4_ _ZN10cc1_plugin10unmarshallEPNS_10connectionEPPc 71
_ZN10cc1_plugin8callbackIiPKcXadL_Z21plugin_push_namespacePNS_10connectionES2_EEEENS_6statusES4_ _Z21plugin_push_namespacePN10cc1_plugin10connectionEPKc 87
_ZN10cc1_plugin8callbackIiPKcXadL_Z21plugin_push_namespacePNS_10connectionES2_EEEENS_6statusES4_ _ZN10cc1_plugin10connection4sendEc 102
_ZN10cc1_plugin8callbackIiPKcXadL_Z21plugin_push_namespacePNS_10connectionES2_EEEENS_6statusES4_ _ZN10cc1_plugin16marshall_intlikeEPNS_10connectionEy 117
_ZN10cc1_plugin8callbackIiPKcXadL_Z21plugin_push_namespacePNS_10connectionES2_EEEENS_6statusES4_ _ZdaPv 138
_ZN10cc1_plugin8callbackIiPKcXadL_Z21plugin_push_namespacePNS_10connectionES2_EEEENS_6statusES4_ _Unwind_Resume 146
_ZN10cc1_plugin8callbackIiyXadL_Z17plugin_push_classPNS_10connectionEyEEEENS_6statusES2_ _ZN10cc1_plugin16unmarshall_checkEPNS_10connectionEy 15
_ZN10cc1_plugin8callbackIiyXadL_Z17plugin_push_classPNS_10connectionEyEEEENS_6statusES2_ _ZN10cc1_plugin18unmarshall_intlikeEPNS_10connectionEPy 41
_ZN10cc1_plugin8callbackIiyXadL_Z17plugin_push_classPNS_10connectionEyEEEENS_6statusES2_ _Z17plugin_push_classPN10cc1_plugin10connectionEy 58
_ZN10cc1_plugin8callbackIiyXadL_Z17plugin_push_classPNS_10connectionEyEEEENS_6statusES2_ _ZN10cc1_plugin10connection4sendEc 73
_ZN10cc1_plugin8callbackIiyXadL_Z17plugin_push_classPNS_10connectionEyEEEENS_6statusES2_ _ZN10cc1_plugin16marshall_intlikeEPNS_10connectionEy 88
_ZN10cc1_plugin8callbackIiyXadL_Z20plugin_push_functionPNS_10connectionEyEEEENS_6statusES2_ _ZN10cc1_plugin16unmarshall_checkEPNS_10connectionEy 15
_ZN10cc1_plugin8callbackIiyXadL_Z20plugin_push_functionPNS_10connectionEyEEEENS_6statusES2_ _ZN10cc1_plugin18unmarshall_intlikeEPNS_10connectionEPy 41
_ZN10cc1_plugin8callbackIiyXadL_Z20plugin_push_functionPNS_10connectionEyEEEENS_6statusES2_ _Z20plugin_push_functionPN10cc1_plugin10connectionEy 58
_ZN10cc1_plugin8callbackIiyXadL_Z20plugin_push_functionPNS_10connectionEyEEEENS_6statusES2_ _ZN10cc1_plugin10connection4sendEc 73
_ZN10cc1_plugin8callbackIiyXadL_Z20plugin_push_functionPNS_10connectionEyEEEENS_6statusES2_ _ZN10cc1_plugin16marshall_intlikeEPNS_10connectionEy 88
_ZN10cc1_plugin8callbackIiyyXadL_Z22plugin_reactivate_declPNS_10connectionEyyEEEENS_6statusES2_ _ZN10cc1_plugin16unmarshall_checkEPNS_10connectionEy 15
_ZN10cc1_plugin8callbackIiyyXadL_Z22plugin_reactivate_declPNS_10connectionEyyEEEENS_6statusES2_ _ZN10cc1_plugin18unmarshall_intlikeEPNS_10connectionEPy 41
_ZN10cc1_plugin8callbackIiyyXadL_Z22plugin_reactivate_declPNS_10connectionEyyEEEENS_6statusES2_ _ZN10cc1_plugin18unmarshall_intlikeEPNS_10connectionEPy 63
_ZN10cc1_plugin8callbackIiyyXadL_Z22plugin_reactivate_declPNS_10connectionEyyEEEENS_6statusES2_ _Z22plugin_reactivate_declPN10cc1_plugin10connectionEyy 83
_ZN10cc1_plugin8callbackIiyyXadL_Z22plugin_reactivate_declPNS_10connectionEyyEEEENS_6statusES2_ _ZN10cc1_plugin10connection4sendEc 98
_ZN10cc1_plugin8callbackIiyyXadL_Z22plugin_reactivate_declPNS_10connectionEyyEEEENS_6statusES2_ _ZN10cc1_plugin16marshall_intlikeEPNS_10connectionEy 113
_ZN10cc1_plugin8callbackIi18gcc_cp_symbol_kindyXadL_Z21plugin_add_using_declPNS_10connectionES1_yEEEENS_6statusES3_ _ZN10cc1_plugin16unmarshall_checkEPNS_10connectionEy 15
_ZN10cc1_plugin8callbackIi18gcc_cp_symbol_kindyXadL_Z21plugin_add_using_declPNS_10connectionES1_yEEEENS_6statusES3_ _ZN10cc1_plugin18unmarshall_intlikeEPNS_10connectionEPy 41
_ZN10cc1_plugin8callbackIi18gcc_cp_symbol_kindyXadL_Z21plugin_add_using_declPNS_10connectionES1_yEEEENS_6statusES3_ _ZN10cc1_plugin18unmarshall_intlikeEPNS_10connectionEPy 63
_ZN10cc1_plugin8callbackIi18gcc_cp_symbol_kindyXadL_Z21plugin_add_using_declPNS_10connectionES1_yEEEENS_6statusES3_ _Z21plugin_add_using_declPN10cc1_plugin10connectionE18gcc_cp_symbol_kindy 82
_ZN10cc1_plugin8callbackIi18gcc_cp_symbol_kindyXadL_Z21plugin_add_using_declPNS_10connectionES1_yEEEENS_6statusES3_ _ZN10cc1_plugin10connection4sendEc 97
_ZN10cc1_plugin8callbackIi18gcc_cp_symbol_kindyXadL_Z21plugin_add_using_declPNS_10connectionES1_yEEEENS_6statusES3_ _ZN10cc1_plugin16marshall_intlikeEPNS_10connectionEy 112
_ZN10cc1_plugin8callbackIiyyXadL_Z17plugin_add_friendPNS_10connectionEyyEEEENS_6statusES2_ _ZN10cc1_plugin16unmarshall_checkEPNS_10connectionEy 15
_ZN10cc1_plugin8callbackIiyyXadL_Z17plugin_add_friendPNS_10connectionEyyEEEENS_6statusES2_ _ZN10cc1_plugin18unmarshall_intlikeEPNS_10connectionEPy 41
_ZN10cc1_plugin8callbackIiyyXadL_Z17plugin_add_friendPNS_10connectionEyyEEEENS_6statusES2_ _ZN10cc1_plugin18unmarshall_intlikeEPNS_10connectionEPy 63
_ZN10cc1_plugin8callbackIiyyXadL_Z17plugin_add_friendPNS_10connectionEyyEEEENS_6statusES2_ _Z17plugin_add_friendPN10cc1_plugin10connectionEyy 83
_ZN10cc1_plugin8callbackIiyyXadL_Z17plugin_add_friendPNS_10connectionEyyEEEENS_6statusES2_ _ZN10cc1_plugin10connection4sendEc 98
_ZN10cc1_plugin8callbackIiyyXadL_Z17plugin_add_friendPNS_10connectionEyyEEEENS_6statusES2_ _ZN10cc1_plugin16marshall_intlikeEPNS_10connectionEy 113
_ZN10cc1_plugin8callbackIyy21gcc_cp_ref_qualifiersXadL_Z27plugin_build_reference_typePNS_10connectionEyS1_EEEENS_6statusES3_ _ZN10cc1_plugin16unmarshall_checkEPNS_10connectionEy 15
_ZN10cc1_plugin8callbackIyy21gcc_cp_ref_qualifiersXadL_Z27plugin_build_reference_typePNS_10connectionEyS1_EEEENS_6statusES3_ _ZN10cc1_plugin18unmarshall_intlikeEPNS_10connectionEPy 41
_ZN10cc1_plugin8callbackIyy21gcc_cp_ref_qualifiersXadL_Z27plugin_build_reference_typePNS_10connectionEyS1_EEEENS_6statusES3_ _ZN10cc1_plugin18unmarshall_intlikeEPNS_10connectionEPy 63
_ZN10cc1_plugin8callbackIyy21gcc_cp_ref_qualifiersXadL_Z27plugin_build_reference_typePNS_10connectionEyS1_EEEENS_6statusES3_ _Z27plugin_build_reference_typePN10cc1_plugin10connectionEy21gcc_cp_ref_qualifiers 82
_ZN10cc1_plugin8callbackIyy21gcc_cp_ref_qualifiersXadL_Z27plugin_build_reference_typePNS_10connectionEyS1_EEEENS_6statusES3_ _ZN10cc1_plugin10connection4sendEc 98
_ZN10cc1_plugin8callbackIyy21gcc_cp_ref_qualifiersXadL_Z27plugin_build_reference_typePNS_10connectionEyS1_EEEENS_6statusES3_ _ZN10cc1_plugin16marshall_intlikeEPNS_10connectionEy 113
_ZN10cc1_plugin8callbackIyPKcy18gcc_cp_symbol_kindmmXadL_Z18plugin_build_fieldPNS_10connectionES2_yS3_mmEEEENS_6statusES5_ _ZN10cc1_plugin16unmarshall_checkEPNS_10connectionEy 29
_ZN10cc1_plugin8callbackIyPKcy18gcc_cp_symbol_kindmmXadL_Z18plugin_build_fieldPNS_10connectionES2_yS3_mmEEEENS_6statusES5_ _ZdaPv 49
_ZN10cc1_plugin8callbackIyPKcy18gcc_cp_symbol_kindmmXadL_Z18plugin_build_fieldPNS_10connectionES2_yS3_mmEEEENS_6statusES5_ _ZN10cc1_plugin10unmarshallEPNS_10connectionEPPc 79
_ZN10cc1_plugin8callbackIyPKcy18gcc_cp_symbol_kindmmXadL_Z18plugin_build_fieldPNS_10connectionES2_yS3_mmEEEENS_6statusES5_ _ZN10cc1_plugin18unmarshall_intlikeEPNS_10connectionEPy 96
_ZN10cc1_plugin8callbackIyPKcy18gcc_cp_symbol_kindmmXadL_Z18plugin_build_fieldPNS_10connectionES2_yS3_mmEEEENS_6statusES5_ _ZN10cc1_plugin18unmarshall_intlikeEPNS_10connectionEPy 120
_ZN10cc1_plugin8callbackIyPKcy18gcc_cp_symbol_kindmmXadL_Z18plugin_build_fieldPNS_10connectionES2_yS3_mmEEEENS_6statusES5_ _ZN10cc1_plugin18unmarshall_intlikeEPNS_10connectionEPy 144
_ZN10cc1_plugin8callbackIyPKcy18gcc_cp_symbol_kindmmXadL_Z18plugin_build_fieldPNS_10connectionES2_yS3_mmEEEENS_6statusES5_ _ZN10cc1_plugin18unmarshall_intlikeEPNS_10connectionEPy 168
_ZN10cc1_plugin8callbackIyPKcy18gcc_cp_symbol_kindmmXadL_Z18plugin_build_fieldPNS_10connectionES2_yS3_mmEEEENS_6statusES5_ _Z18plugin_build_fieldPN10cc1_plugin10connectionEPKcy18gcc_cp_symbol_kindmm 204
_ZN10cc1_plugin8callbackIyPKcy18gcc_cp_symbol_kindmmXadL_Z18plugin_build_fieldPNS_10connectionES2_yS3_mmEEEENS_6statusES5_ _ZN10cc1_plugin10connection4sendEc 220
_ZN10cc1_plugin8callbackIyPKcy18gcc_cp_symbol_kindmmXadL_Z18plugin_build_fieldPNS_10connectionES2_yS3_mmEEEENS_6statusES5_ _ZN10cc1_plugin16marshall_intlikeEPNS_10connectionEy 239
_ZN10cc1_plugin8callbackIyPKcy18gcc_cp_symbol_kindmmXadL_Z18plugin_build_fieldPNS_10connectionES2_yS3_mmEEEENS_6statusES5_ _ZdaPv 263
_ZN10cc1_plugin8callbackIyPKcy18gcc_cp_symbol_kindmmXadL_Z18plugin_build_fieldPNS_10connectionES2_yS3_mmEEEENS_6statusES5_ _Unwind_Resume 271
_ZN10cc1_plugin8callbackIimXadL_Z24plugin_finish_class_typePNS_10connectionEmEEEENS_6statusES2_ _ZN10cc1_plugin16unmarshall_checkEPNS_10connectionEy 15
_ZN10cc1_plugin8callbackIimXadL_Z24plugin_finish_class_typePNS_10connectionEmEEEENS_6statusES2_ _ZN10cc1_plugin18unmarshall_intlikeEPNS_10connectionEPy 41
_ZN10cc1_plugin8callbackIimXadL_Z24plugin_finish_class_typePNS_10connectionEmEEEENS_6statusES2_ _Z24plugin_finish_class_typePN10cc1_plugin10connectionEm 58
_ZN10cc1_plugin8callbackIimXadL_Z24plugin_finish_class_typePNS_10connectionEmEEEENS_6statusES2_ _ZN10cc1_plugin10connection4sendEc 73
_ZN10cc1_plugin8callbackIimXadL_Z24plugin_finish_class_typePNS_10connectionEmEEEENS_6statusES2_ _ZN10cc1_plugin16marshall_intlikeEPNS_10connectionEy 88
_ZN10cc1_plugin8callbackIyyPKcmXadL_Z26plugin_build_enum_constantPNS_10connectionEyS2_mEEEENS_6statusES4_ _ZN10cc1_plugin16unmarshall_checkEPNS_10connectionEy 25
_ZN10cc1_plugin8callbackIyyPKcmXadL_Z26plugin_build_enum_constantPNS_10connectionEyS2_mEEEENS_6statusES4_ _ZdaPv 45
_ZN10cc1_plugin8callbackIyyPKcmXadL_Z26plugin_build_enum_constantPNS_10connectionEyS2_mEEEENS_6statusES4_ _ZN10cc1_plugin18unmarshall_intlikeEPNS_10connectionEPy 73
_ZN10cc1_plugin8callbackIyyPKcmXadL_Z26plugin_build_enum_constantPNS_10connectionEyS2_mEEEENS_6statusES4_ _ZN10cc1_plugin10unmarshallEPNS_10connectionEPPc 95
_ZN10cc1_plugin8callbackIyyPKcmXadL_Z26plugin_build_enum_constantPNS_10connectionEyS2_mEEEENS_6statusES4_ _ZN10cc1_plugin18unmarshall_intlikeEPNS_10connectionEPy 112
_ZN10cc1_plugin8callbackIyyPKcmXadL_Z26plugin_build_enum_constantPNS_10connectionEyS2_mEEEENS_6statusES4_ _Z26plugin_build_enum_constantPN10cc1_plugin10connectionEyPKcm 138
_ZN10cc1_plugin8callbackIyyPKcmXadL_Z26plugin_build_enum_constantPNS_10connectionEyS2_mEEEENS_6statusES4_ _ZN10cc1_plugin10connection4sendEc 154
_ZN10cc1_plugin8callbackIyyPKcmXadL_Z26plugin_build_enum_constantPNS_10connectionEyS2_mEEEENS_6statusES4_ _ZN10cc1_plugin16marshall_intlikeEPNS_10connectionEy 173
_ZN10cc1_plugin8callbackIyyPKcmXadL_Z26plugin_build_enum_constantPNS_10connectionEyS2_mEEEENS_6statusES4_ _ZdaPv 197
_ZN10cc1_plugin8callbackIyyPKcmXadL_Z26plugin_build_enum_constantPNS_10connectionEyS2_mEEEENS_6statusES4_ _Unwind_Resume 205
_ZN10cc1_plugin8callbackIyyiXadL_Z34plugin_get_function_parameter_declPNS_10connectionEyiEEEENS_6statusES2_ _ZN10cc1_plugin16unmarshall_checkEPNS_10connectionEy 15
_ZN10cc1_plugin8callbackIyyiXadL_Z34plugin_get_function_parameter_declPNS_10connectionEyiEEEENS_6statusES2_ _ZN10cc1_plugin18unmarshall_intlikeEPNS_10connectionEPy 41
_ZN10cc1_plugin8callbackIyyiXadL_Z34plugin_get_function_parameter_declPNS_10connectionEyiEEEENS_6statusES2_ _ZN10cc1_plugin18unmarshall_intlikeEPNS_10connectionEPy 63
_ZN10cc1_plugin8callbackIyyiXadL_Z34plugin_get_function_parameter_declPNS_10connectionEyiEEEENS_6statusES2_ _Z34plugin_get_function_parameter_declPN10cc1_plugin10connectionEyi 82
_ZN10cc1_plugin8callbackIyyiXadL_Z34plugin_get_function_parameter_declPNS_10connectionEyiEEEENS_6statusES2_ _ZN10cc1_plugin10connection4sendEc 98
_ZN10cc1_plugin8callbackIyyiXadL_Z34plugin_get_function_parameter_declPNS_10connectionEyiEEEENS_6statusES2_ _ZN10cc1_plugin16marshall_intlikeEPNS_10connectionEy 113
_ZN10cc1_plugin8callbackIymPKcXadL_Z21plugin_get_float_typePNS_10connectionEmS2_EEEENS_6statusES4_ _ZN10cc1_plugin16unmarshall_checkEPNS_10connectionEy 23
_ZN10cc1_plugin8callbackIymPKcXadL_Z21plugin_get_float_typePNS_10connectionEmS2_EEEENS_6statusES4_ _ZdaPv 43
_ZN10cc1_plugin8callbackIymPKcXadL_Z21plugin_get_float_typePNS_10connectionEmS2_EEEENS_6statusES4_ _ZN10cc1_plugin18unmarshall_intlikeEPNS_10connectionEPy 73
_ZN10cc1_plugin8callbackIymPKcXadL_Z21plugin_get_float_typePNS_10connectionEmS2_EEEENS_6statusES4_ _ZN10cc1_plugin10unmarshallEPNS_10connectionEPPc 95
_ZN10cc1_plugin8callbackIymPKcXadL_Z21plugin_get_float_typePNS_10connectionEmS2_EEEENS_6statusES4_ _Z21plugin_get_float_typePN10cc1_plugin10connectionEmPKc 114
_ZN10cc1_plugin8callbackIymPKcXadL_Z21plugin_get_float_typePNS_10connectionEmS2_EEEENS_6statusES4_ _ZN10cc1_plugin10connection4sendEc 130
_ZN10cc1_plugin8callbackIymPKcXadL_Z21plugin_get_float_typePNS_10connectionEmS2_EEEENS_6statusES4_ _ZN10cc1_plugin16marshall_intlikeEPNS_10connectionEy 145
_ZN10cc1_plugin8callbackIymPKcXadL_Z21plugin_get_float_typePNS_10connectionEmS2_EEEENS_6statusES4_ _ZdaPv 166
_ZN10cc1_plugin8callbackIymPKcXadL_Z21plugin_get_float_typePNS_10connectionEmS2_EEEENS_6statusES4_ _Unwind_Resume 174
_ZN10cc1_plugin8callbackIyy17gcc_cp_qualifiersXadL_Z27plugin_build_qualified_typePNS_10connectionEyS1_EEEENS_6statusES3_ _ZN10cc1_plugin16unmarshall_checkEPNS_10connectionEy 15
_ZN10cc1_plugin8callbackIyy17gcc_cp_qualifiersXadL_Z27plugin_build_qualified_typePNS_10connectionEyS1_EEEENS_6statusES3_ _ZN10cc1_plugin18unmarshall_intlikeEPNS_10connectionEPy 41
_ZN10cc1_plugin8callbackIyy17gcc_cp_qualifiersXadL_Z27plugin_build_qualified_typePNS_10connectionEyS1_EEEENS_6statusES3_ _ZN10cc1_plugin18unmarshall_intlikeEPNS_10connectionEPy 63
_ZN10cc1_plugin8callbackIyy17gcc_cp_qualifiersXadL_Z27plugin_build_qualified_typePNS_10connectionEyS1_EEEENS_6statusES3_ _Z27plugin_build_qualified_typePN10cc1_plugin10connectionEy17gcc_cp_qualifiers 82
_ZN10cc1_plugin8callbackIyy17gcc_cp_qualifiersXadL_Z27plugin_build_qualified_typePNS_10connectionEyS1_EEEENS_6statusES3_ _ZN10cc1_plugin10connection4sendEc 98
_ZN10cc1_plugin8callbackIyy17gcc_cp_qualifiersXadL_Z27plugin_build_qualified_typePNS_10connectionEyS1_EEEENS_6statusES3_ _ZN10cc1_plugin16marshall_intlikeEPNS_10connectionEy 113
_ZN10cc1_plugin4callIiEENS_6statusEPNS_10connectionEPKcPT_ _ZN10cc1_plugin10connection4sendEc 23
_ZN10cc1_plugin4callIiEENS_6statusEPNS_10connectionEPKcPT_ _ZN10cc1_plugin8marshallEPNS_10connectionEPKc 55
_ZN10cc1_plugin4callIiEENS_6statusEPNS_10connectionEPKcPT_ _ZN10cc1_plugin16marshall_intlikeEPNS_10connectionEy 69
_ZN10cc1_plugin4callIiEENS_6statusEPNS_10connectionEPKcPT_ _ZN10cc1_plugin10connection7do_waitEb 86
_ZN10cc1_plugin4callIiEENS_6statusEPNS_10connectionEPKcPT_ _ZN10cc1_plugin18unmarshall_intlikeEPNS_10connectionEPy 103
_ZN5va_gc7reserveIP9tree_nodeS_EEvRP3vecIT_T0_8vl_embedEjb _Z20ggc_round_alloc_sizem 43
_ZN5va_gc7reserveIP9tree_nodeS_EEvRP3vecIT_T0_8vl_embedEjb _Z11ggc_reallocPvm 82
_ZN5va_gc7reserveIP9tree_nodeS_EEvRP3vecIT_T0_8vl_embedEjb _ZN10vec_prefix22calculate_allocation_1Ejj 140
_ZN5va_gc7reserveIP9tree_nodeS_EEvRP3vecIT_T0_8vl_embedEjb _Z8ggc_freePv 153
_ZN10cc1_plugin8callbackIiXadL_Z28plugin_make_namespace_inlinePNS_10connectionEEEEENS_6statusES2_ _ZN10cc1_plugin16unmarshall_checkEPNS_10connectionEy 12
_ZN10cc1_plugin8callbackIiXadL_Z28plugin_make_namespace_inlinePNS_10connectionEEEEENS_6statusES2_ _Z28plugin_make_namespace_inlinePN10cc1_plugin10connectionE 36
_ZN10cc1_plugin8callbackIiXadL_Z28plugin_make_namespace_inlinePNS_10connectionEEEEENS_6statusES2_ _ZN10cc1_plugin10connection4sendEc 51
_ZN10cc1_plugin8callbackIiXadL_Z28plugin_make_namespace_inlinePNS_10connectionEEEEENS_6statusES2_ _ZN10cc1_plugin16marshall_intlikeEPNS_10connectionEy 72
_ZN14plugin_context8preserveEP9tree_node prime_tab 70
_ZN14plugin_context8preserveEP9tree_node prime_tab 76
_ZN14plugin_context8preserveEP9tree_node prime_tab 83
_ZN14plugin_context8preserveEP9tree_node prime_tab 89
_ZN14plugin_context8preserveEP9tree_node _ZN10hash_tableI15nofree_ptr_hashI9tree_nodeELb0E11xcallocatorE6expandEv 338
_ZN10cc1_plugin8callbackIyPKcPK20gcc_cp_function_argsyS5_XadL_Z21plugin_build_new_exprPNS_10connectionES2_S5_yS5_EEEENS_6statusES7_ _ZN10cc1_plugin16unmarshall_checkEPNS_10connectionEy 55
_ZN10cc1_plugin8callbackIyPKcPK20gcc_cp_function_argsyS5_XadL_Z21plugin_build_new_exprPNS_10connectionES2_S5_yS5_EEEENS_6statusES7_ _ZN10cc1_plugin10unmarshallEPNS_10connectionEPPc 80
_ZN10cc1_plugin8callbackIyPKcPK20gcc_cp_function_argsyS5_XadL_Z21plugin_build_new_exprPNS_10connectionES2_S5_yS5_EEEENS_6statusES7_ _ZdaPv 110
_ZN10cc1_plugin8callbackIyPKcPK20gcc_cp_function_argsyS5_XadL_Z21plugin_build_new_exprPNS_10connectionES2_S5_yS5_EEEENS_6statusES7_ _ZdlPv 123
_ZN10cc1_plugin8callbackIyPKcPK20gcc_cp_function_argsyS5_XadL_Z21plugin_build_new_exprPNS_10connectionES2_S5_yS5_EEEENS_6statusES7_ _ZdaPv 147
_ZN10cc1_plugin8callbackIyPKcPK20gcc_cp_function_argsyS5_XadL_Z21plugin_build_new_exprPNS_10connectionES2_S5_yS5_EEEENS_6statusES7_ _ZdlPv 160
_ZN10cc1_plugin8callbackIyPKcPK20gcc_cp_function_argsyS5_XadL_Z21plugin_build_new_exprPNS_10connectionES2_S5_yS5_EEEENS_6statusES7_ _ZdaPv 174
_ZN10cc1_plugin8callbackIyPKcPK20gcc_cp_function_argsyS5_XadL_Z21plugin_build_new_exprPNS_10connectionES2_S5_yS5_EEEENS_6statusES7_ _ZN10cc1_plugin10unmarshallEPNS_10connectionEPP20gcc_cp_function_args 209
_ZN10cc1_plugin8callbackIyPKcPK20gcc_cp_function_argsyS5_XadL_Z21plugin_build_new_exprPNS_10connectionES2_S5_yS5_EEEENS_6statusES7_ _ZN10cc1_plugin18unmarshall_intlikeEPNS_10connectionEPy 235
_ZN10cc1_plugin8callbackIyPKcPK20gcc_cp_function_argsyS5_XadL_Z21plugin_build_new_exprPNS_10connectionES2_S5_yS5_EEEENS_6statusES7_ _ZN10cc1_plugin10unmarshallEPNS_10connectionEPP20gcc_cp_function_args 266
_ZN10cc1_plugin8callbackIyPKcPK20gcc_cp_function_argsyS5_XadL_Z21plugin_build_new_exprPNS_10connectionES2_S5_yS5_EEEENS_6statusES7_ _Z21plugin_build_new_exprPN10cc1_plugin10connectionEPKcPK20gcc_cp_function_argsyS6_ 299
_ZN10cc1_plugin8callbackIyPKcPK20gcc_cp_function_argsyS5_XadL_Z21plugin_build_new_exprPNS_10connectionES2_S5_yS5_EEEENS_6statusES7_ _ZN10cc1_plugin10connection4sendEc 315
_ZN10cc1_plugin8callbackIyPKcPK20gcc_cp_function_argsyS5_XadL_Z21plugin_build_new_exprPNS_10connectionES2_S5_yS5_EEEENS_6statusES7_ _ZN10cc1_plugin16marshall_intlikeEPNS_10connectionEy 334
_ZN10cc1_plugin8callbackIyPKcPK20gcc_cp_function_argsyS5_XadL_Z21plugin_build_new_exprPNS_10connectionES2_S5_yS5_EEEENS_6statusES7_ _ZN10cc1_plugin16argument_wrapperIPK20gcc_cp_function_argsED1Ev 352
_ZN10cc1_plugin8callbackIyPKcPK20gcc_cp_function_argsyS5_XadL_Z21plugin_build_new_exprPNS_10connectionES2_S5_yS5_EEEENS_6statusES7_ _ZN10cc1_plugin16argument_wrapperIPK20gcc_cp_function_argsED1Ev 360
_ZN10cc1_plugin8callbackIyPKcPK20gcc_cp_function_argsyS5_XadL_Z21plugin_build_new_exprPNS_10connectionES2_S5_yS5_EEEENS_6statusES7_ _ZdaPv 374
_ZN10cc1_plugin8callbackIyPKcPK20gcc_cp_function_argsyS5_XadL_Z21plugin_build_new_exprPNS_10connectionES2_S5_yS5_EEEENS_6statusES7_ _Unwind_Resume 382
_ZN10cc1_plugin8callbackIyyXadL_Z20plugin_get_expr_typePNS_10connectionEyEEEENS_6statusES2_ _ZN10cc1_plugin16unmarshall_checkEPNS_10connectionEy 15
_ZN10cc1_plugin8callbackIyyXadL_Z20plugin_get_expr_typePNS_10connectionEyEEEENS_6statusES2_ _ZN10cc1_plugin18unmarshall_intlikeEPNS_10connectionEPy 41
_ZN10cc1_plugin8callbackIyyXadL_Z20plugin_get_expr_typePNS_10connectionEyEEEENS_6statusES2_ _Z20plugin_get_expr_typePN10cc1_plugin10connectionEy 58
_ZN10cc1_plugin8callbackIyyXadL_Z20plugin_get_expr_typePNS_10connectionEyEEEENS_6statusES2_ _ZN10cc1_plugin10connection4sendEc 74
_ZN10cc1_plugin8callbackIyyXadL_Z20plugin_get_expr_typePNS_10connectionEyEEEENS_6statusES2_ _ZN10cc1_plugin16marshall_intlikeEPNS_10connectionEy 89
_ZN10cc1_plugin8callbackIyymXadL_Z25plugin_build_literal_exprPNS_10connectionEymEEEENS_6statusES2_ _ZN10cc1_plugin16unmarshall_checkEPNS_10connectionEy 15
_ZN10cc1_plugin8callbackIyymXadL_Z25plugin_build_literal_exprPNS_10connectionEymEEEENS_6statusES2_ _ZN10cc1_plugin18unmarshall_intlikeEPNS_10connectionEPy 41
_ZN10cc1_plugin8callbackIyymXadL_Z25plugin_build_literal_exprPNS_10connectionEymEEEENS_6statusES2_ _ZN10cc1_plugin18unmarshall_intlikeEPNS_10connectionEPy 63
_ZN10cc1_plugin8callbackIyymXadL_Z25plugin_build_literal_exprPNS_10connectionEymEEEENS_6statusES2_ _Z25plugin_build_literal_exprPN10cc1_plugin10connectionEym 83
_ZN10cc1_plugin8callbackIyymXadL_Z25plugin_build_literal_exprPNS_10connectionEymEEEENS_6statusES2_ _ZN10cc1_plugin10connection4sendEc 99
_ZN10cc1_plugin8callbackIyymXadL_Z25plugin_build_literal_exprPNS_10connectionEymEEEENS_6statusES2_ _ZN10cc1_plugin16marshall_intlikeEPNS_10connectionEy 114
_ZN10cc1_plugin8callbackIyyiXadL_Z22plugin_build_decl_exprPNS_10connectionEyiEEEENS_6statusES2_ _ZN10cc1_plugin16unmarshall_checkEPNS_10connectionEy 15
_ZN10cc1_plugin8callbackIyyiXadL_Z22plugin_build_decl_exprPNS_10connectionEyiEEEENS_6statusES2_ _ZN10cc1_plugin18unmarshall_intlikeEPNS_10connectionEPy 41
_ZN10cc1_plugin8callbackIyyiXadL_Z22plugin_build_decl_exprPNS_10connectionEyiEEEENS_6statusES2_ _ZN10cc1_plugin18unmarshall_intlikeEPNS_10connectionEPy 63
_ZN10cc1_plugin8callbackIyyiXadL_Z22plugin_build_decl_exprPNS_10connectionEyiEEEENS_6statusES2_ _Z22plugin_build_decl_exprPN10cc1_plugin10connectionEyi 82
_ZN10cc1_plugin8callbackIyyiXadL_Z22plugin_build_decl_exprPNS_10connectionEyiEEEENS_6statusES2_ _ZN10cc1_plugin10connection4sendEc 98
_ZN10cc1_plugin8callbackIyyiXadL_Z22plugin_build_decl_exprPNS_10connectionEyiEEEENS_6statusES2_ _ZN10cc1_plugin16marshall_intlikeEPNS_10connectionEy 113
_ZN10cc1_plugin8callbackIyyPK20gcc_cp_template_argsXadL_Z39plugin_build_dependent_type_template_idPNS_10connectionEyS3_EEEENS_6statusES5_ _ZN10cc1_plugin16unmarshall_checkEPNS_10connectionEy 28
_ZN10cc1_plugin8callbackIyyPK20gcc_cp_template_argsXadL_Z39plugin_build_dependent_type_template_idPNS_10connectionEyS3_EEEENS_6statusES5_ _ZN10cc1_plugin18unmarshall_intlikeEPNS_10connectionEPy 52
_ZN10cc1_plugin8callbackIyyPK20gcc_cp_template_argsXadL_Z39plugin_build_dependent_type_template_idPNS_10connectionEyS3_EEEENS_6statusES5_ _ZdaPv 81
_ZN10cc1_plugin8callbackIyyPK20gcc_cp_template_argsXadL_Z39plugin_build_dependent_type_template_idPNS_10connectionEyS3_EEEENS_6statusES5_ _ZdaPv 99
_ZN10cc1_plugin8callbackIyyPK20gcc_cp_template_argsXadL_Z39plugin_build_dependent_type_template_idPNS_10connectionEyS3_EEEENS_6statusES5_ _ZdlPv 111
_ZN10cc1_plugin8callbackIyyPK20gcc_cp_template_argsXadL_Z39plugin_build_dependent_type_template_idPNS_10connectionEyS3_EEEENS_6statusES5_ _ZN10cc1_plugin10unmarshallEPNS_10connectionEPP20gcc_cp_template_args 143
_ZN10cc1_plugin8callbackIyyPK20gcc_cp_template_argsXadL_Z39plugin_build_dependent_type_template_idPNS_10connectionEyS3_EEEENS_6statusES5_ _Z39plugin_build_dependent_type_template_idPN10cc1_plugin10connectionEyPK20gcc_cp_template_args 162
_ZN10cc1_plugin8callbackIyyPK20gcc_cp_template_argsXadL_Z39plugin_build_dependent_type_template_idPNS_10connectionEyS3_EEEENS_6statusES5_ _ZN10cc1_plugin10connection4sendEc 178
_ZN10cc1_plugin8callbackIyyPK20gcc_cp_template_argsXadL_Z39plugin_build_dependent_type_template_idPNS_10connectionEyS3_EEEENS_6statusES5_ _ZN10cc1_plugin16marshall_intlikeEPNS_10connectionEy 215
_ZN10cc1_plugin8callbackIyyPK20gcc_cp_template_argsXadL_Z39plugin_build_dependent_type_template_idPNS_10connectionEyS3_EEEENS_6statusES5_ _ZN10cc1_plugin16argument_wrapperIPK20gcc_cp_template_argsED1Ev 233
_ZN10cc1_plugin8callbackIyyPK20gcc_cp_template_argsXadL_Z39plugin_build_dependent_type_template_idPNS_10connectionEyS3_EEEENS_6statusES5_ _Unwind_Resume 241
_ZN10cc1_plugin8callbackIyyPKcXadL_Z37plugin_build_dependent_class_templatePNS_10connectionEyS2_EEEENS_6statusES4_ _ZN10cc1_plugin16unmarshall_checkEPNS_10connectionEy 23
_ZN10cc1_plugin8callbackIyyPKcXadL_Z37plugin_build_dependent_class_templatePNS_10connectionEyS2_EEEENS_6statusES4_ _ZdaPv 43
_ZN10cc1_plugin8callbackIyyPKcXadL_Z37plugin_build_dependent_class_templatePNS_10connectionEyS2_EEEENS_6statusES4_ _ZN10cc1_plugin18unmarshall_intlikeEPNS_10connectionEPy 73
_ZN10cc1_plugin8callbackIyyPKcXadL_Z37plugin_build_dependent_class_templatePNS_10connectionEyS2_EEEENS_6statusES4_ _ZN10cc1_plugin10unmarshallEPNS_10connectionEPPc 95
_ZN10cc1_plugin8callbackIyyPKcXadL_Z37plugin_build_dependent_class_templatePNS_10connectionEyS2_EEEENS_6statusES4_ _Z37plugin_build_dependent_class_templatePN10cc1_plugin10connectionEyPKc 114
_ZN10cc1_plugin8callbackIyyPKcXadL_Z37plugin_build_dependent_class_templatePNS_10connectionEyS2_EEEENS_6statusES4_ _ZN10cc1_plugin10connection4sendEc 130
_ZN10cc1_plugin8callbackIyyPKcXadL_Z37plugin_build_dependent_class_templatePNS_10connectionEyS2_EEEENS_6statusES4_ _ZN10cc1_plugin16marshall_intlikeEPNS_10connectionEy 145
_ZN10cc1_plugin8callbackIyyPKcXadL_Z37plugin_build_dependent_class_templatePNS_10connectionEyS2_EEEENS_6statusES4_ _ZdaPv 166
_ZN10cc1_plugin8callbackIyyPKcXadL_Z37plugin_build_dependent_class_templatePNS_10connectionEyS2_EEEENS_6statusES4_ _Unwind_Resume 174
_ZN10cc1_plugin8callbackIyyXadL_Z24plugin_build_lambda_exprPNS_10connectionEyEEEENS_6statusES2_ _ZN10cc1_plugin16unmarshall_checkEPNS_10connectionEy 15
_ZN10cc1_plugin8callbackIyyXadL_Z24plugin_build_lambda_exprPNS_10connectionEyEEEENS_6statusES2_ _ZN10cc1_plugin18unmarshall_intlikeEPNS_10connectionEPy 41
_ZN10cc1_plugin8callbackIyyXadL_Z24plugin_build_lambda_exprPNS_10connectionEyEEEENS_6statusES2_ _Z24plugin_build_lambda_exprPN10cc1_plugin10connectionEy 58
_ZN10cc1_plugin8callbackIyyXadL_Z24plugin_build_lambda_exprPNS_10connectionEyEEEENS_6statusES2_ _ZN10cc1_plugin10connection4sendEc 74
_ZN10cc1_plugin8callbackIyyXadL_Z24plugin_build_lambda_exprPNS_10connectionEyEEEENS_6statusES2_ _ZN10cc1_plugin16marshall_intlikeEPNS_10connectionEy 89
_ZN10cc1_plugin8callbackIyyy17gcc_cp_qualifiers21gcc_cp_ref_qualifiersXadL_Z24plugin_build_method_typePNS_10connectionEyyS1_S2_EEEENS_6statusES4_ _ZN10cc1_plugin16unmarshall_checkEPNS_10connectionEy 19
_ZN10cc1_plugin8callbackIyyy17gcc_cp_qualifiers21gcc_cp_ref_qualifiersXadL_Z24plugin_build_method_typePNS_10connectionEyyS1_S2_EEEENS_6statusES4_ _ZN10cc1_plugin18unmarshall_intlikeEPNS_10connectionEPy 57
_ZN10cc1_plugin8callbackIyyy17gcc_cp_qualifiers21gcc_cp_ref_qualifiersXadL_Z24plugin_build_method_typePNS_10connectionEyyS1_S2_EEEENS_6statusES4_ _ZN10cc1_plugin18unmarshall_intlikeEPNS_10connectionEPy 79
_ZN10cc1_plugin8callbackIyyy17gcc_cp_qualifiers21gcc_cp_ref_qualifiersXadL_Z24plugin_build_method_typePNS_10connectionEyyS1_S2_EEEENS_6statusES4_ _ZN10cc1_plugin18unmarshall_intlikeEPNS_10connectionEPy 101
_ZN10cc1_plugin8callbackIyyy17gcc_cp_qualifiers21gcc_cp_ref_qualifiersXadL_Z24plugin_build_method_typePNS_10connectionEyyS1_S2_EEEENS_6statusES4_ _ZN10cc1_plugin18unmarshall_intlikeEPNS_10connectionEPy 123
_ZN10cc1_plugin8callbackIyyy17gcc_cp_qualifiers21gcc_cp_ref_qualifiersXadL_Z24plugin_build_method_typePNS_10connectionEyyS1_S2_EEEENS_6statusES4_ _Z24plugin_build_method_typePN10cc1_plugin10connectionEyy17gcc_cp_qualifiers21gcc_cp_ref_qualifiers 149
_ZN10cc1_plugin8callbackIyyy17gcc_cp_qualifiers21gcc_cp_ref_qualifiersXadL_Z24plugin_build_method_typePNS_10connectionEyyS1_S2_EEEENS_6statusES4_ _ZN10cc1_plugin10connection4sendEc 165
_ZN10cc1_plugin8callbackIyyy17gcc_cp_qualifiers21gcc_cp_ref_qualifiersXadL_Z24plugin_build_method_typePNS_10connectionEyyS1_S2_EEEENS_6statusES4_ _ZN10cc1_plugin16marshall_intlikeEPNS_10connectionEy 184
_ZN10cc1_plugin8callbackIyimPKcXadL_Z19plugin_get_int_typePNS_10connectionEimS2_EEEENS_6statusES4_ _ZN10cc1_plugin16unmarshall_checkEPNS_10connectionEy 25
_ZN10cc1_plugin8callbackIyimPKcXadL_Z19plugin_get_int_typePNS_10connectionEimS2_EEEENS_6statusES4_ _ZdaPv 45
_ZN10cc1_plugin8callbackIyimPKcXadL_Z19plugin_get_int_typePNS_10connectionEimS2_EEEENS_6statusES4_ _ZN10cc1_plugin18unmarshall_intlikeEPNS_10connectionEPy 73
_ZN10cc1_plugin8callbackIyimPKcXadL_Z19plugin_get_int_typePNS_10connectionEimS2_EEEENS_6statusES4_ _ZN10cc1_plugin18unmarshall_intlikeEPNS_10connectionEPy 97
_ZN10cc1_plugin8callbackIyimPKcXadL_Z19plugin_get_int_typePNS_10connectionEimS2_EEEENS_6statusES4_ _ZN10cc1_plugin10unmarshallEPNS_10connectionEPPc 119
_ZN10cc1_plugin8callbackIyimPKcXadL_Z19plugin_get_int_typePNS_10connectionEimS2_EEEENS_6statusES4_ _Z19plugin_get_int_typePN10cc1_plugin10connectionEimPKc 141
_ZN10cc1_plugin8callbackIyimPKcXadL_Z19plugin_get_int_typePNS_10connectionEimS2_EEEENS_6statusES4_ _ZN10cc1_plugin10connection4sendEc 157
_ZN10cc1_plugin8callbackIyimPKcXadL_Z19plugin_get_int_typePNS_10connectionEimS2_EEEENS_6statusES4_ _ZN10cc1_plugin16marshall_intlikeEPNS_10connectionEy 176
_ZN10cc1_plugin8callbackIyimPKcXadL_Z19plugin_get_int_typePNS_10connectionEimS2_EEEENS_6statusES4_ _ZdaPv 200
_ZN10cc1_plugin8callbackIyimPKcXadL_Z19plugin_get_int_typePNS_10connectionEimS2_EEEENS_6statusES4_ _Unwind_Resume 208
_ZN10cc1_plugin8callbackIyyPKcPK20gcc_cp_template_argsXadL_Z31plugin_build_dependent_typenamePNS_10connectionEyS2_S5_EEEENS_6statusES7_ _ZN10cc1_plugin16unmarshall_checkEPNS_10connectionEy 39
_ZN10cc1_plugin8callbackIyyPKcPK20gcc_cp_template_argsXadL_Z31plugin_build_dependent_typenamePNS_10connectionEyS2_S5_EEEENS_6statusES7_ _ZN10cc1_plugin18unmarshall_intlikeEPNS_10connectionEPy 65
_ZN10cc1_plugin8callbackIyyPKcPK20gcc_cp_template_argsXadL_Z31plugin_build_dependent_typenamePNS_10connectionEyS2_S5_EEEENS_6statusES7_ _ZdaPv 95
_ZN10cc1_plugin8callbackIyyPKcPK20gcc_cp_template_argsXadL_Z31plugin_build_dependent_typenamePNS_10connectionEyS2_S5_EEEENS_6statusES7_ _ZdaPv 114
_ZN10cc1_plugin8callbackIyyPKcPK20gcc_cp_template_argsXadL_Z31plugin_build_dependent_typenamePNS_10connectionEyS2_S5_EEEENS_6statusES7_ _ZdlPv 127
_ZN10cc1_plugin8callbackIyyPKcPK20gcc_cp_template_argsXadL_Z31plugin_build_dependent_typenamePNS_10connectionEyS2_S5_EEEENS_6statusES7_ _ZdaPv 141
_ZN10cc1_plugin8callbackIyyPKcPK20gcc_cp_template_argsXadL_Z31plugin_build_dependent_typenamePNS_10connectionEyS2_S5_EEEENS_6statusES7_ _ZN10cc1_plugin10unmarshallEPNS_10connectionEPPc 177
_ZN10cc1_plugin8callbackIyyPKcPK20gcc_cp_template_argsXadL_Z31plugin_build_dependent_typenamePNS_10connectionEyS2_S5_EEEENS_6statusES7_ _ZN10cc1_plugin10unmarshallEPNS_10connectionEPP20gcc_cp_template_args 204
_ZN10cc1_plugin8callbackIyyPKcPK20gcc_cp_template_argsXadL_Z31plugin_build_dependent_typenamePNS_10connectionEyS2_S5_EEEENS_6statusES7_ _Z31plugin_build_dependent_typenamePN10cc1_plugin10connectionEyPKcPK20gcc_cp_template_args 228
_ZN10cc1_plugin8callbackIyyPKcPK20gcc_cp_template_argsXadL_Z31plugin_build_dependent_typenamePNS_10connectionEyS2_S5_EEEENS_6statusES7_ _ZN10cc1_plugin10connection4sendEc 244
_ZN10cc1_plugin8callbackIyyPKcPK20gcc_cp_template_argsXadL_Z31plugin_build_dependent_typenamePNS_10connectionEyS2_S5_EEEENS_6statusES7_ _ZN10cc1_plugin16marshall_intlikeEPNS_10connectionEy 259
_ZN10cc1_plugin8callbackIyyPKcPK20gcc_cp_template_argsXadL_Z31plugin_build_dependent_typenamePNS_10connectionEyS2_S5_EEEENS_6statusES7_ _ZN10cc1_plugin16argument_wrapperIPK20gcc_cp_template_argsED1Ev 277
_ZN10cc1_plugin8callbackIyyPKcPK20gcc_cp_template_argsXadL_Z31plugin_build_dependent_typenamePNS_10connectionEyS2_S5_EEEENS_6statusES7_ _ZdaPv 291
_ZN10cc1_plugin8callbackIyyPKcPK20gcc_cp_template_argsXadL_Z31plugin_build_dependent_typenamePNS_10connectionEyS2_S5_EEEENS_6statusES7_ _Unwind_Resume 299
_ZN10cc1_plugin8callbackIyPKcyXadL_Z28plugin_build_unary_type_exprPNS_10connectionES2_yEEEENS_6statusES4_ _ZN10cc1_plugin16unmarshall_checkEPNS_10connectionEy 23
_ZN10cc1_plugin8callbackIyPKcyXadL_Z28plugin_build_unary_type_exprPNS_10connectionES2_yEEEENS_6statusES4_ _ZdaPv 43
_ZN10cc1_plugin8callbackIyPKcyXadL_Z28plugin_build_unary_type_exprPNS_10connectionES2_yEEEENS_6statusES4_ _ZN10cc1_plugin10unmarshallEPNS_10connectionEPPc 71
_ZN10cc1_plugin8callbackIyPKcyXadL_Z28plugin_build_unary_type_exprPNS_10connectionES2_yEEEENS_6statusES4_ _ZN10cc1_plugin18unmarshall_intlikeEPNS_10connectionEPy 88
_ZN10cc1_plugin8callbackIyPKcyXadL_Z28plugin_build_unary_type_exprPNS_10connectionES2_yEEEENS_6statusES4_ _Z28plugin_build_unary_type_exprPN10cc1_plugin10connectionEPKcy 111
_ZN10cc1_plugin8callbackIyPKcyXadL_Z28plugin_build_unary_type_exprPNS_10connectionES2_yEEEENS_6statusES4_ _ZN10cc1_plugin10connection4sendEc 127
_ZN10cc1_plugin8callbackIyPKcyXadL_Z28plugin_build_unary_type_exprPNS_10connectionES2_yEEEENS_6statusES4_ _ZN10cc1_plugin16marshall_intlikeEPNS_10connectionEy 142
_ZN10cc1_plugin8callbackIyPKcyXadL_Z28plugin_build_unary_type_exprPNS_10connectionES2_yEEEENS_6statusES4_ _ZdaPv 163
_ZN10cc1_plugin8callbackIyPKcyXadL_Z28plugin_build_unary_type_exprPNS_10connectionES2_yEEEENS_6statusES4_ _Unwind_Resume 171
_ZN10cc1_plugin8callbackIyPKcyyyXadL_Z25plugin_build_ternary_exprPNS_10connectionES2_yyyEEEENS_6statusES4_ _ZN10cc1_plugin16unmarshall_checkEPNS_10connectionEy 27
_ZN10cc1_plugin8callbackIyPKcyyyXadL_Z25plugin_build_ternary_exprPNS_10connectionES2_yyyEEEENS_6statusES4_ _ZdaPv 47
_ZN10cc1_plugin8callbackIyPKcyyyXadL_Z25plugin_build_ternary_exprPNS_10connectionES2_yyyEEEENS_6statusES4_ _ZN10cc1_plugin10unmarshallEPNS_10connectionEPPc 71
_ZN10cc1_plugin8callbackIyPKcyyyXadL_Z25plugin_build_ternary_exprPNS_10connectionES2_yyyEEEENS_6statusES4_ _ZN10cc1_plugin18unmarshall_intlikeEPNS_10connectionEPy 88
_ZN10cc1_plugin8callbackIyPKcyyyXadL_Z25plugin_build_ternary_exprPNS_10connectionES2_yyyEEEENS_6statusES4_ _ZN10cc1_plugin18unmarshall_intlikeEPNS_10connectionEPy 112
_ZN10cc1_plugin8callbackIyPKcyyyXadL_Z25plugin_build_ternary_exprPNS_10connectionES2_yyyEEEENS_6statusES4_ _ZN10cc1_plugin18unmarshall_intlikeEPNS_10connectionEPy 136
_ZN10cc1_plugin8callbackIyPKcyyyXadL_Z25plugin_build_ternary_exprPNS_10connectionES2_yyyEEEENS_6statusES4_ _Z25plugin_build_ternary_exprPN10cc1_plugin10connectionEPKcyyy 165
_ZN10cc1_plugin8callbackIyPKcyyyXadL_Z25plugin_build_ternary_exprPNS_10connectionES2_yyyEEEENS_6statusES4_ _ZN10cc1_plugin10connection4sendEc 181
_ZN10cc1_plugin8callbackIyPKcyyyXadL_Z25plugin_build_ternary_exprPNS_10connectionES2_yyyEEEENS_6statusES4_ _ZN10cc1_plugin16marshall_intlikeEPNS_10connectionEy 200
_ZN10cc1_plugin8callbackIyPKcyyyXadL_Z25plugin_build_ternary_exprPNS_10connectionES2_yyyEEEENS_6statusES4_ _ZdaPv 224
_ZN10cc1_plugin8callbackIyPKcyyyXadL_Z25plugin_build_ternary_exprPNS_10connectionES2_yyyEEEENS_6statusES4_ _Unwind_Resume 232
_ZN10cc1_plugin8callbackIyyyXadL_Z33plugin_build_dependent_array_typePNS_10connectionEyyEEEENS_6statusES2_ _ZN10cc1_plugin16unmarshall_checkEPNS_10connectionEy 15
_ZN10cc1_plugin8callbackIyyyXadL_Z33plugin_build_dependent_array_typePNS_10connectionEyyEEEENS_6statusES2_ _ZN10cc1_plugin18unmarshall_intlikeEPNS_10connectionEPy 41
_ZN10cc1_plugin8callbackIyyyXadL_Z33plugin_build_dependent_array_typePNS_10connectionEyyEEEENS_6statusES2_ _ZN10cc1_plugin18unmarshall_intlikeEPNS_10connectionEPy 63
_ZN10cc1_plugin8callbackIyyyXadL_Z33plugin_build_dependent_array_typePNS_10connectionEyyEEEENS_6statusES2_ _Z33plugin_build_dependent_array_typePN10cc1_plugin10connectionEyy 83
_ZN10cc1_plugin8callbackIyyyXadL_Z33plugin_build_dependent_array_typePNS_10connectionEyyEEEENS_6statusES2_ _ZN10cc1_plugin10connection4sendEc 99
_ZN10cc1_plugin8callbackIyyyXadL_Z33plugin_build_dependent_array_typePNS_10connectionEyyEEEENS_6statusES2_ _ZN10cc1_plugin16marshall_intlikeEPNS_10connectionEy 114
_ZN10cc1_plugin8callbackIyPKcyyXadL_Z22plugin_build_cast_exprPNS_10connectionES2_yyEEEENS_6statusES4_ _ZN10cc1_plugin16unmarshall_checkEPNS_10connectionEy 25
_ZN10cc1_plugin8callbackIyPKcyyXadL_Z22plugin_build_cast_exprPNS_10connectionES2_yyEEEENS_6statusES4_ _ZdaPv 45
_ZN10cc1_plugin8callbackIyPKcyyXadL_Z22plugin_build_cast_exprPNS_10connectionES2_yyEEEENS_6statusES4_ _ZN10cc1_plugin10unmarshallEPNS_10connectionEPPc 71
_ZN10cc1_plugin8callbackIyPKcyyXadL_Z22plugin_build_cast_exprPNS_10connectionES2_yyEEEENS_6statusES4_ _ZN10cc1_plugin18unmarshall_intlikeEPNS_10connectionEPy 88
_ZN10cc1_plugin8callbackIyPKcyyXadL_Z22plugin_build_cast_exprPNS_10connectionES2_yyEEEENS_6statusES4_ _ZN10cc1_plugin18unmarshall_intlikeEPNS_10connectionEPy 112
_ZN10cc1_plugin8callbackIyPKcyyXadL_Z22plugin_build_cast_exprPNS_10connectionES2_yyEEEENS_6statusES4_ _Z22plugin_build_cast_exprPN10cc1_plugin10connectionEPKcyy 138
_ZN10cc1_plugin8callbackIyPKcyyXadL_Z22plugin_build_cast_exprPNS_10connectionES2_yyEEEENS_6statusES4_ _ZN10cc1_plugin10connection4sendEc 154
_ZN10cc1_plugin8callbackIyPKcyyXadL_Z22plugin_build_cast_exprPNS_10connectionES2_yyEEEENS_6statusES4_ _ZN10cc1_plugin16marshall_intlikeEPNS_10connectionEy 173
_ZN10cc1_plugin8callbackIyPKcyyXadL_Z22plugin_build_cast_exprPNS_10connectionES2_yyEEEENS_6statusES4_ _ZdaPv 197
_ZN10cc1_plugin8callbackIyPKcyyXadL_Z22plugin_build_cast_exprPNS_10connectionES2_yyEEEENS_6statusES4_ _Unwind_Resume 205
_ZN10cc1_plugin8callbackIyy18gcc_cp_symbol_kindPKcyPK20gcc_cp_template_argsXadL_Z27plugin_build_dependent_exprPNS_10connectionEyS1_S3_yS6_EEEENS_6statusES8_ _ZN10cc1_plugin16unmarshall_checkEPNS_10connectionEy 43
_ZN10cc1_plugin8callbackIyy18gcc_cp_symbol_kindPKcyPK20gcc_cp_template_argsXadL_Z27plugin_build_dependent_exprPNS_10connectionEyS1_S3_yS6_EEEENS_6statusES8_ _ZdaPv 73
_ZN10cc1_plugin8callbackIyy18gcc_cp_symbol_kindPKcyPK20gcc_cp_template_argsXadL_Z27plugin_build_dependent_exprPNS_10connectionEyS1_S3_yS6_EEEENS_6statusES8_ _ZdaPv 92
_ZN10cc1_plugin8callbackIyy18gcc_cp_symbol_kindPKcyPK20gcc_cp_template_argsXadL_Z27plugin_build_dependent_exprPNS_10connectionEyS1_S3_yS6_EEEENS_6statusES8_ _ZdlPv 105
_ZN10cc1_plugin8callbackIyy18gcc_cp_symbol_kindPKcyPK20gcc_cp_template_argsXadL_Z27plugin_build_dependent_exprPNS_10connectionEyS1_S3_yS6_EEEENS_6statusES8_ _ZdaPv 119
_ZN10cc1_plugin8callbackIyy18gcc_cp_symbol_kindPKcyPK20gcc_cp_template_argsXadL_Z27plugin_build_dependent_exprPNS_10connectionEyS1_S3_yS6_EEEENS_6statusES8_ _ZN10cc1_plugin18unmarshall_intlikeEPNS_10connectionEPy 158
_ZN10cc1_plugin8callbackIyy18gcc_cp_symbol_kindPKcyPK20gcc_cp_template_argsXadL_Z27plugin_build_dependent_exprPNS_10connectionEyS1_S3_yS6_EEEENS_6statusES8_ _ZN10cc1_plugin18unmarshall_intlikeEPNS_10connectionEPy 187
_ZN10cc1_plugin8callbackIyy18gcc_cp_symbol_kindPKcyPK20gcc_cp_template_argsXadL_Z27plugin_build_dependent_exprPNS_10connectionEyS1_S3_yS6_EEEENS_6statusES8_ _ZN10cc1_plugin10unmarshallEPNS_10connectionEPPc 218
_ZN10cc1_plugin8callbackIyy18gcc_cp_symbol_kindPKcyPK20gcc_cp_template_argsXadL_Z27plugin_build_dependent_exprPNS_10connectionEyS1_S3_yS6_EEEENS_6statusES8_ _ZN10cc1_plugin18unmarshall_intlikeEPNS_10connectionEPy 244
_ZN10cc1_plugin8callbackIyy18gcc_cp_symbol_kindPKcyPK20gcc_cp_template_argsXadL_Z27plugin_build_dependent_exprPNS_10connectionEyS1_S3_yS6_EEEENS_6statusES8_ _ZN10cc1_plugin10unmarshallEPNS_10connectionEPP20gcc_cp_template_args 275
_ZN10cc1_plugin8callbackIyy18gcc_cp_symbol_kindPKcyPK20gcc_cp_template_argsXadL_Z27plugin_build_dependent_exprPNS_10connectionEyS1_S3_yS6_EEEENS_6statusES8_ _Z27plugin_build_dependent_exprPN10cc1_plugin10connectionEy18gcc_cp_symbol_kindPKcyPK20gcc_cp_template_args 309
_ZN10cc1_plugin8callbackIyy18gcc_cp_symbol_kindPKcyPK20gcc_cp_template_argsXadL_Z27plugin_build_dependent_exprPNS_10connectionEyS1_S3_yS6_EEEENS_6statusES8_ _ZN10cc1_plugin10connection4sendEc 325
_ZN10cc1_plugin8callbackIyy18gcc_cp_symbol_kindPKcyPK20gcc_cp_template_argsXadL_Z27plugin_build_dependent_exprPNS_10connectionEyS1_S3_yS6_EEEENS_6statusES8_ _ZN10cc1_plugin16marshall_intlikeEPNS_10connectionEy 344
_ZN10cc1_plugin8callbackIyy18gcc_cp_symbol_kindPKcyPK20gcc_cp_template_argsXadL_Z27plugin_build_dependent_exprPNS_10connectionEyS1_S3_yS6_EEEENS_6statusES8_ _ZN10cc1_plugin16argument_wrapperIPK20gcc_cp_template_argsED1Ev 362
_ZN10cc1_plugin8callbackIyy18gcc_cp_symbol_kindPKcyPK20gcc_cp_template_argsXadL_Z27plugin_build_dependent_exprPNS_10connectionEyS1_S3_yS6_EEEENS_6statusES8_ _ZdaPv 376
_ZN10cc1_plugin8callbackIyy18gcc_cp_symbol_kindPKcyPK20gcc_cp_template_argsXadL_Z27plugin_build_dependent_exprPNS_10connectionEyS1_S3_yS6_EEEENS_6statusES8_ _Unwind_Resume 384
_ZN10cc1_plugin8callbackIyPKcyXadL_Z23plugin_build_unary_exprPNS_10connectionES2_yEEEENS_6statusES4_ _ZN10cc1_plugin16unmarshall_checkEPNS_10connectionEy 23
_ZN10cc1_plugin8callbackIyPKcyXadL_Z23plugin_build_unary_exprPNS_10connectionES2_yEEEENS_6statusES4_ _ZdaPv 43
_ZN10cc1_plugin8callbackIyPKcyXadL_Z23plugin_build_unary_exprPNS_10connectionES2_yEEEENS_6statusES4_ _ZN10cc1_plugin10unmarshallEPNS_10connectionEPPc 71
_ZN10cc1_plugin8callbackIyPKcyXadL_Z23plugin_build_unary_exprPNS_10connectionES2_yEEEENS_6statusES4_ _ZN10cc1_plugin18unmarshall_intlikeEPNS_10connectionEPy 88
_ZN10cc1_plugin8callbackIyPKcyXadL_Z23plugin_build_unary_exprPNS_10connectionES2_yEEEENS_6statusES4_ _Z23plugin_build_unary_exprPN10cc1_plugin10connectionEPKcy 111
_ZN10cc1_plugin8callbackIyPKcyXadL_Z23plugin_build_unary_exprPNS_10connectionES2_yEEEENS_6statusES4_ _ZN10cc1_plugin10connection4sendEc 127
_ZN10cc1_plugin8callbackIyPKcyXadL_Z23plugin_build_unary_exprPNS_10connectionES2_yEEEENS_6statusES4_ _ZN10cc1_plugin16marshall_intlikeEPNS_10connectionEy 142
_ZN10cc1_plugin8callbackIyPKcyXadL_Z23plugin_build_unary_exprPNS_10connectionES2_yEEEENS_6statusES4_ _ZdaPv 163
_ZN10cc1_plugin8callbackIyPKcyXadL_Z23plugin_build_unary_exprPNS_10connectionES2_yEEEENS_6statusES4_ _Unwind_Resume 171
_ZN10cc1_plugin8callbackIyPKcyyXadL_Z24plugin_build_binary_exprPNS_10connectionES2_yyEEEENS_6statusES4_ _ZN10cc1_plugin16unmarshall_checkEPNS_10connectionEy 25
_ZN10cc1_plugin8callbackIyPKcyyXadL_Z24plugin_build_binary_exprPNS_10connectionES2_yyEEEENS_6statusES4_ _ZdaPv 45
_ZN10cc1_plugin8callbackIyPKcyyXadL_Z24plugin_build_binary_exprPNS_10connectionES2_yyEEEENS_6statusES4_ _ZN10cc1_plugin10unmarshallEPNS_10connectionEPPc 71
_ZN10cc1_plugin8callbackIyPKcyyXadL_Z24plugin_build_binary_exprPNS_10connectionES2_yyEEEENS_6statusES4_ _ZN10cc1_plugin18unmarshall_intlikeEPNS_10connectionEPy 88
_ZN10cc1_plugin8callbackIyPKcyyXadL_Z24plugin_build_binary_exprPNS_10connectionES2_yyEEEENS_6statusES4_ _ZN10cc1_plugin18unmarshall_intlikeEPNS_10connectionEPy 112
_ZN10cc1_plugin8callbackIyPKcyyXadL_Z24plugin_build_binary_exprPNS_10connectionES2_yyEEEENS_6statusES4_ _Z24plugin_build_binary_exprPN10cc1_plugin10connectionEPKcyy 138
_ZN10cc1_plugin8callbackIyPKcyyXadL_Z24plugin_build_binary_exprPNS_10connectionES2_yyEEEENS_6statusES4_ _ZN10cc1_plugin10connection4sendEc 154
_ZN10cc1_plugin8callbackIyPKcyyXadL_Z24plugin_build_binary_exprPNS_10connectionES2_yyEEEENS_6statusES4_ _ZN10cc1_plugin16marshall_intlikeEPNS_10connectionEy 173
_ZN10cc1_plugin8callbackIyPKcyyXadL_Z24plugin_build_binary_exprPNS_10connectionES2_yyEEEENS_6statusES4_ _ZdaPv 197
_ZN10cc1_plugin8callbackIyPKcyyXadL_Z24plugin_build_binary_exprPNS_10connectionES2_yyEEEENS_6statusES4_ _Unwind_Resume 205
_ZN10cc1_plugin8callbackIyyPK14gcc_type_arrayXadL_Z35plugin_build_exception_spec_variantPNS_10connectionEyS3_EEEENS_6statusES5_ _ZN10cc1_plugin16unmarshall_checkEPNS_10connectionEy 28
_ZN10cc1_plugin8callbackIyyPK14gcc_type_arrayXadL_Z35plugin_build_exception_spec_variantPNS_10connectionEyS3_EEEENS_6statusES5_ _ZN10cc1_plugin18unmarshall_intlikeEPNS_10connectionEPy 52
_ZN10cc1_plugin8callbackIyyPK14gcc_type_arrayXadL_Z35plugin_build_exception_spec_variantPNS_10connectionEyS3_EEEENS_6statusES5_ _ZdaPv 81
_ZN10cc1_plugin8callbackIyyPK14gcc_type_arrayXadL_Z35plugin_build_exception_spec_variantPNS_10connectionEyS3_EEEENS_6statusES5_ _ZdlPv 93
_ZN10cc1_plugin8callbackIyyPK14gcc_type_arrayXadL_Z35plugin_build_exception_spec_variantPNS_10connectionEyS3_EEEENS_6statusES5_ _ZN10cc1_plugin10unmarshallEPNS_10connectionEPP14gcc_type_array 127
_ZN10cc1_plugin8callbackIyyPK14gcc_type_arrayXadL_Z35plugin_build_exception_spec_variantPNS_10connectionEyS3_EEEENS_6statusES5_ _Z35plugin_build_exception_spec_variantPN10cc1_plugin10connectionEyPK14gcc_type_array 146
_ZN10cc1_plugin8callbackIyyPK14gcc_type_arrayXadL_Z35plugin_build_exception_spec_variantPNS_10connectionEyS3_EEEENS_6statusES5_ _ZN10cc1_plugin10connection4sendEc 162
_ZN10cc1_plugin8callbackIyyPK14gcc_type_arrayXadL_Z35plugin_build_exception_spec_variantPNS_10connectionEyS3_EEEENS_6statusES5_ _ZN10cc1_plugin16marshall_intlikeEPNS_10connectionEy 191
_ZN10cc1_plugin8callbackIyyPK14gcc_type_arrayXadL_Z35plugin_build_exception_spec_variantPNS_10connectionEyS3_EEEENS_6statusES5_ _ZN10cc1_plugin16argument_wrapperIPK14gcc_type_arrayED1Ev 209
_ZN10cc1_plugin8callbackIyyPK14gcc_type_arrayXadL_Z35plugin_build_exception_spec_variantPNS_10connectionEyS3_EEEENS_6statusES5_ _Unwind_Resume 217
_ZN10cc1_plugin8callbackIyyiPK20gcc_cp_function_argsXadL_Z22plugin_build_call_exprPNS_10connectionEyiS3_EEEENS_6statusES5_ _ZN10cc1_plugin16unmarshall_checkEPNS_10connectionEy 30
_ZN10cc1_plugin8callbackIyyiPK20gcc_cp_function_argsXadL_Z22plugin_build_call_exprPNS_10connectionEyiS3_EEEENS_6statusES5_ _ZN10cc1_plugin18unmarshall_intlikeEPNS_10connectionEPy 54
_ZN10cc1_plugin8callbackIyyiPK20gcc_cp_function_argsXadL_Z22plugin_build_call_exprPNS_10connectionEyiS3_EEEENS_6statusES5_ _ZdaPv 83
_ZN10cc1_plugin8callbackIyyiPK20gcc_cp_function_argsXadL_Z22plugin_build_call_exprPNS_10connectionEyiS3_EEEENS_6statusES5_ _ZdlPv 95
_ZN10cc1_plugin8callbackIyyiPK20gcc_cp_function_argsXadL_Z22plugin_build_call_exprPNS_10connectionEyiS3_EEEENS_6statusES5_ _ZN10cc1_plugin18unmarshall_intlikeEPNS_10connectionEPy 129
_ZN10cc1_plugin8callbackIyyiPK20gcc_cp_function_argsXadL_Z22plugin_build_call_exprPNS_10connectionEyiS3_EEEENS_6statusES5_ _ZN10cc1_plugin10unmarshallEPNS_10connectionEPP20gcc_cp_function_args 154
_ZN10cc1_plugin8callbackIyyiPK20gcc_cp_function_argsXadL_Z22plugin_build_call_exprPNS_10connectionEyiS3_EEEENS_6statusES5_ _Z22plugin_build_call_exprPN10cc1_plugin10connectionEyiPK20gcc_cp_function_args 190
_ZN10cc1_plugin8callbackIyyiPK20gcc_cp_function_argsXadL_Z22plugin_build_call_exprPNS_10connectionEyiS3_EEEENS_6statusES5_ _ZN10cc1_plugin10connection4sendEc 206
_ZN10cc1_plugin8callbackIyyiPK20gcc_cp_function_argsXadL_Z22plugin_build_call_exprPNS_10connectionEyiS3_EEEENS_6statusES5_ _ZN10cc1_plugin16marshall_intlikeEPNS_10connectionEy 221
_ZN10cc1_plugin8callbackIyyiPK20gcc_cp_function_argsXadL_Z22plugin_build_call_exprPNS_10connectionEyiS3_EEEENS_6statusES5_ _ZN10cc1_plugin16argument_wrapperIPK20gcc_cp_function_argsED1Ev 239
_ZN10cc1_plugin8callbackIyyiPK20gcc_cp_function_argsXadL_Z22plugin_build_call_exprPNS_10connectionEyiS3_EEEENS_6statusES5_ _Unwind_Resume 247
_ZN10cc1_plugin8callbackIyPKcyPK20gcc_cp_function_argsXadL_Z33plugin_build_expression_list_exprPNS_10connectionES2_yS5_EEEENS_6statusES7_ _ZN10cc1_plugin16unmarshall_checkEPNS_10connectionEy 39
_ZN10cc1_plugin8callbackIyPKcyPK20gcc_cp_function_argsXadL_Z33plugin_build_expression_list_exprPNS_10connectionES2_yS5_EEEENS_6statusES7_ _ZN10cc1_plugin10unmarshallEPNS_10connectionEPPc 59
_ZN10cc1_plugin8callbackIyPKcyPK20gcc_cp_function_argsXadL_Z33plugin_build_expression_list_exprPNS_10connectionES2_yS5_EEEENS_6statusES7_ _ZdaPv 89
_ZN10cc1_plugin8callbackIyPKcyPK20gcc_cp_function_argsXadL_Z33plugin_build_expression_list_exprPNS_10connectionES2_yS5_EEEENS_6statusES7_ _ZdlPv 102
_ZN10cc1_plugin8callbackIyPKcyPK20gcc_cp_function_argsXadL_Z33plugin_build_expression_list_exprPNS_10connectionES2_yS5_EEEENS_6statusES7_ _ZdaPv 116
_ZN10cc1_plugin8callbackIyPKcyPK20gcc_cp_function_argsXadL_Z33plugin_build_expression_list_exprPNS_10connectionES2_yS5_EEEENS_6statusES7_ _ZN10cc1_plugin18unmarshall_intlikeEPNS_10connectionEPy 150
_ZN10cc1_plugin8callbackIyPKcyPK20gcc_cp_function_argsXadL_Z33plugin_build_expression_list_exprPNS_10connectionES2_yS5_EEEENS_6statusES7_ _ZN10cc1_plugin10unmarshallEPNS_10connectionEPP20gcc_cp_function_args 177
_ZN10cc1_plugin8callbackIyPKcyPK20gcc_cp_function_argsXadL_Z33plugin_build_expression_list_exprPNS_10connectionES2_yS5_EEEENS_6statusES7_ _Z33plugin_build_expression_list_exprPN10cc1_plugin10connectionEPKcyPK20gcc_cp_function_args 201
_ZN10cc1_plugin8callbackIyPKcyPK20gcc_cp_function_argsXadL_Z33plugin_build_expression_list_exprPNS_10connectionES2_yS5_EEEENS_6statusES7_ _ZN10cc1_plugin10connection4sendEc 217
_ZN10cc1_plugin8callbackIyPKcyPK20gcc_cp_function_argsXadL_Z33plugin_build_expression_list_exprPNS_10connectionES2_yS5_EEEENS_6statusES7_ _ZN10cc1_plugin16marshall_intlikeEPNS_10connectionEy 236
_ZN10cc1_plugin8callbackIyPKcyPK20gcc_cp_function_argsXadL_Z33plugin_build_expression_list_exprPNS_10connectionES2_yS5_EEEENS_6statusES7_ _ZN10cc1_plugin16argument_wrapperIPK20gcc_cp_function_argsED1Ev 254
_ZN10cc1_plugin8callbackIyPKcyPK20gcc_cp_function_argsXadL_Z33plugin_build_expression_list_exprPNS_10connectionES2_yS5_EEEENS_6statusES7_ _ZdaPv 268
_ZN10cc1_plugin8callbackIyPKcyPK20gcc_cp_function_argsXadL_Z33plugin_build_expression_list_exprPNS_10connectionES2_yS5_EEEENS_6statusES7_ _Unwind_Resume 276
_ZN10cc1_plugin8callbackIyyyXadL_Z35plugin_build_pointer_to_member_typePNS_10connectionEyyEEEENS_6statusES2_ _ZN10cc1_plugin16unmarshall_checkEPNS_10connectionEy 17
_ZN10cc1_plugin8callbackIyyyXadL_Z35plugin_build_pointer_to_member_typePNS_10connectionEyyEEEENS_6statusES2_ _ZN10cc1_plugin18unmarshall_intlikeEPNS_10connectionEPy 49
_ZN10cc1_plugin8callbackIyyyXadL_Z35plugin_build_pointer_to_member_typePNS_10connectionEyyEEEENS_6statusES2_ _ZN10cc1_plugin18unmarshall_intlikeEPNS_10connectionEPy 71
_ZN10cc1_plugin8callbackIyyyXadL_Z35plugin_build_pointer_to_member_typePNS_10connectionEyyEEEENS_6statusES2_ _Z17build_ptrmem_typeP9tree_nodeS0_ 88
_ZN10cc1_plugin8callbackIyyyXadL_Z35plugin_build_pointer_to_member_typePNS_10connectionEyyEEEENS_6statusES2_ prime_tab 149
_ZN10cc1_plugin8callbackIyyyXadL_Z35plugin_build_pointer_to_member_typePNS_10connectionEyyEEEENS_6statusES2_ prime_tab 155
_ZN10cc1_plugin8callbackIyyyXadL_Z35plugin_build_pointer_to_member_typePNS_10connectionEyyEEEENS_6statusES2_ prime_tab 162
_ZN10cc1_plugin8callbackIyyyXadL_Z35plugin_build_pointer_to_member_typePNS_10connectionEyyEEEENS_6statusES2_ prime_tab 168
_ZN10cc1_plugin8callbackIyyyXadL_Z35plugin_build_pointer_to_member_typePNS_10connectionEyyEEEENS_6statusES2_ _ZN10cc1_plugin10connection4sendEc 377
_ZN10cc1_plugin8callbackIyyyXadL_Z35plugin_build_pointer_to_member_typePNS_10connectionEyyEEEENS_6statusES2_ _ZN10cc1_plugin16marshall_intlikeEPNS_10connectionEy 396
_ZN10cc1_plugin8callbackIyyyXadL_Z35plugin_build_pointer_to_member_typePNS_10connectionEyyEEEENS_6statusES2_ _ZN10hash_tableI15nofree_ptr_hashI9tree_nodeELb0E11xcallocatorE6expandEv 429
_ZN10cc1_plugin8callbackIyyPK20gcc_cp_template_argsPKcjXadL_Z42plugin_build_class_template_specializationPNS_10connectionEyS3_S5_jEEEENS_6statusES7_ _ZN10cc1_plugin16unmarshall_checkEPNS_10connectionEy 39
_ZN10cc1_plugin8callbackIyyPK20gcc_cp_template_argsPKcjXadL_Z42plugin_build_class_template_specializationPNS_10connectionEyS3_S5_jEEEENS_6statusES7_ _ZdaPv 60
_ZN10cc1_plugin8callbackIyyPK20gcc_cp_template_argsPKcjXadL_Z42plugin_build_class_template_specializationPNS_10connectionEyS3_S5_jEEEENS_6statusES7_ _ZdaPv 83
_ZN10cc1_plugin8callbackIyyPK20gcc_cp_template_argsPKcjXadL_Z42plugin_build_class_template_specializationPNS_10connectionEyS3_S5_jEEEENS_6statusES7_ _ZdaPv 101
_ZN10cc1_plugin8callbackIyyPK20gcc_cp_template_argsPKcjXadL_Z42plugin_build_class_template_specializationPNS_10connectionEyS3_S5_jEEEENS_6statusES7_ _ZdlPv 113
_ZN10cc1_plugin8callbackIyyPK20gcc_cp_template_argsPKcjXadL_Z42plugin_build_class_template_specializationPNS_10connectionEyS3_S5_jEEEENS_6statusES7_ _ZN10cc1_plugin18unmarshall_intlikeEPNS_10connectionEPy 148
_ZN10cc1_plugin8callbackIyyPK20gcc_cp_template_argsPKcjXadL_Z42plugin_build_class_template_specializationPNS_10connectionEyS3_S5_jEEEENS_6statusES7_ _ZN10cc1_plugin10unmarshallEPNS_10connectionEPP20gcc_cp_template_args 173
_ZN10cc1_plugin8callbackIyyPK20gcc_cp_template_argsPKcjXadL_Z42plugin_build_class_template_specializationPNS_10connectionEyS3_S5_jEEEENS_6statusES7_ _ZN10cc1_plugin10unmarshallEPNS_10connectionEPPc 194
_ZN10cc1_plugin8callbackIyyPK20gcc_cp_template_argsPKcjXadL_Z42plugin_build_class_template_specializationPNS_10connectionEyS3_S5_jEEEENS_6statusES7_ _ZN10cc1_plugin18unmarshall_intlikeEPNS_10connectionEPy 215
_ZN10cc1_plugin8callbackIyyPK20gcc_cp_template_argsPKcjXadL_Z42plugin_build_class_template_specializationPNS_10connectionEyS3_S5_jEEEENS_6statusES7_ _Z42plugin_build_class_template_specializationPN10cc1_plugin10connectionEyPK20gcc_cp_template_argsPKcj 250
_ZN10cc1_plugin8callbackIyyPK20gcc_cp_template_argsPKcjXadL_Z42plugin_build_class_template_specializationPNS_10connectionEyS3_S5_jEEEENS_6statusES7_ _ZN10cc1_plugin10connection4sendEc 266
_ZN10cc1_plugin8callbackIyyPK20gcc_cp_template_argsPKcjXadL_Z42plugin_build_class_template_specializationPNS_10connectionEyS3_S5_jEEEENS_6statusES7_ _ZN10cc1_plugin16marshall_intlikeEPNS_10connectionEy 285
_ZN10cc1_plugin8callbackIyyPK20gcc_cp_template_argsPKcjXadL_Z42plugin_build_class_template_specializationPNS_10connectionEyS3_S5_jEEEENS_6statusES7_ _ZdaPv 310
_ZN10cc1_plugin8callbackIyyPK20gcc_cp_template_argsPKcjXadL_Z42plugin_build_class_template_specializationPNS_10connectionEyS3_S5_jEEEENS_6statusES7_ _ZN10cc1_plugin16argument_wrapperIPK20gcc_cp_template_argsED1Ev 318
_ZN10cc1_plugin8callbackIyyPK20gcc_cp_template_argsPKcjXadL_Z42plugin_build_class_template_specializationPNS_10connectionEyS3_S5_jEEEENS_6statusES7_ _Unwind_Resume 326
_ZN10cc1_plugin8callbackIiyPKcS2_jXadL_Z24plugin_add_static_assertPNS_10connectionEyS2_S2_jEEEENS_6statusES4_ _ZN10cc1_plugin16unmarshall_checkEPNS_10connectionEy 34
_ZN10cc1_plugin8callbackIiyPKcS2_jXadL_Z24plugin_add_static_assertPNS_10connectionEyS2_S2_jEEEENS_6statusES4_ _ZdaPv 55
_ZN10cc1_plugin8callbackIiyPKcS2_jXadL_Z24plugin_add_static_assertPNS_10connectionEyS2_S2_jEEEENS_6statusES4_ _ZdaPv 69
_ZN10cc1_plugin8callbackIiyPKcS2_jXadL_Z24plugin_add_static_assertPNS_10connectionEyS2_S2_jEEEENS_6statusES4_ _ZN10cc1_plugin18unmarshall_intlikeEPNS_10connectionEPy 97
_ZN10cc1_plugin8callbackIiyPKcS2_jXadL_Z24plugin_add_static_assertPNS_10connectionEyS2_S2_jEEEENS_6statusES4_ _ZN10cc1_plugin10unmarshallEPNS_10connectionEPPc 119
_ZN10cc1_plugin8callbackIiyPKcS2_jXadL_Z24plugin_add_static_assertPNS_10connectionEyS2_S2_jEEEENS_6statusES4_ _ZN10cc1_plugin10unmarshallEPNS_10connectionEPPc 136
_ZN10cc1_plugin8callbackIiyPKcS2_jXadL_Z24plugin_add_static_assertPNS_10connectionEyS2_S2_jEEEENS_6statusES4_ _ZN10cc1_plugin18unmarshall_intlikeEPNS_10connectionEPy 153
_ZN10cc1_plugin8callbackIiyPKcS2_jXadL_Z24plugin_add_static_assertPNS_10connectionEyS2_S2_jEEEENS_6statusES4_ _Z24plugin_add_static_assertPN10cc1_plugin10connectionEyPKcS3_j 184
_ZN10cc1_plugin8callbackIiyPKcS2_jXadL_Z24plugin_add_static_assertPNS_10connectionEyS2_S2_jEEEENS_6statusES4_ _ZN10cc1_plugin10connection4sendEc 199
_ZN10cc1_plugin8callbackIiyPKcS2_jXadL_Z24plugin_add_static_assertPNS_10connectionEyS2_S2_jEEEENS_6statusES4_ _ZN10cc1_plugin16marshall_intlikeEPNS_10connectionEy 218
_ZN10cc1_plugin8callbackIiyPKcS2_jXadL_Z24plugin_add_static_assertPNS_10connectionEyS2_S2_jEEEENS_6statusES4_ _ZdaPv 243
_ZN10cc1_plugin8callbackIiyPKcS2_jXadL_Z24plugin_add_static_assertPNS_10connectionEyS2_S2_jEEEENS_6statusES4_ _ZdaPv 257
_ZN10cc1_plugin8callbackIiyPKcS2_jXadL_Z24plugin_add_static_assertPNS_10connectionEyS2_S2_jEEEENS_6statusES4_ _Unwind_Resume 265
_ZN10cc1_plugin8callbackIyPKcy18gcc_cp_symbol_kindS2_jXadL_Z22plugin_start_enum_typePNS_10connectionES2_yS3_S2_jEEEENS_6statusES5_ _ZN10cc1_plugin16unmarshall_checkEPNS_10connectionEy 36
_ZN10cc1_plugin8callbackIyPKcy18gcc_cp_symbol_kindS2_jXadL_Z22plugin_start_enum_typePNS_10connectionES2_yS3_S2_jEEEENS_6statusES5_ _ZdaPv 57
_ZN10cc1_plugin8callbackIyPKcy18gcc_cp_symbol_kindS2_jXadL_Z22plugin_start_enum_typePNS_10connectionES2_yS3_S2_jEEEENS_6statusES5_ _ZdaPv 71
_ZN10cc1_plugin8callbackIyPKcy18gcc_cp_symbol_kindS2_jXadL_Z22plugin_start_enum_typePNS_10connectionES2_yS3_S2_jEEEENS_6statusES5_ _ZN10cc1_plugin10unmarshallEPNS_10connectionEPPc 103
_ZN10cc1_plugin8callbackIyPKcy18gcc_cp_symbol_kindS2_jXadL_Z22plugin_start_enum_typePNS_10connectionES2_yS3_S2_jEEEENS_6statusES5_ _ZN10cc1_plugin18unmarshall_intlikeEPNS_10connectionEPy 120
_ZN10cc1_plugin8callbackIyPKcy18gcc_cp_symbol_kindS2_jXadL_Z22plugin_start_enum_typePNS_10connectionES2_yS3_S2_jEEEENS_6statusES5_ _ZN10cc1_plugin18unmarshall_intlikeEPNS_10connectionEPy 144
_ZN10cc1_plugin8callbackIyPKcy18gcc_cp_symbol_kindS2_jXadL_Z22plugin_start_enum_typePNS_10connectionES2_yS3_S2_jEEEENS_6statusES5_ _ZN10cc1_plugin10unmarshallEPNS_10connectionEPPc 168
_ZN10cc1_plugin8callbackIyPKcy18gcc_cp_symbol_kindS2_jXadL_Z22plugin_start_enum_typePNS_10connectionES2_yS3_S2_jEEEENS_6statusES5_ _ZN10cc1_plugin18unmarshall_intlikeEPNS_10connectionEPy 189
_ZN10cc1_plugin8callbackIyPKcy18gcc_cp_symbol_kindS2_jXadL_Z22plugin_start_enum_typePNS_10connectionES2_yS3_S2_jEEEENS_6statusES5_ _Z22plugin_start_enum_typePN10cc1_plugin10connectionEPKcy18gcc_cp_symbol_kindS3_j 227
_ZN10cc1_plugin8callbackIyPKcy18gcc_cp_symbol_kindS2_jXadL_Z22plugin_start_enum_typePNS_10connectionES2_yS3_S2_jEEEENS_6statusES5_ _ZN10cc1_plugin10connection4sendEc 243
_ZN10cc1_plugin8callbackIyPKcy18gcc_cp_symbol_kindS2_jXadL_Z22plugin_start_enum_typePNS_10connectionES2_yS3_S2_jEEEENS_6statusES5_ _ZN10cc1_plugin16marshall_intlikeEPNS_10connectionEy 262
_ZN10cc1_plugin8callbackIyPKcy18gcc_cp_symbol_kindS2_jXadL_Z22plugin_start_enum_typePNS_10connectionES2_yS3_S2_jEEEENS_6statusES5_ _ZdaPv 287
_ZN10cc1_plugin8callbackIyPKcy18gcc_cp_symbol_kindS2_jXadL_Z22plugin_start_enum_typePNS_10connectionES2_yS3_S2_jEEEENS_6statusES5_ _ZdaPv 301
_ZN10cc1_plugin8callbackIyPKcy18gcc_cp_symbol_kindS2_jXadL_Z22plugin_start_enum_typePNS_10connectionES2_yS3_S2_jEEEENS_6statusES5_ _Unwind_Resume 309
_ZN10cc1_plugin8callbackIyPKciyS2_jXadL_Z36plugin_build_type_template_parameterPNS_10connectionES2_iyS2_jEEEENS_6statusES4_ _ZN10cc1_plugin16unmarshall_checkEPNS_10connectionEy 36
_ZN10cc1_plugin8callbackIyPKciyS2_jXadL_Z36plugin_build_type_template_parameterPNS_10connectionES2_iyS2_jEEEENS_6statusES4_ _ZdaPv 57
_ZN10cc1_plugin8callbackIyPKciyS2_jXadL_Z36plugin_build_type_template_parameterPNS_10connectionES2_iyS2_jEEEENS_6statusES4_ _ZdaPv 71
_ZN10cc1_plugin8callbackIyPKciyS2_jXadL_Z36plugin_build_type_template_parameterPNS_10connectionES2_iyS2_jEEEENS_6statusES4_ _ZN10cc1_plugin10unmarshallEPNS_10connectionEPPc 103
_ZN10cc1_plugin8callbackIyPKciyS2_jXadL_Z36plugin_build_type_template_parameterPNS_10connectionES2_iyS2_jEEEENS_6statusES4_ _ZN10cc1_plugin18unmarshall_intlikeEPNS_10connectionEPy 120
_ZN10cc1_plugin8callbackIyPKciyS2_jXadL_Z36plugin_build_type_template_parameterPNS_10connectionES2_iyS2_jEEEENS_6statusES4_ _ZN10cc1_plugin18unmarshall_intlikeEPNS_10connectionEPy 144
_ZN10cc1_plugin8callbackIyPKciyS2_jXadL_Z36plugin_build_type_template_parameterPNS_10connectionES2_iyS2_jEEEENS_6statusES4_ _ZN10cc1_plugin10unmarshallEPNS_10connectionEPPc 168
_ZN10cc1_plugin8callbackIyPKciyS2_jXadL_Z36plugin_build_type_template_parameterPNS_10connectionES2_iyS2_jEEEENS_6statusES4_ _ZN10cc1_plugin18unmarshall_intlikeEPNS_10connectionEPy 189
_ZN10cc1_plugin8callbackIyPKciyS2_jXadL_Z36plugin_build_type_template_parameterPNS_10connectionES2_iyS2_jEEEENS_6statusES4_ _Z36plugin_build_type_template_parameterPN10cc1_plugin10connectionEPKciyS3_j 227
_ZN10cc1_plugin8callbackIyPKciyS2_jXadL_Z36plugin_build_type_template_parameterPNS_10connectionES2_iyS2_jEEEENS_6statusES4_ _ZN10cc1_plugin10connection4sendEc 243
_ZN10cc1_plugin8callbackIyPKciyS2_jXadL_Z36plugin_build_type_template_parameterPNS_10connectionES2_iyS2_jEEEENS_6statusES4_ _ZN10cc1_plugin16marshall_intlikeEPNS_10connectionEy 262
_ZN10cc1_plugin8callbackIyPKciyS2_jXadL_Z36plugin_build_type_template_parameterPNS_10connectionES2_iyS2_jEEEENS_6statusES4_ _ZdaPv 287
_ZN10cc1_plugin8callbackIyPKciyS2_jXadL_Z36plugin_build_type_template_parameterPNS_10connectionES2_iyS2_jEEEENS_6statusES4_ _ZdaPv 301
_ZN10cc1_plugin8callbackIyPKciyS2_jXadL_Z36plugin_build_type_template_parameterPNS_10connectionES2_iyS2_jEEEENS_6statusES4_ _Unwind_Resume 309
_ZN10cc1_plugin8callbackIyiy18gcc_cp_symbol_kindPKcjXadL_Z31plugin_start_closure_class_typePNS_10connectionEiyS1_S3_jEEEENS_6statusES5_ _ZN10cc1_plugin16unmarshall_checkEPNS_10connectionEy 29
_ZN10cc1_plugin8callbackIyiy18gcc_cp_symbol_kindPKcjXadL_Z31plugin_start_closure_class_typePNS_10connectionEiyS1_S3_jEEEENS_6statusES5_ _ZdaPv 49
_ZN10cc1_plugin8callbackIyiy18gcc_cp_symbol_kindPKcjXadL_Z31plugin_start_closure_class_typePNS_10connectionEiyS1_S3_jEEEENS_6statusES5_ _ZN10cc1_plugin18unmarshall_intlikeEPNS_10connectionEPy 81
_ZN10cc1_plugin8callbackIyiy18gcc_cp_symbol_kindPKcjXadL_Z31plugin_start_closure_class_typePNS_10connectionEiyS1_S3_jEEEENS_6statusES5_ _ZN10cc1_plugin18unmarshall_intlikeEPNS_10connectionEPy 105
_ZN10cc1_plugin8callbackIyiy18gcc_cp_symbol_kindPKcjXadL_Z31plugin_start_closure_class_typePNS_10connectionEiyS1_S3_jEEEENS_6statusES5_ _ZN10cc1_plugin18unmarshall_intlikeEPNS_10connectionEPy 129
_ZN10cc1_plugin8callbackIyiy18gcc_cp_symbol_kindPKcjXadL_Z31plugin_start_closure_class_typePNS_10connectionEiyS1_S3_jEEEENS_6statusES5_ _ZN10cc1_plugin10unmarshallEPNS_10connectionEPPc 151
_ZN10cc1_plugin8callbackIyiy18gcc_cp_symbol_kindPKcjXadL_Z31plugin_start_closure_class_typePNS_10connectionEiyS1_S3_jEEEENS_6statusES5_ _ZN10cc1_plugin18unmarshall_intlikeEPNS_10connectionEPy 168
_ZN10cc1_plugin8callbackIyiy18gcc_cp_symbol_kindPKcjXadL_Z31plugin_start_closure_class_typePNS_10connectionEiyS1_S3_jEEEENS_6statusES5_ _Z31plugin_start_closure_class_typePN10cc1_plugin10connectionEiy18gcc_cp_symbol_kindPKcj 204
_ZN10cc1_plugin8callbackIyiy18gcc_cp_symbol_kindPKcjXadL_Z31plugin_start_closure_class_typePNS_10connectionEiyS1_S3_jEEEENS_6statusES5_ _ZN10cc1_plugin10connection4sendEc 220
_ZN10cc1_plugin8callbackIyiy18gcc_cp_symbol_kindPKcjXadL_Z31plugin_start_closure_class_typePNS_10connectionEiyS1_S3_jEEEENS_6statusES5_ _ZN10cc1_plugin16marshall_intlikeEPNS_10connectionEy 239
_ZN10cc1_plugin8callbackIyiy18gcc_cp_symbol_kindPKcjXadL_Z31plugin_start_closure_class_typePNS_10connectionEiyS1_S3_jEEEENS_6statusES5_ _ZdaPv 263
_ZN10cc1_plugin8callbackIyiy18gcc_cp_symbol_kindPKcjXadL_Z31plugin_start_closure_class_typePNS_10connectionEiyS1_S3_jEEEENS_6statusES5_ _Unwind_Resume 271
_ZN10cc1_plugin8callbackIyPKciyS2_jXadL_Z40plugin_build_template_template_parameterPNS_10connectionES2_iyS2_jEEEENS_6statusES4_ _ZN10cc1_plugin16unmarshall_checkEPNS_10connectionEy 36
_ZN10cc1_plugin8callbackIyPKciyS2_jXadL_Z40plugin_build_template_template_parameterPNS_10connectionES2_iyS2_jEEEENS_6statusES4_ _ZdaPv 57
_ZN10cc1_plugin8callbackIyPKciyS2_jXadL_Z40plugin_build_template_template_parameterPNS_10connectionES2_iyS2_jEEEENS_6statusES4_ _ZdaPv 71
_ZN10cc1_plugin8callbackIyPKciyS2_jXadL_Z40plugin_build_template_template_parameterPNS_10connectionES2_iyS2_jEEEENS_6statusES4_ _ZN10cc1_plugin10unmarshallEPNS_10connectionEPPc 103
_ZN10cc1_plugin8callbackIyPKciyS2_jXadL_Z40plugin_build_template_template_parameterPNS_10connectionES2_iyS2_jEEEENS_6statusES4_ _ZN10cc1_plugin18unmarshall_intlikeEPNS_10connectionEPy 120
_ZN10cc1_plugin8callbackIyPKciyS2_jXadL_Z40plugin_build_template_template_parameterPNS_10connectionES2_iyS2_jEEEENS_6statusES4_ _ZN10cc1_plugin18unmarshall_intlikeEPNS_10connectionEPy 144
_ZN10cc1_plugin8callbackIyPKciyS2_jXadL_Z40plugin_build_template_template_parameterPNS_10connectionES2_iyS2_jEEEENS_6statusES4_ _ZN10cc1_plugin10unmarshallEPNS_10connectionEPPc 168
_ZN10cc1_plugin8callbackIyPKciyS2_jXadL_Z40plugin_build_template_template_parameterPNS_10connectionES2_iyS2_jEEEENS_6statusES4_ _ZN10cc1_plugin18unmarshall_intlikeEPNS_10connectionEPy 189
_ZN10cc1_plugin8callbackIyPKciyS2_jXadL_Z40plugin_build_template_template_parameterPNS_10connectionES2_iyS2_jEEEENS_6statusES4_ _Z40plugin_build_template_template_parameterPN10cc1_plugin10connectionEPKciyS3_j 227
_ZN10cc1_plugin8callbackIyPKciyS2_jXadL_Z40plugin_build_template_template_parameterPNS_10connectionES2_iyS2_jEEEENS_6statusES4_ _ZN10cc1_plugin10connection4sendEc 243
_ZN10cc1_plugin8callbackIyPKciyS2_jXadL_Z40plugin_build_template_template_parameterPNS_10connectionES2_iyS2_jEEEENS_6statusES4_ _ZN10cc1_plugin16marshall_intlikeEPNS_10connectionEy 262
_ZN10cc1_plugin8callbackIyPKciyS2_jXadL_Z40plugin_build_template_template_parameterPNS_10connectionES2_iyS2_jEEEENS_6statusES4_ _ZdaPv 287
_ZN10cc1_plugin8callbackIyPKciyS2_jXadL_Z40plugin_build_template_template_parameterPNS_10connectionES2_iyS2_jEEEENS_6statusES4_ _ZdaPv 301
_ZN10cc1_plugin8callbackIyPKciyS2_jXadL_Z40plugin_build_template_template_parameterPNS_10connectionES2_iyS2_jEEEENS_6statusES4_ _Unwind_Resume 309
_ZN10cc1_plugin8callbackIyyPKcyS2_jXadL_Z37plugin_build_value_template_parameterPNS_10connectionEyS2_yS2_jEEEENS_6statusES4_ _ZN10cc1_plugin16unmarshall_checkEPNS_10connectionEy 36
_ZN10cc1_plugin8callbackIyyPKcyS2_jXadL_Z37plugin_build_value_template_parameterPNS_10connectionEyS2_yS2_jEEEENS_6statusES4_ _ZdaPv 57
_ZN10cc1_plugin8callbackIyyPKcyS2_jXadL_Z37plugin_build_value_template_parameterPNS_10connectionEyS2_yS2_jEEEENS_6statusES4_ _ZdaPv 71
_ZN10cc1_plugin8callbackIyyPKcyS2_jXadL_Z37plugin_build_value_template_parameterPNS_10connectionEyS2_yS2_jEEEENS_6statusES4_ _ZN10cc1_plugin18unmarshall_intlikeEPNS_10connectionEPy 105
_ZN10cc1_plugin8callbackIyyPKcyS2_jXadL_Z37plugin_build_value_template_parameterPNS_10connectionEyS2_yS2_jEEEENS_6statusES4_ _ZN10cc1_plugin10unmarshallEPNS_10connectionEPPc 127
_ZN10cc1_plugin8callbackIyyPKcyS2_jXadL_Z37plugin_build_value_template_parameterPNS_10connectionEyS2_yS2_jEEEENS_6statusES4_ _ZN10cc1_plugin18unmarshall_intlikeEPNS_10connectionEPy 144
_ZN10cc1_plugin8callbackIyyPKcyS2_jXadL_Z37plugin_build_value_template_parameterPNS_10connectionEyS2_yS2_jEEEENS_6statusES4_ _ZN10cc1_plugin10unmarshallEPNS_10connectionEPPc 168
_ZN10cc1_plugin8callbackIyyPKcyS2_jXadL_Z37plugin_build_value_template_parameterPNS_10connectionEyS2_yS2_jEEEENS_6statusES4_ _ZN10cc1_plugin18unmarshall_intlikeEPNS_10connectionEPy 189
_ZN10cc1_plugin8callbackIyyPKcyS2_jXadL_Z37plugin_build_value_template_parameterPNS_10connectionEyS2_yS2_jEEEENS_6statusES4_ _Z37plugin_build_value_template_parameterPN10cc1_plugin10connectionEyPKcyS3_j 227
_ZN10cc1_plugin8callbackIyyPKcyS2_jXadL_Z37plugin_build_value_template_parameterPNS_10connectionEyS2_yS2_jEEEENS_6statusES4_ _ZN10cc1_plugin10connection4sendEc 243
_ZN10cc1_plugin8callbackIyyPKcyS2_jXadL_Z37plugin_build_value_template_parameterPNS_10connectionEyS2_yS2_jEEEENS_6statusES4_ _ZN10cc1_plugin16marshall_intlikeEPNS_10connectionEy 262
_ZN10cc1_plugin8callbackIyyPKcyS2_jXadL_Z37plugin_build_value_template_parameterPNS_10connectionEyS2_yS2_jEEEENS_6statusES4_ _ZdaPv 287
_ZN10cc1_plugin8callbackIyyPKcyS2_jXadL_Z37plugin_build_value_template_parameterPNS_10connectionEyS2_yS2_jEEEENS_6statusES4_ _ZdaPv 301
_ZN10cc1_plugin8callbackIyyPKcyS2_jXadL_Z37plugin_build_value_template_parameterPNS_10connectionEyS2_yS2_jEEEENS_6statusES4_ _Unwind_Resume 309
_ZN10cc1_plugin8callbackIyyPK15gcc_vbase_arrayPKcjXadL_Z23plugin_start_class_typePNS_10connectionEyS3_S5_jEEEENS_6statusES7_ _ZN10cc1_plugin16unmarshall_checkEPNS_10connectionEy 34
_ZN10cc1_plugin8callbackIyyPK15gcc_vbase_arrayPKcjXadL_Z23plugin_start_class_typePNS_10connectionEyS3_S5_jEEEENS_6statusES7_ _ZdaPv 55
_ZN10cc1_plugin8callbackIyyPK15gcc_vbase_arrayPKcjXadL_Z23plugin_start_class_typePNS_10connectionEyS3_S5_jEEEENS_6statusES7_ _ZdaPv 78
_ZN10cc1_plugin8callbackIyyPK15gcc_vbase_arrayPKcjXadL_Z23plugin_start_class_typePNS_10connectionEyS3_S5_jEEEENS_6statusES7_ _ZdaPv 96
_ZN10cc1_plugin8callbackIyyPK15gcc_vbase_arrayPKcjXadL_Z23plugin_start_class_typePNS_10connectionEyS3_S5_jEEEENS_6statusES7_ _ZdlPv 108
_ZN10cc1_plugin8callbackIyyPK15gcc_vbase_arrayPKcjXadL_Z23plugin_start_class_typePNS_10connectionEyS3_S5_jEEEENS_6statusES7_ _ZN10cc1_plugin18unmarshall_intlikeEPNS_10connectionEPy 137
_ZN10cc1_plugin8callbackIyyPK15gcc_vbase_arrayPKcjXadL_Z23plugin_start_class_typePNS_10connectionEyS3_S5_jEEEENS_6statusES7_ _ZN10cc1_plugin10unmarshallEPNS_10connectionEPP15gcc_vbase_array 159
_ZN10cc1_plugin8callbackIyyPK15gcc_vbase_arrayPKcjXadL_Z23plugin_start_class_typePNS_10connectionEyS3_S5_jEEEENS_6statusES7_ _ZN10cc1_plugin10unmarshallEPNS_10connectionEPPc 176
_ZN10cc1_plugin8callbackIyyPK15gcc_vbase_arrayPKcjXadL_Z23plugin_start_class_typePNS_10connectionEyS3_S5_jEEEENS_6statusES7_ _ZN10cc1_plugin18unmarshall_intlikeEPNS_10connectionEPy 197
_ZN10cc1_plugin8callbackIyyPK15gcc_vbase_arrayPKcjXadL_Z23plugin_start_class_typePNS_10connectionEyS3_S5_jEEEENS_6statusES7_ _Z23plugin_start_class_typePN10cc1_plugin10connectionEyPK15gcc_vbase_arrayPKcj 232
_ZN10cc1_plugin8callbackIyyPK15gcc_vbase_arrayPKcjXadL_Z23plugin_start_class_typePNS_10connectionEyS3_S5_jEEEENS_6statusES7_ _ZN10cc1_plugin10connection4sendEc 248
_ZN10cc1_plugin8callbackIyyPK15gcc_vbase_arrayPKcjXadL_Z23plugin_start_class_typePNS_10connectionEyS3_S5_jEEEENS_6statusES7_ _ZN10cc1_plugin16marshall_intlikeEPNS_10connectionEy 267
_ZN10cc1_plugin8callbackIyyPK15gcc_vbase_arrayPKcjXadL_Z23plugin_start_class_typePNS_10connectionEyS3_S5_jEEEENS_6statusES7_ _ZdaPv 292
_ZN10cc1_plugin8callbackIyyPK15gcc_vbase_arrayPKcjXadL_Z23plugin_start_class_typePNS_10connectionEyS3_S5_jEEEENS_6statusES7_ _ZdaPv 315
_ZN10cc1_plugin8callbackIyyPK15gcc_vbase_arrayPKcjXadL_Z23plugin_start_class_typePNS_10connectionEyS3_S5_jEEEENS_6statusES7_ _ZdaPv 333
_ZN10cc1_plugin8callbackIyyPK15gcc_vbase_arrayPKcjXadL_Z23plugin_start_class_typePNS_10connectionEyS3_S5_jEEEENS_6statusES7_ _ZdlPv 345
_ZN10cc1_plugin8callbackIyyPK15gcc_vbase_arrayPKcjXadL_Z23plugin_start_class_typePNS_10connectionEyS3_S5_jEEEENS_6statusES7_ _Unwind_Resume 353
_ZN10cc1_plugin8callbackIyPKc18gcc_cp_symbol_kindyS2_yS2_jXadL_Z17plugin_build_declPNS_10connectionES2_S3_yS2_yS2_jEEEENS_6statusES5_ _ZN10cc1_plugin16unmarshall_checkEPNS_10connectionEy 50
_ZN10cc1_plugin8callbackIyPKc18gcc_cp_symbol_kindyS2_yS2_jXadL_Z17plugin_build_declPNS_10connectionES2_S3_yS2_yS2_jEEEENS_6statusES5_ _ZdaPv 71
_ZN10cc1_plugin8callbackIyPKc18gcc_cp_symbol_kindyS2_yS2_jXadL_Z17plugin_build_declPNS_10connectionES2_S3_yS2_yS2_jEEEENS_6statusES5_ _ZdaPv 85
_ZN10cc1_plugin8callbackIyPKc18gcc_cp_symbol_kindyS2_yS2_jXadL_Z17plugin_build_declPNS_10connectionES2_S3_yS2_yS2_jEEEENS_6statusES5_ _ZdaPv 99
_ZN10cc1_plugin8callbackIyPKc18gcc_cp_symbol_kindyS2_yS2_jXadL_Z17plugin_build_declPNS_10connectionES2_S3_yS2_yS2_jEEEENS_6statusES5_ _ZN10cc1_plugin10unmarshallEPNS_10connectionEPPc 136
_ZN10cc1_plugin8callbackIyPKc18gcc_cp_symbol_kindyS2_yS2_jXadL_Z17plugin_build_declPNS_10connectionES2_S3_yS2_yS2_jEEEENS_6statusES5_ _ZN10cc1_plugin18unmarshall_intlikeEPNS_10connectionEPy 152
_ZN10cc1_plugin8callbackIyPKc18gcc_cp_symbol_kindyS2_yS2_jXadL_Z17plugin_build_declPNS_10connectionES2_S3_yS2_yS2_jEEEENS_6statusES5_ _ZN10cc1_plugin18unmarshall_intlikeEPNS_10connectionEPy 175
_ZN10cc1_plugin8callbackIyPKc18gcc_cp_symbol_kindyS2_yS2_jXadL_Z17plugin_build_declPNS_10connectionES2_S3_yS2_yS2_jEEEENS_6statusES5_ _ZN10cc1_plugin10unmarshallEPNS_10connectionEPPc 198
_ZN10cc1_plugin8callbackIyPKc18gcc_cp_symbol_kindyS2_yS2_jXadL_Z17plugin_build_declPNS_10connectionES2_S3_yS2_yS2_jEEEENS_6statusES5_ _ZN10cc1_plugin18unmarshall_intlikeEPNS_10connectionEPy 218
_ZN10cc1_plugin8callbackIyPKc18gcc_cp_symbol_kindyS2_yS2_jXadL_Z17plugin_build_declPNS_10connectionES2_S3_yS2_yS2_jEEEENS_6statusES5_ _ZN10cc1_plugin10unmarshallEPNS_10connectionEPPc 245
_ZN10cc1_plugin8callbackIyPKc18gcc_cp_symbol_kindyS2_yS2_jXadL_Z17plugin_build_declPNS_10connectionES2_S3_yS2_yS2_jEEEENS_6statusES5_ _ZN10cc1_plugin18unmarshall_intlikeEPNS_10connectionEPy 265
_ZN10cc1_plugin8callbackIyPKc18gcc_cp_symbol_kindyS2_yS2_jXadL_Z17plugin_build_declPNS_10connectionES2_S3_yS2_yS2_jEEEENS_6statusES5_ _Z17plugin_build_declPN10cc1_plugin10connectionEPKc18gcc_cp_symbol_kindyS3_yS3_j 309
_ZN10cc1_plugin8callbackIyPKc18gcc_cp_symbol_kindyS2_yS2_jXadL_Z17plugin_build_declPNS_10connectionES2_S3_yS2_yS2_jEEEENS_6statusES5_ _ZN10cc1_plugin10connection4sendEc 327
_ZN10cc1_plugin8callbackIyPKc18gcc_cp_symbol_kindyS2_yS2_jXadL_Z17plugin_build_declPNS_10connectionES2_S3_yS2_yS2_jEEEENS_6statusES5_ _ZN10cc1_plugin16marshall_intlikeEPNS_10connectionEy 346
_ZN10cc1_plugin8callbackIyPKc18gcc_cp_symbol_kindyS2_yS2_jXadL_Z17plugin_build_declPNS_10connectionES2_S3_yS2_yS2_jEEEENS_6statusES5_ _ZdaPv 371
_ZN10cc1_plugin8callbackIyPKc18gcc_cp_symbol_kindyS2_yS2_jXadL_Z17plugin_build_declPNS_10connectionES2_S3_yS2_yS2_jEEEENS_6statusES5_ _ZdaPv 385
_ZN10cc1_plugin8callbackIyPKc18gcc_cp_symbol_kindyS2_yS2_jXadL_Z17plugin_build_declPNS_10connectionES2_S3_yS2_yS2_jEEEENS_6statusES5_ _ZdaPv 399
_ZN10cc1_plugin8callbackIyPKc18gcc_cp_symbol_kindyS2_yS2_jXadL_Z17plugin_build_declPNS_10connectionES2_S3_yS2_yS2_jEEEENS_6statusES5_ _Unwind_Resume 407
_ZN10cc1_plugin8callbackIyPKcyyXadL_Z25plugin_define_cdtor_clonePNS_10connectionES2_yyEEEENS_6statusES4_ _ZN10cc1_plugin16unmarshall_checkEPNS_10connectionEy 25
_ZN10cc1_plugin8callbackIyPKcyyXadL_Z25plugin_define_cdtor_clonePNS_10connectionES2_yyEEEENS_6statusES4_ _ZdaPv 45
_ZN10cc1_plugin8callbackIyPKcyyXadL_Z25plugin_define_cdtor_clonePNS_10connectionES2_yyEEEENS_6statusES4_ _ZN10cc1_plugin10unmarshallEPNS_10connectionEPPc 71
_ZN10cc1_plugin8callbackIyPKcyyXadL_Z25plugin_define_cdtor_clonePNS_10connectionES2_yyEEEENS_6statusES4_ _ZN10cc1_plugin18unmarshall_intlikeEPNS_10connectionEPy 88
_ZN10cc1_plugin8callbackIyPKcyyXadL_Z25plugin_define_cdtor_clonePNS_10connectionES2_yyEEEENS_6statusES4_ _ZN10cc1_plugin18unmarshall_intlikeEPNS_10connectionEPy 112
_ZN10cc1_plugin8callbackIyPKcyyXadL_Z25plugin_define_cdtor_clonePNS_10connectionES2_yyEEEENS_6statusES4_ _Z25plugin_define_cdtor_clonePN10cc1_plugin10connectionEPKcyy 138
_ZN10cc1_plugin8callbackIyPKcyyXadL_Z25plugin_define_cdtor_clonePNS_10connectionES2_yyEEEENS_6statusES4_ _ZN10cc1_plugin10connection4sendEc 154
_ZN10cc1_plugin8callbackIyPKcyyXadL_Z25plugin_define_cdtor_clonePNS_10connectionES2_yyEEEENS_6statusES4_ _ZN10cc1_plugin16marshall_intlikeEPNS_10connectionEy 173
_ZN10cc1_plugin8callbackIyPKcyyXadL_Z25plugin_define_cdtor_clonePNS_10connectionES2_yyEEEENS_6statusES4_ _ZdaPv 197
_ZN10cc1_plugin8callbackIyPKcyyXadL_Z25plugin_define_cdtor_clonePNS_10connectionES2_yyEEEENS_6statusES4_ _Unwind_Resume 205
_ZN10cc1_plugin8callbackIyyPK20gcc_cp_template_argsyPKcjXadL_Z45plugin_build_function_template_specializationPNS_10connectionEyS3_yS5_jEEEENS_6statusES7_ _ZN10cc1_plugin16unmarshall_checkEPNS_10connectionEy 41
_ZN10cc1_plugin8callbackIyyPK20gcc_cp_template_argsyPKcjXadL_Z45plugin_build_function_template_specializationPNS_10connectionEyS3_yS5_jEEEENS_6statusES7_ _ZdaPv 62
_ZN10cc1_plugin8callbackIyyPK20gcc_cp_template_argsyPKcjXadL_Z45plugin_build_function_template_specializationPNS_10connectionEyS3_yS5_jEEEENS_6statusES7_ _ZdaPv 85
_ZN10cc1_plugin8callbackIyyPK20gcc_cp_template_argsyPKcjXadL_Z45plugin_build_function_template_specializationPNS_10connectionEyS3_yS5_jEEEENS_6statusES7_ _ZdaPv 103
_ZN10cc1_plugin8callbackIyyPK20gcc_cp_template_argsyPKcjXadL_Z45plugin_build_function_template_specializationPNS_10connectionEyS3_yS5_jEEEENS_6statusES7_ _ZdlPv 115
_ZN10cc1_plugin8callbackIyyPK20gcc_cp_template_argsyPKcjXadL_Z45plugin_build_function_template_specializationPNS_10connectionEyS3_yS5_jEEEENS_6statusES7_ _ZN10cc1_plugin18unmarshall_intlikeEPNS_10connectionEPy 156
_ZN10cc1_plugin8callbackIyyPK20gcc_cp_template_argsyPKcjXadL_Z45plugin_build_function_template_specializationPNS_10connectionEyS3_yS5_jEEEENS_6statusES7_ _ZN10cc1_plugin10unmarshallEPNS_10connectionEPP20gcc_cp_template_args 181
_ZN10cc1_plugin8callbackIyyPK20gcc_cp_template_argsyPKcjXadL_Z45plugin_build_function_template_specializationPNS_10connectionEyS3_yS5_jEEEENS_6statusES7_ _ZN10cc1_plugin18unmarshall_intlikeEPNS_10connectionEPy 202
_ZN10cc1_plugin8callbackIyyPK20gcc_cp_template_argsyPKcjXadL_Z45plugin_build_function_template_specializationPNS_10connectionEyS3_yS5_jEEEENS_6statusES7_ _ZN10cc1_plugin10unmarshallEPNS_10connectionEPPc 230
_ZN10cc1_plugin8callbackIyyPK20gcc_cp_template_argsyPKcjXadL_Z45plugin_build_function_template_specializationPNS_10connectionEyS3_yS5_jEEEENS_6statusES7_ _ZN10cc1_plugin18unmarshall_intlikeEPNS_10connectionEPy 251
_ZN10cc1_plugin8callbackIyyPK20gcc_cp_template_argsyPKcjXadL_Z45plugin_build_function_template_specializationPNS_10connectionEyS3_yS5_jEEEENS_6statusES7_ _Z45plugin_build_function_template_specializationPN10cc1_plugin10connectionEyPK20gcc_cp_template_argsyPKcj 289
_ZN10cc1_plugin8callbackIyyPK20gcc_cp_template_argsyPKcjXadL_Z45plugin_build_function_template_specializationPNS_10connectionEyS3_yS5_jEEEENS_6statusES7_ _ZN10cc1_plugin10connection4sendEc 305
_ZN10cc1_plugin8callbackIyyPK20gcc_cp_template_argsyPKcjXadL_Z45plugin_build_function_template_specializationPNS_10connectionEyS3_yS5_jEEEENS_6statusES7_ _ZN10cc1_plugin16marshall_intlikeEPNS_10connectionEy 324
_ZN10cc1_plugin8callbackIyyPK20gcc_cp_template_argsyPKcjXadL_Z45plugin_build_function_template_specializationPNS_10connectionEyS3_yS5_jEEEENS_6statusES7_ _ZdaPv 349
_ZN10cc1_plugin8callbackIyyPK20gcc_cp_template_argsyPKcjXadL_Z45plugin_build_function_template_specializationPNS_10connectionEyS3_yS5_jEEEENS_6statusES7_ _ZN10cc1_plugin16argument_wrapperIPK20gcc_cp_template_argsED1Ev 357
_ZN10cc1_plugin8callbackIyyPK20gcc_cp_template_argsyPKcjXadL_Z45plugin_build_function_template_specializationPNS_10connectionEyS3_yS5_jEEEENS_6statusES7_ _Unwind_Resume 365
_ZNSs4_Rep10_M_disposeERKSaIcE.part.0 __pthread_key_create 1
_ZNSs4_Rep10_M_disposeERKSaIcE.part.0 _ZNSs4_Rep10_M_destroyERKSaIcE 46
_Z13find_compilerRK17re_pattern_bufferPSs getenv 22
_Z13find_compilerRK17re_pattern_bufferPSs _ZNSsC1EPKcRKSaIcE 51
_Z13find_compilerRK17re_pattern_bufferPSs _ZNKSs4findEcm 78
_Z13find_compilerRK17re_pattern_bufferPSs _ZNSs4_Rep20_S_empty_rep_storageE 90
_Z13find_compilerRK17re_pattern_bufferPSs _ZNSsC1ERKSsmm 147
_Z13find_compilerRK17re_pattern_bufferPSs _ZNSs6assignERKSs 160
_Z13find_compilerRK17re_pattern_bufferPSs _ZNSs4_Rep20_S_empty_rep_storageE 176
_Z13find_compilerRK17re_pattern_bufferPSs _ZNKSs7compareEPKc 195
_Z13find_compilerRK17re_pattern_bufferPSs opendir 212
_Z13find_compilerRK17re_pattern_bufferPSs xregexec 250
_Z13find_compilerRK17re_pattern_bufferPSs readdir 262
_Z13find_compilerRK17re_pattern_bufferPSs closedir 277
_Z13find_compilerRK17re_pattern_bufferPSs _ZNSs4_Rep20_S_empty_rep_storageE 300
_Z13find_compilerRK17re_pattern_bufferPSs _ZNSs4_Rep20_S_empty_rep_storageE 339
_Z13find_compilerRK17re_pattern_bufferPSs _ZNSsC1ERKSs 377
_Z13find_compilerRK17re_pattern_bufferPSs _ZNSs6appendEmc 397
_Z13find_compilerRK17re_pattern_bufferPSs _ZNSsC1ERKSs 412
_Z13find_compilerRK17re_pattern_bufferPSs strlen 420
_Z13find_compilerRK17re_pattern_bufferPSs _ZNSs6appendEPKcm 436
_Z13find_compilerRK17re_pattern_bufferPSs _ZNSs6assignERKSs 449
_Z13find_compilerRK17re_pattern_bufferPSs _ZNSs4_Rep20_S_empty_rep_storageE 465
_Z13find_compilerRK17re_pattern_bufferPSs _ZNSs4_Rep20_S_empty_rep_storageE 487
_Z13find_compilerRK17re_pattern_bufferPSs _ZNSs6assignEPKcm 526
_Z13find_compilerRK17re_pattern_bufferPSs _ZNSsC1ERKSsmm 584
_Z13find_compilerRK17re_pattern_bufferPSs _ZNSs6assignERKSs 597
_Z13find_compilerRK17re_pattern_bufferPSs _ZNSs4_Rep20_S_empty_rep_storageE 613
_Z13find_compilerRK17re_pattern_bufferPSs __pthread_key_create 624
_Z13find_compilerRK17re_pattern_bufferPSs _ZNSs4_Rep10_M_destroyERKSaIcE 664
_Z13find_compilerRK17re_pattern_bufferPSs __pthread_key_create 681
_Z13find_compilerRK17re_pattern_bufferPSs _ZNSs4_Rep10_M_destroyERKSaIcE 720
_Z13find_compilerRK17re_pattern_bufferPSs __pthread_key_create 730
_Z13find_compilerRK17re_pattern_bufferPSs _ZNSs4_Rep10_M_destroyERKSaIcE 769
_Z13find_compilerRK17re_pattern_bufferPSs __pthread_key_create 779
_Z13find_compilerRK17re_pattern_bufferPSs _ZNSs4_Rep10_M_destroyERKSaIcE 818
_Z13find_compilerRK17re_pattern_bufferPSs __pthread_key_create 828
_Z13find_compilerRK17re_pattern_bufferPSs _ZNSs4_Rep10_M_destroyERKSaIcE 867
_Z13find_compilerRK17re_pattern_bufferPSs _ZNSs4_Rep20_S_empty_rep_storageE 919
_Z13find_compilerRK17re_pattern_bufferPSs __pthread_key_create 930
_Z13find_compilerRK17re_pattern_bufferPSs _ZNSs4_Rep10_M_destroyERKSaIcE 970
_Z13find_compilerRK17re_pattern_bufferPSs __pthread_key_create 1032
_Z13find_compilerRK17re_pattern_bufferPSs _ZNSs4_Rep10_M_destroyERKSaIcE 1067
_Z13find_compilerRK17re_pattern_bufferPSs _ZNSs4_Rep20_S_empty_rep_storageE 1121
_Z13find_compilerRK17re_pattern_bufferPSs _ZNSs4_Rep20_S_empty_rep_storageE 1149
_Z13find_compilerRK17re_pattern_bufferPSs _Unwind_Resume 1167
_Z13find_compilerRK17re_pattern_bufferPSs _ZSt24__throw_out_of_range_fmtPKcz 1190
_Z13find_compilerRK17re_pattern_bufferPSs closedir 1201
_Z13find_compilerRK17re_pattern_bufferPSs _ZNSs4_Rep20_S_empty_rep_storageE 1216
_Z13find_compilerRK17re_pattern_bufferPSs _ZNSs4_Rep20_S_empty_rep_storageE 1259
_Z13find_compilerRK17re_pattern_bufferPSs _ZNSs4_Rep20_S_empty_rep_storageE 1299
_Z13find_compilerRK17re_pattern_bufferPSs _ZNSs4_Rep20_S_empty_rep_storageE 1327
_Z13find_compilerRK17re_pattern_bufferPSs _ZNSs4_Rep20_S_empty_rep_storageE 1372
_Z13find_compilerRK17re_pattern_bufferPSs _ZNSs4_Rep20_S_empty_rep_storageE 1399
_Z13find_compilerRK17re_pattern_bufferPSs _ZSt24__throw_out_of_range_fmtPKcz 1440
_ZNK6libcc18compiler4findERSs xstrdup 6
_ZNK6libcc124compiler_driver_filename4findERSs stderr 29
_ZNK6libcc124compiler_driver_filename4findERSs fprintf 41
_ZNK6libcc124compiler_driver_filename4findERSs _ZNSs6assignERKSs 53
_ZN10cc1_plugin8callbackIi20gcc_c_oracle_requestPKcXadL_ZN12_GLOBAL__N_121c_call_binding_oracleEPNS_10connectionES1_S3_EEEENS_6statusES6_ _ZN10cc1_plugin16unmarshall_checkEPNS_10connectionEy 23
_ZN10cc1_plugin8callbackIi20gcc_c_oracle_requestPKcXadL_ZN12_GLOBAL__N_121c_call_binding_oracleEPNS_10connectionES1_S3_EEEENS_6statusES6_ _ZdaPv 43
_ZN10cc1_plugin8callbackIi20gcc_c_oracle_requestPKcXadL_ZN12_GLOBAL__N_121c_call_binding_oracleEPNS_10connectionES1_S3_EEEENS_6statusES6_ _ZN10cc1_plugin18unmarshall_intlikeEPNS_10connectionEPy 73
_ZN10cc1_plugin8callbackIi20gcc_c_oracle_requestPKcXadL_ZN12_GLOBAL__N_121c_call_binding_oracleEPNS_10connectionES1_S3_EEEENS_6statusES6_ _ZN10cc1_plugin10unmarshallEPNS_10connectionEPPc 95
_ZN10cc1_plugin8callbackIi20gcc_c_oracle_requestPKcXadL_ZN12_GLOBAL__N_121c_call_binding_oracleEPNS_10connectionES1_S3_EEEENS_6statusES6_ _ZN10cc1_plugin10connection4sendEc 132
_ZN10cc1_plugin8callbackIi20gcc_c_oracle_requestPKcXadL_ZN12_GLOBAL__N_121c_call_binding_oracleEPNS_10connectionES1_S3_EEEENS_6statusES6_ _ZN10cc1_plugin16marshall_intlikeEPNS_10connectionEy 149
_ZN10cc1_plugin8callbackIi20gcc_c_oracle_requestPKcXadL_ZN12_GLOBAL__N_121c_call_binding_oracleEPNS_10connectionES1_S3_EEEENS_6statusES6_ _ZdaPv 170
_ZN10cc1_plugin8callbackIi20gcc_c_oracle_requestPKcXadL_ZN12_GLOBAL__N_121c_call_binding_oracleEPNS_10connectionES1_S3_EEEENS_6statusES6_ _Unwind_Resume 178
_ZN10cc1_plugin8callbackIyPKcXadL_ZN12_GLOBAL__N_121c_call_symbol_addressEPNS_10connectionES2_EEEENS_6statusES5_ _ZN10cc1_plugin16unmarshall_checkEPNS_10connectionEy 23
_ZN10cc1_plugin8callbackIyPKcXadL_ZN12_GLOBAL__N_121c_call_symbol_addressEPNS_10connectionES2_EEEENS_6statusES5_ _ZdaPv 43
_ZN10cc1_plugin8callbackIyPKcXadL_ZN12_GLOBAL__N_121c_call_symbol_addressEPNS_10connectionES2_EEEENS_6statusES5_ _ZN10cc1_plugin10unmarshallEPNS_10connectionEPPc 71
_ZN10cc1_plugin8callbackIyPKcXadL_ZN12_GLOBAL__N_121c_call_symbol_addressEPNS_10connectionES2_EEEENS_6statusES5_ _ZN10cc1_plugin10connection4sendEc 109
_ZN10cc1_plugin8callbackIyPKcXadL_ZN12_GLOBAL__N_121c_call_symbol_addressEPNS_10connectionES2_EEEENS_6statusES5_ _ZN10cc1_plugin16marshall_intlikeEPNS_10connectionEy 124
_ZN10cc1_plugin8callbackIyPKcXadL_ZN12_GLOBAL__N_121c_call_symbol_addressEPNS_10connectionES2_EEEENS_6statusES5_ _ZdaPv 145
_ZN10cc1_plugin8callbackIyPKcXadL_ZN12_GLOBAL__N_121c_call_symbol_addressEPNS_10connectionES2_EEEENS_6statusES5_ _Unwind_Resume 153
_ZL22libcc1_set_source_fileP16gcc_base_contextPKc strlen 16
_ZL22libcc1_set_source_fileP16gcc_base_contextPKc _ZNSs6assignEPKcm 37
_ZL25libcc1_set_triplet_regexpP16gcc_base_contextPKc _ZNSsC1EPKcRKSaIcE 45
_ZL25libcc1_set_triplet_regexpP16gcc_base_contextPKc _Znwm 55
_ZL25libcc1_set_triplet_regexpP16gcc_base_contextPKc _ZTVN6libcc123compiler_triplet_regexpE 75
_ZL25libcc1_set_triplet_regexpP16gcc_base_contextPKc _ZNSsC1ERKSs 83
_ZL25libcc1_set_triplet_regexpP16gcc_base_contextPKc _ZNSs4_Rep20_S_empty_rep_storageE 103
_ZL25libcc1_set_triplet_regexpP16gcc_base_contextPKc __pthread_key_create 129
_ZL25libcc1_set_triplet_regexpP16gcc_base_contextPKc _ZNSs4_Rep10_M_destroyERKSaIcE 160
_ZL25libcc1_set_triplet_regexpP16gcc_base_contextPKc _ZdlPv 199
_ZL25libcc1_set_triplet_regexpP16gcc_base_contextPKc _ZNSs4_Rep20_S_empty_rep_storageE 215
_ZL25libcc1_set_triplet_regexpP16gcc_base_contextPKc _Unwind_Resume 235
_ZL26libcc1_set_driver_filenameP16gcc_base_contextPKc _ZNSsC1EPKcRKSaIcE 45
_ZL26libcc1_set_driver_filenameP16gcc_base_contextPKc _Znwm 55
_ZL26libcc1_set_driver_filenameP16gcc_base_contextPKc _ZTVN6libcc124compiler_driver_filenameE 75
_ZL26libcc1_set_driver_filenameP16gcc_base_contextPKc _ZNSsC1ERKSs 83
_ZL26libcc1_set_driver_filenameP16gcc_base_contextPKc _ZNSs4_Rep20_S_empty_rep_storageE 103
_ZL26libcc1_set_driver_filenameP16gcc_base_contextPKc __pthread_key_create 129
_ZL26libcc1_set_driver_filenameP16gcc_base_contextPKc _ZNSs4_Rep10_M_destroyERKSaIcE 160
_ZL26libcc1_set_driver_filenameP16gcc_base_contextPKc _ZdlPv 199
_ZL26libcc1_set_driver_filenameP16gcc_base_contextPKc _ZNSs4_Rep20_S_empty_rep_storageE 215
_ZL26libcc1_set_driver_filenameP16gcc_base_contextPKc _Unwind_Resume 235
_ZN6libcc1C1EPK15gcc_base_vtablePK15gcc_c_fe_vtable,_ZN6libcc1C2EPK15gcc_base_vtablePK15gcc_c_fe_vtable _ZNSs4_Rep20_S_empty_rep_storageE 93
_ZN6libcc1C1EPK15gcc_base_vtablePK15gcc_c_fe_vtable,_ZN6libcc1C2EPK15gcc_base_vtablePK15gcc_c_fe_vtable _Znwm 107
_ZN6libcc1C1EPK15gcc_base_vtablePK15gcc_c_fe_vtable,_ZN6libcc1C2EPK15gcc_base_vtablePK15gcc_c_fe_vtable _ZTVN6libcc18compilerE 114
_ZN6libcc1C1EPK15gcc_base_vtablePK15gcc_c_fe_vtable,_ZN6libcc1C2EPK15gcc_base_vtablePK15gcc_c_fe_vtable _ZNSs4_Rep20_S_empty_rep_storageE 156
_ZN6libcc1C1EPK15gcc_base_vtablePK15gcc_c_fe_vtable,_ZN6libcc1C2EPK15gcc_base_vtablePK15gcc_c_fe_vtable _ZNSt6vectorISsSaISsEED1Ev 177
_ZN6libcc1C1EPK15gcc_base_vtablePK15gcc_c_fe_vtable,_ZN6libcc1C2EPK15gcc_base_vtablePK15gcc_c_fe_vtable _Unwind_Resume 185
gcc_c_fe_context _Znwm 22
gcc_c_fe_context _ZN6libcc1C2EPK15gcc_base_vtablePK15gcc_c_fe_vtable 43
gcc_c_fe_context _ZdlPv 74
gcc_c_fe_context _Unwind_Resume 82
_ZN6libcc1D1Ev,_ZN6libcc1D2Ev _ZNSs4_Rep20_S_empty_rep_storageE 54
_ZN6libcc1D1Ev,_ZN6libcc1D2Ev _ZNSs4_Rep20_S_empty_rep_storageE 107
_ZN6libcc1D1Ev,_ZN6libcc1D2Ev __pthread_key_create 114
_ZN6libcc1D1Ev,_ZN6libcc1D2Ev _ZNSs4_Rep10_M_destroyERKSaIcE 149
_ZN6libcc1D1Ev,_ZN6libcc1D2Ev _ZdlPv 174
_ZN6libcc1D1Ev,_ZN6libcc1D2Ev __pthread_key_create 206
_ZN6libcc1D1Ev,_ZN6libcc1D2Ev _ZNSs4_Rep10_M_destroyERKSaIcE 241
_ZN6libcc1D1Ev,_ZN6libcc1D2Ev _ZNSs4_Rep20_S_empty_rep_storageE 278
_ZN6libcc1D1Ev,_ZN6libcc1D2Ev _ZNSt6vectorISsSaISsEED1Ev 300
_ZN6libcc1D1Ev,_ZN6libcc1D2Ev _Unwind_Resume 308
_ZL14libcc1_destroyP16gcc_base_context _ZN6libcc1D2Ev 10
_ZL14libcc1_destroyP16gcc_base_context _ZdlPv 19
_ZL20libcc1_set_argumentsP16gcc_base_contextiPPc _ZNSs4_Rep20_S_empty_rep_storageE 28
_ZL20libcc1_set_argumentsP16gcc_base_contextiPPc _ZNSs4_Rep20_S_empty_rep_storageE 59
_ZL20libcc1_set_argumentsP16gcc_base_contextiPPc __pthread_key_create 81
_ZL20libcc1_set_argumentsP16gcc_base_contextiPPc _ZNSs4_Rep10_M_destroyERKSaIcE 121
_ZL20libcc1_set_argumentsP16gcc_base_contextiPPc _ZNSsC1ERKSs 165
_ZL20libcc1_set_argumentsP16gcc_base_contextiPPc _ZNSsC1EPKcRKSaIcE 236
_ZL20libcc1_set_argumentsP16gcc_base_contextiPPc _ZNSsC1ERKSs 261
_ZL20libcc1_set_argumentsP16gcc_base_contextiPPc _ZNSs4_Rep20_S_empty_rep_storageE 289
_ZL20libcc1_set_argumentsP16gcc_base_contextiPPc __pthread_key_create 296
_ZL20libcc1_set_argumentsP16gcc_base_contextiPPc _ZNSs4_Rep10_M_destroyERKSaIcE 327
_ZL20libcc1_set_argumentsP16gcc_base_contextiPPc _ZNSt6vectorISsSaISsEE13_M_insert_auxEN9__gnu_cxx17__normal_iteratorIPSsS1_EERKSs 348
_ZL20libcc1_set_argumentsP16gcc_base_contextiPPc _ZNSt6vectorISsSaISsEE13_M_insert_auxEN9__gnu_cxx17__normal_iteratorIPSsS1_EERKSs 412
_ZL20libcc1_set_argumentsP16gcc_base_contextiPPc _ZNSs4_Rep20_S_empty_rep_storageE 436
_ZL20libcc1_set_argumentsP16gcc_base_contextiPPc _Unwind_Resume 456
_ZL20libcc1_set_argumentsP16gcc_base_contextiPPc _ZNSs4_Rep20_S_empty_rep_storageE 475
_ZL14libcc1_compileP16gcc_base_contextPKc socketpair 37
_ZL14libcc1_compileP16gcc_base_contextPKc pipe 55
_ZL14libcc1_compileP16gcc_base_contextPKc _ZNSsC1EPKcRKSaIcE 89
_ZL14libcc1_compileP16gcc_base_contextPKc _ZNSsC1ERKSs 118
_ZL14libcc1_compileP16gcc_base_contextPKc _ZNSs4_Rep20_S_empty_rep_storageE 146
_ZL14libcc1_compileP16gcc_base_contextPKc snprintf 178
_ZL14libcc1_compileP16gcc_base_contextPKc _ZNSsC1EPKcRKSaIcE 207
_ZL14libcc1_compileP16gcc_base_contextPKc _ZNSsC1ERKSs 236
_ZL14libcc1_compileP16gcc_base_contextPKc _ZNSs4_Rep20_S_empty_rep_storageE 264
_ZL14libcc1_compileP16gcc_base_contextPKc _ZNSsC1ERKSs 298
_ZL14libcc1_compileP16gcc_base_contextPKc _ZNSsC1EPKcRKSaIcE 330
_ZL14libcc1_compileP16gcc_base_contextPKc _ZNSsC1ERKSs 359
_ZL14libcc1_compileP16gcc_base_contextPKc _ZNSs4_Rep20_S_empty_rep_storageE 387
_ZL14libcc1_compileP16gcc_base_contextPKc _ZNSsC1EPKcRKSaIcE 413
_ZL14libcc1_compileP16gcc_base_contextPKc _ZNSsC1ERKSs 442
_ZL14libcc1_compileP16gcc_base_contextPKc _ZNSs4_Rep20_S_empty_rep_storageE 470
_ZL14libcc1_compileP16gcc_base_contextPKc _ZNSsC1EPKcRKSaIcE 494
_ZL14libcc1_compileP16gcc_base_contextPKc _ZNSsC1ERKSs 523
_ZL14libcc1_compileP16gcc_base_contextPKc _ZNSs4_Rep20_S_empty_rep_storageE 551
_ZL14libcc1_compileP16gcc_base_contextPKc _ZNSsC1EPKcRKSaIcE 583
_ZL14libcc1_compileP16gcc_base_contextPKc _ZNSsC1ERKSs 612
_ZL14libcc1_compileP16gcc_base_contextPKc _ZNSs4_Rep20_S_empty_rep_storageE 640
_ZL14libcc1_compileP16gcc_base_contextPKc _Znwm 656
_ZL14libcc1_compileP16gcc_base_contextPKc _ZTVN10cc1_plugin10connectionE 680
_ZL14libcc1_compileP16gcc_base_contextPKc _ZN10cc1_plugin9callbacksC1Ev 698
_ZL14libcc1_compileP16gcc_base_contextPKc _ZTV17libcc1_connection 706
_ZL14libcc1_compileP16gcc_base_contextPKc _ZN10cc1_plugin9callbacks12add_callbackEPKcPFNS_6statusEPNS_10connectionEE 733
_ZL14libcc1_compileP16gcc_base_contextPKc _ZN10cc1_plugin9callbacks12add_callbackEPKcPFNS_6statusEPNS_10connectionEE 756
_ZL14libcc1_compileP16gcc_base_contextPKc _ZSt7nothrow 786
_ZL14libcc1_compileP16gcc_base_contextPKc _ZnamRKSt9nothrow_t 814
_ZL14libcc1_compileP16gcc_base_contextPKc fork 912
_ZL14libcc1_compileP16gcc_base_contextPKc close 941
_ZL14libcc1_compileP16gcc_base_contextPKc close 950
_ZL14libcc1_compileP16gcc_base_contextPKc _ZN10cc1_plugin10connection4sendEc 964
_ZL14libcc1_compileP16gcc_base_contextPKc close 983
_ZL14libcc1_compileP16gcc_base_contextPKc close 992
_ZL14libcc1_compileP16gcc_base_contextPKc waitpid 1007
_ZL14libcc1_compileP16gcc_base_contextPKc close 1075
_ZL14libcc1_compileP16gcc_base_contextPKc close 1084
_ZL14libcc1_compileP16gcc_base_contextPKc _ZN10cc1_plugin16marshall_intlikeEPNS_10connectionEy 1146
_ZL14libcc1_compileP16gcc_base_contextPKc _ZN10cc1_plugin10connection7do_waitEb 1165
_ZL14libcc1_compileP16gcc_base_contextPKc __errno_location 1185
_ZL14libcc1_compileP16gcc_base_contextPKc __pthread_key_create 1200
_ZL14libcc1_compileP16gcc_base_contextPKc _ZNSs4_Rep10_M_destroyERKSaIcE 1239
_ZL14libcc1_compileP16gcc_base_contextPKc __pthread_key_create 1249
_ZL14libcc1_compileP16gcc_base_contextPKc _ZNSs4_Rep10_M_destroyERKSaIcE 1288
_ZL14libcc1_compileP16gcc_base_contextPKc __pthread_key_create 1305
_ZL14libcc1_compileP16gcc_base_contextPKc _ZNSs4_Rep10_M_destroyERKSaIcE 1344
_ZL14libcc1_compileP16gcc_base_contextPKc __pthread_key_create 1361
_ZL14libcc1_compileP16gcc_base_contextPKc _ZNSs4_Rep10_M_destroyERKSaIcE 1400
_ZL14libcc1_compileP16gcc_base_contextPKc __pthread_key_create 1417
_ZL14libcc1_compileP16gcc_base_contextPKc _ZNSs4_Rep10_M_destroyERKSaIcE 1456
_ZL14libcc1_compileP16gcc_base_contextPKc __pthread_key_create 1473
_ZL14libcc1_compileP16gcc_base_contextPKc _ZNSs4_Rep10_M_destroyERKSaIcE 1512
_ZL14libcc1_compileP16gcc_base_contextPKc close 1526
_ZL14libcc1_compileP16gcc_base_contextPKc close 1535
_ZL14libcc1_compileP16gcc_base_contextPKc close 1544
_ZL14libcc1_compileP16gcc_base_contextPKc close 1553
_ZL14libcc1_compileP16gcc_base_contextPKc _ZNSt6vectorISsSaISsEE13_M_insert_auxEN9__gnu_cxx17__normal_iteratorIPSsS1_EERKSs 1581
_ZL14libcc1_compileP16gcc_base_contextPKc _ZNSt6vectorISsSaISsEE13_M_insert_auxEN9__gnu_cxx17__normal_iteratorIPSsS1_EERKSs 1600
_ZL14libcc1_compileP16gcc_base_contextPKc _ZNSt6vectorISsSaISsEE13_M_insert_auxEN9__gnu_cxx17__normal_iteratorIPSsS1_EERKSs 1621
_ZL14libcc1_compileP16gcc_base_contextPKc _ZNSt6vectorISsSaISsEE13_M_insert_auxEN9__gnu_cxx17__normal_iteratorIPSsS1_EERKSs 1642
_ZL14libcc1_compileP16gcc_base_contextPKc _ZNSt6vectorISsSaISsEE13_M_insert_auxEN9__gnu_cxx17__normal_iteratorIPSsS1_EERKSs 1663
_ZL14libcc1_compileP16gcc_base_contextPKc _ZNSt6vectorISsSaISsEE13_M_insert_auxEN9__gnu_cxx17__normal_iteratorIPSsS1_EERKSs 1684
_ZL14libcc1_compileP16gcc_base_contextPKc _ZNSt6vectorISsSaISsEE13_M_insert_auxEN9__gnu_cxx17__normal_iteratorIPSsS1_EERKSs 1705
_ZL14libcc1_compileP16gcc_base_contextPKc _ZdlPv 1817
_ZL14libcc1_compileP16gcc_base_contextPKc _Unwind_Resume 1825
_ZL14libcc1_compileP16gcc_base_contextPKc dup2 1839
_ZL14libcc1_compileP16gcc_base_contextPKc dup2 1853
_ZL14libcc1_compileP16gcc_base_contextPKc close 1862
_ZL14libcc1_compileP16gcc_base_contextPKc close 1871
_ZL14libcc1_compileP16gcc_base_contextPKc close 1880
_ZL14libcc1_compileP16gcc_base_contextPKc execvp 1892
_ZL14libcc1_compileP16gcc_base_contextPKc _exit 1902
_ZL14libcc1_compileP16gcc_base_contextPKc _ZNSs4_Rep20_S_empty_rep_storageE 1921
_ZL14libcc1_compileP16gcc_base_contextPKc abort 1948
_ZL14libcc1_compileP16gcc_base_contextPKc _ZNSs4_Rep20_S_empty_rep_storageE 1967
_ZNK6libcc123compiler_triplet_regexp4findERSs _ZNSt8ios_baseC2Ev 46
_ZNK6libcc123compiler_triplet_regexp4findERSs _ZTTSt18basic_stringstreamIcSt11char_traitsIcESaIcEE 53
_ZNK6libcc123compiler_triplet_regexp4findERSs _ZTTSt18basic_stringstreamIcSt11char_traitsIcESaIcEE 71
_ZNK6libcc123compiler_triplet_regexp4findERSs _ZTVSt9basic_iosIcSt11char_traitsIcEE 82
_ZNK6libcc123compiler_triplet_regexp4findERSs _ZNSt9basic_iosIcSt11char_traitsIcEE4initEPSt15basic_streambufIcS1_E 167
_ZNK6libcc123compiler_triplet_regexp4findERSs _ZTTSt18basic_stringstreamIcSt11char_traitsIcESaIcEE 174
_ZNK6libcc123compiler_triplet_regexp4findERSs _ZTTSt18basic_stringstreamIcSt11char_traitsIcESaIcEE 202
_ZNK6libcc123compiler_triplet_regexp4findERSs _ZNSt9basic_iosIcSt11char_traitsIcEE4initEPSt15basic_streambufIcS1_E 210
_ZNK6libcc123compiler_triplet_regexp4findERSs _ZTTSt18basic_stringstreamIcSt11char_traitsIcESaIcEE 217
_ZNK6libcc123compiler_triplet_regexp4findERSs _ZTTSt18basic_stringstreamIcSt11char_traitsIcESaIcEE 224
_ZNK6libcc123compiler_triplet_regexp4findERSs _ZTVSt18basic_stringstreamIcSt11char_traitsIcESaIcEE 254
_ZNK6libcc123compiler_triplet_regexp4findERSs _ZTVSt18basic_stringstreamIcSt11char_traitsIcESaIcEE 265
_ZNK6libcc123compiler_triplet_regexp4findERSs _ZTVSt18basic_stringstreamIcSt11char_traitsIcESaIcEE 276
_ZNK6libcc123compiler_triplet_regexp4findERSs _ZTVSt15basic_streambufIcSt11char_traitsIcEE 291
_ZNK6libcc123compiler_triplet_regexp4findERSs _ZNSt6localeC1Ev 362
_ZNK6libcc123compiler_triplet_regexp4findERSs _ZTVSt15basic_stringbufIcSt11char_traitsIcESaIcEE 380
_ZNK6libcc123compiler_triplet_regexp4findERSs _ZNSs4_Rep20_S_empty_rep_storageE 401
_ZNK6libcc123compiler_triplet_regexp4findERSs _ZNSt9basic_iosIcSt11char_traitsIcEE4initEPSt15basic_streambufIcS1_E 414
_ZNK6libcc123compiler_triplet_regexp4findERSs _ZSt16__ostream_insertIcSt11char_traitsIcEERSt13basic_ostreamIT_T0_ES6_PKS3_l 440
_ZNK6libcc123compiler_triplet_regexp4findERSs strlen 457
_ZNK6libcc123compiler_triplet_regexp4findERSs _ZSt16__ostream_insertIcSt11char_traitsIcEERSt13basic_ostreamIT_T0_ES6_PKS3_l 479
_ZNK6libcc123compiler_triplet_regexp4findERSs _ZSt16__ostream_insertIcSt11char_traitsIcEERSt13basic_ostreamIT_T0_ES6_PKS3_l 505
_ZNK6libcc123compiler_triplet_regexp4findERSs _ZSt16__ostream_insertIcSt11char_traitsIcEERSt13basic_ostreamIT_T0_ES6_PKS3_l 558
_ZNK6libcc123compiler_triplet_regexp4findERSs _ZSt16__ostream_insertIcSt11char_traitsIcEERSt13basic_ostreamIT_T0_ES6_PKS3_l 615
_ZNK6libcc123compiler_triplet_regexp4findERSs _ZSt16__ostream_insertIcSt11char_traitsIcEERSt13basic_ostreamIT_T0_ES6_PKS3_l 646
_ZNK6libcc123compiler_triplet_regexp4findERSs _ZNSs4_Rep20_S_empty_rep_storageE 664
_ZNK6libcc123compiler_triplet_regexp4findERSs _ZNSs12_S_constructIPcEES0_T_S1_RKSaIcESt20forward_iterator_tag 714
_ZNK6libcc123compiler_triplet_regexp4findERSs _ZNSs6assignERKSs 742
_ZNK6libcc123compiler_triplet_regexp4findERSs _ZNSs4_Rep20_S_empty_rep_storageE 760
_ZNK6libcc123compiler_triplet_regexp4findERSs _ZTVSt18basic_stringstreamIcSt11char_traitsIcESaIcEE 784
_ZNK6libcc123compiler_triplet_regexp4findERSs _ZTVSt18basic_stringstreamIcSt11char_traitsIcESaIcEE 795
_ZNK6libcc123compiler_triplet_regexp4findERSs _ZTVSt18basic_stringstreamIcSt11char_traitsIcESaIcEE 806
_ZNK6libcc123compiler_triplet_regexp4findERSs _ZTVSt15basic_stringbufIcSt11char_traitsIcESaIcEE 817
_ZNK6libcc123compiler_triplet_regexp4findERSs _ZNSs4_Rep20_S_empty_rep_storageE 828
_ZNK6libcc123compiler_triplet_regexp4findERSs _ZTVSt15basic_streambufIcSt11char_traitsIcEE 852
_ZNK6libcc123compiler_triplet_regexp4findERSs _ZNSt6localeD1Ev 861
_ZNK6libcc123compiler_triplet_regexp4findERSs _ZTTSt18basic_stringstreamIcSt11char_traitsIcESaIcEE 868
_ZNK6libcc123compiler_triplet_regexp4findERSs _ZTTSt18basic_stringstreamIcSt11char_traitsIcESaIcEE 875
_ZNK6libcc123compiler_triplet_regexp4findERSs _ZTTSt18basic_stringstreamIcSt11char_traitsIcESaIcEE 894
_ZNK6libcc123compiler_triplet_regexp4findERSs _ZTTSt18basic_stringstreamIcSt11char_traitsIcESaIcEE 901
_ZNK6libcc123compiler_triplet_regexp4findERSs _ZTTSt18basic_stringstreamIcSt11char_traitsIcESaIcEE 931
_ZNK6libcc123compiler_triplet_regexp4findERSs _ZTVSt9basic_iosIcSt11char_traitsIcEE 964
_ZNK6libcc123compiler_triplet_regexp4findERSs _ZNSt8ios_baseD2Ev 973
_ZNK6libcc123compiler_triplet_regexp4findERSs stderr 997
_ZNK6libcc123compiler_triplet_regexp4findERSs fprintf 1009
_ZNK6libcc123compiler_triplet_regexp4findERSs xregcomp 1033
_ZNK6libcc123compiler_triplet_regexp4findERSs xregerror 1064
_ZNK6libcc123compiler_triplet_regexp4findERSs xregerror 1095
_ZNK6libcc123compiler_triplet_regexp4findERSs concat 1125
_ZNK6libcc123compiler_triplet_regexp4findERSs _ZNSs4_Rep20_S_empty_rep_storageE 1146
_ZNK6libcc123compiler_triplet_regexp4findERSs _ZNSs12_S_constructIPcEES0_T_S1_RKSaIcESt20forward_iterator_tag 1200
_ZNK6libcc123compiler_triplet_regexp4findERSs _ZNSs6assignERKSs 1228
_ZNK6libcc123compiler_triplet_regexp4findERSs _Z13find_compilerRK17re_pattern_bufferPSs 1255
_ZNK6libcc123compiler_triplet_regexp4findERSs xregfree 1271
_ZNK6libcc123compiler_triplet_regexp4findERSs concat 1297
_ZNK6libcc123compiler_triplet_regexp4findERSs xregfree 1307
_ZNK6libcc123compiler_triplet_regexp4findERSs stderr 1331
_ZNK6libcc123compiler_triplet_regexp4findERSs fprintf 1346
_ZNK6libcc123compiler_triplet_regexp4findERSs __pthread_key_create 1358
_ZNK6libcc123compiler_triplet_regexp4findERSs _ZNSs4_Rep10_M_destroyERKSaIcE 1406
_ZNK6libcc123compiler_triplet_regexp4findERSs __pthread_key_create 1423
_ZNK6libcc123compiler_triplet_regexp4findERSs _ZNSs4_Rep10_M_destroyERKSaIcE 1464
_ZNK6libcc123compiler_triplet_regexp4findERSs _ZNSt9basic_iosIcSt11char_traitsIcEE5clearESt12_Ios_Iostate 1499
_ZNK6libcc123compiler_triplet_regexp4findERSs __pthread_key_create 1509
_ZNK6libcc123compiler_triplet_regexp4findERSs _ZNSs4_Rep10_M_destroyERKSaIcE 1546
_ZNK6libcc123compiler_triplet_regexp4findERSs _ZNSs6assignERKSs 1574
_ZNK6libcc123compiler_triplet_regexp4findERSs _ZTTSt18basic_stringstreamIcSt11char_traitsIcESaIcEE 1635
_ZNK6libcc123compiler_triplet_regexp4findERSs _ZTVSt9basic_iosIcSt11char_traitsIcEE 1671
_ZNK6libcc123compiler_triplet_regexp4findERSs _ZNSt8ios_baseD2Ev 1680
_ZNK6libcc123compiler_triplet_regexp4findERSs _Unwind_Resume 1688
_ZNK6libcc123compiler_triplet_regexp4findERSs _ZNSs4_Rep20_S_empty_rep_storageE 1714
_ZNK6libcc123compiler_triplet_regexp4findERSs _ZNSt18basic_stringstreamIcSt11char_traitsIcESaIcEED1Ev 1740
_ZNK6libcc123compiler_triplet_regexp4findERSs _Unwind_Resume 1748
_ZNK6libcc123compiler_triplet_regexp4findERSs _ZTVSt15basic_stringbufIcSt11char_traitsIcESaIcEE 1769
_ZNK6libcc123compiler_triplet_regexp4findERSs _ZNSs4_Rep20_S_empty_rep_storageE 1780
_ZNK6libcc123compiler_triplet_regexp4findERSs _ZTVSt15basic_streambufIcSt11char_traitsIcEE 1800
_ZNK6libcc123compiler_triplet_regexp4findERSs _ZNSt6localeD1Ev 1809
_ZNK6libcc123compiler_triplet_regexp4findERSs _ZTTSt18basic_stringstreamIcSt11char_traitsIcESaIcEE 1821
_ZNK6libcc123compiler_triplet_regexp4findERSs _ZNSdD2Ev 1826
_ZNK6libcc123compiler_triplet_regexp4findERSs _ZNSs4_Rep20_S_empty_rep_storageE 1852
_ZNK6libcc123compiler_triplet_regexp4findERSs __pthread_key_create 1880
_ZNK6libcc123compiler_triplet_regexp4findERSs _ZNSs4_Rep10_M_destroyERKSaIcE 1914
_ZNK6libcc123compiler_triplet_regexp4findERSs _ZNSs4_Rep20_S_empty_rep_storageE 1945
_ZNK6libcc123compiler_triplet_regexp4findERSs _Unwind_Resume 1967
_ZNSs4_Rep10_M_disposeERKSaIcE.part.5 __pthread_key_create 1
_ZNSs4_Rep10_M_disposeERKSaIcE.part.5 _ZNSs4_Rep10_M_destroyERKSaIcE 34
_ZN6libcc18compilerD0Ev _ZdlPv 1
_ZN17libcc1_connectionD1Ev,_ZN17libcc1_connectionD2Ev _ZTV17libcc1_connection 3
_ZN17libcc1_connectionD1Ev,_ZN17libcc1_connectionD2Ev _ZN10cc1_plugin10connectionD2Ev 8
_ZN17libcc1_connectionD0Ev _ZTV17libcc1_connection 7
_ZN17libcc1_connectionD0Ev _ZN10cc1_plugin10connectionD2Ev 12
_ZN17libcc1_connectionD0Ev _ZdlPv 21
_Z3rpcIyXadL_ZN10cc1_plugin1c10build_declEEEPKc17gcc_c_symbol_kindyS3_yS3_jET_P13gcc_c_contextT1_T2_T3_T4_T5_T6_T7_ _ZN10cc1_plugin1c10build_declE 38
_Z3rpcIyXadL_ZN10cc1_plugin1c10build_declEEEPKc17gcc_c_symbol_kindyS3_yS3_jET_P13gcc_c_contextT1_T2_T3_T4_T5_T6_T7_ _ZN10cc1_plugin10connection4sendEc 51
_Z3rpcIyXadL_ZN10cc1_plugin1c10build_declEEEPKc17gcc_c_symbol_kindyS3_yS3_jET_P13gcc_c_contextT1_T2_T3_T4_T5_T6_T7_ _ZN10cc1_plugin8marshallEPNS_10connectionEPKc 87
_Z3rpcIyXadL_ZN10cc1_plugin1c10build_declEEEPKc17gcc_c_symbol_kindyS3_yS3_jET_P13gcc_c_contextT1_T2_T3_T4_T5_T6_T7_ _ZN10cc1_plugin16marshall_intlikeEPNS_10connectionEy 104
_Z3rpcIyXadL_ZN10cc1_plugin1c10build_declEEEPKc17gcc_c_symbol_kindyS3_yS3_jET_P13gcc_c_contextT1_T2_T3_T4_T5_T6_T7_ _ZN10cc1_plugin8marshallEPNS_10connectionEPKc 119
_Z3rpcIyXadL_ZN10cc1_plugin1c10build_declEEEPKc17gcc_c_symbol_kindyS3_yS3_jET_P13gcc_c_contextT1_T2_T3_T4_T5_T6_T7_ _ZN10cc1_plugin16marshall_intlikeEPNS_10connectionEy 134
_Z3rpcIyXadL_ZN10cc1_plugin1c10build_declEEEPKc17gcc_c_symbol_kindyS3_yS3_jET_P13gcc_c_contextT1_T2_T3_T4_T5_T6_T7_ _ZN10cc1_plugin16marshall_intlikeEPNS_10connectionEy 149
_Z3rpcIyXadL_ZN10cc1_plugin1c10build_declEEEPKc17gcc_c_symbol_kindyS3_yS3_jET_P13gcc_c_contextT1_T2_T3_T4_T5_T6_T7_ _ZN10cc1_plugin8marshallEPNS_10connectionEPKc 164
_Z3rpcIyXadL_ZN10cc1_plugin1c10build_declEEEPKc17gcc_c_symbol_kindyS3_yS3_jET_P13gcc_c_contextT1_T2_T3_T4_T5_T6_T7_ _ZN10cc1_plugin16marshall_intlikeEPNS_10connectionEy 181
_Z3rpcIyXadL_ZN10cc1_plugin1c10build_declEEEPKc17gcc_c_symbol_kindyS3_yS3_jET_P13gcc_c_contextT1_T2_T3_T4_T5_T6_T7_ _ZN10cc1_plugin8marshallEPNS_10connectionEPKc 202
_Z3rpcIyXadL_ZN10cc1_plugin1c10build_declEEEPKc17gcc_c_symbol_kindyS3_yS3_jET_P13gcc_c_contextT1_T2_T3_T4_T5_T6_T7_ _ZN10cc1_plugin16marshall_intlikeEPNS_10connectionEy 222
_Z3rpcIyXadL_ZN10cc1_plugin1c10build_declEEEPKc17gcc_c_symbol_kindyS3_yS3_jET_P13gcc_c_contextT1_T2_T3_T4_T5_T6_T7_ _ZN10cc1_plugin10connection7do_waitEb 243
_Z3rpcIyXadL_ZN10cc1_plugin1c10build_declEEEPKc17gcc_c_symbol_kindyS3_yS3_jET_P13gcc_c_contextT1_T2_T3_T4_T5_T6_T7_ _ZN10cc1_plugin18unmarshall_intlikeEPNS_10connectionEPy 264
_Z3rpcIiXadL_ZN10cc1_plugin1c14build_constantEEEyPKcmS3_jET_P13gcc_c_contextT1_T2_T3_T4_T5_ _ZN10cc1_plugin1c14build_constantE 38
_Z3rpcIiXadL_ZN10cc1_plugin1c14build_constantEEEyPKcmS3_jET_P13gcc_c_contextT1_T2_T3_T4_T5_ _ZN10cc1_plugin10connection4sendEc 51
_Z3rpcIiXadL_ZN10cc1_plugin1c14build_constantEEEyPKcmS3_jET_P13gcc_c_contextT1_T2_T3_T4_T5_ _ZN10cc1_plugin8marshallEPNS_10connectionEPKc 87
_Z3rpcIiXadL_ZN10cc1_plugin1c14build_constantEEEyPKcmS3_jET_P13gcc_c_contextT1_T2_T3_T4_T5_ _ZN10cc1_plugin16marshall_intlikeEPNS_10connectionEy 104
_Z3rpcIiXadL_ZN10cc1_plugin1c14build_constantEEEyPKcmS3_jET_P13gcc_c_contextT1_T2_T3_T4_T5_ _ZN10cc1_plugin16marshall_intlikeEPNS_10connectionEy 119
_Z3rpcIiXadL_ZN10cc1_plugin1c14build_constantEEEyPKcmS3_jET_P13gcc_c_contextT1_T2_T3_T4_T5_ _ZN10cc1_plugin8marshallEPNS_10connectionEPKc 134
_Z3rpcIiXadL_ZN10cc1_plugin1c14build_constantEEEyPKcmS3_jET_P13gcc_c_contextT1_T2_T3_T4_T5_ _ZN10cc1_plugin16marshall_intlikeEPNS_10connectionEy 149
_Z3rpcIiXadL_ZN10cc1_plugin1c14build_constantEEEyPKcmS3_jET_P13gcc_c_contextT1_T2_T3_T4_T5_ _ZN10cc1_plugin8marshallEPNS_10connectionEPKc 164
_Z3rpcIiXadL_ZN10cc1_plugin1c14build_constantEEEyPKcmS3_jET_P13gcc_c_contextT1_T2_T3_T4_T5_ _ZN10cc1_plugin16marshall_intlikeEPNS_10connectionEy 180
_Z3rpcIiXadL_ZN10cc1_plugin1c14build_constantEEEyPKcmS3_jET_P13gcc_c_contextT1_T2_T3_T4_T5_ _ZN10cc1_plugin10connection7do_waitEb 201
_Z3rpcIiXadL_ZN10cc1_plugin1c14build_constantEEEyPKcmS3_jET_P13gcc_c_contextT1_T2_T3_T4_T5_ _ZN10cc1_plugin18unmarshall_intlikeEPNS_10connectionEPy 222
_Z3rpcIiXadL_ZN10cc1_plugin1c15build_add_fieldEEEyPKcymmET_P13gcc_c_contextT1_T2_T3_T4_T5_ _ZN10cc1_plugin1c15build_add_fieldE 38
_Z3rpcIiXadL_ZN10cc1_plugin1c15build_add_fieldEEEyPKcymmET_P13gcc_c_contextT1_T2_T3_T4_T5_ _ZN10cc1_plugin10connection4sendEc 51
_Z3rpcIiXadL_ZN10cc1_plugin1c15build_add_fieldEEEyPKcymmET_P13gcc_c_contextT1_T2_T3_T4_T5_ _ZN10cc1_plugin8marshallEPNS_10connectionEPKc 87
_Z3rpcIiXadL_ZN10cc1_plugin1c15build_add_fieldEEEyPKcymmET_P13gcc_c_contextT1_T2_T3_T4_T5_ _ZN10cc1_plugin16marshall_intlikeEPNS_10connectionEy 104
_Z3rpcIiXadL_ZN10cc1_plugin1c15build_add_fieldEEEyPKcymmET_P13gcc_c_contextT1_T2_T3_T4_T5_ _ZN10cc1_plugin16marshall_intlikeEPNS_10connectionEy 119
_Z3rpcIiXadL_ZN10cc1_plugin1c15build_add_fieldEEEyPKcymmET_P13gcc_c_contextT1_T2_T3_T4_T5_ _ZN10cc1_plugin8marshallEPNS_10connectionEPKc 134
_Z3rpcIiXadL_ZN10cc1_plugin1c15build_add_fieldEEEyPKcymmET_P13gcc_c_contextT1_T2_T3_T4_T5_ _ZN10cc1_plugin16marshall_intlikeEPNS_10connectionEy 149
_Z3rpcIiXadL_ZN10cc1_plugin1c15build_add_fieldEEEyPKcymmET_P13gcc_c_contextT1_T2_T3_T4_T5_ _ZN10cc1_plugin16marshall_intlikeEPNS_10connectionEy 164
_Z3rpcIiXadL_ZN10cc1_plugin1c15build_add_fieldEEEyPKcymmET_P13gcc_c_contextT1_T2_T3_T4_T5_ _ZN10cc1_plugin16marshall_intlikeEPNS_10connectionEy 181
_Z3rpcIiXadL_ZN10cc1_plugin1c15build_add_fieldEEEyPKcymmET_P13gcc_c_contextT1_T2_T3_T4_T5_ _ZN10cc1_plugin10connection7do_waitEb 202
_Z3rpcIiXadL_ZN10cc1_plugin1c15build_add_fieldEEEyPKcymmET_P13gcc_c_contextT1_T2_T3_T4_T5_ _ZN10cc1_plugin18unmarshall_intlikeEPNS_10connectionEPy 223
_Z3rpcIiXadL_ZN10cc1_plugin1c7tagbindEEEPKcyS3_jET_P13gcc_c_contextT1_T2_T3_T4_ _ZN10cc1_plugin1c7tagbindE 38
_Z3rpcIiXadL_ZN10cc1_plugin1c7tagbindEEEPKcyS3_jET_P13gcc_c_contextT1_T2_T3_T4_ _ZN10cc1_plugin10connection4sendEc 46
_Z3rpcIiXadL_ZN10cc1_plugin1c7tagbindEEEPKcyS3_jET_P13gcc_c_contextT1_T2_T3_T4_ _ZN10cc1_plugin8marshallEPNS_10connectionEPKc 87
_Z3rpcIiXadL_ZN10cc1_plugin1c7tagbindEEEPKcyS3_jET_P13gcc_c_contextT1_T2_T3_T4_ _ZN10cc1_plugin16marshall_intlikeEPNS_10connectionEy 104
_Z3rpcIiXadL_ZN10cc1_plugin1c7tagbindEEEPKcyS3_jET_P13gcc_c_contextT1_T2_T3_T4_ _ZN10cc1_plugin8marshallEPNS_10connectionEPKc 119
_Z3rpcIiXadL_ZN10cc1_plugin1c7tagbindEEEPKcyS3_jET_P13gcc_c_contextT1_T2_T3_T4_ _ZN10cc1_plugin16marshall_intlikeEPNS_10connectionEy 134
_Z3rpcIiXadL_ZN10cc1_plugin1c7tagbindEEEPKcyS3_jET_P13gcc_c_contextT1_T2_T3_T4_ _ZN10cc1_plugin8marshallEPNS_10connectionEPKc 149
_Z3rpcIiXadL_ZN10cc1_plugin1c7tagbindEEEPKcyS3_jET_P13gcc_c_contextT1_T2_T3_T4_ _ZN10cc1_plugin16marshall_intlikeEPNS_10connectionEy 164
_Z3rpcIiXadL_ZN10cc1_plugin1c7tagbindEEEPKcyS3_jET_P13gcc_c_contextT1_T2_T3_T4_ _ZN10cc1_plugin10connection7do_waitEb 181
_Z3rpcIiXadL_ZN10cc1_plugin1c7tagbindEEEPKcyS3_jET_P13gcc_c_contextT1_T2_T3_T4_ _ZN10cc1_plugin18unmarshall_intlikeEPNS_10connectionEPy 202
_Z3rpcIyXadL_ZN10cc1_plugin1c19build_function_typeEEEyPK14gcc_type_arrayiET_P13gcc_c_contextT1_T2_T3_ _ZN10cc1_plugin1c19build_function_typeE 33
_Z3rpcIyXadL_ZN10cc1_plugin1c19build_function_typeEEEyPK14gcc_type_arrayiET_P13gcc_c_contextT1_T2_T3_ _ZN10cc1_plugin10connection4sendEc 41
_Z3rpcIyXadL_ZN10cc1_plugin1c19build_function_typeEEEyPK14gcc_type_arrayiET_P13gcc_c_contextT1_T2_T3_ _ZN10cc1_plugin8marshallEPNS_10connectionEPKc 71
_Z3rpcIyXadL_ZN10cc1_plugin1c19build_function_typeEEEyPK14gcc_type_arrayiET_P13gcc_c_contextT1_T2_T3_ _ZN10cc1_plugin16marshall_intlikeEPNS_10connectionEy 88
_Z3rpcIyXadL_ZN10cc1_plugin1c19build_function_typeEEEyPK14gcc_type_arrayiET_P13gcc_c_contextT1_T2_T3_ _ZN10cc1_plugin16marshall_intlikeEPNS_10connectionEy 103
_Z3rpcIyXadL_ZN10cc1_plugin1c19build_function_typeEEEyPK14gcc_type_arrayiET_P13gcc_c_contextT1_T2_T3_ _ZN10cc1_plugin8marshallEPNS_10connectionEPK14gcc_type_array 118
_Z3rpcIyXadL_ZN10cc1_plugin1c19build_function_typeEEEyPK14gcc_type_arrayiET_P13gcc_c_contextT1_T2_T3_ _ZN10cc1_plugin16marshall_intlikeEPNS_10connectionEy 133
_Z3rpcIyXadL_ZN10cc1_plugin1c19build_function_typeEEEyPK14gcc_type_arrayiET_P13gcc_c_contextT1_T2_T3_ _ZN10cc1_plugin10connection7do_waitEb 150
_Z3rpcIyXadL_ZN10cc1_plugin1c19build_function_typeEEEyPK14gcc_type_arrayiET_P13gcc_c_contextT1_T2_T3_ _ZN10cc1_plugin18unmarshall_intlikeEPNS_10connectionEPy 167
_Z3rpcIyXadL_ZN10cc1_plugin1c8int_typeEEEimPKcET_P13gcc_c_contextT1_T2_T3_ _ZN10cc1_plugin1c8int_typeE 33
_Z3rpcIyXadL_ZN10cc1_plugin1c8int_typeEEEimPKcET_P13gcc_c_contextT1_T2_T3_ _ZN10cc1_plugin10connection4sendEc 41
_Z3rpcIyXadL_ZN10cc1_plugin1c8int_typeEEEimPKcET_P13gcc_c_contextT1_T2_T3_ _ZN10cc1_plugin8marshallEPNS_10connectionEPKc 71
_Z3rpcIyXadL_ZN10cc1_plugin1c8int_typeEEEimPKcET_P13gcc_c_contextT1_T2_T3_ _ZN10cc1_plugin16marshall_intlikeEPNS_10connectionEy 88
_Z3rpcIyXadL_ZN10cc1_plugin1c8int_typeEEEimPKcET_P13gcc_c_contextT1_T2_T3_ _ZN10cc1_plugin16marshall_intlikeEPNS_10connectionEy 103
_Z3rpcIyXadL_ZN10cc1_plugin1c8int_typeEEEimPKcET_P13gcc_c_contextT1_T2_T3_ _ZN10cc1_plugin16marshall_intlikeEPNS_10connectionEy 118
_Z3rpcIyXadL_ZN10cc1_plugin1c8int_typeEEEimPKcET_P13gcc_c_contextT1_T2_T3_ _ZN10cc1_plugin8marshallEPNS_10connectionEPKc 133
_Z3rpcIyXadL_ZN10cc1_plugin1c8int_typeEEEimPKcET_P13gcc_c_contextT1_T2_T3_ _ZN10cc1_plugin10connection7do_waitEb 150
_Z3rpcIyXadL_ZN10cc1_plugin1c8int_typeEEEimPKcET_P13gcc_c_contextT1_T2_T3_ _ZN10cc1_plugin18unmarshall_intlikeEPNS_10connectionEPy 167
_Z3rpcIiXadL_ZN10cc1_plugin1c23build_add_enum_constantEEEyPKcmET_P13gcc_c_contextT1_T2_T3_ _ZN10cc1_plugin1c23build_add_enum_constantE 33
_Z3rpcIiXadL_ZN10cc1_plugin1c23build_add_enum_constantEEEyPKcmET_P13gcc_c_contextT1_T2_T3_ _ZN10cc1_plugin10connection4sendEc 41
_Z3rpcIiXadL_ZN10cc1_plugin1c23build_add_enum_constantEEEyPKcmET_P13gcc_c_contextT1_T2_T3_ _ZN10cc1_plugin8marshallEPNS_10connectionEPKc 71
_Z3rpcIiXadL_ZN10cc1_plugin1c23build_add_enum_constantEEEyPKcmET_P13gcc_c_contextT1_T2_T3_ _ZN10cc1_plugin16marshall_intlikeEPNS_10connectionEy 88
_Z3rpcIiXadL_ZN10cc1_plugin1c23build_add_enum_constantEEEyPKcmET_P13gcc_c_contextT1_T2_T3_ _ZN10cc1_plugin16marshall_intlikeEPNS_10connectionEy 103
_Z3rpcIiXadL_ZN10cc1_plugin1c23build_add_enum_constantEEEyPKcmET_P13gcc_c_contextT1_T2_T3_ _ZN10cc1_plugin8marshallEPNS_10connectionEPKc 118
_Z3rpcIiXadL_ZN10cc1_plugin1c23build_add_enum_constantEEEyPKcmET_P13gcc_c_contextT1_T2_T3_ _ZN10cc1_plugin16marshall_intlikeEPNS_10connectionEy 133
_Z3rpcIiXadL_ZN10cc1_plugin1c23build_add_enum_constantEEEyPKcmET_P13gcc_c_contextT1_T2_T3_ _ZN10cc1_plugin10connection7do_waitEb 150
_Z3rpcIiXadL_ZN10cc1_plugin1c23build_add_enum_constantEEEyPKcmET_P13gcc_c_contextT1_T2_T3_ _ZN10cc1_plugin18unmarshall_intlikeEPNS_10connectionEPy 167
_Z3rpcIyXadL_ZN10cc1_plugin1c20build_vla_array_typeEEEyPKcET_P13gcc_c_contextT1_T2_ _ZN10cc1_plugin1c20build_vla_array_typeE 28
_Z3rpcIyXadL_ZN10cc1_plugin1c20build_vla_array_typeEEEyPKcET_P13gcc_c_contextT1_T2_ _ZN10cc1_plugin10connection4sendEc 36
_Z3rpcIyXadL_ZN10cc1_plugin1c20build_vla_array_typeEEEyPKcET_P13gcc_c_contextT1_T2_ _ZN10cc1_plugin8marshallEPNS_10connectionEPKc 71
_Z3rpcIyXadL_ZN10cc1_plugin1c20build_vla_array_typeEEEyPKcET_P13gcc_c_contextT1_T2_ _ZN10cc1_plugin16marshall_intlikeEPNS_10connectionEy 88
_Z3rpcIyXadL_ZN10cc1_plugin1c20build_vla_array_typeEEEyPKcET_P13gcc_c_contextT1_T2_ _ZN10cc1_plugin16marshall_intlikeEPNS_10connectionEy 103
_Z3rpcIyXadL_ZN10cc1_plugin1c20build_vla_array_typeEEEyPKcET_P13gcc_c_contextT1_T2_ _ZN10cc1_plugin8marshallEPNS_10connectionEPKc 118
_Z3rpcIyXadL_ZN10cc1_plugin1c20build_vla_array_typeEEEyPKcET_P13gcc_c_contextT1_T2_ _ZN10cc1_plugin10connection7do_waitEb 135
_Z3rpcIyXadL_ZN10cc1_plugin1c20build_vla_array_typeEEEyPKcET_P13gcc_c_contextT1_T2_ _ZN10cc1_plugin18unmarshall_intlikeEPNS_10connectionEPy 152
_Z3rpcIyXadL_ZN10cc1_plugin1c20build_qualified_typeEEEy14gcc_qualifiersET_P13gcc_c_contextT1_T2_ _ZN10cc1_plugin1c20build_qualified_typeE 28
_Z3rpcIyXadL_ZN10cc1_plugin1c20build_qualified_typeEEEy14gcc_qualifiersET_P13gcc_c_contextT1_T2_ _ZN10cc1_plugin10connection4sendEc 36
_Z3rpcIyXadL_ZN10cc1_plugin1c20build_qualified_typeEEEy14gcc_qualifiersET_P13gcc_c_contextT1_T2_ _ZN10cc1_plugin8marshallEPNS_10connectionEPKc 71
_Z3rpcIyXadL_ZN10cc1_plugin1c20build_qualified_typeEEEy14gcc_qualifiersET_P13gcc_c_contextT1_T2_ _ZN10cc1_plugin16marshall_intlikeEPNS_10connectionEy 88
_Z3rpcIyXadL_ZN10cc1_plugin1c20build_qualified_typeEEEy14gcc_qualifiersET_P13gcc_c_contextT1_T2_ _ZN10cc1_plugin16marshall_intlikeEPNS_10connectionEy 103
_Z3rpcIyXadL_ZN10cc1_plugin1c20build_qualified_typeEEEy14gcc_qualifiersET_P13gcc_c_contextT1_T2_ _ZN10cc1_plugin16marshall_intlikeEPNS_10connectionEy 118
_Z3rpcIyXadL_ZN10cc1_plugin1c20build_qualified_typeEEEy14gcc_qualifiersET_P13gcc_c_contextT1_T2_ _ZN10cc1_plugin10connection7do_waitEb 135
_Z3rpcIyXadL_ZN10cc1_plugin1c20build_qualified_typeEEEy14gcc_qualifiersET_P13gcc_c_contextT1_T2_ _ZN10cc1_plugin18unmarshall_intlikeEPNS_10connectionEPy 152
_Z3rpcIyXadL_ZN10cc1_plugin1c11int_type_v0EEEimET_P13gcc_c_contextT1_T2_ _ZN10cc1_plugin1c11int_type_v0E 28
_Z3rpcIyXadL_ZN10cc1_plugin1c11int_type_v0EEEimET_P13gcc_c_contextT1_T2_ _ZN10cc1_plugin10connection4sendEc 36
_Z3rpcIyXadL_ZN10cc1_plugin1c11int_type_v0EEEimET_P13gcc_c_contextT1_T2_ _ZN10cc1_plugin8marshallEPNS_10connectionEPKc 71
_Z3rpcIyXadL_ZN10cc1_plugin1c11int_type_v0EEEimET_P13gcc_c_contextT1_T2_ _ZN10cc1_plugin16marshall_intlikeEPNS_10connectionEy 88
_Z3rpcIyXadL_ZN10cc1_plugin1c11int_type_v0EEEimET_P13gcc_c_contextT1_T2_ _ZN10cc1_plugin16marshall_intlikeEPNS_10connectionEy 103
_Z3rpcIyXadL_ZN10cc1_plugin1c11int_type_v0EEEimET_P13gcc_c_contextT1_T2_ _ZN10cc1_plugin16marshall_intlikeEPNS_10connectionEy 118
_Z3rpcIyXadL_ZN10cc1_plugin1c11int_type_v0EEEimET_P13gcc_c_contextT1_T2_ _ZN10cc1_plugin10connection7do_waitEb 135
_Z3rpcIyXadL_ZN10cc1_plugin1c11int_type_v0EEEimET_P13gcc_c_contextT1_T2_ _ZN10cc1_plugin18unmarshall_intlikeEPNS_10connectionEPy 152
_Z3rpcIyXadL_ZN10cc1_plugin1c10float_typeEEEmPKcET_P13gcc_c_contextT1_T2_ _ZN10cc1_plugin1c10float_typeE 28
_Z3rpcIyXadL_ZN10cc1_plugin1c10float_typeEEEmPKcET_P13gcc_c_contextT1_T2_ _ZN10cc1_plugin10connection4sendEc 36
_Z3rpcIyXadL_ZN10cc1_plugin1c10float_typeEEEmPKcET_P13gcc_c_contextT1_T2_ _ZN10cc1_plugin8marshallEPNS_10connectionEPKc 71
_Z3rpcIyXadL_ZN10cc1_plugin1c10float_typeEEEmPKcET_P13gcc_c_contextT1_T2_ _ZN10cc1_plugin16marshall_intlikeEPNS_10connectionEy 88
_Z3rpcIyXadL_ZN10cc1_plugin1c10float_typeEEEmPKcET_P13gcc_c_contextT1_T2_ _ZN10cc1_plugin16marshall_intlikeEPNS_10connectionEy 103
_Z3rpcIyXadL_ZN10cc1_plugin1c10float_typeEEEmPKcET_P13gcc_c_contextT1_T2_ _ZN10cc1_plugin8marshallEPNS_10connectionEPKc 118
_Z3rpcIyXadL_ZN10cc1_plugin1c10float_typeEEEmPKcET_P13gcc_c_contextT1_T2_ _ZN10cc1_plugin10connection7do_waitEb 135
_Z3rpcIyXadL_ZN10cc1_plugin1c10float_typeEEEmPKcET_P13gcc_c_contextT1_T2_ _ZN10cc1_plugin18unmarshall_intlikeEPNS_10connectionEPy 152
_Z3rpcIiXadL_ZN10cc1_plugin1c4bindEEEyiET_P13gcc_c_contextT1_T2_ _ZN10cc1_plugin1c4bindE 28
_Z3rpcIiXadL_ZN10cc1_plugin1c4bindEEEyiET_P13gcc_c_contextT1_T2_ _ZN10cc1_plugin10connection4sendEc 36
_Z3rpcIiXadL_ZN10cc1_plugin1c4bindEEEyiET_P13gcc_c_contextT1_T2_ _ZN10cc1_plugin8marshallEPNS_10connectionEPKc 71
_Z3rpcIiXadL_ZN10cc1_plugin1c4bindEEEyiET_P13gcc_c_contextT1_T2_ _ZN10cc1_plugin16marshall_intlikeEPNS_10connectionEy 88
_Z3rpcIiXadL_ZN10cc1_plugin1c4bindEEEyiET_P13gcc_c_contextT1_T2_ _ZN10cc1_plugin16marshall_intlikeEPNS_10connectionEy 103
_Z3rpcIiXadL_ZN10cc1_plugin1c4bindEEEyiET_P13gcc_c_contextT1_T2_ _ZN10cc1_plugin16marshall_intlikeEPNS_10connectionEy 118
_Z3rpcIiXadL_ZN10cc1_plugin1c4bindEEEyiET_P13gcc_c_contextT1_T2_ _ZN10cc1_plugin10connection7do_waitEb 135
_Z3rpcIiXadL_ZN10cc1_plugin1c4bindEEEyiET_P13gcc_c_contextT1_T2_ _ZN10cc1_plugin18unmarshall_intlikeEPNS_10connectionEPy 152
_Z3rpcIiXadL_ZN10cc1_plugin1c22finish_record_or_unionEEEymET_P13gcc_c_contextT1_T2_ _ZN10cc1_plugin1c22finish_record_or_unionE 28
_Z3rpcIiXadL_ZN10cc1_plugin1c22finish_record_or_unionEEEymET_P13gcc_c_contextT1_T2_ _ZN10cc1_plugin10connection4sendEc 36
_Z3rpcIiXadL_ZN10cc1_plugin1c22finish_record_or_unionEEEymET_P13gcc_c_contextT1_T2_ _ZN10cc1_plugin8marshallEPNS_10connectionEPKc 71
_Z3rpcIiXadL_ZN10cc1_plugin1c22finish_record_or_unionEEEymET_P13gcc_c_contextT1_T2_ _ZN10cc1_plugin16marshall_intlikeEPNS_10connectionEy 88
_Z3rpcIiXadL_ZN10cc1_plugin1c22finish_record_or_unionEEEymET_P13gcc_c_contextT1_T2_ _ZN10cc1_plugin16marshall_intlikeEPNS_10connectionEy 103
_Z3rpcIiXadL_ZN10cc1_plugin1c22finish_record_or_unionEEEymET_P13gcc_c_contextT1_T2_ _ZN10cc1_plugin16marshall_intlikeEPNS_10connectionEy 118
_Z3rpcIiXadL_ZN10cc1_plugin1c22finish_record_or_unionEEEymET_P13gcc_c_contextT1_T2_ _ZN10cc1_plugin10connection7do_waitEb 135
_Z3rpcIiXadL_ZN10cc1_plugin1c22finish_record_or_unionEEEymET_P13gcc_c_contextT1_T2_ _ZN10cc1_plugin18unmarshall_intlikeEPNS_10connectionEPy 152
_Z3rpcIyXadL_ZN10cc1_plugin1c5errorEEEPKcET_P13gcc_c_contextT1_ _ZN10cc1_plugin1c5errorE 23
_Z3rpcIyXadL_ZN10cc1_plugin1c5errorEEEPKcET_P13gcc_c_contextT1_ _ZN10cc1_plugin10connection4sendEc 31
_Z3rpcIyXadL_ZN10cc1_plugin1c5errorEEEPKcET_P13gcc_c_contextT1_ _ZN10cc1_plugin8marshallEPNS_10connectionEPKc 63
_Z3rpcIyXadL_ZN10cc1_plugin1c5errorEEEPKcET_P13gcc_c_contextT1_ _ZN10cc1_plugin16marshall_intlikeEPNS_10connectionEy 80
_Z3rpcIyXadL_ZN10cc1_plugin1c5errorEEEPKcET_P13gcc_c_contextT1_ _ZN10cc1_plugin8marshallEPNS_10connectionEPKc 95
_Z3rpcIyXadL_ZN10cc1_plugin1c5errorEEEPKcET_P13gcc_c_contextT1_ _ZN10cc1_plugin10connection7do_waitEb 112
_Z3rpcIyXadL_ZN10cc1_plugin1c5errorEEEPKcET_P13gcc_c_contextT1_ _ZN10cc1_plugin18unmarshall_intlikeEPNS_10connectionEPy 129
_ZN6libcc123compiler_triplet_regexpD1Ev,_ZN6libcc123compiler_triplet_regexpD2Ev _ZTVN6libcc123compiler_triplet_regexpE 7
_ZN6libcc123compiler_triplet_regexpD1Ev,_ZN6libcc123compiler_triplet_regexpD2Ev _ZNSs4_Rep20_S_empty_rep_storageE 18
_ZN6libcc123compiler_triplet_regexpD1Ev,_ZN6libcc123compiler_triplet_regexpD2Ev __pthread_key_create 33
_ZN6libcc123compiler_triplet_regexpD1Ev,_ZN6libcc123compiler_triplet_regexpD2Ev _ZNSs4_Rep10_M_destroyERKSaIcE 68
_ZN6libcc124compiler_driver_filenameD1Ev,_ZN6libcc124compiler_driver_filenameD2Ev _ZTVN6libcc124compiler_driver_filenameE 7
_ZN6libcc124compiler_driver_filenameD1Ev,_ZN6libcc124compiler_driver_filenameD2Ev _ZNSs4_Rep20_S_empty_rep_storageE 18
_ZN6libcc124compiler_driver_filenameD1Ev,_ZN6libcc124compiler_driver_filenameD2Ev __pthread_key_create 33
_ZN6libcc124compiler_driver_filenameD1Ev,_ZN6libcc124compiler_driver_filenameD2Ev _ZNSs4_Rep10_M_destroyERKSaIcE 68
_ZN6libcc124compiler_driver_filenameD0Ev _ZTVN6libcc124compiler_driver_filenameE 15
_ZN6libcc124compiler_driver_filenameD0Ev _ZNSs4_Rep20_S_empty_rep_storageE 26
_ZN6libcc124compiler_driver_filenameD0Ev _ZdlPv 36
_ZN6libcc124compiler_driver_filenameD0Ev __pthread_key_create 49
_ZN6libcc124compiler_driver_filenameD0Ev _ZNSs4_Rep10_M_destroyERKSaIcE 80
_ZN6libcc123compiler_triplet_regexpD0Ev _ZTVN6libcc123compiler_triplet_regexpE 15
_ZN6libcc123compiler_triplet_regexpD0Ev _ZNSs4_Rep20_S_empty_rep_storageE 26
_ZN6libcc123compiler_triplet_regexpD0Ev _ZdlPv 36
_ZN6libcc123compiler_triplet_regexpD0Ev __pthread_key_create 49
_ZN6libcc123compiler_triplet_regexpD0Ev _ZNSs4_Rep10_M_destroyERKSaIcE 80
_Z3rpcIiXadL_ZN10cc1_plugin1c16finish_enum_typeEEEyET_P13gcc_c_contextT1_ _ZN10cc1_plugin1c16finish_enum_typeE 23
_Z3rpcIiXadL_ZN10cc1_plugin1c16finish_enum_typeEEEyET_P13gcc_c_contextT1_ _ZN10cc1_plugin10connection4sendEc 31
_Z3rpcIiXadL_ZN10cc1_plugin1c16finish_enum_typeEEEyET_P13gcc_c_contextT1_ _ZN10cc1_plugin8marshallEPNS_10connectionEPKc 63
_Z3rpcIiXadL_ZN10cc1_plugin1c16finish_enum_typeEEEyET_P13gcc_c_contextT1_ _ZN10cc1_plugin16marshall_intlikeEPNS_10connectionEy 80
_Z3rpcIiXadL_ZN10cc1_plugin1c16finish_enum_typeEEEyET_P13gcc_c_contextT1_ _ZN10cc1_plugin16marshall_intlikeEPNS_10connectionEy 95
_Z3rpcIiXadL_ZN10cc1_plugin1c16finish_enum_typeEEEyET_P13gcc_c_contextT1_ _ZN10cc1_plugin10connection7do_waitEb 112
_Z3rpcIiXadL_ZN10cc1_plugin1c16finish_enum_typeEEEyET_P13gcc_c_contextT1_ _ZN10cc1_plugin18unmarshall_intlikeEPNS_10connectionEPy 129
_Z3rpcIyXadL_ZN10cc1_plugin1c13float_type_v0EEEmET_P13gcc_c_contextT1_ _ZN10cc1_plugin1c13float_type_v0E 23
_Z3rpcIyXadL_ZN10cc1_plugin1c13float_type_v0EEEmET_P13gcc_c_contextT1_ _ZN10cc1_plugin10connection4sendEc 31
_Z3rpcIyXadL_ZN10cc1_plugin1c13float_type_v0EEEmET_P13gcc_c_contextT1_ _ZN10cc1_plugin8marshallEPNS_10connectionEPKc 63
_Z3rpcIyXadL_ZN10cc1_plugin1c13float_type_v0EEEmET_P13gcc_c_contextT1_ _ZN10cc1_plugin16marshall_intlikeEPNS_10connectionEy 80
_Z3rpcIyXadL_ZN10cc1_plugin1c13float_type_v0EEEmET_P13gcc_c_contextT1_ _ZN10cc1_plugin16marshall_intlikeEPNS_10connectionEy 95
_Z3rpcIyXadL_ZN10cc1_plugin1c13float_type_v0EEEmET_P13gcc_c_contextT1_ _ZN10cc1_plugin10connection7do_waitEb 112
_Z3rpcIyXadL_ZN10cc1_plugin1c13float_type_v0EEEmET_P13gcc_c_contextT1_ _ZN10cc1_plugin18unmarshall_intlikeEPNS_10connectionEPy 129
_ZNSt6vectorISsSaISsEED1Ev,_ZNSt6vectorISsSaISsEED2Ev _ZNSs4_Rep20_S_empty_rep_storageE 51
_ZNSt6vectorISsSaISsEED1Ev,_ZNSt6vectorISsSaISsEED2Ev __pthread_key_create 58
_ZNSt6vectorISsSaISsEED1Ev,_ZNSt6vectorISsSaISsEED2Ev _ZNSs4_Rep10_M_destroyERKSaIcE 93
_ZNSt6vectorISsSaISsEED1Ev,_ZNSt6vectorISsSaISsEED2Ev _ZdlPv 125
_ZN10cc1_plugin4callIyyEENS_6statusEPNS_10connectionEPKcPT_T0_ _ZN10cc1_plugin10connection4sendEc 28
_ZN10cc1_plugin4callIyyEENS_6statusEPNS_10connectionEPKcPT_T0_ _ZN10cc1_plugin8marshallEPNS_10connectionEPKc 63
_ZN10cc1_plugin4callIyyEENS_6statusEPNS_10connectionEPKcPT_T0_ _ZN10cc1_plugin16marshall_intlikeEPNS_10connectionEy 80
_ZN10cc1_plugin4callIyyEENS_6statusEPNS_10connectionEPKcPT_T0_ _ZN10cc1_plugin16marshall_intlikeEPNS_10connectionEy 95
_ZN10cc1_plugin4callIyyEENS_6statusEPNS_10connectionEPKcPT_T0_ _ZN10cc1_plugin10connection7do_waitEb 112
_ZN10cc1_plugin4callIyyEENS_6statusEPNS_10connectionEPKcPT_T0_ _ZN10cc1_plugin18unmarshall_intlikeEPNS_10connectionEPy 129
_Z3rpcIyXadL_ZN10cc1_plugin1c18build_complex_typeEEEyET_P13gcc_c_contextT1_ _ZN10cc1_plugin1c18build_complex_typeE 14
_Z3rpcIyXadL_ZN10cc1_plugin1c18build_complex_typeEEEyET_P13gcc_c_contextT1_ _ZN10cc1_plugin4callIyyEENS_6statusEPNS_10connectionEPKcPT_T0_ 24
_Z3rpcIyXadL_ZN10cc1_plugin1c15build_enum_typeEEEyET_P13gcc_c_contextT1_ _ZN10cc1_plugin1c15build_enum_typeE 14
_Z3rpcIyXadL_ZN10cc1_plugin1c15build_enum_typeEEEyET_P13gcc_c_contextT1_ _ZN10cc1_plugin4callIyyEENS_6statusEPNS_10connectionEPKcPT_T0_ 24
_Z3rpcIyXadL_ZN10cc1_plugin1c18build_pointer_typeEEEyET_P13gcc_c_contextT1_ _ZN10cc1_plugin1c18build_pointer_typeE 14
_Z3rpcIyXadL_ZN10cc1_plugin1c18build_pointer_typeEEEyET_P13gcc_c_contextT1_ _ZN10cc1_plugin4callIyyEENS_6statusEPNS_10connectionEPKcPT_T0_ 24
_ZN10cc1_plugin4callIyEENS_6statusEPNS_10connectionEPKcPT_ _ZN10cc1_plugin10connection4sendEc 23
_ZN10cc1_plugin4callIyEENS_6statusEPNS_10connectionEPKcPT_ _ZN10cc1_plugin8marshallEPNS_10connectionEPKc 55
_ZN10cc1_plugin4callIyEENS_6statusEPNS_10connectionEPKcPT_ _ZN10cc1_plugin16marshall_intlikeEPNS_10connectionEy 69
_ZN10cc1_plugin4callIyEENS_6statusEPNS_10connectionEPKcPT_ _ZN10cc1_plugin10connection7do_waitEb 86
_ZN10cc1_plugin4callIyEENS_6statusEPNS_10connectionEPKcPT_ _ZN10cc1_plugin18unmarshall_intlikeEPNS_10connectionEPy 103
_Z3rpcIyXadL_ZN10cc1_plugin1c9char_typeEEEET_P13gcc_c_context _ZN10cc1_plugin1c9char_typeE 11
_Z3rpcIyXadL_ZN10cc1_plugin1c9char_typeEEEET_P13gcc_c_context _ZN10cc1_plugin4callIyEENS_6statusEPNS_10connectionEPKcPT_ 21
_Z3rpcIyXadL_ZN10cc1_plugin1c9bool_typeEEEET_P13gcc_c_context _ZN10cc1_plugin1c9bool_typeE 11
_Z3rpcIyXadL_ZN10cc1_plugin1c9bool_typeEEEET_P13gcc_c_context _ZN10cc1_plugin4callIyEENS_6statusEPNS_10connectionEPKcPT_ 21
_Z3rpcIyXadL_ZN10cc1_plugin1c9void_typeEEEET_P13gcc_c_context _ZN10cc1_plugin1c9void_typeE 11
_Z3rpcIyXadL_ZN10cc1_plugin1c9void_typeEEEET_P13gcc_c_context _ZN10cc1_plugin4callIyEENS_6statusEPNS_10connectionEPKcPT_ 21
_Z3rpcIyXadL_ZN10cc1_plugin1c16build_union_typeEEEET_P13gcc_c_context _ZN10cc1_plugin1c16build_union_typeE 11
_Z3rpcIyXadL_ZN10cc1_plugin1c16build_union_typeEEEET_P13gcc_c_context _ZN10cc1_plugin4callIyEENS_6statusEPNS_10connectionEPKcPT_ 21
_Z3rpcIyXadL_ZN10cc1_plugin1c17build_record_typeEEEET_P13gcc_c_context _ZN10cc1_plugin1c17build_record_typeE 11
_Z3rpcIyXadL_ZN10cc1_plugin1c17build_record_typeEEEET_P13gcc_c_context _ZN10cc1_plugin4callIyEENS_6statusEPNS_10connectionEPKcPT_ 21
_ZN10cc1_plugin4callIyyiEENS_6statusEPNS_10connectionEPKcPT_T0_T1_ _ZN10cc1_plugin10connection4sendEc 33
_ZN10cc1_plugin4callIyyiEENS_6statusEPNS_10connectionEPKcPT_T0_T1_ _ZN10cc1_plugin8marshallEPNS_10connectionEPKc 71
_ZN10cc1_plugin4callIyyiEENS_6statusEPNS_10connectionEPKcPT_T0_T1_ _ZN10cc1_plugin16marshall_intlikeEPNS_10connectionEy 88
_ZN10cc1_plugin4callIyyiEENS_6statusEPNS_10connectionEPKcPT_T0_T1_ _ZN10cc1_plugin16marshall_intlikeEPNS_10connectionEy 103
_ZN10cc1_plugin4callIyyiEENS_6statusEPNS_10connectionEPKcPT_T0_T1_ _ZN10cc1_plugin16marshall_intlikeEPNS_10connectionEy 118
_ZN10cc1_plugin4callIyyiEENS_6statusEPNS_10connectionEPKcPT_T0_T1_ _ZN10cc1_plugin10connection7do_waitEb 135
_ZN10cc1_plugin4callIyyiEENS_6statusEPNS_10connectionEPKcPT_T0_T1_ _ZN10cc1_plugin18unmarshall_intlikeEPNS_10connectionEPy 152
_Z3rpcIyXadL_ZN10cc1_plugin1c17build_vector_typeEEEyiET_P13gcc_c_contextT1_T2_ _ZN10cc1_plugin1c17build_vector_typeE 14
_Z3rpcIyXadL_ZN10cc1_plugin1c17build_vector_typeEEEyiET_P13gcc_c_contextT1_T2_ _ZN10cc1_plugin4callIyyiEENS_6statusEPNS_10connectionEPKcPT_T0_T1_ 27
_Z3rpcIyXadL_ZN10cc1_plugin1c16build_array_typeEEEyiET_P13gcc_c_contextT1_T2_ _ZN10cc1_plugin1c16build_array_typeE 14
_Z3rpcIyXadL_ZN10cc1_plugin1c16build_array_typeEEEyiET_P13gcc_c_contextT1_T2_ _ZN10cc1_plugin4callIyyiEENS_6statusEPNS_10connectionEPKcPT_T0_T1_ 27
_ZNSt12_Destroy_auxILb0EE9__destroyIPSsEEvT_S3_ _ZNSs4_Rep20_S_empty_rep_storageE 43
_ZNSt12_Destroy_auxILb0EE9__destroyIPSsEEvT_S3_ __pthread_key_create 50
_ZNSt12_Destroy_auxILb0EE9__destroyIPSsEEvT_S3_ _ZNSs4_Rep10_M_destroyERKSaIcE 85
_ZNSt6vectorISsSaISsEE13_M_insert_auxEN9__gnu_cxx17__normal_iteratorIPSsS1_EERKSs _ZNSsC1ERKSs 47
_ZNSt6vectorISsSaISsEE13_M_insert_auxEN9__gnu_cxx17__normal_iteratorIPSsS1_EERKSs _ZNSsC1ERKSs 72
_ZNSt6vectorISsSaISsEE13_M_insert_auxEN9__gnu_cxx17__normal_iteratorIPSsS1_EERKSs _ZNSs6assignERKSs 124
_ZNSt6vectorISsSaISsEE13_M_insert_auxEN9__gnu_cxx17__normal_iteratorIPSsS1_EERKSs _ZNSs6assignERKSs 142
_ZNSt6vectorISsSaISsEE13_M_insert_auxEN9__gnu_cxx17__normal_iteratorIPSsS1_EERKSs _ZNSs4_Rep20_S_empty_rep_storageE 158
_ZNSt6vectorISsSaISsEE13_M_insert_auxEN9__gnu_cxx17__normal_iteratorIPSsS1_EERKSs __pthread_key_create 180
_ZNSt6vectorISsSaISsEE13_M_insert_auxEN9__gnu_cxx17__normal_iteratorIPSsS1_EERKSs _ZNSs4_Rep10_M_destroyERKSaIcE 215
_ZNSt6vectorISsSaISsEE13_M_insert_auxEN9__gnu_cxx17__normal_iteratorIPSsS1_EERKSs _Znwm 262
_ZNSt6vectorISsSaISsEE13_M_insert_auxEN9__gnu_cxx17__normal_iteratorIPSsS1_EERKSs _ZNSsC1ERKSs 286
_ZNSt6vectorISsSaISsEE13_M_insert_auxEN9__gnu_cxx17__normal_iteratorIPSsS1_EERKSs _ZNSsC1ERKSs 316
_ZNSt6vectorISsSaISsEE13_M_insert_auxEN9__gnu_cxx17__normal_iteratorIPSsS1_EERKSs _ZNSsC1ERKSs 372
_ZNSt6vectorISsSaISsEE13_M_insert_auxEN9__gnu_cxx17__normal_iteratorIPSsS1_EERKSs _ZNSs4_Rep20_S_empty_rep_storageE 427
_ZNSt6vectorISsSaISsEE13_M_insert_auxEN9__gnu_cxx17__normal_iteratorIPSsS1_EERKSs __pthread_key_create 434
_ZNSt6vectorISsSaISsEE13_M_insert_auxEN9__gnu_cxx17__normal_iteratorIPSsS1_EERKSs _ZNSs4_Rep10_M_destroyERKSaIcE 465
_ZNSt6vectorISsSaISsEE13_M_insert_auxEN9__gnu_cxx17__normal_iteratorIPSsS1_EERKSs _ZdlPv 521
_ZNSt6vectorISsSaISsEE13_M_insert_auxEN9__gnu_cxx17__normal_iteratorIPSsS1_EERKSs _ZNSs4_Rep20_S_empty_rep_storageE 639
_ZNSt6vectorISsSaISsEE13_M_insert_auxEN9__gnu_cxx17__normal_iteratorIPSsS1_EERKSs _Unwind_Resume 659
_ZNSt6vectorISsSaISsEE13_M_insert_auxEN9__gnu_cxx17__normal_iteratorIPSsS1_EERKSs __cxa_begin_catch 667
_ZNSt6vectorISsSaISsEE13_M_insert_auxEN9__gnu_cxx17__normal_iteratorIPSsS1_EERKSs _ZNSt12_Destroy_auxILb0EE9__destroyIPSsEEvT_S3_ 680
_ZNSt6vectorISsSaISsEE13_M_insert_auxEN9__gnu_cxx17__normal_iteratorIPSsS1_EERKSs __cxa_rethrow 685
_ZNSt6vectorISsSaISsEE13_M_insert_auxEN9__gnu_cxx17__normal_iteratorIPSsS1_EERKSs __cxa_begin_catch 698
_ZNSt6vectorISsSaISsEE13_M_insert_auxEN9__gnu_cxx17__normal_iteratorIPSsS1_EERKSs _ZNSt12_Destroy_auxILb0EE9__destroyIPSsEEvT_S3_ 719
_ZNSt6vectorISsSaISsEE13_M_insert_auxEN9__gnu_cxx17__normal_iteratorIPSsS1_EERKSs _ZdlPv 732
_ZNSt6vectorISsSaISsEE13_M_insert_auxEN9__gnu_cxx17__normal_iteratorIPSsS1_EERKSs __cxa_rethrow 737
_ZNSt6vectorISsSaISsEE13_M_insert_auxEN9__gnu_cxx17__normal_iteratorIPSsS1_EERKSs __cxa_end_catch 742
_ZNSt6vectorISsSaISsEE13_M_insert_auxEN9__gnu_cxx17__normal_iteratorIPSsS1_EERKSs __cxa_begin_catch 750
_ZNSt6vectorISsSaISsEE13_M_insert_auxEN9__gnu_cxx17__normal_iteratorIPSsS1_EERKSs _ZNSs4_Rep20_S_empty_rep_storageE 768
_ZNSt6vectorISsSaISsEE13_M_insert_auxEN9__gnu_cxx17__normal_iteratorIPSsS1_EERKSs __cxa_begin_catch 795
_ZNSt6vectorISsSaISsEE13_M_insert_auxEN9__gnu_cxx17__normal_iteratorIPSsS1_EERKSs _ZNSt12_Destroy_auxILb0EE9__destroyIPSsEEvT_S3_ 806
_ZNSt6vectorISsSaISsEE13_M_insert_auxEN9__gnu_cxx17__normal_iteratorIPSsS1_EERKSs __cxa_rethrow 811
_ZNSt6vectorISsSaISsEE13_M_insert_auxEN9__gnu_cxx17__normal_iteratorIPSsS1_EERKSs __cxa_end_catch 821
_ZNSt6vectorISsSaISsEE13_M_insert_auxEN9__gnu_cxx17__normal_iteratorIPSsS1_EERKSs __cxa_end_catch 836
_ZNSs12_S_constructIPcEES0_T_S1_RKSaIcESt20forward_iterator_tag _ZSt19__throw_logic_errorPKc 31
_ZNSs12_S_constructIPcEES0_T_S1_RKSaIcESt20forward_iterator_tag _ZNSs4_Rep9_S_createEmmRKSaIcE 49
_ZNSs12_S_constructIPcEES0_T_S1_RKSaIcESt20forward_iterator_tag memcpy 76
_ZNSs12_S_constructIPcEES0_T_S1_RKSaIcESt20forward_iterator_tag _ZNSs4_Rep20_S_empty_rep_storageE 86
_ZNSs12_S_constructIPcEES0_T_S1_RKSaIcESt20forward_iterator_tag _ZNSs4_Rep20_S_empty_rep_storageE 121
_ZNK6libcp18compiler4findERSs xstrdup 6
_ZNK6libcp124compiler_driver_filename4findERSs stderr 29
_ZNK6libcp124compiler_driver_filename4findERSs fprintf 41
_ZNK6libcp124compiler_driver_filename4findERSs _ZNSs6assignERKSs 53
_ZN10cc1_plugin8callbackIi21gcc_cp_oracle_requestPKcXadL_ZN12_GLOBAL__N_122cp_call_binding_oracleEPNS_10connectionES1_S3_EEEENS_6statusES6_ _ZN10cc1_plugin16unmarshall_checkEPNS_10connectionEy 23
_ZN10cc1_plugin8callbackIi21gcc_cp_oracle_requestPKcXadL_ZN12_GLOBAL__N_122cp_call_binding_oracleEPNS_10connectionES1_S3_EEEENS_6statusES6_ _ZdaPv 43
_ZN10cc1_plugin8callbackIi21gcc_cp_oracle_requestPKcXadL_ZN12_GLOBAL__N_122cp_call_binding_oracleEPNS_10connectionES1_S3_EEEENS_6statusES6_ _ZN10cc1_plugin18unmarshall_intlikeEPNS_10connectionEPy 73
_ZN10cc1_plugin8callbackIi21gcc_cp_oracle_requestPKcXadL_ZN12_GLOBAL__N_122cp_call_binding_oracleEPNS_10connectionES1_S3_EEEENS_6statusES6_ _ZN10cc1_plugin10unmarshallEPNS_10connectionEPPc 95
_ZN10cc1_plugin8callbackIi21gcc_cp_oracle_requestPKcXadL_ZN12_GLOBAL__N_122cp_call_binding_oracleEPNS_10connectionES1_S3_EEEENS_6statusES6_ _ZN10cc1_plugin10connection4sendEc 132
_ZN10cc1_plugin8callbackIi21gcc_cp_oracle_requestPKcXadL_ZN12_GLOBAL__N_122cp_call_binding_oracleEPNS_10connectionES1_S3_EEEENS_6statusES6_ _ZN10cc1_plugin16marshall_intlikeEPNS_10connectionEy 149
_ZN10cc1_plugin8callbackIi21gcc_cp_oracle_requestPKcXadL_ZN12_GLOBAL__N_122cp_call_binding_oracleEPNS_10connectionES1_S3_EEEENS_6statusES6_ _ZdaPv 170
_ZN10cc1_plugin8callbackIi21gcc_cp_oracle_requestPKcXadL_ZN12_GLOBAL__N_122cp_call_binding_oracleEPNS_10connectionES1_S3_EEEENS_6statusES6_ _Unwind_Resume 178
_ZN10cc1_plugin8callbackIyPKcXadL_ZN12_GLOBAL__N_122cp_call_symbol_addressEPNS_10connectionES2_EEEENS_6statusES5_ _ZN10cc1_plugin16unmarshall_checkEPNS_10connectionEy 23
_ZN10cc1_plugin8callbackIyPKcXadL_ZN12_GLOBAL__N_122cp_call_symbol_addressEPNS_10connectionES2_EEEENS_6statusES5_ _ZdaPv 43
_ZN10cc1_plugin8callbackIyPKcXadL_ZN12_GLOBAL__N_122cp_call_symbol_addressEPNS_10connectionES2_EEEENS_6statusES5_ _ZN10cc1_plugin10unmarshallEPNS_10connectionEPPc 71
_ZN10cc1_plugin8callbackIyPKcXadL_ZN12_GLOBAL__N_122cp_call_symbol_addressEPNS_10connectionES2_EEEENS_6statusES5_ _ZN10cc1_plugin10connection4sendEc 109
_ZN10cc1_plugin8callbackIyPKcXadL_ZN12_GLOBAL__N_122cp_call_symbol_addressEPNS_10connectionES2_EEEENS_6statusES5_ _ZN10cc1_plugin16marshall_intlikeEPNS_10connectionEy 124
_ZN10cc1_plugin8callbackIyPKcXadL_ZN12_GLOBAL__N_122cp_call_symbol_addressEPNS_10connectionES2_EEEENS_6statusES5_ _ZdaPv 145
_ZN10cc1_plugin8callbackIyPKcXadL_ZN12_GLOBAL__N_122cp_call_symbol_addressEPNS_10connectionES2_EEEENS_6statusES5_ _Unwind_Resume 153
_ZL22libcp1_set_source_fileP16gcc_base_contextPKc strlen 16
_ZL22libcp1_set_source_fileP16gcc_base_contextPKc _ZNSs6assignEPKcm 37
_ZN10cc1_plugin8callbackIiXadL_ZN12_GLOBAL__N_119cp_call_leave_scopeEPNS_10connectionEEEEENS_6statusES3_ _ZN10cc1_plugin16unmarshall_checkEPNS_10connectionEy 7
_ZN10cc1_plugin8callbackIiXadL_ZN12_GLOBAL__N_119cp_call_leave_scopeEPNS_10connectionEEEEENS_6statusES3_ _ZN10cc1_plugin10connection4sendEc 47
_ZN10cc1_plugin8callbackIiXadL_ZN12_GLOBAL__N_119cp_call_leave_scopeEPNS_10connectionEEEEENS_6statusES3_ _ZN10cc1_plugin16marshall_intlikeEPNS_10connectionEy 65
_ZN10cc1_plugin8callbackIiXadL_ZN12_GLOBAL__N_119cp_call_enter_scopeEPNS_10connectionEEEEENS_6statusES3_ _ZN10cc1_plugin16unmarshall_checkEPNS_10connectionEy 7
_ZN10cc1_plugin8callbackIiXadL_ZN12_GLOBAL__N_119cp_call_enter_scopeEPNS_10connectionEEEEENS_6statusES3_ _ZN10cc1_plugin10connection4sendEc 47
_ZN10cc1_plugin8callbackIiXadL_ZN12_GLOBAL__N_119cp_call_enter_scopeEPNS_10connectionEEEEENS_6statusES3_ _ZN10cc1_plugin16marshall_intlikeEPNS_10connectionEy 65
_ZL25libcp1_set_triplet_regexpP16gcc_base_contextPKc _ZNSsC1EPKcRKSaIcE 45
_ZL25libcp1_set_triplet_regexpP16gcc_base_contextPKc _Znwm 55
_ZL25libcp1_set_triplet_regexpP16gcc_base_contextPKc _ZTVN6libcp123compiler_triplet_regexpE 75
_ZL25libcp1_set_triplet_regexpP16gcc_base_contextPKc _ZNSsC1ERKSs 83
_ZL25libcp1_set_triplet_regexpP16gcc_base_contextPKc _ZNSs4_Rep20_S_empty_rep_storageE 103
_ZL25libcp1_set_triplet_regexpP16gcc_base_contextPKc __pthread_key_create 129
_ZL25libcp1_set_triplet_regexpP16gcc_base_contextPKc _ZNSs4_Rep10_M_destroyERKSaIcE 160
_ZL25libcp1_set_triplet_regexpP16gcc_base_contextPKc _ZdlPv 199
_ZL25libcp1_set_triplet_regexpP16gcc_base_contextPKc _ZNSs4_Rep20_S_empty_rep_storageE 215
_ZL25libcp1_set_triplet_regexpP16gcc_base_contextPKc _Unwind_Resume 235
_ZL26libcp1_set_driver_filenameP16gcc_base_contextPKc _ZNSsC1EPKcRKSaIcE 45
_ZL26libcp1_set_driver_filenameP16gcc_base_contextPKc _Znwm 55
_ZL26libcp1_set_driver_filenameP16gcc_base_contextPKc _ZTVN6libcp124compiler_driver_filenameE 75
_ZL26libcp1_set_driver_filenameP16gcc_base_contextPKc _ZNSsC1ERKSs 83
_ZL26libcp1_set_driver_filenameP16gcc_base_contextPKc _ZNSs4_Rep20_S_empty_rep_storageE 103
_ZL26libcp1_set_driver_filenameP16gcc_base_contextPKc __pthread_key_create 129
_ZL26libcp1_set_driver_filenameP16gcc_base_contextPKc _ZNSs4_Rep10_M_destroyERKSaIcE 160
_ZL26libcp1_set_driver_filenameP16gcc_base_contextPKc _ZdlPv 199
_ZL26libcp1_set_driver_filenameP16gcc_base_contextPKc _ZNSs4_Rep20_S_empty_rep_storageE 215
_ZL26libcp1_set_driver_filenameP16gcc_base_contextPKc _Unwind_Resume 235
_ZN6libcp1C1EPK15gcc_base_vtablePK16gcc_cp_fe_vtable,_ZN6libcp1C2EPK15gcc_base_vtablePK16gcc_cp_fe_vtable _ZNSs4_Rep20_S_empty_rep_storageE 93
_ZN6libcp1C1EPK15gcc_base_vtablePK16gcc_cp_fe_vtable,_ZN6libcp1C2EPK15gcc_base_vtablePK16gcc_cp_fe_vtable _Znwm 107
_ZN6libcp1C1EPK15gcc_base_vtablePK16gcc_cp_fe_vtable,_ZN6libcp1C2EPK15gcc_base_vtablePK16gcc_cp_fe_vtable _ZTVN6libcp18compilerE 114
_ZN6libcp1C1EPK15gcc_base_vtablePK16gcc_cp_fe_vtable,_ZN6libcp1C2EPK15gcc_base_vtablePK16gcc_cp_fe_vtable _ZNSs4_Rep20_S_empty_rep_storageE 156
_ZN6libcp1C1EPK15gcc_base_vtablePK16gcc_cp_fe_vtable,_ZN6libcp1C2EPK15gcc_base_vtablePK16gcc_cp_fe_vtable _ZNSt6vectorISsSaISsEED1Ev 177
_ZN6libcp1C1EPK15gcc_base_vtablePK16gcc_cp_fe_vtable,_ZN6libcp1C2EPK15gcc_base_vtablePK16gcc_cp_fe_vtable _Unwind_Resume 185
gcc_cp_fe_context _Znwm 21
gcc_cp_fe_context _ZN6libcp1C2EPK15gcc_base_vtablePK16gcc_cp_fe_vtable 42
gcc_cp_fe_context _ZdlPv 74
gcc_cp_fe_context _Unwind_Resume 82
_ZN6libcp1D1Ev,_ZN6libcp1D2Ev _ZNSs4_Rep20_S_empty_rep_storageE 54
_ZN6libcp1D1Ev,_ZN6libcp1D2Ev _ZNSs4_Rep20_S_empty_rep_storageE 107
_ZN6libcp1D1Ev,_ZN6libcp1D2Ev __pthread_key_create 114
_ZN6libcp1D1Ev,_ZN6libcp1D2Ev _ZNSs4_Rep10_M_destroyERKSaIcE 149
_ZN6libcp1D1Ev,_ZN6libcp1D2Ev _ZdlPv 174
_ZN6libcp1D1Ev,_ZN6libcp1D2Ev __pthread_key_create 206
_ZN6libcp1D1Ev,_ZN6libcp1D2Ev _ZNSs4_Rep10_M_destroyERKSaIcE 241
_ZN6libcp1D1Ev,_ZN6libcp1D2Ev _ZNSs4_Rep20_S_empty_rep_storageE 278
_ZN6libcp1D1Ev,_ZN6libcp1D2Ev _ZNSt6vectorISsSaISsEED1Ev 300
_ZN6libcp1D1Ev,_ZN6libcp1D2Ev _Unwind_Resume 308
_ZL14libcp1_destroyP16gcc_base_context _ZN6libcp1D2Ev 10
_ZL14libcp1_destroyP16gcc_base_context _ZdlPv 19
_ZL20libcp1_set_argumentsP16gcc_base_contextiPPc _ZNSs4_Rep20_S_empty_rep_storageE 28
_ZL20libcp1_set_argumentsP16gcc_base_contextiPPc _ZNSs4_Rep20_S_empty_rep_storageE 59
_ZL20libcp1_set_argumentsP16gcc_base_contextiPPc __pthread_key_create 81
_ZL20libcp1_set_argumentsP16gcc_base_contextiPPc _ZNSs4_Rep10_M_destroyERKSaIcE 121
_ZL20libcp1_set_argumentsP16gcc_base_contextiPPc _ZNSsC1ERKSs 165
_ZL20libcp1_set_argumentsP16gcc_base_contextiPPc _ZNSsC1EPKcRKSaIcE 236
_ZL20libcp1_set_argumentsP16gcc_base_contextiPPc _ZNSsC1ERKSs 261
_ZL20libcp1_set_argumentsP16gcc_base_contextiPPc _ZNSs4_Rep20_S_empty_rep_storageE 289
_ZL20libcp1_set_argumentsP16gcc_base_contextiPPc __pthread_key_create 296
_ZL20libcp1_set_argumentsP16gcc_base_contextiPPc _ZNSs4_Rep10_M_destroyERKSaIcE 327
_ZL20libcp1_set_argumentsP16gcc_base_contextiPPc _ZNSt6vectorISsSaISsEE13_M_insert_auxEN9__gnu_cxx17__normal_iteratorIPSsS1_EERKSs 348
_ZL20libcp1_set_argumentsP16gcc_base_contextiPPc _ZNSt6vectorISsSaISsEE13_M_insert_auxEN9__gnu_cxx17__normal_iteratorIPSsS1_EERKSs 412
_ZL20libcp1_set_argumentsP16gcc_base_contextiPPc _ZNSs4_Rep20_S_empty_rep_storageE 436
_ZL20libcp1_set_argumentsP16gcc_base_contextiPPc _Unwind_Resume 456
_ZL20libcp1_set_argumentsP16gcc_base_contextiPPc _ZNSs4_Rep20_S_empty_rep_storageE 475
_ZL14libcp1_compileP16gcc_base_contextPKc socketpair 37
_ZL14libcp1_compileP16gcc_base_contextPKc pipe 55
_ZL14libcp1_compileP16gcc_base_contextPKc _ZNSsC1EPKcRKSaIcE 89
_ZL14libcp1_compileP16gcc_base_contextPKc _ZNSsC1ERKSs 118
_ZL14libcp1_compileP16gcc_base_contextPKc _ZNSs4_Rep20_S_empty_rep_storageE 146
_ZL14libcp1_compileP16gcc_base_contextPKc snprintf 178
_ZL14libcp1_compileP16gcc_base_contextPKc _ZNSsC1EPKcRKSaIcE 207
_ZL14libcp1_compileP16gcc_base_contextPKc _ZNSsC1ERKSs 236
_ZL14libcp1_compileP16gcc_base_contextPKc _ZNSs4_Rep20_S_empty_rep_storageE 264
_ZL14libcp1_compileP16gcc_base_contextPKc _ZNSsC1ERKSs 298
_ZL14libcp1_compileP16gcc_base_contextPKc _ZNSsC1EPKcRKSaIcE 330
_ZL14libcp1_compileP16gcc_base_contextPKc _ZNSsC1ERKSs 359
_ZL14libcp1_compileP16gcc_base_contextPKc _ZNSs4_Rep20_S_empty_rep_storageE 387
_ZL14libcp1_compileP16gcc_base_contextPKc _ZNSsC1EPKcRKSaIcE 413
_ZL14libcp1_compileP16gcc_base_contextPKc _ZNSsC1ERKSs 442
_ZL14libcp1_compileP16gcc_base_contextPKc _ZNSs4_Rep20_S_empty_rep_storageE 470
_ZL14libcp1_compileP16gcc_base_contextPKc _ZNSsC1EPKcRKSaIcE 494
_ZL14libcp1_compileP16gcc_base_contextPKc _ZNSsC1ERKSs 523
_ZL14libcp1_compileP16gcc_base_contextPKc _ZNSs4_Rep20_S_empty_rep_storageE 551
_ZL14libcp1_compileP16gcc_base_contextPKc _ZNSsC1EPKcRKSaIcE 583
_ZL14libcp1_compileP16gcc_base_contextPKc _ZNSsC1ERKSs 612
_ZL14libcp1_compileP16gcc_base_contextPKc _ZNSs4_Rep20_S_empty_rep_storageE 640
_ZL14libcp1_compileP16gcc_base_contextPKc _Znwm 656
_ZL14libcp1_compileP16gcc_base_contextPKc _ZTVN10cc1_plugin10connectionE 680
_ZL14libcp1_compileP16gcc_base_contextPKc _ZN10cc1_plugin9callbacksC1Ev 698
_ZL14libcp1_compileP16gcc_base_contextPKc _ZTV17libcp1_connection 706
_ZL14libcp1_compileP16gcc_base_contextPKc _ZN10cc1_plugin9callbacks12add_callbackEPKcPFNS_6statusEPNS_10connectionEE 733
_ZL14libcp1_compileP16gcc_base_contextPKc _ZN10cc1_plugin9callbacks12add_callbackEPKcPFNS_6statusEPNS_10connectionEE 756
_ZL14libcp1_compileP16gcc_base_contextPKc _ZN10cc1_plugin9callbacks12add_callbackEPKcPFNS_6statusEPNS_10connectionEE 779
_ZL14libcp1_compileP16gcc_base_contextPKc _ZN10cc1_plugin9callbacks12add_callbackEPKcPFNS_6statusEPNS_10connectionEE 802
_ZL14libcp1_compileP16gcc_base_contextPKc _ZSt7nothrow 832
_ZL14libcp1_compileP16gcc_base_contextPKc _ZnamRKSt9nothrow_t 860
_ZL14libcp1_compileP16gcc_base_contextPKc fork 960
_ZL14libcp1_compileP16gcc_base_contextPKc close 989
_ZL14libcp1_compileP16gcc_base_contextPKc close 998
_ZL14libcp1_compileP16gcc_base_contextPKc _ZN10cc1_plugin10connection4sendEc 1012
_ZL14libcp1_compileP16gcc_base_contextPKc close 1031
_ZL14libcp1_compileP16gcc_base_contextPKc close 1040
_ZL14libcp1_compileP16gcc_base_contextPKc waitpid 1055
_ZL14libcp1_compileP16gcc_base_contextPKc close 1123
_ZL14libcp1_compileP16gcc_base_contextPKc close 1132
_ZL14libcp1_compileP16gcc_base_contextPKc _ZN10cc1_plugin16marshall_intlikeEPNS_10connectionEy 1191
_ZL14libcp1_compileP16gcc_base_contextPKc _ZN10cc1_plugin10connection7do_waitEb 1210
_ZL14libcp1_compileP16gcc_base_contextPKc __errno_location 1225
_ZL14libcp1_compileP16gcc_base_contextPKc __pthread_key_create 1240
_ZL14libcp1_compileP16gcc_base_contextPKc _ZNSs4_Rep10_M_destroyERKSaIcE 1279
_ZL14libcp1_compileP16gcc_base_contextPKc __pthread_key_create 1297
_ZL14libcp1_compileP16gcc_base_contextPKc _ZNSs4_Rep10_M_destroyERKSaIcE 1336
_ZL14libcp1_compileP16gcc_base_contextPKc __pthread_key_create 1353
_ZL14libcp1_compileP16gcc_base_contextPKc _ZNSs4_Rep10_M_destroyERKSaIcE 1392
_ZL14libcp1_compileP16gcc_base_contextPKc __pthread_key_create 1409
_ZL14libcp1_compileP16gcc_base_contextPKc _ZNSs4_Rep10_M_destroyERKSaIcE 1448
_ZL14libcp1_compileP16gcc_base_contextPKc __pthread_key_create 1465
_ZL14libcp1_compileP16gcc_base_contextPKc _ZNSs4_Rep10_M_destroyERKSaIcE 1504
_ZL14libcp1_compileP16gcc_base_contextPKc __pthread_key_create 1521
_ZL14libcp1_compileP16gcc_base_contextPKc _ZNSs4_Rep10_M_destroyERKSaIcE 1560
_ZL14libcp1_compileP16gcc_base_contextPKc close 1574
_ZL14libcp1_compileP16gcc_base_contextPKc close 1583
_ZL14libcp1_compileP16gcc_base_contextPKc close 1592
_ZL14libcp1_compileP16gcc_base_contextPKc close 1601
_ZL14libcp1_compileP16gcc_base_contextPKc _ZNSt6vectorISsSaISsEE13_M_insert_auxEN9__gnu_cxx17__normal_iteratorIPSsS1_EERKSs 1629
_ZL14libcp1_compileP16gcc_base_contextPKc _ZNSt6vectorISsSaISsEE13_M_insert_auxEN9__gnu_cxx17__normal_iteratorIPSsS1_EERKSs 1648
_ZL14libcp1_compileP16gcc_base_contextPKc _ZNSt6vectorISsSaISsEE13_M_insert_auxEN9__gnu_cxx17__normal_iteratorIPSsS1_EERKSs 1669
_ZL14libcp1_compileP16gcc_base_contextPKc _ZNSt6vectorISsSaISsEE13_M_insert_auxEN9__gnu_cxx17__normal_iteratorIPSsS1_EERKSs 1690
_ZL14libcp1_compileP16gcc_base_contextPKc _ZNSt6vectorISsSaISsEE13_M_insert_auxEN9__gnu_cxx17__normal_iteratorIPSsS1_EERKSs 1711
_ZL14libcp1_compileP16gcc_base_contextPKc _ZNSt6vectorISsSaISsEE13_M_insert_auxEN9__gnu_cxx17__normal_iteratorIPSsS1_EERKSs 1732
_ZL14libcp1_compileP16gcc_base_contextPKc _ZNSt6vectorISsSaISsEE13_M_insert_auxEN9__gnu_cxx17__normal_iteratorIPSsS1_EERKSs 1753
_ZL14libcp1_compileP16gcc_base_contextPKc _ZdlPv 1865
_ZL14libcp1_compileP16gcc_base_contextPKc _Unwind_Resume 1873
_ZL14libcp1_compileP16gcc_base_contextPKc dup2 1887
_ZL14libcp1_compileP16gcc_base_contextPKc dup2 1901
_ZL14libcp1_compileP16gcc_base_contextPKc close 1910
_ZL14libcp1_compileP16gcc_base_contextPKc close 1919
_ZL14libcp1_compileP16gcc_base_contextPKc close 1928
_ZL14libcp1_compileP16gcc_base_contextPKc execvp 1940
_ZL14libcp1_compileP16gcc_base_contextPKc _exit 1950
_ZL14libcp1_compileP16gcc_base_contextPKc _ZNSs4_Rep20_S_empty_rep_storageE 1969
_ZL14libcp1_compileP16gcc_base_contextPKc abort 1996
_ZL14libcp1_compileP16gcc_base_contextPKc _ZNSs4_Rep20_S_empty_rep_storageE 2015
_ZNK6libcp123compiler_triplet_regexp4findERSs _ZNSt8ios_baseC2Ev 46
_ZNK6libcp123compiler_triplet_regexp4findERSs _ZTTSt18basic_stringstreamIcSt11char_traitsIcESaIcEE 53
_ZNK6libcp123compiler_triplet_regexp4findERSs _ZTTSt18basic_stringstreamIcSt11char_traitsIcESaIcEE 71
_ZNK6libcp123compiler_triplet_regexp4findERSs _ZTVSt9basic_iosIcSt11char_traitsIcEE 82
_ZNK6libcp123compiler_triplet_regexp4findERSs _ZNSt9basic_iosIcSt11char_traitsIcEE4initEPSt15basic_streambufIcS1_E 167
_ZNK6libcp123compiler_triplet_regexp4findERSs _ZTTSt18basic_stringstreamIcSt11char_traitsIcESaIcEE 174
_ZNK6libcp123compiler_triplet_regexp4findERSs _ZTTSt18basic_stringstreamIcSt11char_traitsIcESaIcEE 202
_ZNK6libcp123compiler_triplet_regexp4findERSs _ZNSt9basic_iosIcSt11char_traitsIcEE4initEPSt15basic_streambufIcS1_E 210
_ZNK6libcp123compiler_triplet_regexp4findERSs _ZTTSt18basic_stringstreamIcSt11char_traitsIcESaIcEE 217
_ZNK6libcp123compiler_triplet_regexp4findERSs _ZTTSt18basic_stringstreamIcSt11char_traitsIcESaIcEE 224
_ZNK6libcp123compiler_triplet_regexp4findERSs _ZTVSt18basic_stringstreamIcSt11char_traitsIcESaIcEE 254
_ZNK6libcp123compiler_triplet_regexp4findERSs _ZTVSt18basic_stringstreamIcSt11char_traitsIcESaIcEE 265
_ZNK6libcp123compiler_triplet_regexp4findERSs _ZTVSt18basic_stringstreamIcSt11char_traitsIcESaIcEE 276
_ZNK6libcp123compiler_triplet_regexp4findERSs _ZTVSt15basic_streambufIcSt11char_traitsIcEE 291
_ZNK6libcp123compiler_triplet_regexp4findERSs _ZNSt6localeC1Ev 362
_ZNK6libcp123compiler_triplet_regexp4findERSs _ZTVSt15basic_stringbufIcSt11char_traitsIcESaIcEE 380
_ZNK6libcp123compiler_triplet_regexp4findERSs _ZNSs4_Rep20_S_empty_rep_storageE 401
_ZNK6libcp123compiler_triplet_regexp4findERSs _ZNSt9basic_iosIcSt11char_traitsIcEE4initEPSt15basic_streambufIcS1_E 414
_ZNK6libcp123compiler_triplet_regexp4findERSs _ZSt16__ostream_insertIcSt11char_traitsIcEERSt13basic_ostreamIT_T0_ES6_PKS3_l 440
_ZNK6libcp123compiler_triplet_regexp4findERSs strlen 457
_ZNK6libcp123compiler_triplet_regexp4findERSs _ZSt16__ostream_insertIcSt11char_traitsIcEERSt13basic_ostreamIT_T0_ES6_PKS3_l 479
_ZNK6libcp123compiler_triplet_regexp4findERSs _ZSt16__ostream_insertIcSt11char_traitsIcEERSt13basic_ostreamIT_T0_ES6_PKS3_l 505
_ZNK6libcp123compiler_triplet_regexp4findERSs _ZSt16__ostream_insertIcSt11char_traitsIcEERSt13basic_ostreamIT_T0_ES6_PKS3_l 558
_ZNK6libcp123compiler_triplet_regexp4findERSs _ZSt16__ostream_insertIcSt11char_traitsIcEERSt13basic_ostreamIT_T0_ES6_PKS3_l 615
_ZNK6libcp123compiler_triplet_regexp4findERSs _ZSt16__ostream_insertIcSt11char_traitsIcEERSt13basic_ostreamIT_T0_ES6_PKS3_l 646
_ZNK6libcp123compiler_triplet_regexp4findERSs _ZNSs4_Rep20_S_empty_rep_storageE 664
_ZNK6libcp123compiler_triplet_regexp4findERSs _ZNSs12_S_constructIPcEES0_T_S1_RKSaIcESt20forward_iterator_tag 714
_ZNK6libcp123compiler_triplet_regexp4findERSs _ZNSs6assignERKSs 742
_ZNK6libcp123compiler_triplet_regexp4findERSs _ZNSs4_Rep20_S_empty_rep_storageE 760
_ZNK6libcp123compiler_triplet_regexp4findERSs _ZTVSt18basic_stringstreamIcSt11char_traitsIcESaIcEE 784
_ZNK6libcp123compiler_triplet_regexp4findERSs _ZTVSt18basic_stringstreamIcSt11char_traitsIcESaIcEE 795
_ZNK6libcp123compiler_triplet_regexp4findERSs _ZTVSt18basic_stringstreamIcSt11char_traitsIcESaIcEE 806
_ZNK6libcp123compiler_triplet_regexp4findERSs _ZTVSt15basic_stringbufIcSt11char_traitsIcESaIcEE 817
_ZNK6libcp123compiler_triplet_regexp4findERSs _ZNSs4_Rep20_S_empty_rep_storageE 828
_ZNK6libcp123compiler_triplet_regexp4findERSs _ZTVSt15basic_streambufIcSt11char_traitsIcEE 852
_ZNK6libcp123compiler_triplet_regexp4findERSs _ZNSt6localeD1Ev 861
_ZNK6libcp123compiler_triplet_regexp4findERSs _ZTTSt18basic_stringstreamIcSt11char_traitsIcESaIcEE 868
_ZNK6libcp123compiler_triplet_regexp4findERSs _ZTTSt18basic_stringstreamIcSt11char_traitsIcESaIcEE 875
_ZNK6libcp123compiler_triplet_regexp4findERSs _ZTTSt18basic_stringstreamIcSt11char_traitsIcESaIcEE 894
_ZNK6libcp123compiler_triplet_regexp4findERSs _ZTTSt18basic_stringstreamIcSt11char_traitsIcESaIcEE 901
_ZNK6libcp123compiler_triplet_regexp4findERSs _ZTTSt18basic_stringstreamIcSt11char_traitsIcESaIcEE 931
_ZNK6libcp123compiler_triplet_regexp4findERSs _ZTVSt9basic_iosIcSt11char_traitsIcEE 964
_ZNK6libcp123compiler_triplet_regexp4findERSs _ZNSt8ios_baseD2Ev 973
_ZNK6libcp123compiler_triplet_regexp4findERSs stderr 997
_ZNK6libcp123compiler_triplet_regexp4findERSs fprintf 1009
_ZNK6libcp123compiler_triplet_regexp4findERSs xregcomp 1033
_ZNK6libcp123compiler_triplet_regexp4findERSs xregerror 1064
_ZNK6libcp123compiler_triplet_regexp4findERSs xregerror 1095
_ZNK6libcp123compiler_triplet_regexp4findERSs concat 1125
_ZNK6libcp123compiler_triplet_regexp4findERSs _ZNSs4_Rep20_S_empty_rep_storageE 1146
_ZNK6libcp123compiler_triplet_regexp4findERSs _ZNSs12_S_constructIPcEES0_T_S1_RKSaIcESt20forward_iterator_tag 1200
_ZNK6libcp123compiler_triplet_regexp4findERSs _ZNSs6assignERKSs 1228
_ZNK6libcp123compiler_triplet_regexp4findERSs _Z13find_compilerRK17re_pattern_bufferPSs 1255
_ZNK6libcp123compiler_triplet_regexp4findERSs xregfree 1271
_ZNK6libcp123compiler_triplet_regexp4findERSs concat 1297
_ZNK6libcp123compiler_triplet_regexp4findERSs xregfree 1307
_ZNK6libcp123compiler_triplet_regexp4findERSs stderr 1331
_ZNK6libcp123compiler_triplet_regexp4findERSs fprintf 1346
_ZNK6libcp123compiler_triplet_regexp4findERSs __pthread_key_create 1358
_ZNK6libcp123compiler_triplet_regexp4findERSs _ZNSs4_Rep10_M_destroyERKSaIcE 1406
_ZNK6libcp123compiler_triplet_regexp4findERSs __pthread_key_create 1423
_ZNK6libcp123compiler_triplet_regexp4findERSs _ZNSs4_Rep10_M_destroyERKSaIcE 1464
_ZNK6libcp123compiler_triplet_regexp4findERSs _ZNSt9basic_iosIcSt11char_traitsIcEE5clearESt12_Ios_Iostate 1499
_ZNK6libcp123compiler_triplet_regexp4findERSs __pthread_key_create 1509
_ZNK6libcp123compiler_triplet_regexp4findERSs _ZNSs4_Rep10_M_destroyERKSaIcE 1546
_ZNK6libcp123compiler_triplet_regexp4findERSs _ZNSs6assignERKSs 1574
_ZNK6libcp123compiler_triplet_regexp4findERSs _ZTTSt18basic_stringstreamIcSt11char_traitsIcESaIcEE 1635
_ZNK6libcp123compiler_triplet_regexp4findERSs _ZTVSt9basic_iosIcSt11char_traitsIcEE 1671
_ZNK6libcp123compiler_triplet_regexp4findERSs _ZNSt8ios_baseD2Ev 1680
_ZNK6libcp123compiler_triplet_regexp4findERSs _Unwind_Resume 1688
_ZNK6libcp123compiler_triplet_regexp4findERSs _ZNSs4_Rep20_S_empty_rep_storageE 1714
_ZNK6libcp123compiler_triplet_regexp4findERSs _ZNSt18basic_stringstreamIcSt11char_traitsIcESaIcEED1Ev 1740
_ZNK6libcp123compiler_triplet_regexp4findERSs _Unwind_Resume 1748
_ZNK6libcp123compiler_triplet_regexp4findERSs _ZTVSt15basic_stringbufIcSt11char_traitsIcESaIcEE 1769
_ZNK6libcp123compiler_triplet_regexp4findERSs _ZNSs4_Rep20_S_empty_rep_storageE 1780
_ZNK6libcp123compiler_triplet_regexp4findERSs _ZTVSt15basic_streambufIcSt11char_traitsIcEE 1800
_ZNK6libcp123compiler_triplet_regexp4findERSs _ZNSt6localeD1Ev 1809
_ZNK6libcp123compiler_triplet_regexp4findERSs _ZTTSt18basic_stringstreamIcSt11char_traitsIcESaIcEE 1821
_ZNK6libcp123compiler_triplet_regexp4findERSs _ZNSdD2Ev 1826
_ZNK6libcp123compiler_triplet_regexp4findERSs _ZNSs4_Rep20_S_empty_rep_storageE 1852
_ZNK6libcp123compiler_triplet_regexp4findERSs __pthread_key_create 1880
_ZNK6libcp123compiler_triplet_regexp4findERSs _ZNSs4_Rep10_M_destroyERKSaIcE 1914
_ZNK6libcp123compiler_triplet_regexp4findERSs _ZNSs4_Rep20_S_empty_rep_storageE 1945
_ZNK6libcp123compiler_triplet_regexp4findERSs _Unwind_Resume 1967
_ZN6libcp18compilerD0Ev _ZdlPv 1
_ZN17libcp1_connectionD1Ev,_ZN17libcp1_connectionD2Ev _ZTV17libcp1_connection 3
_ZN17libcp1_connectionD1Ev,_ZN17libcp1_connectionD2Ev _ZN10cc1_plugin10connectionD2Ev 8
_ZN17libcp1_connectionD0Ev _ZTV17libcp1_connection 7
_ZN17libcp1_connectionD0Ev _ZN10cc1_plugin10connectionD2Ev 12
_ZN17libcp1_connectionD0Ev _ZdlPv 21
_Z3rpcIyXadL_ZN10cc1_plugin2cp10build_declEEEPKc18gcc_cp_symbol_kindyS3_yS3_jET_P14gcc_cp_contextT1_T2_T3_T4_T5_T6_T7_ _ZN10cc1_plugin2cp10build_declE 38
_Z3rpcIyXadL_ZN10cc1_plugin2cp10build_declEEEPKc18gcc_cp_symbol_kindyS3_yS3_jET_P14gcc_cp_contextT1_T2_T3_T4_T5_T6_T7_ _ZN10cc1_plugin10connection4sendEc 51
_Z3rpcIyXadL_ZN10cc1_plugin2cp10build_declEEEPKc18gcc_cp_symbol_kindyS3_yS3_jET_P14gcc_cp_contextT1_T2_T3_T4_T5_T6_T7_ _ZN10cc1_plugin8marshallEPNS_10connectionEPKc 87
_Z3rpcIyXadL_ZN10cc1_plugin2cp10build_declEEEPKc18gcc_cp_symbol_kindyS3_yS3_jET_P14gcc_cp_contextT1_T2_T3_T4_T5_T6_T7_ _ZN10cc1_plugin16marshall_intlikeEPNS_10connectionEy 104
_Z3rpcIyXadL_ZN10cc1_plugin2cp10build_declEEEPKc18gcc_cp_symbol_kindyS3_yS3_jET_P14gcc_cp_contextT1_T2_T3_T4_T5_T6_T7_ _ZN10cc1_plugin8marshallEPNS_10connectionEPKc 119
_Z3rpcIyXadL_ZN10cc1_plugin2cp10build_declEEEPKc18gcc_cp_symbol_kindyS3_yS3_jET_P14gcc_cp_contextT1_T2_T3_T4_T5_T6_T7_ _ZN10cc1_plugin16marshall_intlikeEPNS_10connectionEy 134
_Z3rpcIyXadL_ZN10cc1_plugin2cp10build_declEEEPKc18gcc_cp_symbol_kindyS3_yS3_jET_P14gcc_cp_contextT1_T2_T3_T4_T5_T6_T7_ _ZN10cc1_plugin16marshall_intlikeEPNS_10connectionEy 149
_Z3rpcIyXadL_ZN10cc1_plugin2cp10build_declEEEPKc18gcc_cp_symbol_kindyS3_yS3_jET_P14gcc_cp_contextT1_T2_T3_T4_T5_T6_T7_ _ZN10cc1_plugin8marshallEPNS_10connectionEPKc 164
_Z3rpcIyXadL_ZN10cc1_plugin2cp10build_declEEEPKc18gcc_cp_symbol_kindyS3_yS3_jET_P14gcc_cp_contextT1_T2_T3_T4_T5_T6_T7_ _ZN10cc1_plugin16marshall_intlikeEPNS_10connectionEy 181
_Z3rpcIyXadL_ZN10cc1_plugin2cp10build_declEEEPKc18gcc_cp_symbol_kindyS3_yS3_jET_P14gcc_cp_contextT1_T2_T3_T4_T5_T6_T7_ _ZN10cc1_plugin8marshallEPNS_10connectionEPKc 202
_Z3rpcIyXadL_ZN10cc1_plugin2cp10build_declEEEPKc18gcc_cp_symbol_kindyS3_yS3_jET_P14gcc_cp_contextT1_T2_T3_T4_T5_T6_T7_ _ZN10cc1_plugin16marshall_intlikeEPNS_10connectionEy 222
_Z3rpcIyXadL_ZN10cc1_plugin2cp10build_declEEEPKc18gcc_cp_symbol_kindyS3_yS3_jET_P14gcc_cp_contextT1_T2_T3_T4_T5_T6_T7_ _ZN10cc1_plugin10connection7do_waitEb 243
_Z3rpcIyXadL_ZN10cc1_plugin2cp10build_declEEEPKc18gcc_cp_symbol_kindyS3_yS3_jET_P14gcc_cp_contextT1_T2_T3_T4_T5_T6_T7_ _ZN10cc1_plugin18unmarshall_intlikeEPNS_10connectionEPy 264
_Z3rpcIyXadL_ZN10cc1_plugin2cp24start_closure_class_typeEEEiy18gcc_cp_symbol_kindPKcjET_P14gcc_cp_contextT1_T2_T3_T4_T5_ _ZN10cc1_plugin2cp24start_closure_class_typeE 38
_Z3rpcIyXadL_ZN10cc1_plugin2cp24start_closure_class_typeEEEiy18gcc_cp_symbol_kindPKcjET_P14gcc_cp_contextT1_T2_T3_T4_T5_ _ZN10cc1_plugin10connection4sendEc 51
_Z3rpcIyXadL_ZN10cc1_plugin2cp24start_closure_class_typeEEEiy18gcc_cp_symbol_kindPKcjET_P14gcc_cp_contextT1_T2_T3_T4_T5_ _ZN10cc1_plugin8marshallEPNS_10connectionEPKc 87
_Z3rpcIyXadL_ZN10cc1_plugin2cp24start_closure_class_typeEEEiy18gcc_cp_symbol_kindPKcjET_P14gcc_cp_contextT1_T2_T3_T4_T5_ _ZN10cc1_plugin16marshall_intlikeEPNS_10connectionEy 104
_Z3rpcIyXadL_ZN10cc1_plugin2cp24start_closure_class_typeEEEiy18gcc_cp_symbol_kindPKcjET_P14gcc_cp_contextT1_T2_T3_T4_T5_ _ZN10cc1_plugin16marshall_intlikeEPNS_10connectionEy 119
_Z3rpcIyXadL_ZN10cc1_plugin2cp24start_closure_class_typeEEEiy18gcc_cp_symbol_kindPKcjET_P14gcc_cp_contextT1_T2_T3_T4_T5_ _ZN10cc1_plugin16marshall_intlikeEPNS_10connectionEy 134
_Z3rpcIyXadL_ZN10cc1_plugin2cp24start_closure_class_typeEEEiy18gcc_cp_symbol_kindPKcjET_P14gcc_cp_contextT1_T2_T3_T4_T5_ _ZN10cc1_plugin16marshall_intlikeEPNS_10connectionEy 149
_Z3rpcIyXadL_ZN10cc1_plugin2cp24start_closure_class_typeEEEiy18gcc_cp_symbol_kindPKcjET_P14gcc_cp_contextT1_T2_T3_T4_T5_ _ZN10cc1_plugin8marshallEPNS_10connectionEPKc 164
_Z3rpcIyXadL_ZN10cc1_plugin2cp24start_closure_class_typeEEEiy18gcc_cp_symbol_kindPKcjET_P14gcc_cp_contextT1_T2_T3_T4_T5_ _ZN10cc1_plugin16marshall_intlikeEPNS_10connectionEy 180
_Z3rpcIyXadL_ZN10cc1_plugin2cp24start_closure_class_typeEEEiy18gcc_cp_symbol_kindPKcjET_P14gcc_cp_contextT1_T2_T3_T4_T5_ _ZN10cc1_plugin10connection7do_waitEb 201
_Z3rpcIyXadL_ZN10cc1_plugin2cp24start_closure_class_typeEEEiy18gcc_cp_symbol_kindPKcjET_P14gcc_cp_contextT1_T2_T3_T4_T5_ _ZN10cc1_plugin18unmarshall_intlikeEPNS_10connectionEPy 222
_Z3rpcIiXadL_ZN10cc1_plugin2cp14build_constantEEEyPKcmS3_jET_P14gcc_cp_contextT1_T2_T3_T4_T5_ _ZN10cc1_plugin2cp14build_constantE 38
_Z3rpcIiXadL_ZN10cc1_plugin2cp14build_constantEEEyPKcmS3_jET_P14gcc_cp_contextT1_T2_T3_T4_T5_ _ZN10cc1_plugin10connection4sendEc 51
_Z3rpcIiXadL_ZN10cc1_plugin2cp14build_constantEEEyPKcmS3_jET_P14gcc_cp_contextT1_T2_T3_T4_T5_ _ZN10cc1_plugin8marshallEPNS_10connectionEPKc 87
_Z3rpcIiXadL_ZN10cc1_plugin2cp14build_constantEEEyPKcmS3_jET_P14gcc_cp_contextT1_T2_T3_T4_T5_ _ZN10cc1_plugin16marshall_intlikeEPNS_10connectionEy 104
_Z3rpcIiXadL_ZN10cc1_plugin2cp14build_constantEEEyPKcmS3_jET_P14gcc_cp_contextT1_T2_T3_T4_T5_ _ZN10cc1_plugin16marshall_intlikeEPNS_10connectionEy 119
_Z3rpcIiXadL_ZN10cc1_plugin2cp14build_constantEEEyPKcmS3_jET_P14gcc_cp_contextT1_T2_T3_T4_T5_ _ZN10cc1_plugin8marshallEPNS_10connectionEPKc 134
_Z3rpcIiXadL_ZN10cc1_plugin2cp14build_constantEEEyPKcmS3_jET_P14gcc_cp_contextT1_T2_T3_T4_T5_ _ZN10cc1_plugin16marshall_intlikeEPNS_10connectionEy 149
_Z3rpcIiXadL_ZN10cc1_plugin2cp14build_constantEEEyPKcmS3_jET_P14gcc_cp_contextT1_T2_T3_T4_T5_ _ZN10cc1_plugin8marshallEPNS_10connectionEPKc 164
_Z3rpcIiXadL_ZN10cc1_plugin2cp14build_constantEEEyPKcmS3_jET_P14gcc_cp_contextT1_T2_T3_T4_T5_ _ZN10cc1_plugin16marshall_intlikeEPNS_10connectionEy 180
_Z3rpcIiXadL_ZN10cc1_plugin2cp14build_constantEEEyPKcmS3_jET_P14gcc_cp_contextT1_T2_T3_T4_T5_ _ZN10cc1_plugin10connection7do_waitEb 201
_Z3rpcIiXadL_ZN10cc1_plugin2cp14build_constantEEEyPKcmS3_jET_P14gcc_cp_contextT1_T2_T3_T4_T5_ _ZN10cc1_plugin18unmarshall_intlikeEPNS_10connectionEPy 222
_Z3rpcIyXadL_ZN10cc1_plugin2cp30build_value_template_parameterEEEyPKcyS3_jET_P14gcc_cp_contextT1_T2_T3_T4_T5_ _ZN10cc1_plugin2cp30build_value_template_parameterE 38
_Z3rpcIyXadL_ZN10cc1_plugin2cp30build_value_template_parameterEEEyPKcyS3_jET_P14gcc_cp_contextT1_T2_T3_T4_T5_ _ZN10cc1_plugin10connection4sendEc 51
_Z3rpcIyXadL_ZN10cc1_plugin2cp30build_value_template_parameterEEEyPKcyS3_jET_P14gcc_cp_contextT1_T2_T3_T4_T5_ _ZN10cc1_plugin8marshallEPNS_10connectionEPKc 87
_Z3rpcIyXadL_ZN10cc1_plugin2cp30build_value_template_parameterEEEyPKcyS3_jET_P14gcc_cp_contextT1_T2_T3_T4_T5_ _ZN10cc1_plugin16marshall_intlikeEPNS_10connectionEy 104
_Z3rpcIyXadL_ZN10cc1_plugin2cp30build_value_template_parameterEEEyPKcyS3_jET_P14gcc_cp_contextT1_T2_T3_T4_T5_ _ZN10cc1_plugin16marshall_intlikeEPNS_10connectionEy 119
_Z3rpcIyXadL_ZN10cc1_plugin2cp30build_value_template_parameterEEEyPKcyS3_jET_P14gcc_cp_contextT1_T2_T3_T4_T5_ _ZN10cc1_plugin8marshallEPNS_10connectionEPKc 134
_Z3rpcIyXadL_ZN10cc1_plugin2cp30build_value_template_parameterEEEyPKcyS3_jET_P14gcc_cp_contextT1_T2_T3_T4_T5_ _ZN10cc1_plugin16marshall_intlikeEPNS_10connectionEy 149
_Z3rpcIyXadL_ZN10cc1_plugin2cp30build_value_template_parameterEEEyPKcyS3_jET_P14gcc_cp_contextT1_T2_T3_T4_T5_ _ZN10cc1_plugin8marshallEPNS_10connectionEPKc 164
_Z3rpcIyXadL_ZN10cc1_plugin2cp30build_value_template_parameterEEEyPKcyS3_jET_P14gcc_cp_contextT1_T2_T3_T4_T5_ _ZN10cc1_plugin16marshall_intlikeEPNS_10connectionEy 180
_Z3rpcIyXadL_ZN10cc1_plugin2cp30build_value_template_parameterEEEyPKcyS3_jET_P14gcc_cp_contextT1_T2_T3_T4_T5_ _ZN10cc1_plugin10connection7do_waitEb 201
_Z3rpcIyXadL_ZN10cc1_plugin2cp30build_value_template_parameterEEEyPKcyS3_jET_P14gcc_cp_contextT1_T2_T3_T4_T5_ _ZN10cc1_plugin18unmarshall_intlikeEPNS_10connectionEPy 222
_Z3rpcIyXadL_ZN10cc1_plugin2cp11build_fieldEEEPKcy18gcc_cp_symbol_kindmmET_P14gcc_cp_contextT1_T2_T3_T4_T5_ _ZN10cc1_plugin2cp11build_fieldE 38
_Z3rpcIyXadL_ZN10cc1_plugin2cp11build_fieldEEEPKcy18gcc_cp_symbol_kindmmET_P14gcc_cp_contextT1_T2_T3_T4_T5_ _ZN10cc1_plugin10connection4sendEc 51
_Z3rpcIyXadL_ZN10cc1_plugin2cp11build_fieldEEEPKcy18gcc_cp_symbol_kindmmET_P14gcc_cp_contextT1_T2_T3_T4_T5_ _ZN10cc1_plugin8marshallEPNS_10connectionEPKc 87
_Z3rpcIyXadL_ZN10cc1_plugin2cp11build_fieldEEEPKcy18gcc_cp_symbol_kindmmET_P14gcc_cp_contextT1_T2_T3_T4_T5_ _ZN10cc1_plugin16marshall_intlikeEPNS_10connectionEy 104
_Z3rpcIyXadL_ZN10cc1_plugin2cp11build_fieldEEEPKcy18gcc_cp_symbol_kindmmET_P14gcc_cp_contextT1_T2_T3_T4_T5_ _ZN10cc1_plugin8marshallEPNS_10connectionEPKc 119
_Z3rpcIyXadL_ZN10cc1_plugin2cp11build_fieldEEEPKcy18gcc_cp_symbol_kindmmET_P14gcc_cp_contextT1_T2_T3_T4_T5_ _ZN10cc1_plugin16marshall_intlikeEPNS_10connectionEy 134
_Z3rpcIyXadL_ZN10cc1_plugin2cp11build_fieldEEEPKcy18gcc_cp_symbol_kindmmET_P14gcc_cp_contextT1_T2_T3_T4_T5_ _ZN10cc1_plugin16marshall_intlikeEPNS_10connectionEy 149
_Z3rpcIyXadL_ZN10cc1_plugin2cp11build_fieldEEEPKcy18gcc_cp_symbol_kindmmET_P14gcc_cp_contextT1_T2_T3_T4_T5_ _ZN10cc1_plugin16marshall_intlikeEPNS_10connectionEy 164
_Z3rpcIyXadL_ZN10cc1_plugin2cp11build_fieldEEEPKcy18gcc_cp_symbol_kindmmET_P14gcc_cp_contextT1_T2_T3_T4_T5_ _ZN10cc1_plugin16marshall_intlikeEPNS_10connectionEy 181
_Z3rpcIyXadL_ZN10cc1_plugin2cp11build_fieldEEEPKcy18gcc_cp_symbol_kindmmET_P14gcc_cp_contextT1_T2_T3_T4_T5_ _ZN10cc1_plugin10connection7do_waitEb 202
_Z3rpcIyXadL_ZN10cc1_plugin2cp11build_fieldEEEPKcy18gcc_cp_symbol_kindmmET_P14gcc_cp_contextT1_T2_T3_T4_T5_ _ZN10cc1_plugin18unmarshall_intlikeEPNS_10connectionEPy 223
_Z3rpcIyXadL_ZN10cc1_plugin2cp15start_enum_typeEEEPKcy18gcc_cp_symbol_kindS3_jET_P14gcc_cp_contextT1_T2_T3_T4_T5_ _ZN10cc1_plugin2cp15start_enum_typeE 38
_Z3rpcIyXadL_ZN10cc1_plugin2cp15start_enum_typeEEEPKcy18gcc_cp_symbol_kindS3_jET_P14gcc_cp_contextT1_T2_T3_T4_T5_ _ZN10cc1_plugin10connection4sendEc 51
_Z3rpcIyXadL_ZN10cc1_plugin2cp15start_enum_typeEEEPKcy18gcc_cp_symbol_kindS3_jET_P14gcc_cp_contextT1_T2_T3_T4_T5_ _ZN10cc1_plugin8marshallEPNS_10connectionEPKc 87
_Z3rpcIyXadL_ZN10cc1_plugin2cp15start_enum_typeEEEPKcy18gcc_cp_symbol_kindS3_jET_P14gcc_cp_contextT1_T2_T3_T4_T5_ _ZN10cc1_plugin16marshall_intlikeEPNS_10connectionEy 104
_Z3rpcIyXadL_ZN10cc1_plugin2cp15start_enum_typeEEEPKcy18gcc_cp_symbol_kindS3_jET_P14gcc_cp_contextT1_T2_T3_T4_T5_ _ZN10cc1_plugin8marshallEPNS_10connectionEPKc 119
_Z3rpcIyXadL_ZN10cc1_plugin2cp15start_enum_typeEEEPKcy18gcc_cp_symbol_kindS3_jET_P14gcc_cp_contextT1_T2_T3_T4_T5_ _ZN10cc1_plugin16marshall_intlikeEPNS_10connectionEy 134
_Z3rpcIyXadL_ZN10cc1_plugin2cp15start_enum_typeEEEPKcy18gcc_cp_symbol_kindS3_jET_P14gcc_cp_contextT1_T2_T3_T4_T5_ _ZN10cc1_plugin16marshall_intlikeEPNS_10connectionEy 149
_Z3rpcIyXadL_ZN10cc1_plugin2cp15start_enum_typeEEEPKcy18gcc_cp_symbol_kindS3_jET_P14gcc_cp_contextT1_T2_T3_T4_T5_ _ZN10cc1_plugin8marshallEPNS_10connectionEPKc 164
_Z3rpcIyXadL_ZN10cc1_plugin2cp15start_enum_typeEEEPKcy18gcc_cp_symbol_kindS3_jET_P14gcc_cp_contextT1_T2_T3_T4_T5_ _ZN10cc1_plugin16marshall_intlikeEPNS_10connectionEy 180
_Z3rpcIyXadL_ZN10cc1_plugin2cp15start_enum_typeEEEPKcy18gcc_cp_symbol_kindS3_jET_P14gcc_cp_contextT1_T2_T3_T4_T5_ _ZN10cc1_plugin10connection7do_waitEb 201
_Z3rpcIyXadL_ZN10cc1_plugin2cp15start_enum_typeEEEPKcy18gcc_cp_symbol_kindS3_jET_P14gcc_cp_contextT1_T2_T3_T4_T5_ _ZN10cc1_plugin18unmarshall_intlikeEPNS_10connectionEPy 222
_Z3rpcIyXadL_ZN10cc1_plugin2cp18build_ternary_exprEEEPKcyyyET_P14gcc_cp_contextT1_T2_T3_T4_ _ZN10cc1_plugin2cp18build_ternary_exprE 38
_Z3rpcIyXadL_ZN10cc1_plugin2cp18build_ternary_exprEEEPKcyyyET_P14gcc_cp_contextT1_T2_T3_T4_ _ZN10cc1_plugin10connection4sendEc 46
_Z3rpcIyXadL_ZN10cc1_plugin2cp18build_ternary_exprEEEPKcyyyET_P14gcc_cp_contextT1_T2_T3_T4_ _ZN10cc1_plugin8marshallEPNS_10connectionEPKc 87
_Z3rpcIyXadL_ZN10cc1_plugin2cp18build_ternary_exprEEEPKcyyyET_P14gcc_cp_contextT1_T2_T3_T4_ _ZN10cc1_plugin16marshall_intlikeEPNS_10connectionEy 104
_Z3rpcIyXadL_ZN10cc1_plugin2cp18build_ternary_exprEEEPKcyyyET_P14gcc_cp_contextT1_T2_T3_T4_ _ZN10cc1_plugin8marshallEPNS_10connectionEPKc 119
_Z3rpcIyXadL_ZN10cc1_plugin2cp18build_ternary_exprEEEPKcyyyET_P14gcc_cp_contextT1_T2_T3_T4_ _ZN10cc1_plugin16marshall_intlikeEPNS_10connectionEy 134
_Z3rpcIyXadL_ZN10cc1_plugin2cp18build_ternary_exprEEEPKcyyyET_P14gcc_cp_contextT1_T2_T3_T4_ _ZN10cc1_plugin16marshall_intlikeEPNS_10connectionEy 149
_Z3rpcIyXadL_ZN10cc1_plugin2cp18build_ternary_exprEEEPKcyyyET_P14gcc_cp_contextT1_T2_T3_T4_ _ZN10cc1_plugin16marshall_intlikeEPNS_10connectionEy 164
_Z3rpcIyXadL_ZN10cc1_plugin2cp18build_ternary_exprEEEPKcyyyET_P14gcc_cp_contextT1_T2_T3_T4_ _ZN10cc1_plugin10connection7do_waitEb 181
_Z3rpcIyXadL_ZN10cc1_plugin2cp18build_ternary_exprEEEPKcyyyET_P14gcc_cp_contextT1_T2_T3_T4_ _ZN10cc1_plugin18unmarshall_intlikeEPNS_10connectionEPy 202
_Z3rpcIyXadL_ZN10cc1_plugin2cp17build_method_typeEEEyy17gcc_cp_qualifiers21gcc_cp_ref_qualifiersET_P14gcc_cp_contextT1_T2_T3_T4_ _ZN10cc1_plugin2cp17build_method_typeE 38
_Z3rpcIyXadL_ZN10cc1_plugin2cp17build_method_typeEEEyy17gcc_cp_qualifiers21gcc_cp_ref_qualifiersET_P14gcc_cp_contextT1_T2_T3_T4_ _ZN10cc1_plugin10connection4sendEc 46
_Z3rpcIyXadL_ZN10cc1_plugin2cp17build_method_typeEEEyy17gcc_cp_qualifiers21gcc_cp_ref_qualifiersET_P14gcc_cp_contextT1_T2_T3_T4_ _ZN10cc1_plugin8marshallEPNS_10connectionEPKc 87
_Z3rpcIyXadL_ZN10cc1_plugin2cp17build_method_typeEEEyy17gcc_cp_qualifiers21gcc_cp_ref_qualifiersET_P14gcc_cp_contextT1_T2_T3_T4_ _ZN10cc1_plugin16marshall_intlikeEPNS_10connectionEy 104
_Z3rpcIyXadL_ZN10cc1_plugin2cp17build_method_typeEEEyy17gcc_cp_qualifiers21gcc_cp_ref_qualifiersET_P14gcc_cp_contextT1_T2_T3_T4_ _ZN10cc1_plugin16marshall_intlikeEPNS_10connectionEy 119
_Z3rpcIyXadL_ZN10cc1_plugin2cp17build_method_typeEEEyy17gcc_cp_qualifiers21gcc_cp_ref_qualifiersET_P14gcc_cp_contextT1_T2_T3_T4_ _ZN10cc1_plugin16marshall_intlikeEPNS_10connectionEy 134
_Z3rpcIyXadL_ZN10cc1_plugin2cp17build_method_typeEEEyy17gcc_cp_qualifiers21gcc_cp_ref_qualifiersET_P14gcc_cp_contextT1_T2_T3_T4_ _ZN10cc1_plugin16marshall_intlikeEPNS_10connectionEy 149
_Z3rpcIyXadL_ZN10cc1_plugin2cp17build_method_typeEEEyy17gcc_cp_qualifiers21gcc_cp_ref_qualifiersET_P14gcc_cp_contextT1_T2_T3_T4_ _ZN10cc1_plugin16marshall_intlikeEPNS_10connectionEy 164
_Z3rpcIyXadL_ZN10cc1_plugin2cp17build_method_typeEEEyy17gcc_cp_qualifiers21gcc_cp_ref_qualifiersET_P14gcc_cp_contextT1_T2_T3_T4_ _ZN10cc1_plugin10connection7do_waitEb 181
_Z3rpcIyXadL_ZN10cc1_plugin2cp17build_method_typeEEEyy17gcc_cp_qualifiers21gcc_cp_ref_qualifiersET_P14gcc_cp_contextT1_T2_T3_T4_ _ZN10cc1_plugin18unmarshall_intlikeEPNS_10connectionEPy 202
_Z3rpcIiXadL_ZN10cc1_plugin2cp17add_static_assertEEEyPKcS3_jET_P14gcc_cp_contextT1_T2_T3_T4_ _ZN10cc1_plugin2cp17add_static_assertE 38
_Z3rpcIiXadL_ZN10cc1_plugin2cp17add_static_assertEEEyPKcS3_jET_P14gcc_cp_contextT1_T2_T3_T4_ _ZN10cc1_plugin10connection4sendEc 46
_Z3rpcIiXadL_ZN10cc1_plugin2cp17add_static_assertEEEyPKcS3_jET_P14gcc_cp_contextT1_T2_T3_T4_ _ZN10cc1_plugin8marshallEPNS_10connectionEPKc 87
_Z3rpcIiXadL_ZN10cc1_plugin2cp17add_static_assertEEEyPKcS3_jET_P14gcc_cp_contextT1_T2_T3_T4_ _ZN10cc1_plugin16marshall_intlikeEPNS_10connectionEy 104
_Z3rpcIiXadL_ZN10cc1_plugin2cp17add_static_assertEEEyPKcS3_jET_P14gcc_cp_contextT1_T2_T3_T4_ _ZN10cc1_plugin16marshall_intlikeEPNS_10connectionEy 119
_Z3rpcIiXadL_ZN10cc1_plugin2cp17add_static_assertEEEyPKcS3_jET_P14gcc_cp_contextT1_T2_T3_T4_ _ZN10cc1_plugin8marshallEPNS_10connectionEPKc 134
_Z3rpcIiXadL_ZN10cc1_plugin2cp17add_static_assertEEEyPKcS3_jET_P14gcc_cp_contextT1_T2_T3_T4_ _ZN10cc1_plugin8marshallEPNS_10connectionEPKc 149
_Z3rpcIiXadL_ZN10cc1_plugin2cp17add_static_assertEEEyPKcS3_jET_P14gcc_cp_contextT1_T2_T3_T4_ _ZN10cc1_plugin16marshall_intlikeEPNS_10connectionEy 164
_Z3rpcIiXadL_ZN10cc1_plugin2cp17add_static_assertEEEyPKcS3_jET_P14gcc_cp_contextT1_T2_T3_T4_ _ZN10cc1_plugin10connection7do_waitEb 181
_Z3rpcIiXadL_ZN10cc1_plugin2cp17add_static_assertEEEyPKcS3_jET_P14gcc_cp_contextT1_T2_T3_T4_ _ZN10cc1_plugin18unmarshall_intlikeEPNS_10connectionEPy 202
_Z3rpcIyXadL_ZN10cc1_plugin2cp19build_function_typeEEEyPK14gcc_type_arrayiET_P14gcc_cp_contextT1_T2_T3_ _ZN10cc1_plugin2cp19build_function_typeE 33
_Z3rpcIyXadL_ZN10cc1_plugin2cp19build_function_typeEEEyPK14gcc_type_arrayiET_P14gcc_cp_contextT1_T2_T3_ _ZN10cc1_plugin10connection4sendEc 41
_Z3rpcIyXadL_ZN10cc1_plugin2cp19build_function_typeEEEyPK14gcc_type_arrayiET_P14gcc_cp_contextT1_T2_T3_ _ZN10cc1_plugin8marshallEPNS_10connectionEPKc 71
_Z3rpcIyXadL_ZN10cc1_plugin2cp19build_function_typeEEEyPK14gcc_type_arrayiET_P14gcc_cp_contextT1_T2_T3_ _ZN10cc1_plugin16marshall_intlikeEPNS_10connectionEy 88
_Z3rpcIyXadL_ZN10cc1_plugin2cp19build_function_typeEEEyPK14gcc_type_arrayiET_P14gcc_cp_contextT1_T2_T3_ _ZN10cc1_plugin16marshall_intlikeEPNS_10connectionEy 103
_Z3rpcIyXadL_ZN10cc1_plugin2cp19build_function_typeEEEyPK14gcc_type_arrayiET_P14gcc_cp_contextT1_T2_T3_ _ZN10cc1_plugin8marshallEPNS_10connectionEPK14gcc_type_array 118
_Z3rpcIyXadL_ZN10cc1_plugin2cp19build_function_typeEEEyPK14gcc_type_arrayiET_P14gcc_cp_contextT1_T2_T3_ _ZN10cc1_plugin16marshall_intlikeEPNS_10connectionEy 133
_Z3rpcIyXadL_ZN10cc1_plugin2cp19build_function_typeEEEyPK14gcc_type_arrayiET_P14gcc_cp_contextT1_T2_T3_ _ZN10cc1_plugin10connection7do_waitEb 150
_Z3rpcIyXadL_ZN10cc1_plugin2cp19build_function_typeEEEyPK14gcc_type_arrayiET_P14gcc_cp_contextT1_T2_T3_ _ZN10cc1_plugin18unmarshall_intlikeEPNS_10connectionEPy 167
_Z3rpcIyXadL_ZN10cc1_plugin2cp19build_enum_constantEEEyPKcmET_P14gcc_cp_contextT1_T2_T3_ _ZN10cc1_plugin2cp19build_enum_constantE 33
_Z3rpcIyXadL_ZN10cc1_plugin2cp19build_enum_constantEEEyPKcmET_P14gcc_cp_contextT1_T2_T3_ _ZN10cc1_plugin10connection4sendEc 41
_Z3rpcIyXadL_ZN10cc1_plugin2cp19build_enum_constantEEEyPKcmET_P14gcc_cp_contextT1_T2_T3_ _ZN10cc1_plugin8marshallEPNS_10connectionEPKc 71
_Z3rpcIyXadL_ZN10cc1_plugin2cp19build_enum_constantEEEyPKcmET_P14gcc_cp_contextT1_T2_T3_ _ZN10cc1_plugin16marshall_intlikeEPNS_10connectionEy 88
_Z3rpcIyXadL_ZN10cc1_plugin2cp19build_enum_constantEEEyPKcmET_P14gcc_cp_contextT1_T2_T3_ _ZN10cc1_plugin16marshall_intlikeEPNS_10connectionEy 103
_Z3rpcIyXadL_ZN10cc1_plugin2cp19build_enum_constantEEEyPKcmET_P14gcc_cp_contextT1_T2_T3_ _ZN10cc1_plugin8marshallEPNS_10connectionEPKc 118
_Z3rpcIyXadL_ZN10cc1_plugin2cp19build_enum_constantEEEyPKcmET_P14gcc_cp_contextT1_T2_T3_ _ZN10cc1_plugin16marshall_intlikeEPNS_10connectionEy 133
_Z3rpcIyXadL_ZN10cc1_plugin2cp19build_enum_constantEEEyPKcmET_P14gcc_cp_contextT1_T2_T3_ _ZN10cc1_plugin10connection7do_waitEb 150
_Z3rpcIyXadL_ZN10cc1_plugin2cp19build_enum_constantEEEyPKcmET_P14gcc_cp_contextT1_T2_T3_ _ZN10cc1_plugin18unmarshall_intlikeEPNS_10connectionEPy 167
_Z3rpcIyXadL_ZN10cc1_plugin2cp12get_int_typeEEEimPKcET_P14gcc_cp_contextT1_T2_T3_ _ZN10cc1_plugin2cp12get_int_typeE 33
_Z3rpcIyXadL_ZN10cc1_plugin2cp12get_int_typeEEEimPKcET_P14gcc_cp_contextT1_T2_T3_ _ZN10cc1_plugin10connection4sendEc 41
_Z3rpcIyXadL_ZN10cc1_plugin2cp12get_int_typeEEEimPKcET_P14gcc_cp_contextT1_T2_T3_ _ZN10cc1_plugin8marshallEPNS_10connectionEPKc 71
_Z3rpcIyXadL_ZN10cc1_plugin2cp12get_int_typeEEEimPKcET_P14gcc_cp_contextT1_T2_T3_ _ZN10cc1_plugin16marshall_intlikeEPNS_10connectionEy 88
_Z3rpcIyXadL_ZN10cc1_plugin2cp12get_int_typeEEEimPKcET_P14gcc_cp_contextT1_T2_T3_ _ZN10cc1_plugin16marshall_intlikeEPNS_10connectionEy 103
_Z3rpcIyXadL_ZN10cc1_plugin2cp12get_int_typeEEEimPKcET_P14gcc_cp_contextT1_T2_T3_ _ZN10cc1_plugin16marshall_intlikeEPNS_10connectionEy 118
_Z3rpcIyXadL_ZN10cc1_plugin2cp12get_int_typeEEEimPKcET_P14gcc_cp_contextT1_T2_T3_ _ZN10cc1_plugin8marshallEPNS_10connectionEPKc 133
_Z3rpcIyXadL_ZN10cc1_plugin2cp12get_int_typeEEEimPKcET_P14gcc_cp_contextT1_T2_T3_ _ZN10cc1_plugin10connection7do_waitEb 150
_Z3rpcIyXadL_ZN10cc1_plugin2cp12get_int_typeEEEimPKcET_P14gcc_cp_contextT1_T2_T3_ _ZN10cc1_plugin18unmarshall_intlikeEPNS_10connectionEPy 167
_Z3rpcIiXadL_ZN10cc1_plugin2cp19add_namespace_aliasEEEPKcyET_P14gcc_cp_contextT1_T2_ _ZN10cc1_plugin2cp19add_namespace_aliasE 28
_Z3rpcIiXadL_ZN10cc1_plugin2cp19add_namespace_aliasEEEPKcyET_P14gcc_cp_contextT1_T2_ _ZN10cc1_plugin10connection4sendEc 36
_Z3rpcIiXadL_ZN10cc1_plugin2cp19add_namespace_aliasEEEPKcyET_P14gcc_cp_contextT1_T2_ _ZN10cc1_plugin8marshallEPNS_10connectionEPKc 71
_Z3rpcIiXadL_ZN10cc1_plugin2cp19add_namespace_aliasEEEPKcyET_P14gcc_cp_contextT1_T2_ _ZN10cc1_plugin16marshall_intlikeEPNS_10connectionEy 88
_Z3rpcIiXadL_ZN10cc1_plugin2cp19add_namespace_aliasEEEPKcyET_P14gcc_cp_contextT1_T2_ _ZN10cc1_plugin8marshallEPNS_10connectionEPKc 103
_Z3rpcIiXadL_ZN10cc1_plugin2cp19add_namespace_aliasEEEPKcyET_P14gcc_cp_contextT1_T2_ _ZN10cc1_plugin16marshall_intlikeEPNS_10connectionEy 118
_Z3rpcIiXadL_ZN10cc1_plugin2cp19add_namespace_aliasEEEPKcyET_P14gcc_cp_contextT1_T2_ _ZN10cc1_plugin10connection7do_waitEb 135
_Z3rpcIiXadL_ZN10cc1_plugin2cp19add_namespace_aliasEEEPKcyET_P14gcc_cp_contextT1_T2_ _ZN10cc1_plugin18unmarshall_intlikeEPNS_10connectionEPy 152
_Z3rpcIyXadL_ZN10cc1_plugin2cp14get_float_typeEEEmPKcET_P14gcc_cp_contextT1_T2_ _ZN10cc1_plugin2cp14get_float_typeE 28
_Z3rpcIyXadL_ZN10cc1_plugin2cp14get_float_typeEEEmPKcET_P14gcc_cp_contextT1_T2_ _ZN10cc1_plugin10connection4sendEc 36
_Z3rpcIyXadL_ZN10cc1_plugin2cp14get_float_typeEEEmPKcET_P14gcc_cp_contextT1_T2_ _ZN10cc1_plugin8marshallEPNS_10connectionEPKc 71
_Z3rpcIyXadL_ZN10cc1_plugin2cp14get_float_typeEEEmPKcET_P14gcc_cp_contextT1_T2_ _ZN10cc1_plugin16marshall_intlikeEPNS_10connectionEy 88
_Z3rpcIyXadL_ZN10cc1_plugin2cp14get_float_typeEEEmPKcET_P14gcc_cp_contextT1_T2_ _ZN10cc1_plugin16marshall_intlikeEPNS_10connectionEy 103
_Z3rpcIyXadL_ZN10cc1_plugin2cp14get_float_typeEEEmPKcET_P14gcc_cp_contextT1_T2_ _ZN10cc1_plugin8marshallEPNS_10connectionEPKc 118
_Z3rpcIyXadL_ZN10cc1_plugin2cp14get_float_typeEEEmPKcET_P14gcc_cp_contextT1_T2_ _ZN10cc1_plugin10connection7do_waitEb 135
_Z3rpcIyXadL_ZN10cc1_plugin2cp14get_float_typeEEEmPKcET_P14gcc_cp_contextT1_T2_ _ZN10cc1_plugin18unmarshall_intlikeEPNS_10connectionEPy 152
_Z3rpcIyXadL_ZN10cc1_plugin2cp18build_literal_exprEEEymET_P14gcc_cp_contextT1_T2_ _ZN10cc1_plugin2cp18build_literal_exprE 28
_Z3rpcIyXadL_ZN10cc1_plugin2cp18build_literal_exprEEEymET_P14gcc_cp_contextT1_T2_ _ZN10cc1_plugin10connection4sendEc 36
_Z3rpcIyXadL_ZN10cc1_plugin2cp18build_literal_exprEEEymET_P14gcc_cp_contextT1_T2_ _ZN10cc1_plugin8marshallEPNS_10connectionEPKc 71
_Z3rpcIyXadL_ZN10cc1_plugin2cp18build_literal_exprEEEymET_P14gcc_cp_contextT1_T2_ _ZN10cc1_plugin16marshall_intlikeEPNS_10connectionEy 88
_Z3rpcIyXadL_ZN10cc1_plugin2cp18build_literal_exprEEEymET_P14gcc_cp_contextT1_T2_ _ZN10cc1_plugin16marshall_intlikeEPNS_10connectionEy 103
_Z3rpcIyXadL_ZN10cc1_plugin2cp18build_literal_exprEEEymET_P14gcc_cp_contextT1_T2_ _ZN10cc1_plugin16marshall_intlikeEPNS_10connectionEy 118
_Z3rpcIyXadL_ZN10cc1_plugin2cp18build_literal_exprEEEymET_P14gcc_cp_contextT1_T2_ _ZN10cc1_plugin10connection7do_waitEb 135
_Z3rpcIyXadL_ZN10cc1_plugin2cp18build_literal_exprEEEymET_P14gcc_cp_contextT1_T2_ _ZN10cc1_plugin18unmarshall_intlikeEPNS_10connectionEPy 152
_Z3rpcIyXadL_ZN10cc1_plugin2cp28build_exception_spec_variantEEEyPK14gcc_type_arrayET_P14gcc_cp_contextT1_T2_ _ZN10cc1_plugin2cp28build_exception_spec_variantE 28
_Z3rpcIyXadL_ZN10cc1_plugin2cp28build_exception_spec_variantEEEyPK14gcc_type_arrayET_P14gcc_cp_contextT1_T2_ _ZN10cc1_plugin10connection4sendEc 36
_Z3rpcIyXadL_ZN10cc1_plugin2cp28build_exception_spec_variantEEEyPK14gcc_type_arrayET_P14gcc_cp_contextT1_T2_ _ZN10cc1_plugin8marshallEPNS_10connectionEPKc 71
_Z3rpcIyXadL_ZN10cc1_plugin2cp28build_exception_spec_variantEEEyPK14gcc_type_arrayET_P14gcc_cp_contextT1_T2_ _ZN10cc1_plugin16marshall_intlikeEPNS_10connectionEy 88
_Z3rpcIyXadL_ZN10cc1_plugin2cp28build_exception_spec_variantEEEyPK14gcc_type_arrayET_P14gcc_cp_contextT1_T2_ _ZN10cc1_plugin16marshall_intlikeEPNS_10connectionEy 103
_Z3rpcIyXadL_ZN10cc1_plugin2cp28build_exception_spec_variantEEEyPK14gcc_type_arrayET_P14gcc_cp_contextT1_T2_ _ZN10cc1_plugin8marshallEPNS_10connectionEPK14gcc_type_array 118
_Z3rpcIyXadL_ZN10cc1_plugin2cp28build_exception_spec_variantEEEyPK14gcc_type_arrayET_P14gcc_cp_contextT1_T2_ _ZN10cc1_plugin10connection7do_waitEb 135
_Z3rpcIyXadL_ZN10cc1_plugin2cp28build_exception_spec_variantEEEyPK14gcc_type_arrayET_P14gcc_cp_contextT1_T2_ _ZN10cc1_plugin18unmarshall_intlikeEPNS_10connectionEPy 152
_Z3rpcIiXadL_ZN10cc1_plugin2cp14add_using_declEEE18gcc_cp_symbol_kindyET_P14gcc_cp_contextT1_T2_ _ZN10cc1_plugin2cp14add_using_declE 28
_Z3rpcIiXadL_ZN10cc1_plugin2cp14add_using_declEEE18gcc_cp_symbol_kindyET_P14gcc_cp_contextT1_T2_ _ZN10cc1_plugin10connection4sendEc 36
_Z3rpcIiXadL_ZN10cc1_plugin2cp14add_using_declEEE18gcc_cp_symbol_kindyET_P14gcc_cp_contextT1_T2_ _ZN10cc1_plugin8marshallEPNS_10connectionEPKc 71
_Z3rpcIiXadL_ZN10cc1_plugin2cp14add_using_declEEE18gcc_cp_symbol_kindyET_P14gcc_cp_contextT1_T2_ _ZN10cc1_plugin16marshall_intlikeEPNS_10connectionEy 88
_Z3rpcIiXadL_ZN10cc1_plugin2cp14add_using_declEEE18gcc_cp_symbol_kindyET_P14gcc_cp_contextT1_T2_ _ZN10cc1_plugin16marshall_intlikeEPNS_10connectionEy 103
_Z3rpcIiXadL_ZN10cc1_plugin2cp14add_using_declEEE18gcc_cp_symbol_kindyET_P14gcc_cp_contextT1_T2_ _ZN10cc1_plugin16marshall_intlikeEPNS_10connectionEy 118
_Z3rpcIiXadL_ZN10cc1_plugin2cp14add_using_declEEE18gcc_cp_symbol_kindyET_P14gcc_cp_contextT1_T2_ _ZN10cc1_plugin10connection7do_waitEb 135
_Z3rpcIiXadL_ZN10cc1_plugin2cp14add_using_declEEE18gcc_cp_symbol_kindyET_P14gcc_cp_contextT1_T2_ _ZN10cc1_plugin18unmarshall_intlikeEPNS_10connectionEPy 152
_Z3rpcIyXadL_ZN10cc1_plugin2cp20build_qualified_typeEEEy17gcc_cp_qualifiersET_P14gcc_cp_contextT1_T2_ _ZN10cc1_plugin2cp20build_qualified_typeE 28
_Z3rpcIyXadL_ZN10cc1_plugin2cp20build_qualified_typeEEEy17gcc_cp_qualifiersET_P14gcc_cp_contextT1_T2_ _ZN10cc1_plugin10connection4sendEc 36
_Z3rpcIyXadL_ZN10cc1_plugin2cp20build_qualified_typeEEEy17gcc_cp_qualifiersET_P14gcc_cp_contextT1_T2_ _ZN10cc1_plugin8marshallEPNS_10connectionEPKc 71
_Z3rpcIyXadL_ZN10cc1_plugin2cp20build_qualified_typeEEEy17gcc_cp_qualifiersET_P14gcc_cp_contextT1_T2_ _ZN10cc1_plugin16marshall_intlikeEPNS_10connectionEy 88
_Z3rpcIyXadL_ZN10cc1_plugin2cp20build_qualified_typeEEEy17gcc_cp_qualifiersET_P14gcc_cp_contextT1_T2_ _ZN10cc1_plugin16marshall_intlikeEPNS_10connectionEy 103
_Z3rpcIyXadL_ZN10cc1_plugin2cp20build_qualified_typeEEEy17gcc_cp_qualifiersET_P14gcc_cp_contextT1_T2_ _ZN10cc1_plugin16marshall_intlikeEPNS_10connectionEy 118
_Z3rpcIyXadL_ZN10cc1_plugin2cp20build_qualified_typeEEEy17gcc_cp_qualifiersET_P14gcc_cp_contextT1_T2_ _ZN10cc1_plugin10connection7do_waitEb 135
_Z3rpcIyXadL_ZN10cc1_plugin2cp20build_qualified_typeEEEy17gcc_cp_qualifiersET_P14gcc_cp_contextT1_T2_ _ZN10cc1_plugin18unmarshall_intlikeEPNS_10connectionEPy 152
_Z3rpcIyXadL_ZN10cc1_plugin2cp20build_reference_typeEEEy21gcc_cp_ref_qualifiersET_P14gcc_cp_contextT1_T2_ _ZN10cc1_plugin2cp20build_reference_typeE 28
_Z3rpcIyXadL_ZN10cc1_plugin2cp20build_reference_typeEEEy21gcc_cp_ref_qualifiersET_P14gcc_cp_contextT1_T2_ _ZN10cc1_plugin10connection4sendEc 36
_Z3rpcIyXadL_ZN10cc1_plugin2cp20build_reference_typeEEEy21gcc_cp_ref_qualifiersET_P14gcc_cp_contextT1_T2_ _ZN10cc1_plugin8marshallEPNS_10connectionEPKc 71
_Z3rpcIyXadL_ZN10cc1_plugin2cp20build_reference_typeEEEy21gcc_cp_ref_qualifiersET_P14gcc_cp_contextT1_T2_ _ZN10cc1_plugin16marshall_intlikeEPNS_10connectionEy 88
_Z3rpcIyXadL_ZN10cc1_plugin2cp20build_reference_typeEEEy21gcc_cp_ref_qualifiersET_P14gcc_cp_contextT1_T2_ _ZN10cc1_plugin16marshall_intlikeEPNS_10connectionEy 103
_Z3rpcIyXadL_ZN10cc1_plugin2cp20build_reference_typeEEEy21gcc_cp_ref_qualifiersET_P14gcc_cp_contextT1_T2_ _ZN10cc1_plugin16marshall_intlikeEPNS_10connectionEy 118
_Z3rpcIyXadL_ZN10cc1_plugin2cp20build_reference_typeEEEy21gcc_cp_ref_qualifiersET_P14gcc_cp_contextT1_T2_ _ZN10cc1_plugin10connection7do_waitEb 135
_Z3rpcIyXadL_ZN10cc1_plugin2cp20build_reference_typeEEEy21gcc_cp_ref_qualifiersET_P14gcc_cp_contextT1_T2_ _ZN10cc1_plugin18unmarshall_intlikeEPNS_10connectionEPy 152
_Z3rpcIiXadL_ZN10cc1_plugin2cp14push_namespaceEEEPKcET_P14gcc_cp_contextT1_ _ZN10cc1_plugin2cp14push_namespaceE 23
_Z3rpcIiXadL_ZN10cc1_plugin2cp14push_namespaceEEEPKcET_P14gcc_cp_contextT1_ _ZN10cc1_plugin10connection4sendEc 31
_Z3rpcIiXadL_ZN10cc1_plugin2cp14push_namespaceEEEPKcET_P14gcc_cp_contextT1_ _ZN10cc1_plugin8marshallEPNS_10connectionEPKc 63
_Z3rpcIiXadL_ZN10cc1_plugin2cp14push_namespaceEEEPKcET_P14gcc_cp_contextT1_ _ZN10cc1_plugin16marshall_intlikeEPNS_10connectionEy 80
_Z3rpcIiXadL_ZN10cc1_plugin2cp14push_namespaceEEEPKcET_P14gcc_cp_contextT1_ _ZN10cc1_plugin8marshallEPNS_10connectionEPKc 95
_Z3rpcIiXadL_ZN10cc1_plugin2cp14push_namespaceEEEPKcET_P14gcc_cp_contextT1_ _ZN10cc1_plugin10connection7do_waitEb 112
_Z3rpcIiXadL_ZN10cc1_plugin2cp14push_namespaceEEEPKcET_P14gcc_cp_contextT1_ _ZN10cc1_plugin18unmarshall_intlikeEPNS_10connectionEPy 129
_ZN6libcp123compiler_triplet_regexpD1Ev,_ZN6libcp123compiler_triplet_regexpD2Ev _ZTVN6libcp123compiler_triplet_regexpE 7
_ZN6libcp123compiler_triplet_regexpD1Ev,_ZN6libcp123compiler_triplet_regexpD2Ev _ZNSs4_Rep20_S_empty_rep_storageE 18
_ZN6libcp123compiler_triplet_regexpD1Ev,_ZN6libcp123compiler_triplet_regexpD2Ev __pthread_key_create 33
_ZN6libcp123compiler_triplet_regexpD1Ev,_ZN6libcp123compiler_triplet_regexpD2Ev _ZNSs4_Rep10_M_destroyERKSaIcE 68
_ZN6libcp124compiler_driver_filenameD1Ev,_ZN6libcp124compiler_driver_filenameD2Ev _ZTVN6libcp124compiler_driver_filenameE 7
_ZN6libcp124compiler_driver_filenameD1Ev,_ZN6libcp124compiler_driver_filenameD2Ev _ZNSs4_Rep20_S_empty_rep_storageE 18
_ZN6libcp124compiler_driver_filenameD1Ev,_ZN6libcp124compiler_driver_filenameD2Ev __pthread_key_create 33
_ZN6libcp124compiler_driver_filenameD1Ev,_ZN6libcp124compiler_driver_filenameD2Ev _ZNSs4_Rep10_M_destroyERKSaIcE 68
_ZN6libcp124compiler_driver_filenameD0Ev _ZTVN6libcp124compiler_driver_filenameE 15
_ZN6libcp124compiler_driver_filenameD0Ev _ZNSs4_Rep20_S_empty_rep_storageE 26
_ZN6libcp124compiler_driver_filenameD0Ev _ZdlPv 36
_ZN6libcp124compiler_driver_filenameD0Ev __pthread_key_create 49
_ZN6libcp124compiler_driver_filenameD0Ev _ZNSs4_Rep10_M_destroyERKSaIcE 80
_ZN6libcp123compiler_triplet_regexpD0Ev _ZTVN6libcp123compiler_triplet_regexpE 15
_ZN6libcp123compiler_triplet_regexpD0Ev _ZNSs4_Rep20_S_empty_rep_storageE 26
_ZN6libcp123compiler_triplet_regexpD0Ev _ZdlPv 36
_ZN6libcp123compiler_triplet_regexpD0Ev __pthread_key_create 49
_ZN6libcp123compiler_triplet_regexpD0Ev _ZNSs4_Rep10_M_destroyERKSaIcE 80
_Z3rpcIiXadL_ZN10cc1_plugin2cp17finish_class_typeEEEmET_P14gcc_cp_contextT1_ _ZN10cc1_plugin2cp17finish_class_typeE 23
_Z3rpcIiXadL_ZN10cc1_plugin2cp17finish_class_typeEEEmET_P14gcc_cp_contextT1_ _ZN10cc1_plugin10connection4sendEc 31
_Z3rpcIiXadL_ZN10cc1_plugin2cp17finish_class_typeEEEmET_P14gcc_cp_contextT1_ _ZN10cc1_plugin8marshallEPNS_10connectionEPKc 63
_Z3rpcIiXadL_ZN10cc1_plugin2cp17finish_class_typeEEEmET_P14gcc_cp_contextT1_ _ZN10cc1_plugin16marshall_intlikeEPNS_10connectionEy 80
_Z3rpcIiXadL_ZN10cc1_plugin2cp17finish_class_typeEEEmET_P14gcc_cp_contextT1_ _ZN10cc1_plugin16marshall_intlikeEPNS_10connectionEy 95
_Z3rpcIiXadL_ZN10cc1_plugin2cp17finish_class_typeEEEmET_P14gcc_cp_contextT1_ _ZN10cc1_plugin10connection7do_waitEb 112
_Z3rpcIiXadL_ZN10cc1_plugin2cp17finish_class_typeEEEmET_P14gcc_cp_contextT1_ _ZN10cc1_plugin18unmarshall_intlikeEPNS_10connectionEPy 129
_Z3rpcIyXadL_ZN10cc1_plugin2cp5errorEEEPKcET_P14gcc_cp_contextT1_ _ZN10cc1_plugin2cp5errorE 23
_Z3rpcIyXadL_ZN10cc1_plugin2cp5errorEEEPKcET_P14gcc_cp_contextT1_ _ZN10cc1_plugin10connection4sendEc 31
_Z3rpcIyXadL_ZN10cc1_plugin2cp5errorEEEPKcET_P14gcc_cp_contextT1_ _ZN10cc1_plugin8marshallEPNS_10connectionEPKc 63
_Z3rpcIyXadL_ZN10cc1_plugin2cp5errorEEEPKcET_P14gcc_cp_contextT1_ _ZN10cc1_plugin16marshall_intlikeEPNS_10connectionEy 80
_Z3rpcIyXadL_ZN10cc1_plugin2cp5errorEEEPKcET_P14gcc_cp_contextT1_ _ZN10cc1_plugin8marshallEPNS_10connectionEPKc 95
_Z3rpcIyXadL_ZN10cc1_plugin2cp5errorEEEPKcET_P14gcc_cp_contextT1_ _ZN10cc1_plugin10connection7do_waitEb 112
_Z3rpcIyXadL_ZN10cc1_plugin2cp5errorEEEPKcET_P14gcc_cp_contextT1_ _ZN10cc1_plugin18unmarshall_intlikeEPNS_10connectionEPy 129
_Z3rpcIyXadL_ZN10cc1_plugin2cp16start_class_typeEEEyPK15gcc_vbase_arrayPKcjET_P14gcc_cp_contextT1_T2_T3_T4_ _ZN10cc1_plugin2cp16start_class_typeE 38
_Z3rpcIyXadL_ZN10cc1_plugin2cp16start_class_typeEEEyPK15gcc_vbase_arrayPKcjET_P14gcc_cp_contextT1_T2_T3_T4_ _ZN10cc1_plugin10connection4sendEc 46
_Z3rpcIyXadL_ZN10cc1_plugin2cp16start_class_typeEEEyPK15gcc_vbase_arrayPKcjET_P14gcc_cp_contextT1_T2_T3_T4_ _ZN10cc1_plugin8marshallEPNS_10connectionEPKc 87
_Z3rpcIyXadL_ZN10cc1_plugin2cp16start_class_typeEEEyPK15gcc_vbase_arrayPKcjET_P14gcc_cp_contextT1_T2_T3_T4_ _ZN10cc1_plugin16marshall_intlikeEPNS_10connectionEy 104
_Z3rpcIyXadL_ZN10cc1_plugin2cp16start_class_typeEEEyPK15gcc_vbase_arrayPKcjET_P14gcc_cp_contextT1_T2_T3_T4_ _ZN10cc1_plugin16marshall_intlikeEPNS_10connectionEy 119
_Z3rpcIyXadL_ZN10cc1_plugin2cp16start_class_typeEEEyPK15gcc_vbase_arrayPKcjET_P14gcc_cp_contextT1_T2_T3_T4_ _ZN10cc1_plugin8marshallEPNS_10connectionEPK15gcc_vbase_array 134
_Z3rpcIyXadL_ZN10cc1_plugin2cp16start_class_typeEEEyPK15gcc_vbase_arrayPKcjET_P14gcc_cp_contextT1_T2_T3_T4_ _ZN10cc1_plugin8marshallEPNS_10connectionEPKc 149
_Z3rpcIyXadL_ZN10cc1_plugin2cp16start_class_typeEEEyPK15gcc_vbase_arrayPKcjET_P14gcc_cp_contextT1_T2_T3_T4_ _ZN10cc1_plugin16marshall_intlikeEPNS_10connectionEy 164
_Z3rpcIyXadL_ZN10cc1_plugin2cp16start_class_typeEEEyPK15gcc_vbase_arrayPKcjET_P14gcc_cp_contextT1_T2_T3_T4_ _ZN10cc1_plugin10connection7do_waitEb 181
_Z3rpcIyXadL_ZN10cc1_plugin2cp16start_class_typeEEEyPK15gcc_vbase_arrayPKcjET_P14gcc_cp_contextT1_T2_T3_T4_ _ZN10cc1_plugin18unmarshall_intlikeEPNS_10connectionEPy 202
_Z3rpcIyXadL_ZN10cc1_plugin2cp24build_dependent_typenameEEEyPKcPK20gcc_cp_template_argsET_P14gcc_cp_contextT1_T2_T3_ _ZN10cc1_plugin2cp24build_dependent_typenameE 33
_Z3rpcIyXadL_ZN10cc1_plugin2cp24build_dependent_typenameEEEyPKcPK20gcc_cp_template_argsET_P14gcc_cp_contextT1_T2_T3_ _ZN10cc1_plugin10connection4sendEc 41
_Z3rpcIyXadL_ZN10cc1_plugin2cp24build_dependent_typenameEEEyPKcPK20gcc_cp_template_argsET_P14gcc_cp_contextT1_T2_T3_ _ZN10cc1_plugin8marshallEPNS_10connectionEPKc 71
_Z3rpcIyXadL_ZN10cc1_plugin2cp24build_dependent_typenameEEEyPKcPK20gcc_cp_template_argsET_P14gcc_cp_contextT1_T2_T3_ _ZN10cc1_plugin16marshall_intlikeEPNS_10connectionEy 88
_Z3rpcIyXadL_ZN10cc1_plugin2cp24build_dependent_typenameEEEyPKcPK20gcc_cp_template_argsET_P14gcc_cp_contextT1_T2_T3_ _ZN10cc1_plugin16marshall_intlikeEPNS_10connectionEy 103
_Z3rpcIyXadL_ZN10cc1_plugin2cp24build_dependent_typenameEEEyPKcPK20gcc_cp_template_argsET_P14gcc_cp_contextT1_T2_T3_ _ZN10cc1_plugin8marshallEPNS_10connectionEPKc 118
_Z3rpcIyXadL_ZN10cc1_plugin2cp24build_dependent_typenameEEEyPKcPK20gcc_cp_template_argsET_P14gcc_cp_contextT1_T2_T3_ _ZN10cc1_plugin8marshallEPNS_10connectionEPK20gcc_cp_template_args 133
_Z3rpcIyXadL_ZN10cc1_plugin2cp24build_dependent_typenameEEEyPKcPK20gcc_cp_template_argsET_P14gcc_cp_contextT1_T2_T3_ _ZN10cc1_plugin10connection7do_waitEb 150
_Z3rpcIyXadL_ZN10cc1_plugin2cp24build_dependent_typenameEEEyPKcPK20gcc_cp_template_argsET_P14gcc_cp_contextT1_T2_T3_ _ZN10cc1_plugin18unmarshall_intlikeEPNS_10connectionEPy 167
_Z3rpcIyXadL_ZN10cc1_plugin2cp20build_dependent_exprEEEy18gcc_cp_symbol_kindPKcyPK20gcc_cp_template_argsET_P14gcc_cp_contextT1_T2_T3_T4_T5_ _ZN10cc1_plugin2cp20build_dependent_exprE 38
_Z3rpcIyXadL_ZN10cc1_plugin2cp20build_dependent_exprEEEy18gcc_cp_symbol_kindPKcyPK20gcc_cp_template_argsET_P14gcc_cp_contextT1_T2_T3_T4_T5_ _ZN10cc1_plugin10connection4sendEc 51
_Z3rpcIyXadL_ZN10cc1_plugin2cp20build_dependent_exprEEEy18gcc_cp_symbol_kindPKcyPK20gcc_cp_template_argsET_P14gcc_cp_contextT1_T2_T3_T4_T5_ _ZN10cc1_plugin8marshallEPNS_10connectionEPKc 87
_Z3rpcIyXadL_ZN10cc1_plugin2cp20build_dependent_exprEEEy18gcc_cp_symbol_kindPKcyPK20gcc_cp_template_argsET_P14gcc_cp_contextT1_T2_T3_T4_T5_ _ZN10cc1_plugin16marshall_intlikeEPNS_10connectionEy 104
_Z3rpcIyXadL_ZN10cc1_plugin2cp20build_dependent_exprEEEy18gcc_cp_symbol_kindPKcyPK20gcc_cp_template_argsET_P14gcc_cp_contextT1_T2_T3_T4_T5_ _ZN10cc1_plugin16marshall_intlikeEPNS_10connectionEy 119
_Z3rpcIyXadL_ZN10cc1_plugin2cp20build_dependent_exprEEEy18gcc_cp_symbol_kindPKcyPK20gcc_cp_template_argsET_P14gcc_cp_contextT1_T2_T3_T4_T5_ _ZN10cc1_plugin16marshall_intlikeEPNS_10connectionEy 134
_Z3rpcIyXadL_ZN10cc1_plugin2cp20build_dependent_exprEEEy18gcc_cp_symbol_kindPKcyPK20gcc_cp_template_argsET_P14gcc_cp_contextT1_T2_T3_T4_T5_ _ZN10cc1_plugin8marshallEPNS_10connectionEPKc 149
_Z3rpcIyXadL_ZN10cc1_plugin2cp20build_dependent_exprEEEy18gcc_cp_symbol_kindPKcyPK20gcc_cp_template_argsET_P14gcc_cp_contextT1_T2_T3_T4_T5_ _ZN10cc1_plugin16marshall_intlikeEPNS_10connectionEy 164
_Z3rpcIyXadL_ZN10cc1_plugin2cp20build_dependent_exprEEEy18gcc_cp_symbol_kindPKcyPK20gcc_cp_template_argsET_P14gcc_cp_contextT1_T2_T3_T4_T5_ _ZN10cc1_plugin8marshallEPNS_10connectionEPK20gcc_cp_template_args 181
_Z3rpcIyXadL_ZN10cc1_plugin2cp20build_dependent_exprEEEy18gcc_cp_symbol_kindPKcyPK20gcc_cp_template_argsET_P14gcc_cp_contextT1_T2_T3_T4_T5_ _ZN10cc1_plugin10connection7do_waitEb 202
_Z3rpcIyXadL_ZN10cc1_plugin2cp20build_dependent_exprEEEy18gcc_cp_symbol_kindPKcyPK20gcc_cp_template_argsET_P14gcc_cp_contextT1_T2_T3_T4_T5_ _ZN10cc1_plugin18unmarshall_intlikeEPNS_10connectionEPy 223
_Z3rpcIyXadL_ZN10cc1_plugin2cp38build_function_template_specializationEEEyPK20gcc_cp_template_argsyPKcjET_P14gcc_cp_contextT1_T2_T3_T4_T5_ _ZN10cc1_plugin2cp38build_function_template_specializationE 38
_Z3rpcIyXadL_ZN10cc1_plugin2cp38build_function_template_specializationEEEyPK20gcc_cp_template_argsyPKcjET_P14gcc_cp_contextT1_T2_T3_T4_T5_ _ZN10cc1_plugin10connection4sendEc 51
_Z3rpcIyXadL_ZN10cc1_plugin2cp38build_function_template_specializationEEEyPK20gcc_cp_template_argsyPKcjET_P14gcc_cp_contextT1_T2_T3_T4_T5_ _ZN10cc1_plugin8marshallEPNS_10connectionEPKc 87
_Z3rpcIyXadL_ZN10cc1_plugin2cp38build_function_template_specializationEEEyPK20gcc_cp_template_argsyPKcjET_P14gcc_cp_contextT1_T2_T3_T4_T5_ _ZN10cc1_plugin16marshall_intlikeEPNS_10connectionEy 104
_Z3rpcIyXadL_ZN10cc1_plugin2cp38build_function_template_specializationEEEyPK20gcc_cp_template_argsyPKcjET_P14gcc_cp_contextT1_T2_T3_T4_T5_ _ZN10cc1_plugin16marshall_intlikeEPNS_10connectionEy 119
_Z3rpcIyXadL_ZN10cc1_plugin2cp38build_function_template_specializationEEEyPK20gcc_cp_template_argsyPKcjET_P14gcc_cp_contextT1_T2_T3_T4_T5_ _ZN10cc1_plugin8marshallEPNS_10connectionEPK20gcc_cp_template_args 134
_Z3rpcIyXadL_ZN10cc1_plugin2cp38build_function_template_specializationEEEyPK20gcc_cp_template_argsyPKcjET_P14gcc_cp_contextT1_T2_T3_T4_T5_ _ZN10cc1_plugin16marshall_intlikeEPNS_10connectionEy 149
_Z3rpcIyXadL_ZN10cc1_plugin2cp38build_function_template_specializationEEEyPK20gcc_cp_template_argsyPKcjET_P14gcc_cp_contextT1_T2_T3_T4_T5_ _ZN10cc1_plugin8marshallEPNS_10connectionEPKc 164
_Z3rpcIyXadL_ZN10cc1_plugin2cp38build_function_template_specializationEEEyPK20gcc_cp_template_argsyPKcjET_P14gcc_cp_contextT1_T2_T3_T4_T5_ _ZN10cc1_plugin16marshall_intlikeEPNS_10connectionEy 180
_Z3rpcIyXadL_ZN10cc1_plugin2cp38build_function_template_specializationEEEyPK20gcc_cp_template_argsyPKcjET_P14gcc_cp_contextT1_T2_T3_T4_T5_ _ZN10cc1_plugin10connection7do_waitEb 201
_Z3rpcIyXadL_ZN10cc1_plugin2cp38build_function_template_specializationEEEyPK20gcc_cp_template_argsyPKcjET_P14gcc_cp_contextT1_T2_T3_T4_T5_ _ZN10cc1_plugin18unmarshall_intlikeEPNS_10connectionEPy 222
_Z3rpcIyXadL_ZN10cc1_plugin2cp35build_class_template_specializationEEEyPK20gcc_cp_template_argsPKcjET_P14gcc_cp_contextT1_T2_T3_T4_ _ZN10cc1_plugin2cp35build_class_template_specializationE 38
_Z3rpcIyXadL_ZN10cc1_plugin2cp35build_class_template_specializationEEEyPK20gcc_cp_template_argsPKcjET_P14gcc_cp_contextT1_T2_T3_T4_ _ZN10cc1_plugin10connection4sendEc 46
_Z3rpcIyXadL_ZN10cc1_plugin2cp35build_class_template_specializationEEEyPK20gcc_cp_template_argsPKcjET_P14gcc_cp_contextT1_T2_T3_T4_ _ZN10cc1_plugin8marshallEPNS_10connectionEPKc 87
_Z3rpcIyXadL_ZN10cc1_plugin2cp35build_class_template_specializationEEEyPK20gcc_cp_template_argsPKcjET_P14gcc_cp_contextT1_T2_T3_T4_ _ZN10cc1_plugin16marshall_intlikeEPNS_10connectionEy 104
_Z3rpcIyXadL_ZN10cc1_plugin2cp35build_class_template_specializationEEEyPK20gcc_cp_template_argsPKcjET_P14gcc_cp_contextT1_T2_T3_T4_ _ZN10cc1_plugin16marshall_intlikeEPNS_10connectionEy 119
_Z3rpcIyXadL_ZN10cc1_plugin2cp35build_class_template_specializationEEEyPK20gcc_cp_template_argsPKcjET_P14gcc_cp_contextT1_T2_T3_T4_ _ZN10cc1_plugin8marshallEPNS_10connectionEPK20gcc_cp_template_args 134
_Z3rpcIyXadL_ZN10cc1_plugin2cp35build_class_template_specializationEEEyPK20gcc_cp_template_argsPKcjET_P14gcc_cp_contextT1_T2_T3_T4_ _ZN10cc1_plugin8marshallEPNS_10connectionEPKc 149
_Z3rpcIyXadL_ZN10cc1_plugin2cp35build_class_template_specializationEEEyPK20gcc_cp_template_argsPKcjET_P14gcc_cp_contextT1_T2_T3_T4_ _ZN10cc1_plugin16marshall_intlikeEPNS_10connectionEy 164
_Z3rpcIyXadL_ZN10cc1_plugin2cp35build_class_template_specializationEEEyPK20gcc_cp_template_argsPKcjET_P14gcc_cp_contextT1_T2_T3_T4_ _ZN10cc1_plugin10connection7do_waitEb 181
_Z3rpcIyXadL_ZN10cc1_plugin2cp35build_class_template_specializationEEEyPK20gcc_cp_template_argsPKcjET_P14gcc_cp_contextT1_T2_T3_T4_ _ZN10cc1_plugin18unmarshall_intlikeEPNS_10connectionEPy 202
_Z3rpcIyXadL_ZN10cc1_plugin2cp32build_dependent_type_template_idEEEyPK20gcc_cp_template_argsET_P14gcc_cp_contextT1_T2_ _ZN10cc1_plugin2cp32build_dependent_type_template_idE 28
_Z3rpcIyXadL_ZN10cc1_plugin2cp32build_dependent_type_template_idEEEyPK20gcc_cp_template_argsET_P14gcc_cp_contextT1_T2_ _ZN10cc1_plugin10connection4sendEc 36
_Z3rpcIyXadL_ZN10cc1_plugin2cp32build_dependent_type_template_idEEEyPK20gcc_cp_template_argsET_P14gcc_cp_contextT1_T2_ _ZN10cc1_plugin8marshallEPNS_10connectionEPKc 71
_Z3rpcIyXadL_ZN10cc1_plugin2cp32build_dependent_type_template_idEEEyPK20gcc_cp_template_argsET_P14gcc_cp_contextT1_T2_ _ZN10cc1_plugin16marshall_intlikeEPNS_10connectionEy 88
_Z3rpcIyXadL_ZN10cc1_plugin2cp32build_dependent_type_template_idEEEyPK20gcc_cp_template_argsET_P14gcc_cp_contextT1_T2_ _ZN10cc1_plugin16marshall_intlikeEPNS_10connectionEy 103
_Z3rpcIyXadL_ZN10cc1_plugin2cp32build_dependent_type_template_idEEEyPK20gcc_cp_template_argsET_P14gcc_cp_contextT1_T2_ _ZN10cc1_plugin8marshallEPNS_10connectionEPK20gcc_cp_template_args 118
_Z3rpcIyXadL_ZN10cc1_plugin2cp32build_dependent_type_template_idEEEyPK20gcc_cp_template_argsET_P14gcc_cp_contextT1_T2_ _ZN10cc1_plugin10connection7do_waitEb 135
_Z3rpcIyXadL_ZN10cc1_plugin2cp32build_dependent_type_template_idEEEyPK20gcc_cp_template_argsET_P14gcc_cp_contextT1_T2_ _ZN10cc1_plugin18unmarshall_intlikeEPNS_10connectionEPy 152
_Z3rpcIyXadL_ZN10cc1_plugin2cp15build_call_exprEEEyiPK20gcc_cp_function_argsET_P14gcc_cp_contextT1_T2_T3_ _ZN10cc1_plugin2cp15build_call_exprE 33
_Z3rpcIyXadL_ZN10cc1_plugin2cp15build_call_exprEEEyiPK20gcc_cp_function_argsET_P14gcc_cp_contextT1_T2_T3_ _ZN10cc1_plugin10connection4sendEc 41
_Z3rpcIyXadL_ZN10cc1_plugin2cp15build_call_exprEEEyiPK20gcc_cp_function_argsET_P14gcc_cp_contextT1_T2_T3_ _ZN10cc1_plugin8marshallEPNS_10connectionEPKc 71
_Z3rpcIyXadL_ZN10cc1_plugin2cp15build_call_exprEEEyiPK20gcc_cp_function_argsET_P14gcc_cp_contextT1_T2_T3_ _ZN10cc1_plugin16marshall_intlikeEPNS_10connectionEy 88
_Z3rpcIyXadL_ZN10cc1_plugin2cp15build_call_exprEEEyiPK20gcc_cp_function_argsET_P14gcc_cp_contextT1_T2_T3_ _ZN10cc1_plugin16marshall_intlikeEPNS_10connectionEy 103
_Z3rpcIyXadL_ZN10cc1_plugin2cp15build_call_exprEEEyiPK20gcc_cp_function_argsET_P14gcc_cp_contextT1_T2_T3_ _ZN10cc1_plugin16marshall_intlikeEPNS_10connectionEy 118
_Z3rpcIyXadL_ZN10cc1_plugin2cp15build_call_exprEEEyiPK20gcc_cp_function_argsET_P14gcc_cp_contextT1_T2_T3_ _ZN10cc1_plugin8marshallEPNS_10connectionEPK20gcc_cp_function_args 133
_Z3rpcIyXadL_ZN10cc1_plugin2cp15build_call_exprEEEyiPK20gcc_cp_function_argsET_P14gcc_cp_contextT1_T2_T3_ _ZN10cc1_plugin10connection7do_waitEb 150
_Z3rpcIyXadL_ZN10cc1_plugin2cp15build_call_exprEEEyiPK20gcc_cp_function_argsET_P14gcc_cp_contextT1_T2_T3_ _ZN10cc1_plugin18unmarshall_intlikeEPNS_10connectionEPy 167
_Z3rpcIyXadL_ZN10cc1_plugin2cp26build_expression_list_exprEEEPKcyPK20gcc_cp_function_argsET_P14gcc_cp_contextT1_T2_T3_ _ZN10cc1_plugin2cp26build_expression_list_exprE 33
_Z3rpcIyXadL_ZN10cc1_plugin2cp26build_expression_list_exprEEEPKcyPK20gcc_cp_function_argsET_P14gcc_cp_contextT1_T2_T3_ _ZN10cc1_plugin10connection4sendEc 41
_Z3rpcIyXadL_ZN10cc1_plugin2cp26build_expression_list_exprEEEPKcyPK20gcc_cp_function_argsET_P14gcc_cp_contextT1_T2_T3_ _ZN10cc1_plugin8marshallEPNS_10connectionEPKc 71
_Z3rpcIyXadL_ZN10cc1_plugin2cp26build_expression_list_exprEEEPKcyPK20gcc_cp_function_argsET_P14gcc_cp_contextT1_T2_T3_ _ZN10cc1_plugin16marshall_intlikeEPNS_10connectionEy 88
_Z3rpcIyXadL_ZN10cc1_plugin2cp26build_expression_list_exprEEEPKcyPK20gcc_cp_function_argsET_P14gcc_cp_contextT1_T2_T3_ _ZN10cc1_plugin8marshallEPNS_10connectionEPKc 103
_Z3rpcIyXadL_ZN10cc1_plugin2cp26build_expression_list_exprEEEPKcyPK20gcc_cp_function_argsET_P14gcc_cp_contextT1_T2_T3_ _ZN10cc1_plugin16marshall_intlikeEPNS_10connectionEy 118
_Z3rpcIyXadL_ZN10cc1_plugin2cp26build_expression_list_exprEEEPKcyPK20gcc_cp_function_argsET_P14gcc_cp_contextT1_T2_T3_ _ZN10cc1_plugin8marshallEPNS_10connectionEPK20gcc_cp_function_args 133
_Z3rpcIyXadL_ZN10cc1_plugin2cp26build_expression_list_exprEEEPKcyPK20gcc_cp_function_argsET_P14gcc_cp_contextT1_T2_T3_ _ZN10cc1_plugin10connection7do_waitEb 150
_Z3rpcIyXadL_ZN10cc1_plugin2cp26build_expression_list_exprEEEPKcyPK20gcc_cp_function_argsET_P14gcc_cp_contextT1_T2_T3_ _ZN10cc1_plugin18unmarshall_intlikeEPNS_10connectionEPy 167
_Z3rpcIyXadL_ZN10cc1_plugin2cp14build_new_exprEEEPKcPK20gcc_cp_function_argsyS6_ET_P14gcc_cp_contextT1_T2_T3_T4_ _ZN10cc1_plugin2cp14build_new_exprE 38
_Z3rpcIyXadL_ZN10cc1_plugin2cp14build_new_exprEEEPKcPK20gcc_cp_function_argsyS6_ET_P14gcc_cp_contextT1_T2_T3_T4_ _ZN10cc1_plugin10connection4sendEc 46
_Z3rpcIyXadL_ZN10cc1_plugin2cp14build_new_exprEEEPKcPK20gcc_cp_function_argsyS6_ET_P14gcc_cp_contextT1_T2_T3_T4_ _ZN10cc1_plugin8marshallEPNS_10connectionEPKc 87
_Z3rpcIyXadL_ZN10cc1_plugin2cp14build_new_exprEEEPKcPK20gcc_cp_function_argsyS6_ET_P14gcc_cp_contextT1_T2_T3_T4_ _ZN10cc1_plugin16marshall_intlikeEPNS_10connectionEy 104
_Z3rpcIyXadL_ZN10cc1_plugin2cp14build_new_exprEEEPKcPK20gcc_cp_function_argsyS6_ET_P14gcc_cp_contextT1_T2_T3_T4_ _ZN10cc1_plugin8marshallEPNS_10connectionEPKc 119
_Z3rpcIyXadL_ZN10cc1_plugin2cp14build_new_exprEEEPKcPK20gcc_cp_function_argsyS6_ET_P14gcc_cp_contextT1_T2_T3_T4_ _ZN10cc1_plugin8marshallEPNS_10connectionEPK20gcc_cp_function_args 134
_Z3rpcIyXadL_ZN10cc1_plugin2cp14build_new_exprEEEPKcPK20gcc_cp_function_argsyS6_ET_P14gcc_cp_contextT1_T2_T3_T4_ _ZN10cc1_plugin16marshall_intlikeEPNS_10connectionEy 149
_Z3rpcIyXadL_ZN10cc1_plugin2cp14build_new_exprEEEPKcPK20gcc_cp_function_argsyS6_ET_P14gcc_cp_contextT1_T2_T3_T4_ _ZN10cc1_plugin8marshallEPNS_10connectionEPK20gcc_cp_function_args 164
_Z3rpcIyXadL_ZN10cc1_plugin2cp14build_new_exprEEEPKcPK20gcc_cp_function_argsyS6_ET_P14gcc_cp_contextT1_T2_T3_T4_ _ZN10cc1_plugin10connection7do_waitEb 181
_Z3rpcIyXadL_ZN10cc1_plugin2cp14build_new_exprEEEPKcPK20gcc_cp_function_argsyS6_ET_P14gcc_cp_contextT1_T2_T3_T4_ _ZN10cc1_plugin18unmarshall_intlikeEPNS_10connectionEPy 202
_ZN10cc1_plugin4callIiyEENS_6statusEPNS_10connectionEPKcPT_T0_ _ZN10cc1_plugin10connection4sendEc 28
_ZN10cc1_plugin4callIiyEENS_6statusEPNS_10connectionEPKcPT_T0_ _ZN10cc1_plugin8marshallEPNS_10connectionEPKc 63
_ZN10cc1_plugin4callIiyEENS_6statusEPNS_10connectionEPKcPT_T0_ _ZN10cc1_plugin16marshall_intlikeEPNS_10connectionEy 80
_ZN10cc1_plugin4callIiyEENS_6statusEPNS_10connectionEPKcPT_T0_ _ZN10cc1_plugin16marshall_intlikeEPNS_10connectionEy 95
_ZN10cc1_plugin4callIiyEENS_6statusEPNS_10connectionEPKcPT_T0_ _ZN10cc1_plugin10connection7do_waitEb 112
_ZN10cc1_plugin4callIiyEENS_6statusEPNS_10connectionEPKcPT_T0_ _ZN10cc1_plugin18unmarshall_intlikeEPNS_10connectionEPy 129
_Z3rpcIiXadL_ZN10cc1_plugin2cp16finish_enum_typeEEEyET_P14gcc_cp_contextT1_ _ZN10cc1_plugin2cp16finish_enum_typeE 14
_Z3rpcIiXadL_ZN10cc1_plugin2cp16finish_enum_typeEEEyET_P14gcc_cp_contextT1_ _ZN10cc1_plugin4callIiyEENS_6statusEPNS_10connectionEPKcPT_T0_ 24
_Z3rpcIiXadL_ZN10cc1_plugin2cp19add_using_namespaceEEEyET_P14gcc_cp_contextT1_ _ZN10cc1_plugin2cp19add_using_namespaceE 14
_Z3rpcIiXadL_ZN10cc1_plugin2cp19add_using_namespaceEEEyET_P14gcc_cp_contextT1_ _ZN10cc1_plugin4callIiyEENS_6statusEPNS_10connectionEPKcPT_T0_ 24
_Z3rpcIiXadL_ZN10cc1_plugin2cp13push_functionEEEyET_P14gcc_cp_contextT1_ _ZN10cc1_plugin2cp13push_functionE 14
_Z3rpcIiXadL_ZN10cc1_plugin2cp13push_functionEEEyET_P14gcc_cp_contextT1_ _ZN10cc1_plugin4callIiyEENS_6statusEPNS_10connectionEPKcPT_T0_ 24
_Z3rpcIiXadL_ZN10cc1_plugin2cp10push_classEEEyET_P14gcc_cp_contextT1_ _ZN10cc1_plugin2cp10push_classE 14
_Z3rpcIiXadL_ZN10cc1_plugin2cp10push_classEEEyET_P14gcc_cp_contextT1_ _ZN10cc1_plugin4callIiyEENS_6statusEPNS_10connectionEPKcPT_T0_ 24
_ZN10cc1_plugin4callIiyyEENS_6statusEPNS_10connectionEPKcPT_T0_T1_ _ZN10cc1_plugin10connection4sendEc 33
_ZN10cc1_plugin4callIiyyEENS_6statusEPNS_10connectionEPKcPT_T0_T1_ _ZN10cc1_plugin8marshallEPNS_10connectionEPKc 71
_ZN10cc1_plugin4callIiyyEENS_6statusEPNS_10connectionEPKcPT_T0_T1_ _ZN10cc1_plugin16marshall_intlikeEPNS_10connectionEy 88
_ZN10cc1_plugin4callIiyyEENS_6statusEPNS_10connectionEPKcPT_T0_T1_ _ZN10cc1_plugin16marshall_intlikeEPNS_10connectionEy 103
_ZN10cc1_plugin4callIiyyEENS_6statusEPNS_10connectionEPKcPT_T0_T1_ _ZN10cc1_plugin16marshall_intlikeEPNS_10connectionEy 118
_ZN10cc1_plugin4callIiyyEENS_6statusEPNS_10connectionEPKcPT_T0_T1_ _ZN10cc1_plugin10connection7do_waitEb 135
_ZN10cc1_plugin4callIiyyEENS_6statusEPNS_10connectionEPKcPT_T0_T1_ _ZN10cc1_plugin18unmarshall_intlikeEPNS_10connectionEPy 152
_Z3rpcIiXadL_ZN10cc1_plugin2cp10add_friendEEEyyET_P14gcc_cp_contextT1_T2_ _ZN10cc1_plugin2cp10add_friendE 14
_Z3rpcIiXadL_ZN10cc1_plugin2cp10add_friendEEEyyET_P14gcc_cp_contextT1_T2_ _ZN10cc1_plugin4callIiyyEENS_6statusEPNS_10connectionEPKcPT_T0_T1_ 27
_Z3rpcIiXadL_ZN10cc1_plugin2cp15reactivate_declEEEyyET_P14gcc_cp_contextT1_T2_ _ZN10cc1_plugin2cp15reactivate_declE 14
_Z3rpcIiXadL_ZN10cc1_plugin2cp15reactivate_declEEEyyET_P14gcc_cp_contextT1_T2_ _ZN10cc1_plugin4callIiyyEENS_6statusEPNS_10connectionEPKcPT_T0_T1_ 27
_Z3rpcIiXadL_ZN10cc1_plugin2cp19start_template_declEEEET_P14gcc_cp_context _ZN10cc1_plugin2cp19start_template_declE 11
_Z3rpcIiXadL_ZN10cc1_plugin2cp19start_template_declEEEET_P14gcc_cp_context _ZN10cc1_plugin4callIiEENS_6statusEPNS_10connectionEPKcPT_ 21
_Z3rpcIiXadL_ZN10cc1_plugin2cp21make_namespace_inlineEEEET_P14gcc_cp_context _ZN10cc1_plugin2cp21make_namespace_inlineE 11
_Z3rpcIiXadL_ZN10cc1_plugin2cp21make_namespace_inlineEEEET_P14gcc_cp_context _ZN10cc1_plugin4callIiEENS_6statusEPNS_10connectionEPKcPT_ 21
_Z3rpcIiXadL_ZN10cc1_plugin2cp17pop_binding_levelEEEET_P14gcc_cp_context _ZN10cc1_plugin2cp17pop_binding_levelE 11
_Z3rpcIiXadL_ZN10cc1_plugin2cp17pop_binding_levelEEEET_P14gcc_cp_context _ZN10cc1_plugin4callIiEENS_6statusEPNS_10connectionEPKcPT_ 21
_Z3rpcIyXadL_ZN10cc1_plugin2cp20get_nullptr_constantEEEET_P14gcc_cp_context _ZN10cc1_plugin2cp20get_nullptr_constantE 11
_Z3rpcIyXadL_ZN10cc1_plugin2cp20get_nullptr_constantEEEET_P14gcc_cp_context _ZN10cc1_plugin4callIyEENS_6statusEPNS_10connectionEPKcPT_ 21
_Z3rpcIyXadL_ZN10cc1_plugin2cp16get_nullptr_typeEEEET_P14gcc_cp_context _ZN10cc1_plugin2cp16get_nullptr_typeE 11
_Z3rpcIyXadL_ZN10cc1_plugin2cp16get_nullptr_typeEEEET_P14gcc_cp_context _ZN10cc1_plugin4callIyEENS_6statusEPNS_10connectionEPKcPT_ 21
_Z3rpcIyXadL_ZN10cc1_plugin2cp13get_bool_typeEEEET_P14gcc_cp_context _ZN10cc1_plugin2cp13get_bool_typeE 11
_Z3rpcIyXadL_ZN10cc1_plugin2cp13get_bool_typeEEEET_P14gcc_cp_context _ZN10cc1_plugin4callIyEENS_6statusEPNS_10connectionEPKcPT_ 21
_Z3rpcIyXadL_ZN10cc1_plugin2cp13get_void_typeEEEET_P14gcc_cp_context _ZN10cc1_plugin2cp13get_void_typeE 11
_Z3rpcIyXadL_ZN10cc1_plugin2cp13get_void_typeEEEET_P14gcc_cp_context _ZN10cc1_plugin4callIyEENS_6statusEPNS_10connectionEPKcPT_ 21
_Z3rpcIyXadL_ZN10cc1_plugin2cp13get_char_typeEEEET_P14gcc_cp_context _ZN10cc1_plugin2cp13get_char_typeE 11
_Z3rpcIyXadL_ZN10cc1_plugin2cp13get_char_typeEEEET_P14gcc_cp_context _ZN10cc1_plugin4callIyEENS_6statusEPNS_10connectionEPKcPT_ 21
_Z3rpcIyXadL_ZN10cc1_plugin2cp30get_current_binding_level_declEEEET_P14gcc_cp_context _ZN10cc1_plugin2cp30get_current_binding_level_declE 11
_Z3rpcIyXadL_ZN10cc1_plugin2cp30get_current_binding_level_declEEEET_P14gcc_cp_context _ZN10cc1_plugin4callIyEENS_6statusEPNS_10connectionEPKcPT_ 21
_ZN10cc1_plugin4callIyPKcyyEENS_6statusEPNS_10connectionES2_PT_T0_T1_T2_ _ZN10cc1_plugin10connection4sendEc 38
_ZN10cc1_plugin4callIyPKcyyEENS_6statusEPNS_10connectionES2_PT_T0_T1_T2_ _ZN10cc1_plugin8marshallEPNS_10connectionEPKc 71
_ZN10cc1_plugin4callIyPKcyyEENS_6statusEPNS_10connectionES2_PT_T0_T1_T2_ _ZN10cc1_plugin16marshall_intlikeEPNS_10connectionEy 88
_ZN10cc1_plugin4callIyPKcyyEENS_6statusEPNS_10connectionES2_PT_T0_T1_T2_ _ZN10cc1_plugin8marshallEPNS_10connectionEPKc 103
_ZN10cc1_plugin4callIyPKcyyEENS_6statusEPNS_10connectionES2_PT_T0_T1_T2_ _ZN10cc1_plugin16marshall_intlikeEPNS_10connectionEy 118
_ZN10cc1_plugin4callIyPKcyyEENS_6statusEPNS_10connectionES2_PT_T0_T1_T2_ _ZN10cc1_plugin16marshall_intlikeEPNS_10connectionEy 133
_ZN10cc1_plugin4callIyPKcyyEENS_6statusEPNS_10connectionES2_PT_T0_T1_T2_ _ZN10cc1_plugin10connection7do_waitEb 150
_ZN10cc1_plugin4callIyPKcyyEENS_6statusEPNS_10connectionES2_PT_T0_T1_T2_ _ZN10cc1_plugin18unmarshall_intlikeEPNS_10connectionEPy 167
_Z3rpcIyXadL_ZN10cc1_plugin2cp15build_cast_exprEEEPKcyyET_P14gcc_cp_contextT1_T2_T3_ _ZN10cc1_plugin2cp15build_cast_exprE 17
_Z3rpcIyXadL_ZN10cc1_plugin2cp15build_cast_exprEEEPKcyyET_P14gcc_cp_contextT1_T2_T3_ _ZN10cc1_plugin4callIyPKcyyEENS_6statusEPNS_10connectionES2_PT_T0_T1_T2_ 30
_Z3rpcIyXadL_ZN10cc1_plugin2cp17build_binary_exprEEEPKcyyET_P14gcc_cp_contextT1_T2_T3_ _ZN10cc1_plugin2cp17build_binary_exprE 17
_Z3rpcIyXadL_ZN10cc1_plugin2cp17build_binary_exprEEEPKcyyET_P14gcc_cp_contextT1_T2_T3_ _ZN10cc1_plugin4callIyPKcyyEENS_6statusEPNS_10connectionES2_PT_T0_T1_T2_ 30
_Z3rpcIyXadL_ZN10cc1_plugin2cp18define_cdtor_cloneEEEPKcyyET_P14gcc_cp_contextT1_T2_T3_ _ZN10cc1_plugin2cp18define_cdtor_cloneE 17
_Z3rpcIyXadL_ZN10cc1_plugin2cp18define_cdtor_cloneEEEPKcyyET_P14gcc_cp_contextT1_T2_T3_ _ZN10cc1_plugin4callIyPKcyyEENS_6statusEPNS_10connectionES2_PT_T0_T1_T2_ 30
_Z3rpcIyXadL_ZN10cc1_plugin2cp18build_complex_typeEEEyET_P14gcc_cp_contextT1_ _ZN10cc1_plugin2cp18build_complex_typeE 14
_Z3rpcIyXadL_ZN10cc1_plugin2cp18build_complex_typeEEEyET_P14gcc_cp_contextT1_ _ZN10cc1_plugin4callIyyEENS_6statusEPNS_10connectionEPKcPT_T0_ 24
_Z3rpcIyXadL_ZN10cc1_plugin2cp17build_lambda_exprEEEyET_P14gcc_cp_contextT1_ _ZN10cc1_plugin2cp17build_lambda_exprE 14
_Z3rpcIyXadL_ZN10cc1_plugin2cp17build_lambda_exprEEEyET_P14gcc_cp_contextT1_ _ZN10cc1_plugin4callIyyEENS_6statusEPNS_10connectionEPKcPT_T0_ 24
_Z3rpcIyXadL_ZN10cc1_plugin2cp13get_expr_typeEEEyET_P14gcc_cp_contextT1_ _ZN10cc1_plugin2cp13get_expr_typeE 14
_Z3rpcIyXadL_ZN10cc1_plugin2cp13get_expr_typeEEEyET_P14gcc_cp_contextT1_ _ZN10cc1_plugin4callIyyEENS_6statusEPNS_10connectionEPKcPT_T0_ 24
_Z3rpcIyXadL_ZN10cc1_plugin2cp18build_pointer_typeEEEyET_P14gcc_cp_contextT1_ _ZN10cc1_plugin2cp18build_pointer_typeE 14
_Z3rpcIyXadL_ZN10cc1_plugin2cp18build_pointer_typeEEEyET_P14gcc_cp_contextT1_ _ZN10cc1_plugin4callIyyEENS_6statusEPNS_10connectionEPKcPT_T0_ 24
_Z3rpcIyXadL_ZN10cc1_plugin2cp13get_type_declEEEyET_P14gcc_cp_contextT1_ _ZN10cc1_plugin2cp13get_type_declE 14
_Z3rpcIyXadL_ZN10cc1_plugin2cp13get_type_declEEEyET_P14gcc_cp_contextT1_ _ZN10cc1_plugin4callIyyEENS_6statusEPNS_10connectionEPKcPT_T0_ 24
_Z3rpcIyXadL_ZN10cc1_plugin2cp13get_decl_typeEEEyET_P14gcc_cp_contextT1_ _ZN10cc1_plugin2cp13get_decl_typeE 14
_Z3rpcIyXadL_ZN10cc1_plugin2cp13get_decl_typeEEEyET_P14gcc_cp_contextT1_ _ZN10cc1_plugin4callIyyEENS_6statusEPNS_10connectionEPKcPT_T0_ 24
_ZN10cc1_plugin4callIyyyEENS_6statusEPNS_10connectionEPKcPT_T0_T1_ _ZN10cc1_plugin10connection4sendEc 33
_ZN10cc1_plugin4callIyyyEENS_6statusEPNS_10connectionEPKcPT_T0_T1_ _ZN10cc1_plugin8marshallEPNS_10connectionEPKc 71
_ZN10cc1_plugin4callIyyyEENS_6statusEPNS_10connectionEPKcPT_T0_T1_ _ZN10cc1_plugin16marshall_intlikeEPNS_10connectionEy 88
_ZN10cc1_plugin4callIyyyEENS_6statusEPNS_10connectionEPKcPT_T0_T1_ _ZN10cc1_plugin16marshall_intlikeEPNS_10connectionEy 103
_ZN10cc1_plugin4callIyyyEENS_6statusEPNS_10connectionEPKcPT_T0_T1_ _ZN10cc1_plugin16marshall_intlikeEPNS_10connectionEy 118
_ZN10cc1_plugin4callIyyyEENS_6statusEPNS_10connectionEPKcPT_T0_T1_ _ZN10cc1_plugin10connection7do_waitEb 135
_ZN10cc1_plugin4callIyyyEENS_6statusEPNS_10connectionEPKcPT_T0_T1_ _ZN10cc1_plugin18unmarshall_intlikeEPNS_10connectionEPy 152
_Z3rpcIyXadL_ZN10cc1_plugin2cp26build_dependent_array_typeEEEyyET_P14gcc_cp_contextT1_T2_ _ZN10cc1_plugin2cp26build_dependent_array_typeE 14
_Z3rpcIyXadL_ZN10cc1_plugin2cp26build_dependent_array_typeEEEyyET_P14gcc_cp_contextT1_T2_ _ZN10cc1_plugin4callIyyyEENS_6statusEPNS_10connectionEPKcPT_T0_T1_ 27
_Z3rpcIyXadL_ZN10cc1_plugin2cp28build_pointer_to_member_typeEEEyyET_P14gcc_cp_contextT1_T2_ _ZN10cc1_plugin2cp28build_pointer_to_member_typeE 14
_Z3rpcIyXadL_ZN10cc1_plugin2cp28build_pointer_to_member_typeEEEyyET_P14gcc_cp_contextT1_T2_ _ZN10cc1_plugin4callIyyyEENS_6statusEPNS_10connectionEPKcPT_T0_T1_ 27
_ZN10cc1_plugin4callIyPKciyS2_jEENS_6statusEPNS_10connectionES2_PT_T0_T1_T2_T3_T4_ _ZN10cc1_plugin10connection4sendEc 38
_ZN10cc1_plugin4callIyPKciyS2_jEENS_6statusEPNS_10connectionES2_PT_T0_T1_T2_T3_T4_ _ZN10cc1_plugin8marshallEPNS_10connectionEPKc 71
_ZN10cc1_plugin4callIyPKciyS2_jEENS_6statusEPNS_10connectionES2_PT_T0_T1_T2_T3_T4_ _ZN10cc1_plugin16marshall_intlikeEPNS_10connectionEy 88
_ZN10cc1_plugin4callIyPKciyS2_jEENS_6statusEPNS_10connectionES2_PT_T0_T1_T2_T3_T4_ _ZN10cc1_plugin8marshallEPNS_10connectionEPKc 103
_ZN10cc1_plugin4callIyPKciyS2_jEENS_6statusEPNS_10connectionES2_PT_T0_T1_T2_T3_T4_ _ZN10cc1_plugin16marshall_intlikeEPNS_10connectionEy 118
_ZN10cc1_plugin4callIyPKciyS2_jEENS_6statusEPNS_10connectionES2_PT_T0_T1_T2_T3_T4_ _ZN10cc1_plugin16marshall_intlikeEPNS_10connectionEy 133
_ZN10cc1_plugin4callIyPKciyS2_jEENS_6statusEPNS_10connectionES2_PT_T0_T1_T2_T3_T4_ _ZN10cc1_plugin8marshallEPNS_10connectionEPKc 150
_ZN10cc1_plugin4callIyPKciyS2_jEENS_6statusEPNS_10connectionES2_PT_T0_T1_T2_T3_T4_ _ZN10cc1_plugin16marshall_intlikeEPNS_10connectionEy 166
_ZN10cc1_plugin4callIyPKciyS2_jEENS_6statusEPNS_10connectionES2_PT_T0_T1_T2_T3_T4_ _ZN10cc1_plugin10connection7do_waitEb 183
_ZN10cc1_plugin4callIyPKciyS2_jEENS_6statusEPNS_10connectionES2_PT_T0_T1_T2_T3_T4_ _ZN10cc1_plugin18unmarshall_intlikeEPNS_10connectionEPy 204
_Z3rpcIyXadL_ZN10cc1_plugin2cp33build_template_template_parameterEEEPKciyS3_jET_P14gcc_cp_contextT1_T2_T3_T4_T5_ _ZN10cc1_plugin2cp33build_template_template_parameterE 21
_Z3rpcIyXadL_ZN10cc1_plugin2cp33build_template_template_parameterEEEPKciyS3_jET_P14gcc_cp_contextT1_T2_T3_T4_T5_ _ZN10cc1_plugin4callIyPKciyS2_jEENS_6statusEPNS_10connectionES2_PT_T0_T1_T2_T3_T4_ 34
_Z3rpcIyXadL_ZN10cc1_plugin2cp29build_type_template_parameterEEEPKciyS3_jET_P14gcc_cp_contextT1_T2_T3_T4_T5_ _ZN10cc1_plugin2cp29build_type_template_parameterE 21
_Z3rpcIyXadL_ZN10cc1_plugin2cp29build_type_template_parameterEEEPKciyS3_jET_P14gcc_cp_contextT1_T2_T3_T4_T5_ _ZN10cc1_plugin4callIyPKciyS2_jEENS_6statusEPNS_10connectionES2_PT_T0_T1_T2_T3_T4_ 34
_ZN10cc1_plugin4callIyyPKcEENS_6statusEPNS_10connectionES2_PT_T0_T1_ _ZN10cc1_plugin10connection4sendEc 33
_ZN10cc1_plugin4callIyyPKcEENS_6statusEPNS_10connectionES2_PT_T0_T1_ _ZN10cc1_plugin8marshallEPNS_10connectionEPKc 71
_ZN10cc1_plugin4callIyyPKcEENS_6statusEPNS_10connectionES2_PT_T0_T1_ _ZN10cc1_plugin16marshall_intlikeEPNS_10connectionEy 88
_ZN10cc1_plugin4callIyyPKcEENS_6statusEPNS_10connectionES2_PT_T0_T1_ _ZN10cc1_plugin16marshall_intlikeEPNS_10connectionEy 103
_ZN10cc1_plugin4callIyyPKcEENS_6statusEPNS_10connectionES2_PT_T0_T1_ _ZN10cc1_plugin8marshallEPNS_10connectionEPKc 118
_ZN10cc1_plugin4callIyyPKcEENS_6statusEPNS_10connectionES2_PT_T0_T1_ _ZN10cc1_plugin10connection7do_waitEb 135
_ZN10cc1_plugin4callIyyPKcEENS_6statusEPNS_10connectionES2_PT_T0_T1_ _ZN10cc1_plugin18unmarshall_intlikeEPNS_10connectionEPy 152
_Z3rpcIyXadL_ZN10cc1_plugin2cp20build_vla_array_typeEEEyPKcET_P14gcc_cp_contextT1_T2_ _ZN10cc1_plugin2cp20build_vla_array_typeE 14
_Z3rpcIyXadL_ZN10cc1_plugin2cp20build_vla_array_typeEEEyPKcET_P14gcc_cp_contextT1_T2_ _ZN10cc1_plugin4callIyyPKcEENS_6statusEPNS_10connectionES2_PT_T0_T1_ 27
_Z3rpcIyXadL_ZN10cc1_plugin2cp30build_dependent_class_templateEEEyPKcET_P14gcc_cp_contextT1_T2_ _ZN10cc1_plugin2cp30build_dependent_class_templateE 14
_Z3rpcIyXadL_ZN10cc1_plugin2cp30build_dependent_class_templateEEEyPKcET_P14gcc_cp_contextT1_T2_ _ZN10cc1_plugin4callIyyPKcEENS_6statusEPNS_10connectionES2_PT_T0_T1_ 27
_Z3rpcIyXadL_ZN10cc1_plugin2cp17build_vector_typeEEEyiET_P14gcc_cp_contextT1_T2_ _ZN10cc1_plugin2cp17build_vector_typeE 14
_Z3rpcIyXadL_ZN10cc1_plugin2cp17build_vector_typeEEEyiET_P14gcc_cp_contextT1_T2_ _ZN10cc1_plugin4callIyyiEENS_6statusEPNS_10connectionEPKcPT_T0_T1_ 27
_Z3rpcIyXadL_ZN10cc1_plugin2cp16build_array_typeEEEyiET_P14gcc_cp_contextT1_T2_ _ZN10cc1_plugin2cp16build_array_typeE 14
_Z3rpcIyXadL_ZN10cc1_plugin2cp16build_array_typeEEEyiET_P14gcc_cp_contextT1_T2_ _ZN10cc1_plugin4callIyyiEENS_6statusEPNS_10connectionEPKcPT_T0_T1_ 27
_Z3rpcIyXadL_ZN10cc1_plugin2cp27get_function_parameter_declEEEyiET_P14gcc_cp_contextT1_T2_ _ZN10cc1_plugin2cp27get_function_parameter_declE 14
_Z3rpcIyXadL_ZN10cc1_plugin2cp27get_function_parameter_declEEEyiET_P14gcc_cp_contextT1_T2_ _ZN10cc1_plugin4callIyyiEENS_6statusEPNS_10connectionEPKcPT_T0_T1_ 27
_Z3rpcIyXadL_ZN10cc1_plugin2cp15build_decl_exprEEEyiET_P14gcc_cp_contextT1_T2_ _ZN10cc1_plugin2cp15build_decl_exprE 14
_Z3rpcIyXadL_ZN10cc1_plugin2cp15build_decl_exprEEEyiET_P14gcc_cp_contextT1_T2_ _ZN10cc1_plugin4callIyyiEENS_6statusEPNS_10connectionEPKcPT_T0_T1_ 27
_ZN10cc1_plugin4callIyPKcyEENS_6statusEPNS_10connectionES2_PT_T0_T1_ _ZN10cc1_plugin10connection4sendEc 33
_ZN10cc1_plugin4callIyPKcyEENS_6statusEPNS_10connectionES2_PT_T0_T1_ _ZN10cc1_plugin8marshallEPNS_10connectionEPKc 71
_ZN10cc1_plugin4callIyPKcyEENS_6statusEPNS_10connectionES2_PT_T0_T1_ _ZN10cc1_plugin16marshall_intlikeEPNS_10connectionEy 88
_ZN10cc1_plugin4callIyPKcyEENS_6statusEPNS_10connectionES2_PT_T0_T1_ _ZN10cc1_plugin8marshallEPNS_10connectionEPKc 103
_ZN10cc1_plugin4callIyPKcyEENS_6statusEPNS_10connectionES2_PT_T0_T1_ _ZN10cc1_plugin16marshall_intlikeEPNS_10connectionEy 118
_ZN10cc1_plugin4callIyPKcyEENS_6statusEPNS_10connectionES2_PT_T0_T1_ _ZN10cc1_plugin10connection7do_waitEb 135
_ZN10cc1_plugin4callIyPKcyEENS_6statusEPNS_10connectionES2_PT_T0_T1_ _ZN10cc1_plugin18unmarshall_intlikeEPNS_10connectionEPy 152
_Z3rpcIyXadL_ZN10cc1_plugin2cp21build_unary_type_exprEEEPKcyET_P14gcc_cp_contextT1_T2_ _ZN10cc1_plugin2cp21build_unary_type_exprE 14
_Z3rpcIyXadL_ZN10cc1_plugin2cp21build_unary_type_exprEEEPKcyET_P14gcc_cp_contextT1_T2_ _ZN10cc1_plugin4callIyPKcyEENS_6statusEPNS_10connectionES2_PT_T0_T1_ 27
_Z3rpcIyXadL_ZN10cc1_plugin2cp16build_unary_exprEEEPKcyET_P14gcc_cp_contextT1_T2_ _ZN10cc1_plugin2cp16build_unary_exprE 14
_Z3rpcIyXadL_ZN10cc1_plugin2cp16build_unary_exprEEEPKcyET_P14gcc_cp_contextT1_T2_ _ZN10cc1_plugin4callIyPKcyEENS_6statusEPNS_10connectionES2_PT_T0_T1_ 27
_nc_retrace_field_ptr _nc_tracing 2
_nc_retrace_field_ptr _tracef 24
_nc_retrace_field _nc_tracing 2
_nc_retrace_field _tracef 24
_nc_retrace_field_type _nc_tracing 2
_nc_retrace_field_type _tracef 24
_nc_retrace_form _nc_tracing 2
_nc_retrace_form _tracef 24
_nc_retrace_form_hook _nc_tracing 6
_nc_retrace_form_hook _nc_fmt_funcptr 34
_nc_retrace_form_hook _tracef 49
set_fieldtype_arg _nc_tracing 16
set_fieldtype_arg __errno_location 80
set_fieldtype_arg _nc_retrace_int 93
set_fieldtype_arg __errno_location 113
set_fieldtype_arg _nc_retrace_int 129
set_fieldtype_arg _nc_fmt_funcptr 168
set_fieldtype_arg _nc_fmt_funcptr 191
set_fieldtype_arg _nc_fmt_funcptr 214
set_fieldtype_arg _tracef 238
field_arg _nc_tracing 2
field_arg _nc_Default_Field 20
field_arg _tracef 51
field_arg _nc_retrace_void_ptr 30
set_field_fore _nc_tracing 2
set_field_fore __errno_location 36
set_field_fore _nc_Synchronize_Attributes 79
set_field_fore _traceattr 99
set_field_fore _tracef 117
set_field_fore _nc_Default_Field 131
set_field_fore _nc_retrace_int 49
field_fore _nc_tracing 2
field_fore _nc_Default_Field 20
field_fore _tracef 51
field_fore _nc_retrace_attr_t 33
set_field_back _nc_tracing 2
set_field_back __errno_location 36
set_field_back _nc_Synchronize_Attributes 79
set_field_back _traceattr 99
set_field_back _tracef 117
set_field_back _nc_Default_Field 131
set_field_back _nc_retrace_int 49
field_back _nc_tracing 2
field_back _nc_Default_Field 20
field_back _tracef 51
field_back _nc_retrace_attr_t 33
set_current_field _nc_tracing 18
set_current_field __errno_location 53
set_current_field __errno_location 123
set_current_field _tracef 166
set_current_field __errno_location 185
set_current_field _nc_Internal_Validation 262
set_current_field _nc_Set_Form_Page 354
set_current_field _nc_Refresh_Current_Field 419
set_current_field _nc_Set_Current_Field 443
set_current_field _nc_retrace_int 79
set_current_field _nc_retrace_int 144
set_current_field _nc_retrace_int 211
unfocus_current_field _nc_tracing 2
unfocus_current_field _nc_Unset_Current_Field 29
unfocus_current_field __errno_location 34
unfocus_current_field _tracef 67
unfocus_current_field __errno_location 81
unfocus_current_field __errno_location 113
unfocus_current_field _nc_retrace_int 48
unfocus_current_field _nc_retrace_int 98
unfocus_current_field _nc_retrace_int 130
current_field _nc_tracing 2
current_field _nc_Default_Form 20
current_field _tracef 51
current_field _nc_retrace_field 30
field_index _nc_tracing 2
field_index _tracef 59
field_index _nc_retrace_int 36
_nc_Make_Argument malloc 45
_nc_Copy_Argument malloc 118
_nc_Free_Argument free 95
_nc_Copy_Type _nc_Copy_Argument 41
_nc_Copy_Type _nc_Free_Argument 96
_nc_Free_Type _nc_Free_Argument 22
free_field _nc_tracing 2
free_field __errno_location 30
free_field _nc_Free_Type 100
free_field free 108
free_field __errno_location 113
free_field _tracef 147
free_field free 170
free_field __errno_location 177
free_field _nc_retrace_int 47
free_field _nc_retrace_int 127
free_field _nc_retrace_int 194
new_field _nc_tracing 32
new_field malloc 106
new_field _nc_tracing 124
new_field _nc_Copy_Type 369
new_field free_field 381
new_field __errno_location 406
new_field _tracef 471
new_field malloc 533
new_field _tracef 667
new_field _nc_retrace_field 429
dup_field _nc_tracing 21
dup_field malloc 72
dup_field _nc_tracing 90
dup_field _nc_Default_Field 104
dup_field _nc_Copy_Type 327
dup_field free_field 344
dup_field __errno_location 358
dup_field _tracef 399
dup_field malloc 448
dup_field _tracef 523
dup_field _nc_retrace_field 377
set_fieldtype_choice _nc_tracing 11
set_fieldtype_choice __errno_location 64
set_fieldtype_choice _nc_retrace_int 77
set_fieldtype_choice __errno_location 97
set_fieldtype_choice _nc_retrace_int 113
set_fieldtype_choice _nc_fmt_funcptr 142
set_fieldtype_choice _nc_fmt_funcptr 165
set_fieldtype_choice _tracef 186
link_fieldtype _nc_tracing 2
link_fieldtype __errno_location 34
link_fieldtype malloc 70
link_fieldtype _nc_tracing 88
link_fieldtype _nc_Default_FieldType 102
link_fieldtype _tracef 294
link_fieldtype _tracef 331
link_fieldtype __errno_location 345
link_fieldtype _nc_retrace_field_type 54
link_fieldtype _nc_retrace_field_type 269
field_info _nc_tracing 34
field_info __errno_location 129
field_info _tracef 191
field_info __errno_location 209
field_info _nc_retrace_int 156
dynamic_field_info _nc_tracing 24
dynamic_field_info __errno_location 72
dynamic_field_info _tracef 124
dynamic_field_info __errno_location 137
dynamic_field_info _nc_retrace_int 95
set_field_just _nc_tracing 2
set_field_just _nc_Default_Field 37
set_field_just _nc_Synchronize_Attributes 61
set_field_just __errno_location 68
set_field_just _tracef 101
set_field_just _nc_retrace_int 81
field_just _nc_tracing 2
field_just _nc_Default_Field 20
field_just _tracef 51
field_just _nc_retrace_int 30
link_field _nc_tracing 21
link_field malloc 72
link_field _nc_tracing 90
link_field _nc_Default_Field 104
link_field _nc_Copy_Type 335
link_field free_field 352
link_field __errno_location 357
link_field __errno_location 390
link_field _tracef 431
link_field _tracef 459
link_field _nc_retrace_field 376
link_field _nc_retrace_field 409
set_max_field _nc_tracing 13
set_max_field __errno_location 121
set_max_field _tracef 205
set_max_field __errno_location 225
set_max_field _nc_retrace_int 140
set_max_field _nc_retrace_int 247
move_field _nc_tracing 2
move_field __errno_location 51
move_field __errno_location 81
move_field _tracef 127
move_field __errno_location 146
move_field _nc_retrace_int 71
move_field _nc_retrace_int 101
move_field _nc_retrace_int 163
new_fieldtype _nc_tracing 8
new_fieldtype malloc 48
new_fieldtype _nc_tracing 66
new_fieldtype _tracef 84
new_fieldtype _nc_retrace_field_type 218
new_fieldtype __errno_location 244
new_fieldtype _nc_fmt_funcptr 278
new_fieldtype _nc_fmt_funcptr 301
new_fieldtype _tracef 319
new_fieldtype __errno_location 337
free_fieldtype _nc_tracing 2
free_fieldtype free 72
free_fieldtype __errno_location 77
free_fieldtype __errno_location 97
free_fieldtype _tracef 139
free_fieldtype __errno_location 153
free_fieldtype _nc_retrace_int 91
free_fieldtype _nc_retrace_int 114
free_fieldtype _nc_retrace_int 170
set_field_opts _nc_tracing 13
set_field_opts _nc_Default_Field 35
set_field_opts _nc_Synchronize_Options 43
set_field_opts __errno_location 50
set_field_opts _tracef 85
set_field_opts _nc_retrace_int 65
field_opts _nc_tracing 2
field_opts _nc_Default_Field 20
field_opts _tracef 59
field_opts _nc_retrace_int 35
field_opts_on _nc_tracing 13
field_opts_on _nc_Default_Field 35
field_opts_on _nc_Synchronize_Options 46
field_opts_on __errno_location 53
field_opts_on _tracef 93
field_opts_on _nc_retrace_int 68
field_opts_off _nc_tracing 13
field_opts_off _nc_Default_Field 33
field_opts_off _nc_Synchronize_Options 48
field_opts_off __errno_location 55
field_opts_off _tracef 93
field_opts_off _nc_retrace_int 70
set_field_pad _nc_tracing 2
set_field_pad _nc_Default_Field 26
set_field_pad __ctype_b_loc 36
set_field_pad _nc_Synchronize_Attributes 70
set_field_pad __errno_location 77
set_field_pad _tracef 109
set_field_pad _nc_retrace_int 90
field_pad _nc_tracing 2
field_pad _nc_Default_Field 20
field_pad _tracef 51
field_pad _nc_retrace_int 29
set_new_page _nc_tracing 13
set_new_page _nc_Default_Field 27
set_new_page __errno_location 39
set_new_page __errno_location 82
set_new_page _tracef 127
set_new_page _nc_retrace_int 61
set_new_page _nc_retrace_int 101
new_page _nc_tracing 2
new_page _nc_Default_Field 20
new_page _tracef 59
new_page _nc_retrace_bool 36
set_field_status _nc_tracing 13
set_field_status _nc_Default_Field 27
set_field_status __errno_location 41
set_field_status _tracef 95
set_field_status _nc_retrace_int 60
field_status _nc_tracing 2
field_status _nc_Default_Field 20
field_status _tracef 51
field_status _nc_retrace_bool 32
set_field_type _nc_tracing 96
set_field_type _nc_Default_Field 122
set_field_type _nc_Free_Type 169
set_field_type _nc_Make_Argument 191
set_field_type __errno_location 224
set_field_type _nc_retrace_int 233
set_field_type _tracef 270
set_field_type _nc_Free_Argument 296
field_type _nc_tracing 2
field_type _nc_Default_Field 20
field_type _tracef 51
field_type _nc_retrace_field_type 30
set_field_userptr _nc_tracing 14
set_field_userptr _nc_Default_Field 28
set_field_userptr __errno_location 37
set_field_userptr _tracef 78
set_field_userptr _nc_retrace_int 56
field_userptr _nc_tracing 2
field_userptr _nc_Default_Field 20
field_userptr _tracef 51
field_userptr _nc_retrace_void_ptr 30
pos_form_cursor _nc_tracing 11
pos_form_cursor _nc_Position_Form_Cursor 40
pos_form_cursor __errno_location 47
pos_form_cursor _tracef 83
pos_form_cursor _nc_retrace_int 62
data_behind _nc_tracing 2
data_behind _tracef 75
data_behind _nc_retrace_bool 59
data_behind _nc_retrace_bool 101
data_ahead _nc_tracing 19
data_ahead wmove 139
data_ahead winch 196
data_ahead wmove 222
data_ahead wmove 317
data_ahead _tracef 353
data_ahead wmove 419
data_ahead winch 468
data_ahead wmove 494
data_ahead _nc_retrace_bool 289
Connect_Fields _nc_tracing 22
Connect_Fields malloc 159
Connect_Fields _nc_tracing 177
Connect_Fields __errno_location 507
Connect_Fields __errno_location 618
Connect_Fields _tracef 646
Connect_Fields __errno_location 656
Connect_Fields _tracef 687
Connect_Fields __errno_location 697
Connect_Fields _nc_retrace_int 537
Disconnect_Fields free 99
free_form _nc_tracing 2
free_form free 41
free_form free 49
free_form __errno_location 54
free_form __errno_location 81
free_form _tracef 123
free_form __errno_location 137
free_form _nc_retrace_int 68
free_form _nc_retrace_int 98
free_form _nc_retrace_int 154
new_form_sp _nc_tracing 2
new_form_sp malloc 59
new_form_sp _nc_tracing 77
new_form_sp _nc_Default_Form 91
new_form_sp __errno_location 302
new_form_sp _tracef 342
new_form_sp free_form 356
new_form_sp _tracef 379
new_form_sp form_driver 407
new_form_sp _nc_retrace_form 289
new_form_sp _nc_retrace_form 318
new_form SP 6
new_form new_form_sp 11
set_form_fields _nc_tracing 2
set_form_fields __errno_location 91
set_form_fields __errno_location 129
set_form_fields _tracef 174
set_form_fields form_driver 207
set_form_fields __errno_location 217
set_form_fields _nc_retrace_int 104
set_form_fields _nc_retrace_int 149
set_form_fields _nc_retrace_int 237
form_fields _nc_tracing 2
form_fields _nc_Default_Form 20
form_fields _tracef 51
form_fields _nc_retrace_field_ptr 30
field_count _nc_tracing 2
field_count _nc_Default_Form 20
field_count _tracef 51
field_count _nc_retrace_int 30
check_pos _nc_tracing 33
check_pos _tracef 71
check_pos _nc_tracing 88
HSC_Horizontal_Half_Line_Backward _nc_tracing 2
HSC_Horizontal_Half_Line_Backward _tracef 24
HSC_Horizontal_Half_Line_Backward _nc_retrace_int 62
HSC_Horizontal_Half_Line_Forward _nc_tracing 2
HSC_Horizontal_Half_Line_Forward _tracef 24
HSC_Horizontal_Half_Line_Forward _nc_retrace_int 60
HSC_Horizontal_Line_Backward _nc_tracing 2
HSC_Horizontal_Line_Backward _tracef 24
HSC_Horizontal_Line_Backward _nc_retrace_int 50
HSC_Horizontal_Line_Forward _nc_tracing 2
HSC_Horizontal_Line_Forward _tracef 24
HSC_Horizontal_Line_Forward _nc_retrace_int 48
HSC_Scroll_Char_Backward _nc_tracing 2
HSC_Scroll_Char_Backward _tracef 24
HSC_Scroll_Char_Backward _nc_retrace_int 45
HSC_Scroll_Char_Forward _nc_tracing 2
HSC_Scroll_Char_Forward _tracef 24
HSC_Scroll_Char_Forward _nc_retrace_int 45
VSC_Scroll_Half_Page_Backward _nc_tracing 2
VSC_Scroll_Half_Page_Backward _tracef 24
VSC_Scroll_Half_Page_Backward _nc_retrace_int 62
VSC_Scroll_Half_Page_Forward _nc_tracing 2
VSC_Scroll_Half_Page_Forward _tracef 24
VSC_Scroll_Half_Page_Forward _nc_retrace_int 60
VSC_Scroll_Page_Backward _nc_tracing 2
VSC_Scroll_Page_Backward _tracef 24
VSC_Scroll_Page_Backward _nc_retrace_int 50
VSC_Scroll_Page_Forward _nc_tracing 2
VSC_Scroll_Page_Forward _tracef 24
VSC_Scroll_Page_Forward _nc_retrace_int 48
VSC_Scroll_Line_Backward _nc_tracing 2
VSC_Scroll_Line_Backward _tracef 24
VSC_Scroll_Line_Backward _nc_retrace_int 45
VSC_Scroll_Line_Forward _nc_tracing 2
VSC_Scroll_Line_Forward _tracef 24
VSC_Scroll_Line_Forward _nc_retrace_int 45
EM_Insert_Mode _nc_tracing 2
EM_Insert_Mode _tracef 24
EM_Insert_Mode _nc_retrace_int 36
EM_Overlay_Mode _nc_tracing 2
EM_Overlay_Mode _tracef 24
EM_Overlay_Mode _nc_retrace_int 36
IFN_Up_Character _nc_tracing 2
IFN_Up_Character _tracef 51
IFN_Up_Character _nc_retrace_int 30
IFN_Up_Character _nc_retrace_int 78
IFN_Left_Character _nc_tracing 11
IFN_Left_Character _tracef 59
IFN_Left_Character _nc_retrace_int 42
IFN_Left_Character _nc_retrace_int 91
IFN_Previous_Line _nc_tracing 2
IFN_Previous_Line _tracef 59
IFN_Previous_Line _nc_retrace_int 37
IFN_Previous_Line _nc_retrace_int 86
IFN_Previous_Character _nc_tracing 11
IFN_Previous_Character _tracef 107
IFN_Previous_Character _nc_retrace_int 42
IFN_Previous_Character _nc_retrace_int 83
IFN_Previous_Character _nc_retrace_int 138
FE_Clear_Field _nc_tracing 2
FE_Clear_Field _tracef 24
FE_Clear_Field werase 47
FE_Clear_Field _nc_retrace_int 55
Undo_Justification wmove 97
Undo_Justification waddnstr 110
Undo_Justification wmove 132
Perform_Justification wmove 116
Perform_Justification waddnstr 133
Check_Char __ctype_b_loc 137
FE_Clear_To_End_Of_Field _nc_tracing 2
FE_Clear_To_End_Of_Field _tracef 24
FE_Clear_To_End_Of_Field wmove 39
FE_Clear_To_End_Of_Field wclrtobot 48
FE_Clear_To_End_Of_Field _nc_retrace_int 56
FE_Clear_To_End_Of_Line _nc_tracing 2
FE_Clear_To_End_Of_Line _tracef 24
FE_Clear_To_End_Of_Line wmove 39
FE_Clear_To_End_Of_Line wclrtoeol 48
FE_Clear_To_End_Of_Line _nc_retrace_int 56
FE_Delete_Line _nc_tracing 2
FE_Delete_Line _tracef 24
FE_Delete_Line winsdelln 45
FE_Delete_Line _nc_retrace_int 53
FE_Delete_Character _nc_tracing 2
FE_Delete_Character _tracef 24
FE_Delete_Character wmove 39
FE_Delete_Character wdelch 48
FE_Delete_Character _nc_retrace_int 56
Buffer_To_Window.isra.2 wmove 173
Buffer_To_Window.isra.2 waddnstr 191
Buffer_To_Window.isra.2 wmove 238
Display_Or_Erase_Field derwin 63
Display_Or_Erase_Field werase 97
Display_Or_Erase_Field wsyncup 152
Display_Or_Erase_Field delwin 160
Display_Or_Erase_Field wbkgdset 194
Display_Or_Erase_Field SP 224
_nc_get_fieldbuffer wmove 95
_nc_get_fieldbuffer winnstr 117
CR_Previous_Choice _nc_tracing 11
CR_Previous_Choice _nc_get_fieldbuffer 50
CR_Previous_Choice wmove 65
CR_Previous_Choice _tracef 123
CR_Previous_Choice _nc_retrace_int 102
CR_Next_Choice _nc_tracing 11
CR_Next_Choice _nc_get_fieldbuffer 50
CR_Next_Choice wmove 65
CR_Next_Choice _tracef 123
CR_Next_Choice _nc_retrace_int 102
IFN_End_Of_Line _nc_tracing 11
IFN_End_Of_Line _nc_get_fieldbuffer 53
IFN_End_Of_Line wmove 68
IFN_End_Of_Line _tracef 211
IFN_End_Of_Line _nc_retrace_int 185
IFN_End_Of_Field _nc_tracing 11
IFN_End_Of_Field _nc_get_fieldbuffer 53
IFN_End_Of_Field wmove 68
IFN_End_Of_Field _tracef 211
IFN_End_Of_Field _nc_retrace_int 179
IFN_Beginning_Of_Line _nc_tracing 11
IFN_Beginning_Of_Line _nc_get_fieldbuffer 53
IFN_Beginning_Of_Line wmove 68
IFN_Beginning_Of_Line _tracef 211
IFN_Beginning_Of_Line _nc_retrace_int 179
IFN_Beginning_Of_Field _nc_tracing 11
IFN_Beginning_Of_Field _nc_get_fieldbuffer 53
IFN_Beginning_Of_Field wmove 68
IFN_Beginning_Of_Field _tracef 203
IFN_Beginning_Of_Field _nc_retrace_int 173
IFN_Next_Word _nc_tracing 42
IFN_Next_Word _nc_get_fieldbuffer 75
IFN_Next_Word wmove 90
IFN_Next_Word _tracef 307
IFN_Next_Word _nc_retrace_int 257
IFN_Previous_Word _nc_tracing 42
IFN_Previous_Word _nc_get_fieldbuffer 73
IFN_Previous_Word wmove 88
IFN_Previous_Word _tracef 347
IFN_Previous_Word _nc_retrace_int 284
FE_Delete_Previous _nc_tracing 19
FE_Delete_Previous wmove 74
FE_Delete_Previous wdelch 84
FE_Delete_Previous wmove 282
FE_Delete_Previous winsdelln 297
FE_Delete_Previous wmove 399
FE_Delete_Previous wdelch 409
FE_Delete_Previous _tracef 451
FE_Delete_Previous _nc_get_fieldbuffer 493
FE_Delete_Previous wmove 513
FE_Delete_Previous wmove 542
FE_Delete_Previous waddnstr 557
FE_Delete_Previous _nc_retrace_int 105
FE_Delete_Word _nc_tracing 48
FE_Delete_Word _nc_get_fieldbuffer 89
FE_Delete_Word wmove 104
FE_Delete_Word wmove 211
FE_Delete_Word wclrtoeol 220
FE_Delete_Word waddnstr 354
FE_Delete_Word _tracef 475
FE_Delete_Word _nc_retrace_int 371
Field_Grown malloc 213
Field_Grown _nc_tracing 231
Field_Grown malloc 541
Field_Grown free 606
Field_Grown newpad 698
Field_Grown delwin 724
Field_Grown wbkgdset 742
Field_Grown werase 762
Field_Grown wtouchln 805
Field_Grown wmove 822
Field_Grown _tracef 842
Field_Grown _nc_get_fieldbuffer 899
Field_Grown wmove 916
Field_Grown free 987
FE_Insert_Line _nc_tracing 2
FE_Insert_Line winsdelln 240
FE_Insert_Line _tracef 267
FE_Insert_Line _nc_get_fieldbuffer 302
FE_Insert_Line wmove 317
FE_Insert_Line _nc_retrace_int 170
FE_Insert_Line _nc_retrace_int 251
Insert_String wmove 262
Insert_String wclrtoeol 272
Insert_String wmove 286
Insert_String winsnstr 302
Insert_String wmove 317
Insert_String winsnstr 337
Insert_String wmove 397
Insert_String winsnstr 413
Insert_String wmove 428
Insert_String winsnstr 448
IFN_Down_Character _nc_tracing 11
IFN_Down_Character _tracef 123
IFN_Down_Character _nc_retrace_int 45
IFN_Down_Character _nc_retrace_int 106
IFN_Right_Character _nc_tracing 11
IFN_Right_Character _tracef 115
IFN_Right_Character _nc_retrace_int 65
IFN_Right_Character _nc_retrace_int 95
IFN_Next_Line _nc_tracing 11
IFN_Next_Line _tracef 139
IFN_Next_Line _nc_retrace_int 52
IFN_Next_Line _nc_retrace_int 114
IFN_Next_Character _nc_tracing 11
IFN_Next_Character _tracef 107
IFN_Next_Character _nc_retrace_int 45
IFN_Next_Character _nc_retrace_int 86
IFN_Next_Character _nc_retrace_int 181
Wrapping_Not_Necessary_Or_Wrapping_Ok wmove 63
Wrapping_Not_Necessary_Or_Wrapping_Ok winch 72
Wrapping_Not_Necessary_Or_Wrapping_Ok wmove 91
Wrapping_Not_Necessary_Or_Wrapping_Ok _nc_get_fieldbuffer 159
Wrapping_Not_Necessary_Or_Wrapping_Ok wmove 243
Wrapping_Not_Necessary_Or_Wrapping_Ok wdelch 252
Wrapping_Not_Necessary_Or_Wrapping_Ok _nc_get_fieldbuffer 267
Wrapping_Not_Necessary_Or_Wrapping_Ok wmove 299
Wrapping_Not_Necessary_Or_Wrapping_Ok wclrtoeol 308
FE_Insert_Character _nc_tracing 2
FE_Insert_Character wmove 90
FE_Insert_Character winch 99
FE_Insert_Character wmove 118
FE_Insert_Character winsch 188
FE_Insert_Character _tracef 227
FE_Insert_Character _nc_retrace_int 62
FE_Insert_Character _nc_retrace_int 207
_nc_Position_Form_Cursor wmove 58
_nc_Position_Form_Cursor wmove 110
_nc_Position_Form_Cursor wcursyncup 118
_nc_Position_Form_Cursor wcursyncup 141
_nc_Position_Form_Cursor SP 172
_nc_Refresh_Current_Field _nc_tracing 19
_nc_Refresh_Current_Field copywin 259
_nc_Refresh_Current_Field wsyncup 273
_nc_Refresh_Current_Field wtouchln 373
_nc_Refresh_Current_Field _nc_Position_Form_Cursor 381
_nc_Refresh_Current_Field _tracef 427
_nc_Refresh_Current_Field wsyncup 446
_nc_Refresh_Current_Field is_linetouched 560
_nc_Refresh_Current_Field is_linetouched 635
_nc_Refresh_Current_Field copywin 761
_nc_Refresh_Current_Field __errno_location 785
_nc_Refresh_Current_Field SP 829
_nc_Refresh_Current_Field __errno_location 881
_nc_Refresh_Current_Field _nc_retrace_int 402
Synchronize_Field werase 114
Synchronize_Field _nc_Refresh_Current_Field 176
_nc_Synchronize_Attributes _nc_tracing 2
_nc_Synchronize_Attributes _tracef 123
_nc_Synchronize_Attributes _nc_get_fieldbuffer 209
_nc_Synchronize_Attributes wmove 224
_nc_Synchronize_Attributes wbkgdset 243
_nc_Synchronize_Attributes werase 265
_nc_Synchronize_Attributes wmove 280
_nc_Synchronize_Attributes copywin 411
_nc_Synchronize_Attributes wsyncup 423
_nc_Synchronize_Attributes _nc_Refresh_Current_Field 454
_nc_Synchronize_Attributes SP 526
_nc_Synchronize_Attributes _nc_retrace_int 101
_nc_Synchronize_Attributes _nc_retrace_int 142
_nc_Synchronize_Options _nc_tracing 17
_nc_Synchronize_Options _tracef 173
_nc_Synchronize_Options _nc_retrace_int 150
_nc_Unset_Current_Field _nc_Refresh_Current_Field 14
_nc_Unset_Current_Field delwin 61
_nc_Unset_Current_Field _nc_get_fieldbuffer 141
_nc_Unset_Current_Field werase 150
_nc_Unset_Current_Field wsyncup 184
_nc_Unset_Current_Field copywin 252
_nc_Unset_Current_Field SP 281
_nc_Unset_Current_Field SP 306
_nc_Set_Current_Field _nc_tracing 2
_nc_Set_Current_Field _tracef 70
_nc_Set_Current_Field _nc_Unset_Current_Field 154
_nc_Set_Current_Field newpad 189
_nc_Set_Current_Field delwin 221
_nc_Set_Current_Field wbkgdset 246
_nc_Set_Current_Field werase 323
_nc_Set_Current_Field wsyncup 346
_nc_Set_Current_Field werase 361
_nc_Set_Current_Field wtouchln 406
_nc_Set_Current_Field derwin 498
_nc_Set_Current_Field SP 599
_nc_Set_Current_Field _nc_retrace_int 48
_nc_Set_Current_Field _nc_retrace_int 453
_nc_Set_Current_Field _nc_retrace_int 522
_nc_Set_Current_Field _nc_retrace_int 568
_nc_Set_Current_Field _nc_retrace_int 582
FN_First_Field _nc_tracing 2
FN_First_Field _tracef 24
FN_First_Field _nc_Set_Current_Field 141
FN_First_Field _nc_retrace_int 149
FN_Down_Field _nc_tracing 2
FN_Down_Field _tracef 24
FN_Down_Field _nc_Set_Current_Field 101
FN_Down_Field _nc_Set_Current_Field 180
FN_Down_Field _nc_Set_Current_Field 216
FN_Down_Field _nc_retrace_int 109
FN_Down_Field _nc_retrace_int 188
FN_Down_Field _nc_retrace_int 224
FN_Up_Field _nc_tracing 2
FN_Up_Field _tracef 24
FN_Up_Field _nc_Set_Current_Field 101
FN_Up_Field _nc_Set_Current_Field 180
FN_Up_Field _nc_Set_Current_Field 216
FN_Up_Field _nc_retrace_int 109
FN_Up_Field _nc_retrace_int 188
FN_Up_Field _nc_retrace_int 224
FN_Right_Field _nc_tracing 2
FN_Right_Field _nc_Set_Current_Field 65
FN_Right_Field _tracef 88
FN_Right_Field _nc_retrace_int 73
FN_Left_Field _nc_tracing 2
FN_Left_Field _nc_Set_Current_Field 65
FN_Left_Field _tracef 88
FN_Left_Field _nc_retrace_int 73
FN_Sorted_Last_Field _nc_tracing 2
FN_Sorted_Last_Field _nc_Set_Current_Field 72
FN_Sorted_Last_Field _tracef 99
FN_Sorted_Last_Field _nc_retrace_int 80
FN_Sorted_First_Field _nc_tracing 2
FN_Sorted_First_Field _nc_Set_Current_Field 72
FN_Sorted_First_Field _tracef 99
FN_Sorted_First_Field _nc_retrace_int 80
FN_Sorted_Previous_Field _nc_tracing 2
FN_Sorted_Previous_Field _nc_Set_Current_Field 56
FN_Sorted_Previous_Field _tracef 83
FN_Sorted_Previous_Field _nc_retrace_int 64
FN_Sorted_Next_Field _nc_tracing 2
FN_Sorted_Next_Field _nc_Set_Current_Field 56
FN_Sorted_Next_Field _tracef 83
FN_Sorted_Next_Field _nc_retrace_int 64
FN_Last_Field _nc_tracing 2
FN_Last_Field _tracef 24
FN_Last_Field _nc_Set_Current_Field 141
FN_Last_Field _nc_retrace_int 149
FN_Previous_Field _nc_tracing 2
FN_Previous_Field _tracef 24
FN_Previous_Field _nc_Set_Current_Field 125
FN_Previous_Field _nc_retrace_int 133
FN_Next_Field _nc_tracing 2
FN_Next_Field _tracef 24
FN_Next_Field _nc_Set_Current_Field 125
FN_Next_Field _nc_retrace_int 133
_nc_Internal_Validation _nc_get_fieldbuffer 35
_nc_Internal_Validation wmove 50
FV_Validation _nc_tracing 2
FV_Validation _nc_Internal_Validation 17
FV_Validation _tracef 59
FV_Validation _nc_retrace_int 32
FV_Validation _nc_retrace_int 44
Inter_Field_Navigation _nc_Internal_Validation 16
FE_New_Line _nc_tracing 26
FE_New_Line wmove 65
FE_New_Line wclrtoeol 74
FE_New_Line _nc_get_fieldbuffer 151
FE_New_Line wmove 166
FE_New_Line wmove 428
FE_New_Line wclrtoeol 437
FE_New_Line wmove 464
FE_New_Line winsdelln 478
FE_New_Line waddnstr 496
FE_New_Line _tracef 531
FE_New_Line wmove 593
FE_New_Line wclrtoeol 602
FE_New_Line _nc_retrace_int 101
FE_New_Line _nc_retrace_int 304
FE_New_Line _nc_retrace_int 512
FE_New_Line _nc_retrace_int 570
FE_New_Line _nc_retrace_int 650
Page_Navigation _nc_Internal_Validation 16
_nc_Set_Form_Page werase 45
_nc_Set_Form_Page SP 208
_nc_Set_Form_Page _nc_Set_Current_Field 150
PN_Last_Page _nc_tracing 2
PN_Last_Page _tracef 24
PN_Last_Page _nc_Set_Form_Page 41
PN_Last_Page _nc_retrace_int 49
PN_First_Page _nc_tracing 2
PN_First_Page _tracef 24
PN_First_Page _nc_Set_Form_Page 36
PN_First_Page _nc_retrace_int 44
PN_Previous_Page _nc_tracing 2
PN_Previous_Page _nc_Set_Form_Page 35
PN_Previous_Page _tracef 67
PN_Previous_Page _nc_retrace_int 43
PN_Next_Page _nc_tracing 2
PN_Next_Page _tracef 24
PN_Next_Page _nc_Set_Form_Page 50
PN_Next_Page _nc_retrace_int 58
form_driver _nc_tracing 21
form_driver __ctype_b_loc 164
form_driver _nc_tracing 216
form_driver waddch 297
form_driver __errno_location 401
form_driver _nc_retrace_int 415
form_driver _tracef 445
form_driver getmouse 506
form_driver __errno_location 527
form_driver __errno_location 545
form_driver _nc_retrace_int 561
form_driver _nc_tracing 586
form_driver __errno_location 657
form_driver _nc_Refresh_Current_Field 668
form_driver _nc_retrace_int 679
form_driver __errno_location 705
form_driver __errno_location 721
form_driver _nc_retrace_int 737
form_driver __errno_location 761
form_driver _nc_retrace_int 777
form_driver _nc_First_Active_Field 804
form_driver __errno_location 813
form_driver _nc_retrace_int 826
form_driver __errno_location 841
form_driver form_request_name 867
form_driver _tracef 882
form_driver __errno_location 897
form_driver _nc_retrace_int 913
form_driver __errno_location 936
form_driver wenclose 960
form_driver stdscr 979
form_driver wmouse_trafo 1008
form_driver SP 1087
form_driver _tracechtype 1106
form_driver _tracef 1124
form_driver werase 1138
form_driver wmove 1168
form_driver winch 1177
form_driver wmove 1196
form_driver winsch 1265
form_driver __errno_location 1337
form_driver _nc_retrace_int 1356
form_driver wenclose 1511
form_driver wmouse_trafo 1555
form_driver _nc_tracing 1644
form_driver _tracef 1672
form_driver __errno_location 1729
form_driver _nc_retrace_int 1745
form_driver _nc_Set_Current_Field 1768
form_driver _nc_Position_Form_Cursor 1786
form_driver __errno_location 1841
form_driver _nc_retrace_int 1858
form_driver __errno_location 1870
form_driver _nc_retrace_int 1883
set_field_buffer _nc_tracing 2
set_field_buffer __errno_location 184
set_field_buffer __errno_location 209
set_field_buffer _nc_visbuf 244
set_field_buffer _tracef 265
set_field_buffer strlen 284
set_field_buffer __errno_location 464
set_field_buffer _nc_retrace_int 201
set_field_buffer _nc_retrace_int 233
field_buffer _nc_tracing 13
field_buffer _tracef 109
field_buffer _nc_retrace_ptr 69
field_buffer _nc_retrace_ptr 89
set_field_init _nc_tracing 10
set_field_init _nc_Default_Form 29
set_field_init __errno_location 43
set_field_init _nc_retrace_int 56
set_field_init _nc_fmt_funcptr 88
set_field_init _tracef 106
field_init _nc_tracing 2
field_init _nc_Default_Form 20
field_init _tracef 51
field_init _nc_retrace_form_hook 30
set_field_term _nc_tracing 10
set_field_term _nc_Default_Form 29
set_field_term __errno_location 43
set_field_term _nc_retrace_int 56
set_field_term _nc_fmt_funcptr 88
set_field_term _tracef 106
field_term _nc_tracing 2
field_term _nc_Default_Form 20
field_term _tracef 51
field_term _nc_retrace_form_hook 30
set_form_init _nc_tracing 10
set_form_init _nc_Default_Form 29
set_form_init __errno_location 43
set_form_init _nc_retrace_int 56
set_form_init _nc_fmt_funcptr 88
set_form_init _tracef 106
form_init _nc_tracing 2
form_init _nc_Default_Form 20
form_init _tracef 51
form_init _nc_retrace_form_hook 30
set_form_term _nc_tracing 10
set_form_term _nc_Default_Form 29
set_form_term __errno_location 43
set_form_term _nc_retrace_int 56
set_form_term _nc_fmt_funcptr 88
set_form_term _tracef 106
form_term _nc_tracing 2
form_term _nc_Default_Form 20
form_term _tracef 51
form_term _nc_retrace_form_hook 30
set_form_opts _nc_tracing 13
set_form_opts _nc_Default_Form 30
set_form_opts __errno_location 38
set_form_opts _tracef 77
set_form_opts _nc_retrace_int 57
form_opts _nc_tracing 2
form_opts _nc_Default_Form 20
form_opts _tracef 51
form_opts _nc_retrace_int 32
form_opts_on _nc_tracing 13
form_opts_on _nc_Default_Form 30
form_opts_on __errno_location 38
form_opts_on _tracef 77
form_opts_on _nc_retrace_int 57
form_opts_off _nc_tracing 13
form_opts_off _nc_Default_Form 30
form_opts_off __errno_location 40
form_opts_off _tracef 77
form_opts_off _nc_retrace_int 59
set_form_page _nc_tracing 2
set_form_page _nc_Internal_Validation 106
set_form_page _nc_Set_Form_Page 166
set_form_page _nc_Refresh_Current_Field 221
set_form_page __errno_location 233
set_form_page __errno_location 257
set_form_page _tracef 301
set_form_page _nc_First_Active_Field 331
set_form_page _nc_retrace_int 248
set_form_page _nc_retrace_int 277
form_page _nc_tracing 2
form_page _nc_Default_Form 20
form_page _tracef 51
form_page _nc_retrace_int 30
post_form _nc_tracing 11
post_form __errno_location 95
post_form _nc_Set_Form_Page 149
post_form _nc_Refresh_Current_Field 224
post_form __errno_location 229
post_form _tracef 267
post_form __errno_location 281
post_form SP 328
post_form __errno_location 369
post_form __errno_location 393
post_form __errno_location 425
post_form _nc_retrace_int 117
post_form _nc_retrace_int 248
post_form _nc_retrace_int 303
post_form _nc_retrace_int 384
post_form _nc_retrace_int 415
post_form _nc_retrace_int 447
unpost_form _nc_tracing 2
unpost_form werase 105
unpost_form delwin 114
unpost_form __errno_location 131
unpost_form _tracef 163
unpost_form __errno_location 177
unpost_form __errno_location 209
unpost_form SP 256
unpost_form __errno_location 273
unpost_form _nc_retrace_int 145
unpost_form _nc_retrace_int 194
unpost_form _nc_retrace_int 226
unpost_form _nc_retrace_int 290
form_request_name _nc_tracing 2
form_request_name __errno_location 49
form_request_name _tracef 82
form_request_name _nc_retrace_cptr 40
form_request_name _nc_retrace_cptr 63
form_request_by_name _nc_tracing 11
form_request_by_name strlen 35
form_request_by_name __ctype_toupper_loc 115
form_request_by_name strcmp 181
form_request_by_name __errno_location 209
form_request_by_name _nc_visbuf 241
form_request_by_name _tracef 256
form_request_by_name _nc_retrace_int 202
form_request_by_name _nc_retrace_int 231
scale_form _nc_tracing 2
scale_form __errno_location 60
scale_form _tracef 105
scale_form __errno_location 113
scale_form __errno_location 145
scale_form _nc_retrace_int 77
scale_form _nc_retrace_int 133
scale_form _nc_retrace_int 165
set_form_sub _nc_tracing 14
set_form_sub __errno_location 45
set_form_sub _tracef 86
set_form_sub _nc_Default_Form 101
set_form_sub SP 119
set_form_sub _nc_screen_of 129
set_form_sub __errno_location 145
set_form_sub _nc_retrace_int 64
set_form_sub _nc_retrace_int 167
form_sub _nc_tracing 2
form_sub _nc_Default_Form 20
form_sub _tracef 59
form_sub SP 84
form_sub _nc_retrace_win 35
set_form_userptr _nc_tracing 14
set_form_userptr _nc_Default_Form 28
set_form_userptr __errno_location 37
set_form_userptr _tracef 78
set_form_userptr _nc_retrace_int 56
form_userptr _nc_tracing 2
form_userptr _nc_Default_Form 20
form_userptr _tracef 51
form_userptr _nc_retrace_void_ptr 30
set_form_win _nc_tracing 14
set_form_win __errno_location 45
set_form_win _tracef 86
set_form_win _nc_Default_Form 101
set_form_win SP 119
set_form_win _nc_screen_of 129
set_form_win __errno_location 145
set_form_win _nc_retrace_int 64
set_form_win _nc_retrace_int 167
form_win _nc_tracing 2
form_win _nc_Default_Form 20
form_win _tracef 59
form_win SP 75
form_win _nc_retrace_win 35
Generic_This_Type malloc 20
Generic_This_Type _nc_tracing 34
Generic_This_Type localeconv 67
Generic_This_Type _tracef 99
Copy_This_Type malloc 20
Copy_This_Type _nc_tracing 34
Copy_This_Type _tracef 99
Check_This_Character __ctype_b_loc 13
Check_This_Field field_buffer 47
Check_This_Field __ctype_b_loc 115
Check_This_Field __ctype_b_loc 247
Check_This_Field strtod 291
Check_This_Field sprintf 353
Check_This_Field set_field_buffer 368
Free_This_Type free 6
_nc_TYPE_ALNUM TYPE_ALNUM 3
_nc_TYPE_ALPHA TYPE_ALPHA 3
Generic_Enum_Type malloc 28
Generic_Enum_Type _nc_tracing 46
Generic_Enum_Type malloc 153
Generic_Enum_Type __strdup 226
Generic_Enum_Type _tracef 267
Copy_Enum_Type malloc 22
Copy_Enum_Type _nc_tracing 40
Copy_Enum_Type malloc 84
Copy_Enum_Type __strdup 121
Copy_Enum_Type _tracef 171
Compare __ctype_toupper_loc 86
Previous_Enum field_buffer 50
Previous_Enum set_field_buffer 219
Next_Enum field_buffer 35
Next_Enum set_field_buffer 171
Check_Enum_Field field_buffer 33
Check_Enum_Field set_field_buffer 225
Free_Enum_Type free 45
Free_Enum_Type free 59
Free_Enum_Type free 73
_nc_TYPE_ENUM TYPE_ENUM 3
GenericArgument malloc 158
_nc_generic_fieldtype _nc_tracing 15
_nc_generic_fieldtype malloc 71
_nc_generic_fieldtype _nc_Default_FieldType 90
_nc_generic_fieldtype _nc_retrace_field_type 225
_nc_generic_fieldtype _nc_fmt_funcptr 291
_nc_generic_fieldtype _nc_fmt_funcptr 317
_nc_generic_fieldtype _nc_fmt_funcptr 340
_nc_generic_fieldtype _nc_fmt_funcptr 363
_nc_generic_fieldtype _nc_fmt_funcptr 386
_nc_generic_fieldtype _tracef 413
_nc_generic_fieldtype __errno_location 438
_nc_set_generic_fieldtype _nc_Free_Type 42
_nc_set_generic_fieldtype _nc_Free_Argument 168
_nc_form_cursor __errno_location 49
_nc_TYPE_INTEGER TYPE_INTEGER 3
Check_IPV4_Character __ctype_b_loc 4
Check_IPV4_Field field_buffer 9
Check_IPV4_Field __ctype_b_loc 17
Check_IPV4_Field __isoc99_sscanf 89
_nc_TYPE_IPV4 TYPE_IPV4 3
_nc_TYPE_NUMERIC TYPE_NUMERIC 3
Generic_RegularExpression_Type calloc 29
Generic_RegularExpression_Type _nc_tracing 43
Generic_RegularExpression_Type malloc 56
Generic_RegularExpression_Type regcomp 80
Generic_RegularExpression_Type _nc_tracing 90
Generic_RegularExpression_Type malloc 103
Generic_RegularExpression_Type free 145
Generic_RegularExpression_Type free 153
Generic_RegularExpression_Type _tracef 187
Generic_RegularExpression_Type _tracef 209
Check_RegularExpression_Field field_buffer 20
Check_RegularExpression_Field regexec 38
Free_RegularExpression_Type free 29
Free_RegularExpression_Type regfree 37
Free_RegularExpression_Type free 45
Free_RegularExpression_Type free 54
_nc_TYPE_REGEXP TYPE_REGEXP 3
byte_re_compile_fastmap abort 1009
byte_re_compile_fastmap xre_max_failures 1051
byte_re_compile_fastmap memcpy 1133
byte_re_match_2_internal xre_max_failures 5375
byte_re_match_2_internal memcpy 5476
byte_re_match_2_internal abort 5707
byte_re_match_2_internal xre_max_failures 5714
byte_re_match_2_internal memcpy 5822
byte_re_match_2_internal xre_max_failures 5884
byte_re_match_2_internal memcpy 5992
byte_re_match_2_internal xre_max_failures 6054
byte_re_match_2_internal memcpy 6158
byte_re_match_2_internal malloc 6349
byte_re_match_2_internal malloc 6368
byte_re_match_2_internal realloc 7208
byte_re_match_2_internal realloc 7231
byte_re_match_2_internal memcmp 7323
byte_re_match_2_internal xre_max_failures 7868
byte_re_match_2_internal memcpy 7973
byte_regex_compile malloc 56
byte_regex_compile free 310
byte_regex_compile realloc 371
byte_regex_compile __ctype_b_loc 437
byte_regex_compile realloc 904
byte_regex_compile realloc 1229
byte_regex_compile realloc 1480
byte_regex_compile realloc 1640
byte_regex_compile realloc 1816
byte_regex_compile realloc 2095
byte_regex_compile realloc 2285
byte_regex_compile realloc 2518
byte_regex_compile realloc 2795
byte_regex_compile realloc 2937
byte_regex_compile free 3159
byte_regex_compile realloc 3282
byte_regex_compile realloc 3450
byte_regex_compile realloc 3618
byte_regex_compile realloc 3789
byte_regex_compile realloc 3957
byte_regex_compile realloc 4125
byte_regex_compile realloc 4293
byte_regex_compile realloc 4597
byte_regex_compile realloc 4726
byte_regex_compile malloc 4869
byte_regex_compile realloc 5042
byte_regex_compile realloc 5190
byte_regex_compile realloc 5462
byte_regex_compile realloc 5815
byte_regex_compile free 6096
byte_regex_compile realloc 6199
byte_regex_compile free 6374
byte_regex_compile free 6401
byte_regex_compile realloc 6548
byte_regex_compile realloc 6730
byte_regex_compile realloc 6839
byte_regex_compile realloc 7374
byte_regex_compile free 8041
byte_regex_compile free 8616
byte_regex_compile free 8755
byte_regex_compile free 8790
byte_regex_compile .LC6 9291
byte_regex_compile .LC7 9308
byte_regex_compile .LC8 9376
byte_regex_compile .LC9 9416
byte_regex_compile .LC10 9425
byte_regex_compile .LC11 9484
byte_regex_compile .LC12 9493
byte_regex_compile .LC13 9527
byte_regex_compile .LC14 9566
byte_regex_compile .LC15 9596
byte_regex_compile .LC16 9664
byte_regex_compile .LC17 9673
byte_regex_compile __ctype_b_loc 9932
byte_regex_compile __ctype_b_loc 9957
byte_regex_compile __ctype_b_loc 9985
byte_regex_compile __ctype_b_loc 10007
byte_regex_compile __ctype_b_loc 10057
byte_regex_compile __ctype_b_loc 10084
byte_regex_compile __ctype_b_loc 10106
byte_regex_compile __ctype_b_loc 10133
byte_regex_compile __ctype_b_loc 10186
byte_regex_compile __ctype_b_loc 10208
byte_regex_compile __ctype_b_loc 10232
byte_regex_compile __ctype_b_loc 10260
byte_regex_compile __ctype_b_loc 10323
byte_regex_compile free 10395
byte_regex_compile free 10504
byte_regex_compile free 10560
byte_regex_compile free 10634
byte_regex_compile free 10786
byte_regex_compile realloc 10947
xre_set_syntax xre_syntax_options 3
xre_search_2 xre_compile_fastmap 812
xre_search xre_search_2 23
xre_compile_pattern xre_syntax_options 23
xre_comp strlen 30
xre_comp xre_syntax_options 37
xre_comp .LC27 99
xre_comp malloc 118
xre_comp malloc 151
xre_comp .LC28 174
xre_exec strlen 5
xre_exec xre_search 30
xregcomp malloc 79
xregcomp strlen 156
xregcomp xre_compile_fastmap 204
xregcomp malloc 275
xregcomp __ctype_b_loc 292
xregcomp __ctype_tolower_loc 324
xregcomp free 361
xregexec strlen 31
xregexec malloc 181
xregexec xre_search 232
xregexec free 295
xregexec xre_search 432
xregerror strlen 39
xregerror memcpy 67
xregerror memcpy 99
xregerror abort 124
xregfree free 8
xregfree free 40
xregfree free 61
cplus_demangle_set_style libiberty_demanglers 8
cplus_demangle_set_style current_demangling_style 43
cplus_demangle_name_to_style libiberty_demanglers 15
cplus_demangle_name_to_style strcmp 42
rust_demangle cplus_demangle_v3 2
rust_demangle rust_is_mangled 18
rust_demangle rust_demangle_sym 30
rust_demangle free 49
ada_demangle .LC11 14
ada_demangle _sch_istable 32
ada_demangle strlen 91
ada_demangle xmalloc 102
ada_demangle .LC3 158
ada_demangle strlen 206
ada_demangle strncmp 225
ada_demangle strlen 260
ada_demangle memcpy 286
ada_demangle free 575
ada_demangle strlen 588
ada_demangle xmalloc 599
ada_demangle .LC12 623
ada_demangle sprintf 633
ada_demangle .LC5 813
ada_demangle strcpy 828
ada_demangle strlen 836
ada_demangle strcpy 977
ada_demangle .LC10 1035
ada_demangle strlen 1080
ada_demangle strncmp 1094
ada_demangle strlen 1118
ada_demangle memcpy 1138
ada_demangle .LC6 1177
ada_demangle .LC8 1305
ada_demangle strcpy 1316
ada_demangle strlen 1324
ada_demangle .LC7 1340
ada_demangle .LC4 1352
ada_demangle .LC9 1475
cplus_demangle current_demangling_style 3
cplus_demangle cplus_demangle_v3 101
cplus_demangle rust_is_mangled 122
cplus_demangle java_demangle_v3 156
cplus_demangle rust_demangle_sym 252
cplus_demangle free 268
cplus_demangle dlang_demangle 186
cplus_demangle ada_demangle 202
cplus_demangle xstrdup 213
d_make_comp _restgpr_28_x 144
d_count_templates_scopes _restgpr_29_x 180
d_append_char _restgpr_29_x 64
d_number_component _restgpr_29_x 60
d_compact_number _restgpr_31_x 52
d_template_param _restgpr_29_x 32
d_call_offset _restgpr_31_x 52
d_discriminator _restgpr_29_x 152
d_find_pack _restgpr_26_x 244
d_append_string strlen 44
d_append_num sprintf 56
d_append_num _restgpr_29_x 76
d_growable_string_callback_adapter realloc 108
d_growable_string_callback_adapter free 124
d_growable_string_callback_adapter _restgpr_26_x 152
d_growable_string_callback_adapter memcpy 204
d_print_mod_list _restgpr_26_x 188
d_print_comp_inner .LC70 452
d_print_comp_inner .LC70 459
d_print_comp_inner .LC23 584
d_print_comp_inner .LC23 591
d_print_comp_inner .LC50 795
d_print_comp_inner .LC50 859
d_print_comp_inner .LC46 977
d_print_comp_inner .LC46 984
d_print_comp_inner .LC45 1098
d_print_comp_inner .LC45 1105
d_print_comp_inner .LC69 1226
d_print_comp_inner .LC69 1233
d_print_comp_inner .LC67 1354
d_print_comp_inner .LC67 1361
d_print_comp_inner .LC66 1482
d_print_comp_inner .LC66 1489
d_print_comp_inner .LC65 1610
d_print_comp_inner .LC65 1617
d_print_comp_inner .LC61 1738
d_print_comp_inner .LC61 1745
d_print_comp_inner .LC15 1869
d_print_comp_inner sprintf 1882
d_print_comp_inner .LC52 2163
d_print_comp_inner .LC52 2170
d_print_comp_inner .LC52 2282
d_print_comp_inner .LC52 2289
d_print_comp_inner .LC51 2415
d_print_comp_inner .LC51 2422
d_print_comp_inner .LC27 2658
d_print_comp_inner .LC27 2665
d_print_comp_inner .LC50 2818
d_print_comp_inner .LC50 2825
d_print_comp_inner cplus_demangle_builtin_types 2960
d_print_comp_inner .LC48 3048
d_print_comp_inner .LC48 3055
d_print_comp_inner .LC53 3314
d_print_comp_inner .LC60 4061
d_print_comp_inner .LC60 4068
d_print_comp_inner .LC36 4275
d_print_comp_inner .LC36 4282
d_print_comp_inner .LC35 4394
d_print_comp_inner .LC35 4401
d_print_comp_inner .LC44 4650
d_print_comp_inner .LC44 4657
d_print_comp_inner .LC42 4778
d_print_comp_inner .LC42 4785
d_print_comp_inner .LC41 4906
d_print_comp_inner .LC41 4913
d_print_comp_inner .LC40 5034
d_print_comp_inner .LC40 5041
d_print_comp_inner .LC39 5162
d_print_comp_inner .LC39 5169
d_print_comp_inner .LC38 5290
d_print_comp_inner .LC38 5297
d_print_comp_inner .LC37 5418
d_print_comp_inner .LC37 5425
d_print_comp_inner .LC32 6044
d_print_comp_inner .LC32 6051
d_print_comp_inner .LC30 6170
d_print_comp_inner .LC30 6177
d_print_comp_inner .LC29 6298
d_print_comp_inner .LC29 6305
d_print_comp_inner .LC28 6426
d_print_comp_inner .LC28 6433
d_print_comp_inner .LC34 6554
d_print_comp_inner .LC34 6561
d_print_comp_inner .LC33 6682
d_print_comp_inner .LC33 6689
d_print_comp_inner .LC18 7362
d_print_comp_inner .LC18 7369
d_print_comp_inner .LC63 7640
d_print_comp_inner .LC63 7647
d_print_comp_inner .LC26 7776
d_print_comp_inner .LC26 7783
d_print_comp_inner .LC15 7851
d_print_comp_inner sprintf 7867
d_print_comp_inner .LC43 8538
d_print_comp_inner .LC43 8545
d_print_comp_inner .LC31 8834
d_print_comp_inner .LC31 8841
d_print_comp_inner .LC68 9488
d_print_comp_inner .LC68 9495
d_print_comp_inner .LC15 9625
d_print_comp_inner sprintf 9641
d_print_comp_inner .LC15 9857
d_print_comp_inner sprintf 9873
d_print_comp_inner .LC49 10304
d_print_comp_inner .LC49 10311
d_print_comp_inner .LC64 10547
d_print_comp_inner .LC64 10554
d_print_comp_inner .LC15 10660
d_print_comp_inner sprintf 10676
d_print_comp_inner .LC47 11090
d_print_comp_inner .LC47 11097
d_print_comp_inner .LC15 11936
d_print_comp_inner sprintf 11949
d_print_comp_inner .LC19 12815
d_print_comp_inner .LC20 12854
d_print_comp_inner .LC56 13308
d_print_comp_inner .LC55 13328
d_print_comp_inner .LC57 13384
d_print_comp_inner .LC71 14034
d_print_comp_inner .LC24 14138
d_print_comp_inner .LC25 14173
d_print_comp_inner .LC62 14604
d_print_comp_inner .LC54 14624
d_print_comp_inner .LC59 15058
d_print_comp_inner .LC58 15144
d_print_comp _restgpr_21_x 96
d_print_comp strcmp 2784
d_print_comp strcmp 2888
d_print_comp strcmp 2988
d_print_comp strcmp 3132
d_print_comp strcmp 3156
d_print_comp strcmp 3412
d_print_comp strcmp 3504
d_print_comp strcmp 3624
d_print_comp strcmp 3764
d_print_array_type.isra.10 .LC74 255
d_print_array_type.isra.10 .LC74 262
d_print_mod _restgpr_29_x 432
d_print_subexpr _restgpr_28_x 132
d_maybe_print_fold_expression.isra.15 .LC91 181
d_maybe_print_fold_expression.isra.15 .LC91 195
d_maybe_print_fold_expression.isra.15 .LC90 314
d_maybe_print_fold_expression.isra.15 .LC90 321
d_maybe_print_fold_expression.isra.15 .LC62 650
d_maybe_print_fold_expression.isra.15 .LC62 664
d_make_name _restgpr_29_x 80
d_source_name memcmp 132
d_source_name _restgpr_28_x 224
d_abi_tags _restgpr_28_x 56
d_substitution _restgpr_26_x 492
cplus_demangle_type cplus_demangle_builtin_types 494
cplus_demangle_type cplus_demangle_builtin_types 1440
cplus_demangle_type .LC104 1473
cplus_demangle_type .LC103 1498
cplus_demangle_type cplus_demangle_builtin_types 1733
cplus_demangle_type cplus_demangle_builtin_types 1806
cplus_demangle_type cplus_demangle_builtin_types 1879
cplus_demangle_type cplus_demangle_builtin_types 1952
cplus_demangle_type cplus_demangle_builtin_types 2025
cplus_demangle_type cplus_demangle_builtin_types 2094
d_parmlist _restgpr_29_x 116
d_operator_name _restgpr_28_x 184
d_unqualified_name strcmp 248
d_unqualified_name _restgpr_27_x 716
d_bare_function_type _restgpr_29_x 68
d_function_type _restgpr_31_x 104
d_exprlist _restgpr_28_x 124
d_expression_1 _restgpr_27_x 404
d_expression_1 strcmp 716
d_expression_1 strcmp 884
d_expression_1 strcmp 1060
d_expression_1 strcmp 1192
d_expression_1 strcmp 1296
d_expression_1 strcmp 1316
d_cv_qualifiers _restgpr_23_x 352
d_name _restgpr_24_x 824
d_encoding _restgpr_25_x 132
d_expr_primary _restgpr_27_x 60
d_expr_primary strcmp 164
d_template_arg _restgpr_31_x 128
d_template_args_1 _restgpr_28_x 124
cplus_demangle_print cplus_demangle_print_callback 78
cplus_demangle_print realloc 158
cplus_demangle_print free 189
cplus_demangle_print free 210
d_demangle_callback .LC95 38
d_demangle_callback strlen 126
d_demangle_callback cplus_demangle_init_info 143
d_demangle_callback strlen 288
d_demangle_callback strlen 353
d_demangle_callback cplus_demangle_print_callback 414
d_demangle_callback cplus_demangle_type 548
d_demangle_callback cplus_demangle_mangled_name 569
d_demangle free 101
is_ctor_or_dtor strlen 41
is_ctor_or_dtor cplus_demangle_init_info 60
is_ctor_or_dtor cplus_demangle_mangled_name 126
md5_finish_ctx memcpy 67
md5_finish_ctx md5_process_block 124
md5_finish_ctx md5_read_ctx 145
md5_process_bytes md5_process_block 151
md5_process_bytes memcpy 194
md5_process_bytes md5_process_block 338
md5_buffer md5_init_ctx 26
md5_buffer md5_process_bytes 40
md5_buffer md5_finish_ctx 51
md5_stream md5_init_ctx 44
md5_stream fread 81
md5_stream md5_process_block 114
md5_stream ferror 132
md5_stream md5_finish_ctx 155
md5_stream md5_process_bytes 198
sha1_finish_ctx sha1_process_block 270
sha1_finish_ctx sha1_read_ctx 287
sha1_process_bytes sha1_process_block 135
sha1_process_bytes memcpy 154
sha1_process_bytes sha1_process_block 199
sha1_process_bytes memcpy 241
sha1_process_bytes sha1_process_block 362
sha1_buffer sha1_init_ctx 26
sha1_buffer sha1_process_bytes 40
sha1_buffer sha1_finish_ctx 51
sha1_stream sha1_init_ctx 44
sha1_stream feof 65
sha1_stream fread 92
sha1_stream sha1_process_block 120
sha1_stream ferror 129
sha1_stream sha1_finish_ctx 156
sha1_stream sha1_process_bytes 194
C_alloca free 61
C_alloca xmalloc 92
dupargv xmalloc 57
dupargv xstrdup 81
freeargv free 37
freeargv free 59
buildargv strlen 27
buildargv xmalloc 48
buildargv _sch_istable 55
buildargv xrealloc 165
buildargv xstrdup 323
buildargv free 399
buildargv xmalloc 545
writeargv _sch_istable 41
writeargv fputc 73
writeargv fputc 116
writeargv fputc 153
expandargv __xstat 132
expandargv .LC6 167
expandargv fopen 175
expandargv fseek 204
expandargv ftell 226
expandargv fseek 256
expandargv xmalloc 285
expandargv fread 314
expandargv ferror 345
expandargv _sch_istable 386
expandargv xmalloc 448
expandargv free 519
expandargv xrealloc 545
expandargv memmove 588
expandargv memcpy 621
expandargv free 653
expandargv free 663
expandargv fclose 679
expandargv buildargv 751
expandargv dupargv 838
expandargv .LC5 865
expandargv stderr 875
expandargv fprintf 885
expandargv xexit 895
expandargv .LC4 905
choose_temp_base choose_tmpdir 5
choose_temp_base strlen 16
choose_temp_base xmalloc 28
choose_temp_base strcpy 42
choose_temp_base mktemp 70
choose_temp_base abort 88
concat_length strlen 101
concat_copy strlen 106
concat_copy memcpy 123
concat_copy2 libiberty_concat_ptr 16
concat_copy2 strlen 122
concat_copy2 memcpy 139
concat strlen 109
concat xmalloc 152
concat strlen 226
concat memcpy 243
concat xmalloc 305
reconcat strlen 117
reconcat xmalloc 161
reconcat strlen 234
reconcat memcpy 251
reconcat free 303
reconcat xmalloc 329
cplus_demangle_fill_builtin_type strlen 44
cplus_demangle_fill_builtin_type cplus_demangle_builtin_types 51
cplus_demangle_fill_builtin_type strcmp 89
cplus_demangle_fill_operator strlen 47
cplus_demangle_fill_operator cplus_demangle_operators 54
cplus_demangle_fill_operator strcmp 128
cplus_demangle_v3_components strlen 21
cplus_demangle_v3_components cplus_demangle_init_info 67
cplus_demangle_v3_components malloc 89
cplus_demangle_v3_components malloc 115
cplus_demangle_v3_components cplus_demangle_type 151
cplus_demangle_v3_components free 179
cplus_demangle_v3_components free 189
cplus_demangle_v3_components cplus_demangle_mangled_name 217
cplus_demangle_v3_components free 235
cplus_demangle_v3_components free 313
cplus_demangle_v3_components free 326
dlang_number _sch_istable 11
string_need xrealloc 55
string_need xmalloc 107
string_append strlen 14
string_append memcpy 45
dlang_type_modifiers .LC4 53
dlang_type_modifiers .LC3 83
dlang_type_modifiers .LC6 125
dlang_type_modifiers .LC5 163
dlang_call_convention .LC12 63
dlang_call_convention .LC11 103
dlang_call_convention .LC8 127
dlang_call_convention .LC10 151
dlang_call_convention .LC9 175
dlang_attributes .LC21 91
dlang_attributes .LC20 131
dlang_attributes .LC19 155
dlang_attributes .LC18 179
dlang_attributes .LC17 203
dlang_attributes .LC16 227
dlang_attributes .LC15 251
dlang_attributes .LC14 275
dlang_attributes .LC22 299
string_prepend.part.4 strlen 14
string_prepend.part.4 memcpy 91
string_appendn.part.5 memcpy 31
dlang_parse_integer _sch_istable 55
dlang_parse_integer .LC28 169
dlang_parse_integer .LC28 330
dlang_parse_integer .LC34 419
dlang_parse_integer .LC33 443
dlang_parse_integer .LC32 467
dlang_parse_integer .LC29 499
dlang_parse_integer .LC26 575
dlang_parse_integer .LC27 582
dlang_parse_integer .LC31 699
dlang_parse_integer .LC30 731
dlang_parse_real .LC36 12
dlang_parse_real .LC38 39
dlang_parse_real .LC40 62
dlang_parse_real _sch_istable 96
dlang_parse_real .LC43 115
dlang_parse_real .LC44 150
dlang_parse_real .LC45 226
dlang_parse_real .LC42 253
dlang_parse_real .LC37 347
dlang_parse_real .LC41 387
dlang_parse_real .LC39 419
dlang_parse_real .LC42 451
dlang_value .LC57 150
dlang_value .LC59 225
dlang_value .LC42 255
dlang_value .LC61 362
dlang_value .LC59 433
dlang_value .LC50 501
dlang_value _sch_istable 556
dlang_value .LC48 743
dlang_value .LC49 783
dlang_value .LC47 847
dlang_value .LC62 907
dlang_value .LC60 947
dlang_value .LC51 979
dlang_value .LC54 1075
dlang_value .LC55 1099
dlang_value .LC56 1123
dlang_value .LC53 1147
dlang_value .LC52 1171
dlang_value .LC50 1235
dlang_value .LC29 1315
dlang_value .LC57 1372
dlang_value .LC58 1428
dlang_value .LC59 1474
dlang_identifier strlen 71
dlang_identifier _sch_istable 161
dlang_identifier .LC65 204
dlang_identifier .LC62 304
dlang_identifier _sch_istable 357
dlang_identifier .LC64 409
dlang_identifier .LC79 619
dlang_identifier .LC73 683
dlang_identifier .LC74 702
dlang_identifier .LC75 723
dlang_identifier .LC76 742
dlang_identifier .LC77 779
dlang_identifier .LC78 802
dlang_identifier .LC66 844
dlang_identifier .LC68 867
dlang_identifier .LC81 895
dlang_identifier strncmp 908
dlang_identifier .LC71 923
dlang_identifier .LC72 946
dlang_identifier .LC80 1020
dlang_identifier .LC66 1038
dlang_identifier .LC68 1066
dlang_identifier .LC67 1096
dlang_identifier .LC70 1124
dlang_identifier .LC69 1136
dlang_identifier .LC59 1177
dlang_identifier .LC62 1245
dlang_identifier free 1425
dlang_parse_qualified _sch_istable 117
dlang_parse_qualified .LC44 148
dlang_parse_qualified _sch_istable 179
dlang_parse_qualified .LC61 340
dlang_parse_qualified .LC62 366
dlang_parse_qualified _sch_istable 396
dlang_parse_qualified _sch_istable 535
dlang_type .LC90 75
dlang_type .LC91 188
dlang_type free 236
dlang_type .LC92 307
dlang_type .LC59 371
dlang_type .LC89 404
dlang_type .LC117 459
dlang_type .LC86 487
dlang_type .LC62 516
dlang_type .LC100 551
dlang_type .LC108 583
dlang_type .LC99 615
dlang_type .LC96 647
dlang_type .LC95 679
dlang_type .LC103 711
dlang_type .LC105 743
dlang_type .LC104 775
dlang_type .LC111 807
dlang_type .LC112 839
dlang_type .LC113 871
dlang_type .LC118 946
dlang_type .LC84 983
dlang_type .LC88 1023
dlang_type .LC57 1116
dlang_type .LC60 1154
dlang_type _sch_istable 1191
dlang_type .LC57 1249
dlang_type .LC60 1286
dlang_type .LC97 1319
dlang_type .LC110 1351
dlang_type .LC115 1383
dlang_type .LC94 1415
dlang_type .LC114 1447
dlang_type .LC98 1479
dlang_type .LC85 1511
dlang_type .LC106 1527
dlang_type .LC93 1559
dlang_type .LC102 1591
dlang_type .LC101 1623
dlang_type .LC109 1655
dlang_type .LC107 1687
dlang_type .LC116 1726
dlang_type .LC91 1757
dlang_type .LC57 1795
dlang_type .LC87 1822
dlang_type .LC57 1845
dlang_function_args .LC121 110
dlang_function_args .LC120 139
dlang_function_args .LC120 204
dlang_function_args .LC59 243
dlang_function_args .LC16 267
dlang_function_args .LC59 339
dlang_function_args .LC21 373
dlang_function_args .LC122 403
dlang_function_args .LC22 439
dlang_function_type .LC61 238
dlang_function_type .LC124 267
dlang_function_type free 298
dlang_function_type free 339
dlang_function_type free 384
dlang_function_type .LC61 523
dlang_parse_mangle free 194
dlang_parse_mangle .LC61 333
dlang_parse_mangle .LC62 359
dlang_demangle .LC64 24
dlang_demangle .LC127 48
dlang_demangle .LC128 179
dlang_demangle free 214
get_DW_TAG_name .LC62 62
get_DW_TAG_name .LC60 80
get_DW_TAG_name .LC61 92
get_DW_TAG_name .LC18 163
get_DW_TAG_name .LC16 181
get_DW_TAG_name .LC17 193
get_DW_TAG_name .LC79 261
get_DW_TAG_name .LC77 286
get_DW_TAG_name .LC78 305
get_DW_TAG_name .LC40 356
get_DW_TAG_name .LC38 378
get_DW_TAG_name .LC39 394
get_DW_TAG_name .LC7 437
get_DW_TAG_name .LC5 459
get_DW_TAG_name .LC6 475
get_DW_TAG_name .LC51 517
get_DW_TAG_name .LC49 539
get_DW_TAG_name .LC50 555
get_DW_TAG_name .LC29 597
get_DW_TAG_name .LC27 619
get_DW_TAG_name .LC28 635
get_DW_TAG_name .LC73 683
get_DW_TAG_name .LC71 708
get_DW_TAG_name .LC72 727
get_DW_TAG_name .LC85 753
get_DW_TAG_name .LC83 778
get_DW_TAG_name .LC84 797
get_DW_TAG_name .LC65 819
get_DW_TAG_name .LC67 838
get_DW_TAG_name .LC66 851
get_DW_TAG_name .LC68 867
get_DW_TAG_name .LC69 886
get_DW_TAG_name .LC34 910
get_DW_TAG_name .LC33 923
get_DW_TAG_name .LC35 939
get_DW_TAG_name .LC36 955
get_DW_TAG_name .LC23 982
get_DW_TAG_name .LC22 995
get_DW_TAG_name .LC24 1011
get_DW_TAG_name .LC25 1027
get_DW_TAG_name .LC56 1046
get_DW_TAG_name .LC57 1068
get_DW_TAG_name .LC58 1084
get_DW_TAG_name .LC45 1110
get_DW_TAG_name .LC44 1123
get_DW_TAG_name .LC46 1139
get_DW_TAG_name .LC47 1155
get_DW_TAG_name .LC1 1174
get_DW_TAG_name .LC0 1187
get_DW_TAG_name .LC2 1203
get_DW_TAG_name .LC3 1219
get_DW_TAG_name .LC12 1238
get_DW_TAG_name .LC11 1251
get_DW_TAG_name .LC13 1267
get_DW_TAG_name .LC14 1283
get_DW_TAG_name .LC30 1302
get_DW_TAG_name .LC31 1318
get_DW_TAG_name .LC63 1342
get_DW_TAG_name .LC64 1358
get_DW_TAG_name .LC74 1385
get_DW_TAG_name .LC75 1404
get_DW_TAG_name .LC8 1430
get_DW_TAG_name .LC9 1446
get_DW_TAG_name .LC86 1473
get_DW_TAG_name .LC87 1492
get_DW_TAG_name .LC52 1510
get_DW_TAG_name .LC53 1526
get_DW_TAG_name .LC41 1550
get_DW_TAG_name .LC42 1566
get_DW_TAG_name .LC80 1593
get_DW_TAG_name .LC81 1612
get_DW_TAG_name .LC19 1638
get_DW_TAG_name .LC20 1654
get_DW_TAG_name .LC55 1678
get_DW_TAG_name .LC43 1699
get_DW_TAG_name .LC54 1715
get_DW_TAG_name .LC32 1731
get_DW_TAG_name .LC21 1747
get_DW_TAG_name .LC10 1763
get_DW_TAG_name .LC76 1779
get_DW_TAG_name .LC82 1795
get_DW_TAG_name .LC48 1811
get_DW_TAG_name .LC70 1827
get_DW_TAG_name .LC4 1843
get_DW_TAG_name .LC37 1859
get_DW_TAG_name .LC15 1875
get_DW_TAG_name .LC26 1891
get_DW_TAG_name .LC59 1907
get_DW_FORM_name .LC121 47
get_DW_FORM_name .LC122 65
get_DW_FORM_name .LC123 77
get_DW_FORM_name .LC97 128
get_DW_FORM_name .LC98 146
get_DW_FORM_name .LC99 158
get_DW_FORM_name .LC109 197
get_DW_FORM_name .LC110 215
get_DW_FORM_name .LC111 231
get_DW_FORM_name .LC133 260
get_DW_FORM_name .LC134 285
get_DW_FORM_name .LC135 304
get_DW_FORM_name .LC127 326
get_DW_FORM_name .LC128 348
get_DW_FORM_name .LC129 364
get_DW_FORM_name .LC103 390
get_DW_FORM_name .LC104 412
get_DW_FORM_name .LC105 428
get_DW_FORM_name .LC116 454
get_DW_FORM_name .LC117 476
get_DW_FORM_name .LC118 492
get_DW_FORM_name .LC91 518
get_DW_FORM_name .LC92 536
get_DW_FORM_name .LC93 552
get_DW_FORM_name .LC95 574
get_DW_FORM_name .LC96 590
get_DW_FORM_name .LC89 614
get_DW_FORM_name .LC90 630
get_DW_FORM_name .LC113 654
get_DW_FORM_name .LC120 670
get_DW_FORM_name .LC114 694
get_DW_FORM_name .LC115 710
get_DW_FORM_name .LC107 734
get_DW_FORM_name .LC108 750
get_DW_FORM_name .LC101 774
get_DW_FORM_name .LC102 790
get_DW_FORM_name .LC131 814
get_DW_FORM_name .LC132 833
get_DW_FORM_name .LC125 854
get_DW_FORM_name .LC126 870
get_DW_FORM_name .LC112 891
get_DW_FORM_name .LC100 899
get_DW_FORM_name .LC94 915
get_DW_FORM_name .LC124 931
get_DW_FORM_name .LC119 947
get_DW_FORM_name .LC106 963
get_DW_FORM_name .LC130 979
get_DW_AT_name .LC277 96
get_DW_AT_name .LC279 121
get_DW_AT_name .LC278 134
get_DW_AT_name .LC280 141
get_DW_AT_name .LC171 226
get_DW_AT_name .LC173 248
get_DW_AT_name .LC172 261
get_DW_AT_name .LC174 268
get_DW_AT_name .LC304 343
get_DW_AT_name .LC306 368
get_DW_AT_name .LC305 381
get_DW_AT_name .LC307 388
get_DW_AT_name .LC224 451
get_DW_AT_name .LC226 473
get_DW_AT_name .LC225 486
get_DW_AT_name .LC227 493
get_DW_AT_name .LC331 557
get_DW_AT_name .LC333 582
get_DW_AT_name .LC334 595
get_DW_AT_name .LC332 620
get_DW_AT_name .LC145 668
get_DW_AT_name .LC147 690
get_DW_AT_name .LC146 703
get_DW_AT_name .LC148 710
get_DW_AT_name .LC251 765
get_DW_AT_name .LC253 790
get_DW_AT_name .LC252 803
get_DW_AT_name .LC254 810
get_DW_AT_name .LC198 860
get_DW_AT_name .LC200 882
get_DW_AT_name .LC199 895
get_DW_AT_name .LC201 902
get_DW_AT_name .LC238 933
get_DW_AT_name .LC240 955
get_DW_AT_name .LC239 968
get_DW_AT_name .LC241 975
get_DW_AT_name .LC284 1019
get_DW_AT_name .LC286 1044
get_DW_AT_name .LC287 1057
get_DW_AT_name .LC285 1082
get_DW_AT_name .LC318 1115
get_DW_AT_name .LC320 1140
get_DW_AT_name .LC319 1153
get_DW_AT_name .LC321 1160
get_DW_AT_name .LC185 1197
get_DW_AT_name .LC187 1219
get_DW_AT_name .LC186 1232
get_DW_AT_name .LC188 1239
get_DW_AT_name .LC345 1275
get_DW_AT_name .LC347 1300
get_DW_AT_name .LC346 1313
get_DW_AT_name .LC348 1338
get_DW_AT_name .LC263 1371
get_DW_AT_name .LC265 1396
get_DW_AT_name .LC264 1409
get_DW_AT_name .LC266 1416
get_DW_AT_name .LC158 1453
get_DW_AT_name .LC160 1475
get_DW_AT_name .LC159 1488
get_DW_AT_name .LC161 1510
get_DW_AT_name .LC211 1541
get_DW_AT_name .LC213 1563
get_DW_AT_name .LC212 1576
get_DW_AT_name .LC214 1583
get_DW_AT_name .LC178 1606
get_DW_AT_name .LC180 1628
get_DW_AT_name .LC179 1641
get_DW_AT_name .LC181 1648
get_DW_AT_name .LC291 1673
get_DW_AT_name .LC293 1698
get_DW_AT_name .LC292 1711
get_DW_AT_name .LC294 1718
get_DW_AT_name .LC311 1737
get_DW_AT_name .LC313 1762
get_DW_AT_name .LC312 1775
get_DW_AT_name .LC314 1782
get_DW_AT_name .LC231 1798
get_DW_AT_name .LC233 1820
get_DW_AT_name .LC232 1833
get_DW_AT_name .LC234 1840
get_DW_AT_name .LC338 1865
get_DW_AT_name .LC340 1890
get_DW_AT_name .LC339 1903
get_DW_AT_name .LC341 1910
get_DW_AT_name .LC325 1929
get_DW_AT_name .LC323 1954
get_DW_AT_name .LC324 1979
get_DW_AT_name .LC245 1990
get_DW_AT_name .LC243 2012
get_DW_AT_name .LC244 2034
get_DW_AT_name .LC218 2054
get_DW_AT_name .LC216 2076
get_DW_AT_name .LC217 2098
get_DW_AT_name .LC258 2121
get_DW_AT_name .LC256 2146
get_DW_AT_name .LC257 2171
get_DW_AT_name .LC165 2182
get_DW_AT_name .LC163 2204
get_DW_AT_name .LC164 2226
get_DW_AT_name .LC192 2246
get_DW_AT_name .LC190 2268
get_DW_AT_name .LC191 2290
get_DW_AT_name .LC152 2310
get_DW_AT_name .LC150 2332
get_DW_AT_name .LC151 2354
get_DW_AT_name .LC139 2374
get_DW_AT_name .LC137 2396
get_DW_AT_name .LC138 2418
get_DW_AT_name .LC270 2441
get_DW_AT_name .LC268 2466
get_DW_AT_name .LC269 2487
get_DW_AT_name .LC205 2502
get_DW_AT_name .LC203 2520
get_DW_AT_name .LC204 2534
get_DW_AT_name .LC298 2553
get_DW_AT_name .LC296 2574
get_DW_AT_name .LC297 2591
get_DW_AT_name .LC295 2599
get_DW_AT_name .LC156 2616
get_DW_AT_name .LC157 2630
get_DW_AT_name .LC209 2641
get_DW_AT_name .LC210 2655
get_DW_AT_name .LC336 2669
get_DW_AT_name .LC337 2686
get_DW_AT_name .LC261 2700
get_DW_AT_name .LC262 2717
get_DW_AT_name .LC275 2731
get_DW_AT_name .LC276 2756
get_DW_AT_name .LC196 2767
get_DW_AT_name .LC197 2789
get_DW_AT_name .LC222 2800
get_DW_AT_name .LC223 2822
get_DW_AT_name .LC143 2833
get_DW_AT_name .LC144 2855
get_DW_AT_name .LC169 2866
get_DW_AT_name .LC170 2888
get_DW_AT_name .LC282 2902
get_DW_AT_name .LC283 2927
get_DW_AT_name .LC329 2941
get_DW_AT_name .LC330 2966
get_DW_AT_name .LC316 2980
get_DW_AT_name .LC317 3005
get_DW_AT_name .LC229 3016
get_DW_AT_name .LC230 3038
get_DW_AT_name .LC302 3052
get_DW_AT_name .LC303 3077
get_DW_AT_name .LC289 3091
get_DW_AT_name .LC290 3116
get_DW_AT_name .LC236 3127
get_DW_AT_name .LC237 3149
get_DW_AT_name .LC176 3160
get_DW_AT_name .LC177 3182
get_DW_AT_name .LC343 3196
get_DW_AT_name .LC344 3221
get_DW_AT_name .LC249 3235
get_DW_AT_name .LC250 3260
get_DW_AT_name .LC309 3274
get_DW_AT_name .LC310 3299
get_DW_AT_name .LC183 3310
get_DW_AT_name .LC184 3332
get_DW_AT_name .LC166 3343
get_DW_AT_name .LC167 3365
get_DW_AT_name .LC246 3376
get_DW_AT_name .LC247 3398
get_DW_AT_name .LC259 3412
get_DW_AT_name .LC260 3437
get_DW_AT_name .LC206 3448
get_DW_AT_name .LC207 3470
get_DW_AT_name .LC271 3484
get_DW_AT_name .LC273 3509
get_DW_AT_name .LC140 3520
get_DW_AT_name .LC141 3542
get_DW_AT_name .LC193 3553
get_DW_AT_name .LC194 3575
get_DW_AT_name .LC153 3586
get_DW_AT_name .LC154 3608
get_DW_AT_name .LC299 3622
get_DW_AT_name .LC300 3647
get_DW_AT_name .LC219 3658
get_DW_AT_name .LC220 3680
get_DW_AT_name .LC326 3694
get_DW_AT_name .LC327 3719
get_DW_AT_name .LC315 3727
get_DW_AT_name .LC195 3735
get_DW_AT_name .LC202 3743
get_DW_AT_name .LC342 3751
get_DW_AT_name .LC182 3759
get_DW_AT_name .LC248 3767
get_DW_AT_name .LC255 3775
get_DW_AT_name .LC235 3783
get_DW_AT_name .LC155 3791
get_DW_AT_name .LC272 3799
get_DW_AT_name .LC142 3807
get_DW_AT_name .LC149 3815
get_DW_AT_name .LC208 3823
get_DW_AT_name .LC288 3831
get_DW_AT_name .LC242 3839
get_DW_AT_name .LC267 3847
get_DW_AT_name .LC189 3855
get_DW_AT_name .LC162 3863
get_DW_AT_name .LC168 3871
get_DW_AT_name .LC175 3879
get_DW_AT_name .LC328 3887
get_DW_AT_name .LC335 3895
get_DW_AT_name .LC274 3903
get_DW_AT_name .LC281 3911
get_DW_AT_name .LC301 3919
get_DW_AT_name .LC308 3927
get_DW_AT_name .LC221 3935
get_DW_AT_name .LC228 3943
get_DW_AT_name .LC322 3951
get_DW_AT_name .LC215 3959
get_DW_OP_name .LC350 34
get_DW_OP_name .LC527 42
get_DW_OP_name .LC526 50
get_DW_OP_name .LC525 58
get_DW_OP_name .LC524 66
get_DW_OP_name .LC523 74
get_DW_OP_name .LC534 82
get_DW_OP_name .LC522 90
get_DW_OP_name .LC521 98
get_DW_OP_name .LC520 106
get_DW_OP_name .LC519 114
get_DW_OP_name .LC518 122
get_DW_OP_name .LC517 130
get_DW_OP_name .LC516 138
get_DW_OP_name .LC515 146
get_DW_OP_name .LC535 154
get_DW_OP_name .LC533 162
get_DW_OP_name .LC532 170
get_DW_OP_name .LC531 178
get_DW_OP_name .LC530 186
get_DW_OP_name .LC529 194
get_DW_OP_name .LC528 202
get_DW_OP_name .LC514 210
get_DW_OP_name .LC513 218
get_DW_OP_name .LC512 226
get_DW_OP_name .LC511 234
get_DW_OP_name .LC510 242
get_DW_OP_name .LC509 250
get_DW_OP_name .LC508 258
get_DW_OP_name .LC507 266
get_DW_OP_name .LC506 274
get_DW_OP_name .LC505 282
get_DW_OP_name .LC504 290
get_DW_OP_name .LC503 298
get_DW_OP_name .LC502 306
get_DW_OP_name .LC501 314
get_DW_OP_name .LC500 322
get_DW_OP_name .LC499 330
get_DW_OP_name .LC498 338
get_DW_OP_name .LC497 346
get_DW_OP_name .LC496 354
get_DW_OP_name .LC495 362
get_DW_OP_name .LC494 370
get_DW_OP_name .LC493 378
get_DW_OP_name .LC492 386
get_DW_OP_name .LC491 394
get_DW_OP_name .LC490 402
get_DW_OP_name .LC489 410
get_DW_OP_name .LC488 418
get_DW_OP_name .LC487 426
get_DW_OP_name .LC486 434
get_DW_OP_name .LC485 442
get_DW_OP_name .LC484 450
get_DW_OP_name .LC483 458
get_DW_OP_name .LC482 466
get_DW_OP_name .LC481 474
get_DW_OP_name .LC480 482
get_DW_OP_name .LC479 490
get_DW_OP_name .LC478 498
get_DW_OP_name .LC477 506
get_DW_OP_name .LC476 514
get_DW_OP_name .LC475 522
get_DW_OP_name .LC474 530
get_DW_OP_name .LC473 538
get_DW_OP_name .LC472 546
get_DW_OP_name .LC471 554
get_DW_OP_name .LC470 562
get_DW_OP_name .LC469 570
get_DW_OP_name .LC468 578
get_DW_OP_name .LC467 586
get_DW_OP_name .LC466 594
get_DW_OP_name .LC465 602
get_DW_OP_name .LC464 610
get_DW_OP_name .LC463 618
get_DW_OP_name .LC462 626
get_DW_OP_name .LC461 634
get_DW_OP_name .LC460 642
get_DW_OP_name .LC459 650
get_DW_OP_name .LC458 658
get_DW_OP_name .LC457 666
get_DW_OP_name .LC456 674
get_DW_OP_name .LC455 682
get_DW_OP_name .LC454 690
get_DW_OP_name .LC453 698
get_DW_OP_name .LC452 706
get_DW_OP_name .LC451 714
get_DW_OP_name .LC450 722
get_DW_OP_name .LC449 730
get_DW_OP_name .LC448 738
get_DW_OP_name .LC447 746
get_DW_OP_name .LC446 754
get_DW_OP_name .LC445 762
get_DW_OP_name .LC444 770
get_DW_OP_name .LC443 778
get_DW_OP_name .LC442 786
get_DW_OP_name .LC441 794
get_DW_OP_name .LC440 802
get_DW_OP_name .LC439 810
get_DW_OP_name .LC438 818
get_DW_OP_name .LC437 826
get_DW_OP_name .LC436 834
get_DW_OP_name .LC435 842
get_DW_OP_name .LC434 850
get_DW_OP_name .LC433 858
get_DW_OP_name .LC432 866
get_DW_OP_name .LC431 874
get_DW_OP_name .LC430 882
get_DW_OP_name .LC429 890
get_DW_OP_name .LC428 898
get_DW_OP_name .LC427 906
get_DW_OP_name .LC426 914
get_DW_OP_name .LC425 922
get_DW_OP_name .LC424 930
get_DW_OP_name .LC423 938
get_DW_OP_name .LC422 946
get_DW_OP_name .LC421 954
get_DW_OP_name .LC420 962
get_DW_OP_name .LC419 970
get_DW_OP_name .LC418 978
get_DW_OP_name .LC417 986
get_DW_OP_name .LC416 994
get_DW_OP_name .LC415 1002
get_DW_OP_name .LC414 1010
get_DW_OP_name .LC413 1018
get_DW_OP_name .LC412 1026
get_DW_OP_name .LC411 1034
get_DW_OP_name .LC410 1042
get_DW_OP_name .LC409 1050
get_DW_OP_name .LC408 1058
get_DW_OP_name .LC407 1066
get_DW_OP_name .LC406 1074
get_DW_OP_name .LC405 1082
get_DW_OP_name .LC404 1090
get_DW_OP_name .LC403 1098
get_DW_OP_name .LC402 1106
get_DW_OP_name .LC401 1114
get_DW_OP_name .LC400 1122
get_DW_OP_name .LC399 1130
get_DW_OP_name .LC398 1138
get_DW_OP_name .LC397 1146
get_DW_OP_name .LC396 1154
get_DW_OP_name .LC395 1162
get_DW_OP_name .LC394 1170
get_DW_OP_name .LC393 1178
get_DW_OP_name .LC392 1186
get_DW_OP_name .LC391 1194
get_DW_OP_name .LC390 1202
get_DW_OP_name .LC389 1210
get_DW_OP_name .LC388 1218
get_DW_OP_name .LC387 1226
get_DW_OP_name .LC386 1234
get_DW_OP_name .LC385 1242
get_DW_OP_name .LC384 1250
get_DW_OP_name .LC383 1258
get_DW_OP_name .LC382 1266
get_DW_OP_name .LC381 1274
get_DW_OP_name .LC380 1282
get_DW_OP_name .LC379 1290
get_DW_OP_name .LC378 1298
get_DW_OP_name .LC377 1306
get_DW_OP_name .LC376 1314
get_DW_OP_name .LC375 1322
get_DW_OP_name .LC374 1330
get_DW_OP_name .LC373 1338
get_DW_OP_name .LC372 1346
get_DW_OP_name .LC371 1354
get_DW_OP_name .LC370 1362
get_DW_OP_name .LC369 1370
get_DW_OP_name .LC368 1378
get_DW_OP_name .LC367 1386
get_DW_OP_name .LC366 1394
get_DW_OP_name .LC365 1402
get_DW_OP_name .LC364 1410
get_DW_OP_name .LC363 1418
get_DW_OP_name .LC362 1426
get_DW_OP_name .LC361 1434
get_DW_OP_name .LC360 1442
get_DW_OP_name .LC359 1450
get_DW_OP_name .LC358 1458
get_DW_OP_name .LC357 1466
get_DW_OP_name .LC356 1474
get_DW_OP_name .LC355 1482
get_DW_OP_name .LC354 1490
get_DW_OP_name .LC353 1498
get_DW_OP_name .LC352 1506
get_DW_OP_name .LC351 1514
get_DW_ATE_name .LC537 35
get_DW_ATE_name .LC571 51
get_DW_ATE_name .LC570 67
get_DW_ATE_name .LC569 83
get_DW_ATE_name .LC568 99
get_DW_ATE_name .LC567 115
get_DW_ATE_name .LC566 131
get_DW_ATE_name .LC565 147
get_DW_ATE_name .LC564 163
get_DW_ATE_name .LC563 179
get_DW_ATE_name .LC562 195
get_DW_ATE_name .LC561 211
get_DW_ATE_name .LC560 227
get_DW_ATE_name .LC559 243
get_DW_ATE_name .LC558 259
get_DW_ATE_name .LC557 275
get_DW_ATE_name .LC556 291
get_DW_ATE_name .LC555 307
get_DW_ATE_name .LC554 323
get_DW_ATE_name .LC553 339
get_DW_ATE_name .LC552 355
get_DW_ATE_name .LC551 371
get_DW_ATE_name .LC550 387
get_DW_ATE_name .LC549 403
get_DW_ATE_name .LC548 419
get_DW_ATE_name .LC547 435
get_DW_ATE_name .LC546 451
get_DW_ATE_name .LC545 467
get_DW_ATE_name .LC544 483
get_DW_ATE_name .LC543 499
get_DW_ATE_name .LC542 515
get_DW_ATE_name .LC541 531
get_DW_ATE_name .LC540 547
get_DW_ATE_name .LC539 563
get_DW_ATE_name .LC538 579
get_DW_CFA_name .LC573 35
get_DW_CFA_name .LC600 51
get_DW_CFA_name .LC604 67
get_DW_CFA_name .LC603 83
get_DW_CFA_name .LC602 99
get_DW_CFA_name .LC601 115
get_DW_CFA_name .LC599 131
get_DW_CFA_name .LC598 147
get_DW_CFA_name .LC597 163
get_DW_CFA_name .LC596 179
get_DW_CFA_name .LC595 195
get_DW_CFA_name .LC594 211
get_DW_CFA_name .LC593 227
get_DW_CFA_name .LC592 243
get_DW_CFA_name .LC591 259
get_DW_CFA_name .LC590 275
get_DW_CFA_name .LC589 291
get_DW_CFA_name .LC588 307
get_DW_CFA_name .LC587 323
get_DW_CFA_name .LC586 339
get_DW_CFA_name .LC585 355
get_DW_CFA_name .LC584 371
get_DW_CFA_name .LC583 387
get_DW_CFA_name .LC582 403
get_DW_CFA_name .LC581 419
get_DW_CFA_name .LC580 435
get_DW_CFA_name .LC579 451
get_DW_CFA_name .LC578 467
get_DW_CFA_name .LC577 483
get_DW_CFA_name .LC576 499
get_DW_CFA_name .LC575 515
get_DW_CFA_name .LC574 531
get_DW_IDX_name .LC612 16
get_DW_IDX_name .LC613 33
get_DW_IDX_name .LC611 48
get_DW_IDX_name .LC607 78
get_DW_IDX_name .LC608 87
get_DW_IDX_name .LC606 99
get_DW_IDX_name .LC610 118
get_DW_IDX_name .LC609 131
dyn_string_init xmalloc 29
dyn_string_new xmalloc 14
dyn_string_new dyn_string_init 27
dyn_string_delete free 9
dyn_string_delete free 18
dyn_string_release free 6
dyn_string_resize xrealloc 36
dyn_string_copy dyn_string_resize 21
dyn_string_copy strcpy 41
dyn_string_copy abort 66
dyn_string_copy_cstr strlen 14
dyn_string_copy_cstr dyn_string_resize 27
dyn_string_copy_cstr strcpy 46
dyn_string_insert dyn_string_resize 25
dyn_string_insert strncpy 104
dyn_string_insert abort 136
dyn_string_prepend dyn_string_insert 6
dyn_string_insert_cstr strlen 21
dyn_string_insert_cstr dyn_string_resize 37
dyn_string_insert_cstr strncpy 122
dyn_string_prepend_cstr dyn_string_insert_cstr 6
dyn_string_insert_char dyn_string_resize 19
dyn_string_append dyn_string_resize 21
dyn_string_append strcpy 45
dyn_string_append_cstr strlen 14
dyn_string_append_cstr dyn_string_resize 30
dyn_string_append_cstr strcpy 56
dyn_string_append_char dyn_string_resize 18
dyn_string_substring dyn_string_resize 55
dyn_string_substring abort 174
dyn_string_eq strcmp 29
fdmatch __fxstat 21
fdmatch __fxstat 64
fibheap_new xcalloc 11
fibheap_insert xcalloc 24
fibheap_union free 78
fibheap_union free 118
fibheap_extract_min free 21
fibheap_replace_data fibheap_replace_key_data 8
fibheap_replace_key fibheap_replace_key_data 10
fibheap_delete_node fibheap_replace_key 25
fibheap_delete_node fibheap_extract_min 39
fibheap_delete_node stderr 54
fibheap_delete_node .LC13 61
fibheap_delete_node fwrite 79
fibheap_delete_node abort 84
fibheap_delete free 28
fibheap_delete free 44
