__atomic_load,libat_load __atomic_load_1 51
__atomic_load,libat_load __atomic_load_2 69
__atomic_load,libat_load __atomic_load_4 88
__atomic_load,libat_load __atomic_load_8 106
__atomic_load,libat_load __atomic_load_4 143
__atomic_load,libat_load __atomic_load_8 176
__atomic_load,libat_load libat_lock_n 209
__atomic_load,libat_load libat_unlock_n 238
__atomic_store,libat_store __atomic_store_1 46
__atomic_store,libat_store __atomic_store_2 71
__atomic_store,libat_store __atomic_store_4 94
__atomic_store,libat_store __atomic_store_8 123
__atomic_store,libat_store libat_feat1_edx 207
__atomic_store,libat_store libat_lock_n 320
__atomic_store,libat_store libat_unlock_n 339
__atomic_compare_exchange,libat_compare_exchange __atomic_compare_exchange_1 55
__atomic_compare_exchange,libat_compare_exchange __atomic_compare_exchange_2 83
__atomic_compare_exchange,libat_compare_exchange __atomic_compare_exchange_4 119
__atomic_compare_exchange,libat_compare_exchange __atomic_compare_exchange_8 151
__atomic_compare_exchange,libat_compare_exchange memcmp 204
__atomic_compare_exchange,libat_compare_exchange libat_feat1_edx 280
__atomic_compare_exchange,libat_compare_exchange memcmp 359
__atomic_compare_exchange,libat_compare_exchange libat_lock_n 463
__atomic_compare_exchange,libat_compare_exchange memcmp 478
__atomic_compare_exchange,libat_compare_exchange libat_unlock_n 521
__atomic_exchange,libat_exchange __atomic_exchange_1 46
__atomic_exchange,libat_exchange __atomic_exchange_2 76
__atomic_exchange,libat_exchange __atomic_exchange_4 109
__atomic_exchange,libat_exchange __atomic_exchange_8 143
__atomic_exchange,libat_exchange libat_feat1_edx 239
__atomic_exchange,libat_exchange libat_lock_n 369
__atomic_exchange,libat_exchange libat_unlock_n 425
__atomic_is_lock_free,libat_is_lock_free libat_feat1_edx 64
libat_lock_1 pthread_mutex_lock 21
libat_unlock_1 pthread_mutex_unlock 21
libat_lock_n pthread_mutex_lock 53
libat_unlock_n pthread_mutex_unlock 53
init_cpuid libat_feat1_ecx 44
init_cpuid libat_feat1_edx 50
select_load_8 libat_feat1_edx 2
select_load_8 libat_load_8 9
select_load_8 libat_load_8_i1 14
select_store_8 libat_feat1_edx 2
select_store_8 libat_store_8 9
select_store_8 libat_store_8_i1 14
select_compare_exchange_8 libat_feat1_edx 2
select_compare_exchange_8 libat_compare_exchange_8 9
select_compare_exchange_8 libat_compare_exchange_8_i1 14
select_exchange_8 libat_feat1_edx 2
select_exchange_8 libat_exchange_8 9
select_exchange_8 libat_exchange_8_i1 14
select_fetch_add_8 libat_feat1_edx 2
select_fetch_add_8 libat_fetch_add_8 9
select_fetch_add_8 libat_fetch_add_8_i1 14
select_add_fetch_8 libat_feat1_edx 2
select_add_fetch_8 libat_add_fetch_8 9
select_add_fetch_8 libat_add_fetch_8_i1 14
select_fetch_sub_8 libat_feat1_edx 2
select_fetch_sub_8 libat_fetch_sub_8 9
select_fetch_sub_8 libat_fetch_sub_8_i1 14
select_sub_fetch_8 libat_feat1_edx 2
select_sub_fetch_8 libat_sub_fetch_8 9
select_sub_fetch_8 libat_sub_fetch_8_i1 14
select_fetch_and_8 libat_feat1_edx 2
select_fetch_and_8 libat_fetch_and_8 9
select_fetch_and_8 libat_fetch_and_8_i1 14
select_and_fetch_8 libat_feat1_edx 2
select_and_fetch_8 libat_and_fetch_8 9
select_and_fetch_8 libat_and_fetch_8_i1 14
select_fetch_or_8 libat_feat1_edx 2
select_fetch_or_8 libat_fetch_or_8 9
select_fetch_or_8 libat_fetch_or_8_i1 14
select_or_fetch_8 libat_feat1_edx 2
select_or_fetch_8 libat_or_fetch_8 9
select_or_fetch_8 libat_or_fetch_8_i1 14
select_fetch_xor_8 libat_feat1_edx 2
select_fetch_xor_8 libat_fetch_xor_8 9
select_fetch_xor_8 libat_fetch_xor_8_i1 14
select_xor_fetch_8 libat_feat1_edx 2
select_xor_fetch_8 libat_xor_fetch_8 9
select_xor_fetch_8 libat_xor_fetch_8_i1 14
select_fetch_nand_8 libat_feat1_edx 2
select_fetch_nand_8 libat_fetch_nand_8 9
select_fetch_nand_8 libat_fetch_nand_8_i1 14
select_nand_fetch_8 libat_feat1_edx 2
select_nand_fetch_8 libat_nand_fetch_8 9
select_nand_fetch_8 libat_nand_fetch_8_i1 14
select_test_and_set_8 libat_feat1_edx 2
select_test_and_set_8 libat_test_and_set_8 9
select_test_and_set_8 libat_test_and_set_8_i1 14
restore_x86_fp_state __cpu_model 2
sysdep_save_fp_ctrl_state __cpu_model 15
__cilkrts_bug fflush 10
__cilkrts_bug stderr 16
__cilkrts_bug vfprintf 32
__cilkrts_bug fflush 40
__cilkrts_bug abort 48
__cilkrts_bug _Unwind_Resume 60
__cilkrts_bug __cxa_call_unexpected 69
cilkbug_assert_no_uncaught_exception _ZSt18uncaught_exceptionv 7
cilkbug_assert_no_uncaught_exception __cilkrts_bug 33
abort_because_rts_is_corrupted __cilkrts_bug 12
__cilkrts_unwatch_stack __cilkrts_get_tls_worker 18
__cilkrts_unwatch_stack cilk_fiber_tbb_interop_free_stack_op_info 29
__cilkrts_unwatch_stack __cilkrts_worker_lock 40
__cilkrts_unwatch_stack __cilkrts_frame_lock 55
__cilkrts_unwatch_stack __cilkrts_frame_unlock 67
__cilkrts_unwatch_stack __cilkrts_worker_unlock 75
__cilkrts_unwatch_stack cilk_fiber_set_stack_op 89
__cilkrts_enter_frame_fast __cilkrts_get_tls_worker_fast 9
__cilkrts_enter_frame_fast_1 __cilkrts_get_tls_worker_fast 9
__cilkrts_leave_frame replay_wait_for_steal_if_parent_was_stolen_internal 53
__cilkrts_leave_frame __cilkrts_c_THE_exception_check 86
__cilkrts_leave_frame __cilkrts_bug 145
__cilkrts_leave_frame __cilkrts_return_exception 32
__cilkrts_leave_frame __cilkrts_c_return_from_initial 163
__cilkrts_leave_frame __cilkrts_return 181
__cilkrts_sync __cilkrts_bug 30
__cilkrts_sync __cilkrts_c_sync_except 44
__cilkrts_sync __cilkrts_c_sync 53
__cilkrts_get_sf __cilkrts_get_tls_worker 7
__cilkrts_bind_thread,__cilkrts_bind_thread_1 __cilkrts_init_internal 12
__cilkrts_bind_thread,__cilkrts_bind_thread_1 cilkg_singleton_ptr 18
__cilkrts_bind_thread,__cilkrts_bind_thread_1 global_os_mutex_lock 23
__cilkrts_bind_thread,__cilkrts_bind_thread_1 __cilkrts_assertion_failed 109
__cilkrts_bind_thread,__cilkrts_bind_thread_1 __cilkrts_bug 114
__cilkrts_bind_thread,__cilkrts_bind_thread_1 __cilkrts_malloc 143
__cilkrts_bind_thread,__cilkrts_bind_thread_1 __cilkrts_metacall 170
__cilkrts_bind_thread,__cilkrts_bind_thread_1 make_worker 182
__cilkrts_bind_thread,__cilkrts_bind_thread_1 __cilkrts_set_tls_worker 207
__cilkrts_bind_thread,__cilkrts_bind_thread_1 __cilkrts_metacall 220
__cilkrts_bind_thread,__cilkrts_bind_thread_1 __cilkrts_make_full_frame 230
__cilkrts_bind_thread,__cilkrts_bind_thread_1 cilk_fiber_allocate_from_thread 237
__cilkrts_bind_thread,__cilkrts_bind_thread_1 cilk_fiber_tbb_interop_use_saved_stack_op_info 274
__cilkrts_bind_thread,__cilkrts_bind_thread_1 __cilkrts_make_reducer_map 320
__cilkrts_bind_thread,__cilkrts_bind_thread_1 __cilkrts_set_leftmost_reducer_map 333
__cilkrts_bind_thread,__cilkrts_bind_thread_1 load_pedigree_leaf_into_user_worker 341
__cilkrts_bind_thread,__cilkrts_bind_thread_1 cilk_fiber_allocate_from_heap 462
__cilkrts_bind_thread,__cilkrts_bind_thread_1 scheduler_fiber_proc_for_user_worker 478
__cilkrts_bind_thread,__cilkrts_bind_thread_1 cilk_fiber_reset_state 489
__cilkrts_bind_thread,__cilkrts_bind_thread_1 __cilkrts_disallow_stealing 526
__cilkrts_bind_thread,__cilkrts_bind_thread_1 __cilkrts_enter_cilk 553
__cilkrts_bind_thread,__cilkrts_bind_thread_1 global_os_mutex_unlock 561
__cilkrts_bind_thread,__cilkrts_bind_thread_1 __cilkrts_metacall 577
__cilkrts_enter_frame_1 __cilkrts_get_tls_worker 9
__cilkrts_enter_frame_1 __cilkrts_bind_thread_1 18
__cilkrts_enter_frame __cilkrts_get_tls_worker 9
__cilkrts_enter_frame __cilkrts_bind_thread_1 18
__cilkrts_get_stack_size cilkg_get_user_settable_values 7
__cilkrts_dump_stats global_os_mutex_lock 7
__cilkrts_dump_stats cilkg_is_published 12
__cilkrts_dump_stats cilkg_singleton_ptr 25
__cilkrts_dump_stats __cilkrts_dump_stats_to_stderr 30
__cilkrts_dump_stats __cilkrts_bug 52
__cilkrts_dump_stats global_os_mutex_unlock 39
__cilkrts_rethrow __cilkrts_gcc_rethrow 5
__cilkrts_watch_stack __cilkrts_get_tls_worker 19
__cilkrts_watch_stack cilk_fiber_tbb_interop_save_stack_op_info 32
__cilkrts_watch_stack __cilkrts_worker_lock 59
__cilkrts_watch_stack __cilkrts_worker_unlock 82
__cilkrts_watch_stack cilk_fiber_set_stack_op 105
__cilkrts_synched __cilkrts_get_tls_worker 7
__cilkrts_save_fp_ctrl_state sysdep_save_fp_ctrl_state 5
_Z9grainsizeIjEiiT_ cilkg_singleton_ptr 18
_Z9grainsizeIyEiiT_ cilkg_singleton_ptr 22
_Z9grainsizeIyEiiT_ __udivdi3 61
_cilk_spn_1 __cilkrts_enter_frame_fast_1 23
_cilk_spn_1 __cilkrts_leave_frame 165
_cilk_spn_1 __cxa_begin_catch 186
_cilk_spn_1 __cxa_rethrow 194
_cilk_spn_1 __cxa_end_catch 201
_cilk_spn_1 __cilkrts_leave_frame 235
_cilk_spn_1 _Unwind_Resume 247
_Z18cilk_for_recursiveIjPFvPvjjEEvT_S3_T0_S0_iP16__cilkrts_workerP18__cilkrts_pedigree __cilkrts_enter_frame_1 23
_Z18cilk_for_recursiveIjPFvPvjjEEvT_S3_T0_S0_iP16__cilkrts_workerP18__cilkrts_pedigree __cilkrts_save_fp_ctrl_state 66
_Z18cilk_for_recursiveIjPFvPvjjEEvT_S3_T0_S0_iP16__cilkrts_workerP18__cilkrts_pedigree __cilkrts_save_fp_ctrl_state 197
_Z18cilk_for_recursiveIjPFvPvjjEEvT_S3_T0_S0_iP16__cilkrts_workerP18__cilkrts_pedigree __cilkrts_sync 228
_Z18cilk_for_recursiveIjPFvPvjjEEvT_S3_T0_S0_iP16__cilkrts_workerP18__cilkrts_pedigree __cilkrts_rethrow 251
_Z18cilk_for_recursiveIjPFvPvjjEEvT_S3_T0_S0_iP16__cilkrts_workerP18__cilkrts_pedigree __cilkrts_leave_frame 303
_Z18cilk_for_recursiveIjPFvPvjjEEvT_S3_T0_S0_iP16__cilkrts_workerP18__cilkrts_pedigree __cilkrts_save_fp_ctrl_state 348
_Z18cilk_for_recursiveIjPFvPvjjEEvT_S3_T0_S0_iP16__cilkrts_workerP18__cilkrts_pedigree __cilkrts_sync 379
_Z18cilk_for_recursiveIjPFvPvjjEEvT_S3_T0_S0_iP16__cilkrts_workerP18__cilkrts_pedigree __cilkrts_rethrow 402
_Z18cilk_for_recursiveIjPFvPvjjEEvT_S3_T0_S0_iP16__cilkrts_workerP18__cilkrts_pedigree __cilkrts_leave_frame 450
_Z18cilk_for_recursiveIjPFvPvjjEEvT_S3_T0_S0_iP16__cilkrts_workerP18__cilkrts_pedigree _Unwind_Resume 464
_cilk_spn_0,_cilk_spn_2 __cilkrts_enter_frame_fast_1 14
_cilk_spn_0,_cilk_spn_2 __cilkrts_leave_frame 126
_Z13cilk_for_rootIjPFvPvjjEEvT0_S0_T_i __cilkrts_enter_frame_1 26
_Z13cilk_for_rootIjPFvPvjjEEvT0_S0_T_i __cilkrts_save_fp_ctrl_state 37
_Z13cilk_for_rootIjPFvPvjjEEvT0_S0_T_i __cilkrts_get_tls_worker 71
_Z13cilk_for_rootIjPFvPvjjEEvT0_S0_T_i __cilkrts_save_fp_ctrl_state 241
_Z13cilk_for_rootIjPFvPvjjEEvT0_S0_T_i __cilkrts_sync 272
_Z13cilk_for_rootIjPFvPvjjEEvT0_S0_T_i __cilkrts_rethrow 298
_Z13cilk_for_rootIjPFvPvjjEEvT0_S0_T_i __cilkrts_leave_frame 315
_Z13cilk_for_rootIjPFvPvjjEEvT0_S0_T_i __cilkrts_save_fp_ctrl_state 395
_Z13cilk_for_rootIjPFvPvjjEEvT0_S0_T_i __cilkrts_sync 426
_Z13cilk_for_rootIjPFvPvjjEEvT0_S0_T_i __cilkrts_rethrow 449
_Z13cilk_for_rootIjPFvPvjjEEvT0_S0_T_i __cilkrts_leave_frame 463
_Z13cilk_for_rootIjPFvPvjjEEvT0_S0_T_i _Unwind_Resume 477
_cilk_spn_3 __cilkrts_enter_frame_fast_1 35
_cilk_spn_3 __cilkrts_leave_frame 184
_cilk_spn_3 __cxa_begin_catch 205
_cilk_spn_3 __cxa_rethrow 213
_cilk_spn_3 __cxa_end_catch 220
_cilk_spn_3 __cilkrts_leave_frame 254
_cilk_spn_3 _Unwind_Resume 266
_Z18cilk_for_recursiveIyPFvPvyyEEvT_S3_T0_S0_iP16__cilkrts_workerP18__cilkrts_pedigree __cilkrts_enter_frame_1 32
_Z18cilk_for_recursiveIyPFvPvyyEEvT_S3_T0_S0_iP16__cilkrts_workerP18__cilkrts_pedigree __cilkrts_save_fp_ctrl_state 109
_Z18cilk_for_recursiveIyPFvPvyyEEvT_S3_T0_S0_iP16__cilkrts_workerP18__cilkrts_pedigree __cilkrts_save_fp_ctrl_state 264
_Z18cilk_for_recursiveIyPFvPvyyEEvT_S3_T0_S0_iP16__cilkrts_workerP18__cilkrts_pedigree __cilkrts_sync 295
_Z18cilk_for_recursiveIyPFvPvyyEEvT_S3_T0_S0_iP16__cilkrts_workerP18__cilkrts_pedigree __cilkrts_rethrow 318
_Z18cilk_for_recursiveIyPFvPvyyEEvT_S3_T0_S0_iP16__cilkrts_workerP18__cilkrts_pedigree __cilkrts_leave_frame 370
_Z18cilk_for_recursiveIyPFvPvyyEEvT_S3_T0_S0_iP16__cilkrts_workerP18__cilkrts_pedigree __cilkrts_save_fp_ctrl_state 415
_Z18cilk_for_recursiveIyPFvPvyyEEvT_S3_T0_S0_iP16__cilkrts_workerP18__cilkrts_pedigree __cilkrts_sync 446
_Z18cilk_for_recursiveIyPFvPvyyEEvT_S3_T0_S0_iP16__cilkrts_workerP18__cilkrts_pedigree __cilkrts_rethrow 469
_Z18cilk_for_recursiveIyPFvPvyyEEvT_S3_T0_S0_iP16__cilkrts_workerP18__cilkrts_pedigree __cilkrts_leave_frame 517
_Z18cilk_for_recursiveIyPFvPvyyEEvT_S3_T0_S0_iP16__cilkrts_workerP18__cilkrts_pedigree _Unwind_Resume 531
_Z13cilk_for_rootIyPFvPvyyEEvT0_S0_T_i __cilkrts_enter_frame_1 35
_Z13cilk_for_rootIyPFvPvyyEEvT0_S0_T_i __cilkrts_save_fp_ctrl_state 46
_Z13cilk_for_rootIyPFvPvyyEEvT0_S0_T_i __cilkrts_get_tls_worker 80
_Z13cilk_for_rootIyPFvPvyyEEvT0_S0_T_i __cilkrts_save_fp_ctrl_state 259
_Z13cilk_for_rootIyPFvPvyyEEvT0_S0_T_i __cilkrts_sync 290
_Z13cilk_for_rootIyPFvPvyyEEvT0_S0_T_i __cilkrts_rethrow 316
_Z13cilk_for_rootIyPFvPvyyEEvT0_S0_T_i __cilkrts_leave_frame 333
_Z13cilk_for_rootIyPFvPvyyEEvT0_S0_T_i __cilkrts_save_fp_ctrl_state 416
_Z13cilk_for_rootIyPFvPvyyEEvT0_S0_T_i __cilkrts_sync 447
_Z13cilk_for_rootIyPFvPvyyEEvT0_S0_T_i __cilkrts_rethrow 470
_Z13cilk_for_rootIyPFvPvyyEEvT0_S0_T_i __cilkrts_leave_frame 484
_Z13cilk_for_rootIyPFvPvyyEEvT0_S0_T_i _Unwind_Resume 501
vla_internal_heap_alloc malloc 11
vla_internal_heap_free free 5
vla_free_from_original_stack __cilkrts_assertion_failed 33
vla_free_from_original_stack __cilkrts_bug 38
vla_free_from_original_stack __cilkrts_adjust_stack 56
__cilkrts_init __cilkrts_init_internal 9
__cilkrts_end_cilk global_os_mutex_lock 6
__cilkrts_end_cilk cilkg_is_published 11
__cilkrts_end_cilk cilkg_singleton_ptr 21
__cilkrts_end_cilk __cilkrts_bug 43
__cilkrts_end_cilk __cilkrts_get_tls_worker 48
__cilkrts_end_cilk __cilkrts_stop_workers 61
__cilkrts_end_cilk __cilkrts_deinit_internal 69
__cilkrts_end_cilk global_os_mutex_unlock 81
__cilkrts_get_nworkers cilkg_get_user_settable_values 7
__cilkrts_get_total_workers cilkg_calc_total_workers 5
__cilkrts_get_force_reduce cilkg_get_user_settable_values 7
__cilkrts_set_param cilkg_set_param 5
__cilkrts_get_worker_number __cilkrts_get_tls_worker 7
__cilkrts_get_pedigree_info __cilkrts_get_tls_worker 36
__cilkrts_get_pedigree_info __cilkrts_get_tls_pedigree_leaf 55
__cilkrts_get_pedigree_internal __cilkrts_get_tls_pedigree_leaf 33
__cilkrts_get_worker_rank __cilkrts_get_tls_worker 7
__cilkrts_get_worker_rank __cilkrts_get_pedigree_internal 19
__cilkrts_bump_worker_rank_internal __cilkrts_get_tls_pedigree_leaf 24
__cilkrts_bump_worker_rank __cilkrts_get_tls_worker 7
__cilkrts_bump_worker_rank __cilkrts_bump_worker_rank_internal 16
cilk_fiber_pool_move_fibers_to_parent_pool __cilkrts_assertion_failed 33
cilk_fiber_pool_move_fibers_to_parent_pool __cilkrts_bug 38
cilk_fiber_pool_move_fibers_to_parent_pool spin_mutex_lock 61
cilk_fiber_pool_move_fibers_to_parent_pool spin_mutex_unlock 149
cilk_fiber_pool_init spin_mutex_create 20
cilk_fiber_pool_init __cilkrts_malloc 76
cilk_fiber_pool_init __cilkrts_assertion_failed 107
cilk_fiber_pool_init __cilkrts_bug 112
cilk_fiber_pool_set_fiber_limit __cilkrts_assertion_failed 32
cilk_fiber_pool_set_fiber_limit __cilkrts_bug 37
_ZN10cilk_fiber11reset_stateEPFvPS_E __cilkrts_assertion_failed 56
_ZN10cilk_fiber11reset_stateEPFvPS_E __cilkrts_bug 61
cilk_fiber_tbb_interop_save_stack_op_info __cilkrts_get_tls_tbb_interop 7
cilk_fiber_tbb_interop_save_stack_op_info __cilkrts_malloc 21
cilk_fiber_tbb_interop_save_stack_op_info __cilkrts_set_tls_tbb_interop 32
cilk_fiber_tbb_interop_save_info_from_stack __cilkrts_get_tls_tbb_interop 21
cilk_fiber_tbb_interop_save_info_from_stack __cilkrts_malloc 35
cilk_fiber_tbb_interop_save_info_from_stack __cilkrts_set_tls_tbb_interop 46
cilk_fiber_tbb_interop_free_stack_op_info __cilkrts_get_tls_tbb_interop 7
cilk_fiber_tbb_interop_free_stack_op_info __cilkrts_free 20
cilk_fiber_tbb_interop_free_stack_op_info __cilkrts_set_tls_tbb_interop 32
cilk_fiber_tbb_interop_use_saved_stack_op_info __cilkrts_get_tls_tbb_interop 9
cilk_fiber_tbb_interop_use_saved_stack_op_info __cilkrts_assertion_failed 34
cilk_fiber_tbb_interop_use_saved_stack_op_info __cilkrts_bug 39
_ZN10cilk_fiberC1Ej,_ZN10cilk_fiberC2Ej _ZN10cilk_fiberC1Ev 13
_ZN10cilk_fiber18allocate_from_heapEj __cilkrts_malloc 9
_ZN10cilk_fiber18allocate_from_heapEj _ZN17cilk_fiber_sysdepC1Ej 30
_ZN10cilk_fiber18allocate_from_heapEj __cilkrts_assertion_failed 105
_ZN10cilk_fiber18allocate_from_heapEj __cilkrts_bug 110
_ZN10cilk_fiber8allocateEP15cilk_fiber_pool spin_mutex_lock 22
_ZN10cilk_fiber8allocateEP15cilk_fiber_pool spin_mutex_unlock 68
_ZN10cilk_fiber8allocateEP15cilk_fiber_pool spin_mutex_unlock 116
_ZN10cilk_fiber8allocateEP15cilk_fiber_pool _ZN10cilk_fiber18allocate_from_heapEj 136
_ZN10cilk_fiber8allocateEP15cilk_fiber_pool spin_mutex_lock 158
_ZN10cilk_fiber8allocateEP15cilk_fiber_pool spin_mutex_unlock 179
_ZN10cilk_fiber20allocate_from_threadEv __cilkrts_malloc 9
_ZN10cilk_fiber20allocate_from_threadEv __cilkrts_assertion_failed 37
_ZN10cilk_fiber20allocate_from_threadEv __cilkrts_bug 42
_ZN10cilk_fiber20allocate_from_threadEv _ZN17cilk_fiber_sysdepC1EN10cilk_fiber13from_thread_tE 55
_ZN10cilk_fiber22deallocate_from_threadEv __cilkrts_assertion_failed 31
_ZN10cilk_fiber22deallocate_from_threadEv __cilkrts_bug 36
_ZN10cilk_fiber22deallocate_from_threadEv _ZN17cilk_fiber_sysdep28convert_fiber_back_to_threadEv 45
_ZN10cilk_fiber22deallocate_from_threadEv _ZN17cilk_fiber_sysdepD1Ev 53
_ZN10cilk_fiber22deallocate_from_threadEv __cilkrts_free 61
_ZN10cilk_fiber28remove_reference_from_threadEv _ZN17cilk_fiber_sysdepD1Ev 12
_ZN10cilk_fiber28remove_reference_from_threadEv __cilkrts_free 20
_ZN10cilk_fiber29suspend_self_and_resume_otherEPS_ __cilkrts_assertion_failed 50
_ZN10cilk_fiber29suspend_self_and_resume_otherEPS_ __cilkrts_bug 55
_ZN10cilk_fiber29suspend_self_and_resume_otherEPS_ _ZN17cilk_fiber_sysdep36suspend_self_and_resume_other_sysdepEPS_ 73
_ZN10cilk_fiber43remove_reference_from_self_and_resume_otherEP15cilk_fiber_poolPS_ __cilkrts_assertion_failed 57
_ZN10cilk_fiber43remove_reference_from_self_and_resume_otherEP15cilk_fiber_poolPS_ __cilkrts_bug 62
_ZN10cilk_fiber43remove_reference_from_self_and_resume_otherEP15cilk_fiber_poolPS_ _ZN17cilk_fiber_sysdep27jump_to_resume_other_sysdepEPS_ 71
cilk_fiber_remove_reference_from_self_and_resume_other _ZN10cilk_fiber43remove_reference_from_self_and_resume_otherEP15cilk_fiber_poolPS_ 16
_ZN10cilk_fiber18deallocate_to_heapEv _ZN17cilk_fiber_sysdepD1Ev 12
_ZN10cilk_fiber18deallocate_to_heapEv __cilkrts_free 27
cilk_fiber_pool_free_fibers_from_pool spin_mutex_lock 29
cilk_fiber_pool_free_fibers_from_pool __cilkrts_assertion_failed 104
cilk_fiber_pool_free_fibers_from_pool __cilkrts_bug 109
cilk_fiber_pool_free_fibers_from_pool spin_mutex_unlock 145
cilk_fiber_pool_free_fibers_from_pool _ZN10cilk_fiber18deallocate_to_heapEv 175
cilk_fiber_pool_destroy spin_mutex_lock 19
cilk_fiber_pool_destroy spin_mutex_unlock 52
cilk_fiber_pool_destroy spin_mutex_destroy 81
cilk_fiber_pool_destroy __cilkrts_free 99
_ZN10cilk_fiber15deallocate_selfEP15cilk_fiber_pool __cilkrts_assertion_failed 47
_ZN10cilk_fiber15deallocate_selfEP15cilk_fiber_pool __cilkrts_bug 52
_ZN10cilk_fiber15deallocate_selfEP15cilk_fiber_pool spin_mutex_lock 83
_ZN10cilk_fiber15deallocate_selfEP15cilk_fiber_pool spin_mutex_unlock 165
_ZN10cilk_fiber15deallocate_selfEP15cilk_fiber_pool spin_mutex_unlock 129
_ZN10cilk_fiber16remove_referenceEP15cilk_fiber_pool _ZN10cilk_fiber15deallocate_selfEP15cilk_fiber_pool 21
_ZN10cilk_fiber16remove_referenceEP15cilk_fiber_pool _ZN10cilk_fiber18deallocate_to_heapEv 32
_ZN10cilk_fiber22do_post_switch_actionsEv _ZN10cilk_fiber16remove_referenceEP15cilk_fiber_pool 45
_ZN17cilk_fiber_sysdepC1EN10cilk_fiber13from_thread_tE,_ZN17cilk_fiber_sysdepC2EN10cilk_fiber13from_thread_tE _ZN10cilk_fiberC2Ev 12
_ZN17cilk_fiber_sysdep3runEv __cilkrts_assertion_failed 32
_ZN17cilk_fiber_sysdep3runEv __cilkrts_bug 37
_ZN17cilk_fiber_sysdep3runEv __cilkrts_assertion_failed 68
_ZN17cilk_fiber_sysdep3runEv __cilkrts_bug 73
_ZN17cilk_fiber_sysdep3runEv __cilkrts_assertion_failed 98
_ZN17cilk_fiber_sysdep3runEv __cilkrts_bug 103
_ZN17cilk_fiber_sysdep3runEv __cilkrts_assertion_failed 173
_ZN17cilk_fiber_sysdep3runEv __cilkrts_bug 178
_ZN17cilk_fiber_sysdep3runEv __cilkrts_assertion_failed 214
_ZN17cilk_fiber_sysdep3runEv __cilkrts_bug 219
_ZN17cilk_fiber_sysdep3runEv _ZN10cilk_fiber22do_post_switch_actionsEv 254
_ZN17cilk_fiber_sysdep3runEv __cilkrts_bug 290
_ZN17cilk_fiber_sysdep19resume_other_sysdepEPS_.isra.2 _ZN17cilk_fiber_sysdep3runEv 36
_ZN17cilk_fiber_sysdep36suspend_self_and_resume_other_sysdepEPS_ __cilkrts_assertion_failed 35
_ZN17cilk_fiber_sysdep36suspend_self_and_resume_other_sysdepEPS_ __cilkrts_bug 40
_ZN17cilk_fiber_sysdep36suspend_self_and_resume_other_sysdepEPS_ _ZN10cilk_fiber22do_post_switch_actionsEv 81
_ZN17cilk_fiber_sysdep27jump_to_resume_other_sysdepEPS_ __cilkrts_assertion_failed 32
_ZN17cilk_fiber_sysdep27jump_to_resume_other_sysdepEPS_ __cilkrts_bug 37
_ZN17cilk_fiber_sysdep10make_stackEj _ZN17cilk_fiber_sysdep11s_page_sizeE 11
_ZN17cilk_fiber_sysdep10make_stackEj mmap 60
_ZN17cilk_fiber_sysdep10make_stackEj _ZN17cilk_fiber_sysdep11s_page_sizeE 91
_ZN17cilk_fiber_sysdep10make_stackEj mprotect 109
_ZN17cilk_fiber_sysdep10make_stackEj _ZN17cilk_fiber_sysdep11s_page_sizeE 120
_ZN17cilk_fiber_sysdep10make_stackEj mprotect 126
_ZN17cilk_fiber_sysdep10make_stackEj _ZN17cilk_fiber_sysdep11s_page_sizeE 132
_ZN17cilk_fiber_sysdepC1Ej,_ZN17cilk_fiber_sysdepC2Ej _ZN10cilk_fiberC2Ej 16
_ZN17cilk_fiber_sysdepC1Ej,_ZN17cilk_fiber_sysdepC2Ej _ZN17cilk_fiber_sysdep10make_stackEj 32
_ZN17cilk_fiber_sysdepC1Ej,_ZN17cilk_fiber_sysdepC2Ej _ZN10cilk_fiberD2Ev 57
_ZN17cilk_fiber_sysdepC1Ej,_ZN17cilk_fiber_sysdepC2Ej _Unwind_Resume 65
_ZN17cilk_fiber_sysdep10free_stackEv _ZN17cilk_fiber_sysdep11s_page_sizeE 25
_ZN17cilk_fiber_sysdep10free_stackEv munmap 32
_ZN17cilk_fiber_sysdep10free_stackEv __errno_location 44
_ZN17cilk_fiber_sysdep10free_stackEv __cilkrts_bug 58
_ZN17cilk_fiber_sysdepD1Ev,_ZN17cilk_fiber_sysdepD2Ev __cilkrts_assertion_failed 31
_ZN17cilk_fiber_sysdepD1Ev,_ZN17cilk_fiber_sysdepD2Ev __cilkrts_bug 36
_ZN17cilk_fiber_sysdepD1Ev,_ZN17cilk_fiber_sysdepD2Ev _ZN17cilk_fiber_sysdep10free_stackEv 51
_ZN17cilk_fiber_sysdepD1Ev,_ZN17cilk_fiber_sysdepD2Ev _ZN10cilk_fiberD2Ev 66
_GLOBAL__sub_I__ZN17cilk_fiber_sysdep11s_page_sizeE getpagesize 7
_GLOBAL__sub_I__ZN17cilk_fiber_sysdep11s_page_sizeE _ZN17cilk_fiber_sysdep11s_page_sizeE 12
__cilkrts_malloc memalign 12
__cilkrts_realloc realloc 5
__cilkrts_free free 5
_ZL19save_exception_infoP16__cilkrts_workerP16__cxa_eh_globalsP17_Unwind_ExceptionbPKc.constprop.1 __cilkrts_frame_malloc 23
_ZL19save_exception_infoP16__cilkrts_workerP16__cxa_eh_globalsP17_Unwind_ExceptionbPKc.constprop.1 __cilkrts_assertion_failed 106
_ZL19save_exception_infoP16__cilkrts_workerP16__cxa_eh_globalsP17_Unwind_ExceptionbPKc.constprop.1 __cilkrts_bug 111
_ZNK22pending_exception_info5checkEv __cilkrts_assertion_failed 34
_ZNK22pending_exception_info5checkEv __cilkrts_bug 39
__cilkrts_return_exception replay_wait_for_steal_if_parent_was_stolen_internal 61
__cilkrts_return_exception __cilkrts_pop_tail 73
__cilkrts_return_exception replay_record_orphaned_internal 101
__cilkrts_return_exception __cxa_get_globals 153
__cilkrts_return_exception __cilkrts_assertion_failed 246
__cilkrts_return_exception __cilkrts_bug 251
__cilkrts_return_exception __cilkrts_exception_from_spawn 279
__cilkrts_save_exception_state __cxa_get_globals 12
__cilkrts_save_exception_state __cilkrts_assertion_failed 58
__cilkrts_save_exception_state __cilkrts_bug 63
__cilkrts_c_sync_except __cxa_get_globals 16
__cilkrts_c_sync_except __cilkrts_assertion_failed 52
__cilkrts_c_sync_except __cilkrts_bug 57
__cilkrts_c_sync_except _ZSt18uncaught_exceptionv 81
__cilkrts_c_sync_except __cilkrts_c_sync 109
_ZN22pending_exception_info8destructEv _Unwind_DeleteException 19
_ZN22pending_exception_info8destructEv _Unwind_DeleteException 53
__cilkrts_merge_pending_exceptions _ZN22pending_exception_info8destructEv 133
__cilkrts_merge_pending_exceptions __cilkrts_frame_free 145
__cilkrts_merge_pending_exceptions _ZNK22pending_exception_info5emptyEv 153
__cilkrts_merge_pending_exceptions _ZN22pending_exception_info8destructEv 175
__cilkrts_merge_pending_exceptions __cilkrts_frame_free 187
__cilkrts_merge_pending_exceptions __cilkrts_assertion_failed 213
__cilkrts_merge_pending_exceptions __cilkrts_bug 218
__cilkrts_setup_for_execution_sysdep __cxa_get_globals 16
__cilkrts_setup_for_execution_sysdep __cilkrts_bug 69
__cilkrts_setup_for_execution_sysdep _ZNK22pending_exception_info5emptyEv 140
__cilkrts_setup_for_execution_sysdep _ZN22pending_exception_info8destructEv 156
__cilkrts_setup_for_execution_sysdep __cilkrts_frame_free 168
__cilkrts_gcc_rethrow __cxa_rethrow 26
__cilkrts_gcc_rethrow _Unwind_Resume 21
bucket_of_size __cilkrts_bucket_sizes 6
bucket_of_size __cilkrts_assertion_failed 43
bucket_of_size __cilkrts_bug 48
global_free.part.0 __cilkrts_assertion_failed 23
global_free.part.0 __cilkrts_bug 28
__cilkrts_frame_malloc_global_init __cilkrts_mutex_init 18
__cilkrts_frame_malloc_global_cleanup __cilkrts_bucket_sizes 41
__cilkrts_frame_malloc_global_cleanup __cilkrts_free 104
__cilkrts_frame_malloc_global_cleanup __cilkrts_free 112
__cilkrts_frame_malloc_global_cleanup __cilkrts_mutex_destroy 133
__cilkrts_frame_malloc_global_cleanup __cilkrts_bug 167
__cilkrts_frame_malloc_roundup __cilkrts_bucket_sizes 25
__cilkrts_size_of_bucket __cilkrts_assertion_failed 31
__cilkrts_size_of_bucket __cilkrts_bug 36
__cilkrts_size_of_bucket __cilkrts_bucket_sizes 44
__cilkrts_frame_malloc __cilkrts_bucket_sizes 53
__cilkrts_frame_malloc __cilkrts_mutex_lock 107
__cilkrts_frame_malloc __cilkrts_assertion_failed 230
__cilkrts_frame_malloc __cilkrts_bug 235
__cilkrts_frame_malloc __cilkrts_malloc 260
__cilkrts_frame_malloc __cilkrts_malloc 275
__cilkrts_frame_malloc __cilkrts_mutex_unlock 387
__cilkrts_frame_malloc __cilkrts_malloc 37
__cilkrts_frame_free __cilkrts_bucket_sizes 56
__cilkrts_frame_free __cilkrts_mutex_lock 167
__cilkrts_frame_free __cilkrts_free 40
__cilkrts_frame_free __cilkrts_mutex_unlock 252
__cilkrts_frame_malloc_per_worker_cleanup __cilkrts_mutex_lock 48
__cilkrts_frame_malloc_per_worker_cleanup __cilkrts_bucket_sizes 56
__cilkrts_frame_malloc_per_worker_cleanup __cilkrts_mutex_unlock 132
__cilkrts_make_full_frame __cilkrts_frame_malloc 12
__cilkrts_make_full_frame __cilkrts_mutex_init 26
validate_full_frame abort_because_rts_is_corrupted 43
__cilkrts_destroy_full_frame validate_full_frame 16
__cilkrts_destroy_full_frame __cilkrts_assertion_failed 64
__cilkrts_destroy_full_frame __cilkrts_bug 69
__cilkrts_destroy_full_frame __cilkrts_mutex_destroy 135
__cilkrts_destroy_full_frame __cilkrts_frame_free 147
__cilkrts_frame_lock validate_full_frame 19
__cilkrts_frame_lock __cilkrts_mutex_lock 39
__cilkrts_frame_unlock __cilkrts_mutex_unlock 9
_ZN12_GLOBAL__N_18strmatchEPKcS1_ strcmp 9
_ZN12_GLOBAL__N_19store_intIicEEiPT_PKT0_S1_S1_ __errno_location 16
_ZN12_GLOBAL__N_19store_intIicEEiPT_PKT0_S1_S1_ __errno_location 27
_ZN12_GLOBAL__N_19store_intIicEEiPT_PKT0_S1_S1_ strtol 46
_ZN12_GLOBAL__N_19store_intIicEEiPT_PKT0_S1_S1_ __errno_location 60
_ZN12_GLOBAL__N_19store_intIjcEEiPT_PKT0_S1_S1_.constprop.3 __errno_location 16
_ZN12_GLOBAL__N_19store_intIjcEEiPT_PKT0_S1_S1_.constprop.3 __errno_location 27
_ZN12_GLOBAL__N_19store_intIjcEEiPT_PKT0_S1_S1_.constprop.3 strtol 46
_ZN12_GLOBAL__N_19store_intIjcEEiPT_PKT0_S1_S1_.constprop.3 __errno_location 60
cilkg_get_user_settable_values cilkg_user_settable_values_initialized 2
cilkg_get_user_settable_values __cilkrts_hardware_cpu_count 45
cilkg_get_user_settable_values __cilkrts_running_under_sequential_ptool 60
cilkg_get_user_settable_values __cilkrts_metacall 204
cilkg_get_user_settable_values cilkos_getenv 240
cilkg_get_user_settable_values cilkos_getenv 289
cilkg_get_user_settable_values cilkos_getenv 339
cilkg_get_user_settable_values cilkos_getenv 387
cilkg_get_user_settable_values cilkos_getenv 463
cilkg_get_user_settable_values __cilkrts_malloc 492
cilkg_get_user_settable_values cilkos_getenv 512
cilkg_get_user_settable_values cilkos_getenv 529
cilkg_get_user_settable_values cilkos_warning 558
cilkg_get_user_settable_values __cilkrts_malloc 582
cilkg_get_user_settable_values cilkos_getenv 602
cilkg_get_user_settable_values cilkg_user_settable_values_initialized 611
cilkg_get_user_settable_values __cilkrts_assertion_failed 649
cilkg_get_user_settable_values __cilkrts_bug 654
cilkg_calc_total_workers cilkg_get_user_settable_values 7
cilkg_init_global_state cilkg_singleton_ptr 7
cilkg_init_global_state cilkg_get_user_settable_values 20
cilkg_init_global_state __cilkrts_init_stats 108
cilkg_init_global_state __cilkrts_frame_malloc_global_init 116
cilkg_init_global_state cilkg_calc_total_workers 134
cilkg_init_global_state cilkos_validate_stack_size 182
cilkg_publish_global_state __cilkrts_global_state 7
cilkg_publish_global_state cilkg_singleton_ptr 17
cilkg_deinit_global_state cilkg_singleton_ptr 3
cilkg_deinit_global_state __cilkrts_global_state 13
cilkg_is_published cilkg_singleton_ptr 4
cilkg_set_param cilkg_get_user_settable_values 16
cilkg_set_param __cilkrts_metacall 68
cilkg_set_param cilkg_singleton_ptr 125
cilkg_set_param __cilkrts_hardware_cpu_count 133
cilkg_set_param __cilkrts_hardware_cpu_count 179
cilkg_set_param cilkg_singleton_ptr 278
cilkg_set_param cilkg_singleton_ptr 338
cilkg_set_param cilkos_validate_stack_size 377
cilkg_set_param __cilkrts_running_under_sequential_ptool 403
cilkg_set_param __cilkrts_assertion_failed 476
cilkg_set_param __cilkrts_bug 481
__cilkrts_run_scheduler_with_exceptions cilkg_singleton_ptr 7
__cilkrts_run_scheduler_with_exceptions __cilkrts_assertion_failed 38
__cilkrts_run_scheduler_with_exceptions __cxa_begin_catch 62
__cilkrts_run_scheduler_with_exceptions __cilkrts_bug 74
run_scheduling_stack_fcn __cilkrts_assertion_failed 84
run_scheduling_stack_fcn __cilkrts_bug 89
__cilkrts_os_mutex_create malloc 11
__cilkrts_os_mutex_create pthread_mutexattr_init 66
__cilkrts_os_mutex_create __cilkrts_assertion_failed 91
__cilkrts_os_mutex_create __cilkrts_bug 96
__cilkrts_os_mutex_create pthread_mutex_init 105
__cilkrts_os_mutex_create pthread_mutexattr_destroy 130
create_global_os_mutex __cilkrts_assertion_failed 32
create_global_os_mutex __cilkrts_bug 37
create_global_os_mutex __cilkrts_os_mutex_create 42
__cilkrts_os_mutex_lock pthread_mutex_lock 12
__cilkrts_os_mutex_lock __cilkrts_bug 47
__cilkrts_os_mutex_trylock pthread_mutex_trylock 10
__cilkrts_os_mutex_unlock pthread_mutex_unlock 10
__cilkrts_os_mutex_unlock __cilkrts_assertion_failed 38
__cilkrts_os_mutex_unlock __cilkrts_bug 43
__cilkrts_os_mutex_destroy pthread_mutex_destroy 12
__cilkrts_os_mutex_destroy free 50
global_os_mutex_lock pthread_once 17
global_os_mutex_lock __cilkrts_assertion_failed 50
global_os_mutex_lock __cilkrts_bug 55
global_os_mutex_lock __cilkrts_os_mutex_lock 64
global_os_mutex_unlock __cilkrts_assertion_failed 32
global_os_mutex_unlock __cilkrts_bug 37
global_os_mutex_unlock __cilkrts_os_mutex_unlock 46
__cilkrts_pedigree_leaf_destructor __cilkrts_assertion_failed 40
__cilkrts_pedigree_leaf_destructor __cilkrts_bug 45
__cilkrts_pedigree_leaf_destructor __cilkrts_free 54
__cilkrts_init_tls_variables pthread_key_create 27
__cilkrts_init_tls_variables __cilkrts_assertion_failed 55
__cilkrts_init_tls_variables __cilkrts_bug 60
__cilkrts_init_tls_variables pthread_key_create 77
__cilkrts_init_tls_variables __cilkrts_assertion_failed 105
__cilkrts_init_tls_variables __cilkrts_bug 110
__cilkrts_init_tls_variables pthread_key_create 124
__cilkrts_init_tls_variables __cilkrts_assertion_failed 152
__cilkrts_init_tls_variables __cilkrts_bug 157
cilkos_get_current_thread_id pthread_self 5
__cilkrts_get_tls_worker pthread_getspecific 27
__cilkrts_get_tls_worker_fast pthread_getspecific 13
__cilkrts_get_tls_tbb_interop pthread_getspecific 22
__cilkrts_set_tls_worker pthread_setspecific 28
__cilkrts_set_tls_worker __cilkrts_assertion_failed 56
__cilkrts_set_tls_worker __cilkrts_bug 61
__cilkrts_set_tls_tbb_interop pthread_setspecific 27
__cilkrts_set_tls_tbb_interop __cilkrts_assertion_failed 55
__cilkrts_set_tls_tbb_interop __cilkrts_bug 60
__cilkrts_set_tls_tbb_interop abort 65
__cilkrts_set_tls_pedigree_leaf pthread_setspecific 27
__cilkrts_set_tls_pedigree_leaf __cilkrts_assertion_failed 55
__cilkrts_set_tls_pedigree_leaf __cilkrts_bug 60
__cilkrts_set_tls_pedigree_leaf abort 65
__cilkrts_get_tls_pedigree_leaf pthread_getspecific 27
__cilkrts_get_tls_pedigree_leaf __cilkrts_malloc 50
__cilkrts_get_tls_pedigree_leaf __cilkrts_set_tls_pedigree_leaf 61
__cilkrts_get_tls_pedigree_leaf __cilkrts_assertion_failed 145
__cilkrts_get_tls_pedigree_leaf __cilkrts_bug 150
__cilkrts_hardware_cpu_count syscall 12
__cilkrts_hardware_cpu_count sysconf 24
__cilkrts_sleep usleep 9
__cilkrts_yield pthread_yield 5
cilkos_getenv __cilkrts_assertion_failed 52
cilkos_getenv __cilkrts_bug 57
cilkos_getenv getenv 66
cilkos_getenv strcpy 110
cilkos_error fflush 10
cilkos_error stderr 16
cilkos_error fputs 29
cilkos_error vfprintf 45
cilkos_error fputs 58
cilkos_error fflush 66
cilkos_error abort 71
cilkos_warning fflush 10
cilkos_warning stderr 16
cilkos_warning fputs 29
cilkos_warning vfprintf 45
cilkos_warning fflush 53
init_once __cilkrts_init_tls_variables 5
__cilkrts_set_pedigree_leaf __cilkrts_set_tls_pedigree_leaf 5
load_pedigree_leaf_into_user_worker __cilkrts_get_tls_pedigree_leaf 39
load_pedigree_leaf_into_user_worker __cilkrts_assertion_failed 84
load_pedigree_leaf_into_user_worker __cilkrts_bug 89
load_pedigree_leaf_into_user_worker __cilkrts_set_tls_pedigree_leaf 104
save_pedigree_leaf_from_user_worker __cilkrts_assertion_failed 50
save_pedigree_leaf_from_user_worker __cilkrts_bug 55
save_pedigree_leaf_from_user_worker __cilkrts_set_tls_pedigree_leaf 75
walk_pedigree_nodes __cilkrts_assertion_failed 26
walk_pedigree_nodes __cilkrts_bug 31
walk_pedigree_nodes strcpy 63
walk_pedigree_nodes sprintf 82
write_to_replay_log strcpy 35
write_to_replay_log fprintf 78
write_to_replay_log fflush 95
replay_record_steal_internal __cilkrts_assertion_failed 57
replay_record_steal_internal __cilkrts_bug 62
replay_advance_from_sync_internal __cilkrts_assertion_failed 40
replay_advance_from_sync_internal __cilkrts_bug 45
replay_advance_from_sync_internal _ZN14replay_entry_t10next_entryEv 54
replay_match_victim_pedigree_internal _ZN14replay_entry_t10next_entryEv 70
replay_wait_for_steal_if_parent_was_stolen_internal __cilkrts_sleep 48
replay_wait_for_steal_if_parent_was_stolen_internal _ZN14replay_entry_t10next_entryEv 67
replay_init_workers sprintf 135
replay_init_workers fopen 154
replay_init_workers feof 190
replay_init_workers fgets 221
replay_init_workers strncmp 248
replay_init_workers __cilkrts_malloc 274
replay_init_workers rewind 309
replay_init_workers feof 335
replay_init_workers fscanf 394
replay_init_workers fclose 465
replay_init_workers sprintf 613
replay_init_workers fopen 635
replay_init_workers __cilkrts_assertion_failed 746
replay_init_workers __cilkrts_bug 751
replay_init_workers strcmp 764
replay_init_workers cilkos_error 803
replay_init_workers cilkos_error 835
replay_init_workers strcmp 853
replay_init_workers strcmp 898
replay_init_workers strcmp 927
replay_init_workers strtol 1000
replay_init_workers __cilkrts_malloc 1054
replay_init_workers memcmp 1257
replay_term __cilkrts_free 27
replay_term fclose 72
replay_term __cilkrts_free 119
replay_term __cilkrts_free 148
replay_term __cilkrts_assertion_failed 201
replay_term __cilkrts_bug 206
_ZL12free_bucketsP16__cilkrts_workerPP6bucketj __cilkrts_frame_free 40
_ZL12free_bucketsP16__cilkrts_workerPP6bucketj __cilkrts_frame_free 68
_ZN11cilkred_map12make_bucketsEP16__cilkrts_workerj __cilkrts_assertion_failed 42
_ZN11cilkred_map12make_bucketsEP16__cilkrts_workerj __cilkrts_bug 47
_ZN11cilkred_map12make_bucketsEP16__cilkrts_workerj __cilkrts_frame_malloc 65
_ZN11cilkred_map5checkEb __cilkrts_assertion_failed 92
_ZN11cilkred_map5checkEb __cilkrts_bug 97
_ZN11cilkred_map4growEP16__cilkrts_workerPP6bucket __cilkrts_frame_malloc_roundup 71
_ZN11cilkred_map4growEP16__cilkrts_workerPP6bucket __cilkrts_frame_malloc 103
_ZN11cilkred_map4growEP16__cilkrts_workerPP6bucket __cilkrts_frame_free 171
_ZN11cilkred_map16insert_no_rehashEP16__cilkrts_workerPvP26__cilkrts_hyperobject_baseS2_ __cilkrts_assertion_failed 67
_ZN11cilkred_map16insert_no_rehashEP16__cilkrts_workerPvP26__cilkrts_hyperobject_baseS2_ __cilkrts_bug 72
_ZN11cilkred_map16insert_no_rehashEP16__cilkrts_workerPvP26__cilkrts_hyperobject_baseS2_ _ZN11cilkred_map4growEP16__cilkrts_workerPP6bucket 132
_ZN11cilkred_map6rehashEP16__cilkrts_worker _ZN11cilkred_map12make_bucketsEP16__cilkrts_workerj 66
_ZN11cilkred_map6rehashEP16__cilkrts_worker _ZN11cilkred_map16insert_no_rehashEP16__cilkrts_workerPvP26__cilkrts_hyperobject_baseS2_ 117
_ZN11cilkred_map6rehashEP16__cilkrts_worker __cilkrts_assertion_failed 163
_ZN11cilkred_map6rehashEP16__cilkrts_worker __cilkrts_bug 168
_ZN11cilkred_map6lookupEPv __cilkrts_assertion_failed 84
_ZN11cilkred_map6lookupEPv __cilkrts_bug 89
__cilkrts_hyper_destroy __cilkrts_get_tls_worker 13
__cilkrts_hyper_destroy __cilkrts_bug 53
__cilkrts_hyper_destroy cilkos_error 66
__cilkrts_hyper_destroy _ZN11cilkred_map6lookupEPv 85
__cilkrts_hyper_destroy _ZN4elem7destroyEv 110
__cilkrts_hyper_destroy cilkos_error 154
__cilkrts_hyperobject_alloc malloc 11
__cilkrts_hyperobject_dealloc free 11
__cilkrts_make_reducer_map __cilkrts_assertion_failed 31
__cilkrts_make_reducer_map __cilkrts_bug 36
__cilkrts_make_reducer_map __cilkrts_frame_malloc 46
__cilkrts_make_reducer_map _ZN11cilkred_map12make_bucketsEP16__cilkrts_workerj 66
__cilkrts_hyper_lookup __cilkrts_get_tls_worker_fast 13
__cilkrts_hyper_lookup __cilkrts_make_reducer_map 56
__cilkrts_hyper_lookup __cilkrts_promote_own_deque 75
__cilkrts_hyper_lookup __cilkrts_bug 99
__cilkrts_hyper_lookup _ZN11cilkred_map6lookupEPv 110
__cilkrts_hyper_lookup _ZN11cilkred_map17rehash_and_insertEP16__cilkrts_workerPvP26__cilkrts_hyperobject_baseS2_ 166
__cilkrts_hyper_create __cilkrts_get_tls_worker 10
__cilkrts_hyper_create __cilkrts_make_reducer_map 40
__cilkrts_hyper_create _ZN11cilkred_map6lookupEPv 57
__cilkrts_hyper_create __cilkrts_assertion_failed 85
__cilkrts_hyper_create __cilkrts_bug 90
__cilkrts_hyper_create _ZN11cilkred_map17rehash_and_insertEP16__cilkrts_workerPvP26__cilkrts_hyperobject_baseS2_ 138
__cilkrts_destroy_reducer_map __cilkrts_assertion_failed 52
__cilkrts_destroy_reducer_map __cilkrts_bug 57
__cilkrts_destroy_reducer_map _ZN4elem7destroyEv 103
__cilkrts_destroy_reducer_map __cilkrts_frame_free 131
_ZN11cilkred_map5mergeEP16__cilkrts_workerPS_NS_10merge_kindE __cilkrts_assertion_failed 132
_ZN11cilkred_map5mergeEP16__cilkrts_workerPS_NS_10merge_kindE __cilkrts_bug 137
_ZN11cilkred_map5mergeEP16__cilkrts_workerPS_NS_10merge_kindE _ZN11cilkred_map6lookupEPv 155
_ZN11cilkred_map5mergeEP16__cilkrts_workerPS_NS_10merge_kindE _ZN11cilkred_map17rehash_and_insertEP16__cilkrts_workerPvP26__cilkrts_hyperobject_baseS2_ 199
_ZN11cilkred_map5mergeEP16__cilkrts_workerPS_NS_10merge_kindE _ZN11cilkred_map17rehash_and_insertEP16__cilkrts_workerPvP26__cilkrts_hyperobject_baseS2_ 235
_ZN11cilkred_map5mergeEP16__cilkrts_workerPS_NS_10merge_kindE __cilkrts_destroy_reducer_map 424
merge_reducer_maps _ZN11cilkred_map5mergeEP16__cilkrts_workerPS_NS_10merge_kindE 48
merge_reducer_maps _ZN11cilkred_map5mergeEP16__cilkrts_workerPS_NS_10merge_kindE 65
repeated_merge_reducer_maps merge_reducer_maps 19
_ZN11cilkred_map17rehash_and_insertEP16__cilkrts_workerPvP26__cilkrts_hyperobject_baseS2_ _ZN11cilkred_map6rehashEP16__cilkrts_worker 52
_ZN11cilkred_map17rehash_and_insertEP16__cilkrts_workerPvP26__cilkrts_hyperobject_baseS2_ _ZN11cilkred_map16insert_no_rehashEP16__cilkrts_workerPvP26__cilkrts_hyperobject_baseS2_ 88
validate_worker abort_because_rts_is_corrupted 49
setup_for_execution __cilkrts_assertion_failed 73
setup_for_execution __cilkrts_bug 78
setup_for_execution __cilkrts_setup_for_execution_sysdep 214
cilkrts_resume __cilkrts_take_stack 19
cilkrts_resume sysdep_longjmp_to_sf 36
longjmp_into_runtime cilk_fiber_get_data 122
longjmp_into_runtime __cilkrts_assertion_failed 158
longjmp_into_runtime __cilkrts_bug 163
longjmp_into_runtime cilk_fiber_set_post_switch_proc 205
longjmp_into_runtime cilk_fiber_invoke_tbb_stack_op 215
longjmp_into_runtime cilk_fiber_get_data 254
longjmp_into_runtime cilk_fiber_invoke_tbb_stack_op 285
longjmp_into_runtime cilk_fiber_remove_reference_from_self_and_resume_other 306
longjmp_into_runtime cilk_fiber_suspend_self_and_resume_other 320
longjmp_into_runtime cilk_fiber_invoke_tbb_stack_op 345
notify_children signal_node_msg 95
notify_children __cilkrts_assertion_failed 152
notify_children __cilkrts_bug 157
notify_children signal_node_msg 166
worker_runnable signal_node_should_wait 65
worker_runnable signal_node_should_wait 114
fiber_proc_to_resume_user_code_for_random_steal cilk_fiber_get_data 14
fiber_proc_to_resume_user_code_for_random_steal __cilkrts_assertion_failed 72
fiber_proc_to_resume_user_code_for_random_steal __cilkrts_bug 77
fiber_proc_to_resume_user_code_for_random_steal sysdep_reset_jump_buffers_for_resume 91
fiber_proc_to_resume_user_code_for_random_steal cilk_fiber_invoke_tbb_stack_op 103
fiber_proc_to_resume_user_code_for_random_steal sysdep_longjmp_to_sf 121
decjoin __cilkrts_assertion_failed 30
decjoin __cilkrts_bug 35
unlink_child __cilkrts_assertion_failed 53
unlink_child __cilkrts_bug 58
enter_runtime_transition_proc run_scheduling_stack_fcn 28
enter_runtime_transition_proc __cilkrts_assertion_failed 58
enter_runtime_transition_proc __cilkrts_bug 63
enter_runtime_transition_proc cilkbug_assert_no_uncaught_exception 72
make_child.part.11 __cilkrts_assertion_failed 23
make_child.part.11 __cilkrts_bug 28
__cilkrts_dump_stats_to_stderr stderr 10
__cilkrts_dump_stats_to_stderr fprintf 33
__cilkrts_dump_stats_to_stderr fprintf 54
__cilkrts_dump_stats_to_stderr fputc 65
__cilkrts_worker_lock __cilkrts_assertion_failed 41
__cilkrts_worker_lock __cilkrts_bug 46
__cilkrts_worker_lock __cilkrts_mutex_lock 73
__cilkrts_worker_unlock __cilkrts_mutex_unlock 19
__cilkrts_worker_unlock __cilkrts_assertion_failed 52
__cilkrts_worker_unlock __cilkrts_bug 57
__cilkrts_push_next_frame __cilkrts_assertion_failed 54
__cilkrts_push_next_frame __cilkrts_bug 59
provably_good_steal replay_match_sync_pedigree_internal 39
provably_good_steal __cilkrts_merge_pending_exceptions 110
provably_good_steal __cilkrts_assertion_failed 150
provably_good_steal __cilkrts_bug 155
provably_good_steal __cilkrts_push_next_frame 254
provably_good_steal __cilkrts_push_next_frame 276
provably_good_steal replay_record_sync_internal 305
provably_good_steal replay_advance_from_sync_internal 348
do_sync __cilkrts_worker_lock 20
do_sync __cilkrts_frame_lock 48
do_sync __cilkrts_assertion_failed 78
do_sync __cilkrts_bug 83
do_sync __cilkrts_frame_unlock 170
do_sync __cilkrts_worker_unlock 197
do_sync __cilkrts_sleep 210
do_sync __cilkrts_worker_lock 219
do_sync __cilkrts_frame_lock 234
detach_for_steal __cilkrts_assertion_failed 84
detach_for_steal __cilkrts_bug 89
detach_for_steal __cilkrts_frame_lock 113
detach_for_steal __cilkrts_put_stack 221
detach_for_steal __cilkrts_make_unrunnable_sysdep 249
detach_for_steal __cilkrts_make_full_frame 288
detach_for_steal __cilkrts_put_stack 403
detach_for_steal __cilkrts_make_unrunnable_sysdep 435
detach_for_steal __cilkrts_push_next_frame 542
detach_for_steal __cilkrts_make_full_frame 555
detach_for_steal __cilkrts_frame_lock 655
detach_for_steal __cilkrts_frame_unlock 683
detach_for_steal __cilkrts_frame_unlock 694
worker_scheduler_function __cilkrts_metacall 28
worker_scheduler_function signal_node_wait 106
worker_scheduler_function cilk_fiber_suspend_self_and_resume_other 157
worker_scheduler_function __cilkrts_assertion_failed 204
worker_scheduler_function __cilkrts_bug 209
worker_scheduler_function __cilkrts_worker_lock 308
worker_scheduler_function __cilkrts_worker_unlock 326
worker_scheduler_function __umoddi3 451
worker_scheduler_function replay_get_next_recorded_victim_internal 495
worker_scheduler_function cilk_fiber_allocate 533
worker_scheduler_function __cilkrts_mutex_trylock 614
worker_scheduler_function __cilkrts_mutex_trylock 644
worker_scheduler_function __cilkrts_mutex_unlock 665
worker_scheduler_function cilk_fiber_reset_state 711
worker_scheduler_function replay_record_steal_internal 737
worker_scheduler_function __cilkrts_yield 758
worker_scheduler_function signal_node_wait 861
worker_scheduler_function cilkbug_assert_no_uncaught_exception 942
worker_scheduler_function __cilkrts_worker_lock 951
worker_scheduler_function __cilkrts_frame_lock 987
worker_scheduler_function cilk_fiber_remove_reference 1058
worker_scheduler_function replay_match_victim_pedigree_internal 1189
worker_scheduler_function __cilkrts_mutex_unlock 1257
worker_scheduler_function cilk_fiber_remove_reference 1283
worker_scheduler_function __cilkrts_frame_unlock 1358
worker_scheduler_function __cilkrts_worker_unlock 1366
worker_scheduler_function cilk_fiber_get_data 1389
worker_scheduler_function cilk_fiber_get_data 1401
do_return_from_spawn __cilkrts_worker_lock 20
do_return_from_spawn __cilkrts_assertion_failed 66
do_return_from_spawn __cilkrts_bug 71
do_return_from_spawn __cilkrts_frame_lock 99
do_return_from_spawn __cilkrts_frame_unlock 115
do_return_from_spawn __cilkrts_frame_lock 124
do_return_from_spawn __cilkrts_push_next_frame 149
do_return_from_spawn __cilkrts_frame_unlock 177
do_return_from_spawn __cilkrts_worker_unlock 185
do_return_from_spawn __cilkrts_sleep 201
do_return_from_spawn __cilkrts_worker_lock 210
do_return_from_spawn __cilkrts_frame_lock 219
do_return_from_spawn __cilkrts_destroy_full_frame 253
scheduler_fiber_proc_for_user_worker __cilkrts_assertion_failed 54
scheduler_fiber_proc_for_user_worker __cilkrts_bug 59
scheduler_fiber_proc_for_user_worker __cilkrts_run_scheduler_with_exceptions 68
__cilkrts_c_sync __cilkrts_put_stack 69
__cilkrts_c_sync __cilkrts_make_unrunnable_sysdep 88
__cilkrts_c_sync __cilkrts_assertion_failed 120
__cilkrts_c_sync __cilkrts_bug 125
__cilkrts_c_sync __cilkrts_merge_pending_exceptions 190
__cilkrts_c_sync __cilkrts_frame_unlock 229
__cilkrts_c_sync __cilkrts_frame_lock 354
__cilkrts_c_sync __cilkrts_frame_unlock 410
__cilkrts_c_sync repeated_merge_reducer_maps 424
__cilkrts_promote_own_deque __cilkrts_worker_lock 38
__cilkrts_promote_own_deque __cilkrts_worker_unlock 123
__cilkrts_promote_own_deque __cilkrts_assertion_failed 157
__cilkrts_promote_own_deque __cilkrts_bug 162
__cilkrts_pop_tail __cilkrts_worker_lock 15
__cilkrts_pop_tail __cilkrts_worker_unlock 44
simulate_pop_tail __cilkrts_worker_lock 15
simulate_pop_tail __cilkrts_worker_unlock 41
__cilkrts_return __cilkrts_worker_lock 14
__cilkrts_return __cilkrts_assertion_failed 66
__cilkrts_return __cilkrts_bug 71
__cilkrts_return __cilkrts_frame_lock 98
__cilkrts_return __cilkrts_frame_unlock 177
__cilkrts_return __cilkrts_frame_lock 213
__cilkrts_return __cilkrts_push_next_frame 476
__cilkrts_return __cilkrts_destroy_full_frame 485
__cilkrts_return __cilkrts_frame_unlock 494
__cilkrts_return __cilkrts_frame_lock 543
__cilkrts_return __cilkrts_frame_unlock 582
make_worker __cilkrts_malloc 57
make_worker __cilkrts_frame_malloc_per_worker_init 68
make_worker __cilkrts_mutex_init 131
make_worker __cilkrts_mutex_init 145
make_worker __cilkrts_malloc 193
make_worker cilk_fiber_pool_init 252
make_worker __cilkrts_init_worker_sysdep 435
destroy_worker __cilkrts_assertion_failed 65
destroy_worker __cilkrts_bug 70
destroy_worker cilk_fiber_remove_reference 80
destroy_worker cilk_fiber_pool_destroy 150
destroy_worker __cilkrts_destroy_worker_sysdep 158
destroy_worker signal_node_destroy 204
destroy_worker __cilkrts_free 224
destroy_worker __cilkrts_mutex_destroy 240
destroy_worker __cilkrts_mutex_destroy 256
destroy_worker __cilkrts_frame_malloc_per_worker_cleanup 264
destroy_worker __cilkrts_free 282
__cilkrts_deinit_internal __cilkrts_destroy_full_frame 36
__cilkrts_deinit_internal replay_term 60
__cilkrts_deinit_internal __cilkrts_destroy_global_sysdep 68
__cilkrts_deinit_internal destroy_worker 91
__cilkrts_deinit_internal __cilkrts_free 106
__cilkrts_deinit_internal __cilkrts_free 115
__cilkrts_deinit_internal cilk_fiber_pool_destroy 129
__cilkrts_deinit_internal __cilkrts_frame_malloc_global_cleanup 137
__cilkrts_deinit_internal cilkg_deinit_global_state 151
__cilkrts_enter_cilk __cilkrts_assertion_failed 72
__cilkrts_enter_cilk __cilkrts_bug 77
__cilkrts_enter_cilk signal_node_msg 87
__cilkrts_leave_cilk __cilkrts_assertion_failed 72
__cilkrts_leave_cilk __cilkrts_bug 77
__cilkrts_leave_cilk signal_node_msg 87
__cilkrts_c_return_from_initial __cilkrts_worker_lock 38
__cilkrts_c_return_from_initial __cilkrts_assertion_failed 72
__cilkrts_c_return_from_initial __cilkrts_bug 77
__cilkrts_c_return_from_initial cilk_fiber_tbb_interop_save_info_from_stack 130
__cilkrts_c_return_from_initial cilk_fiber_deallocate_from_thread 168
__cilkrts_c_return_from_initial __cilkrts_destroy_full_frame 194
__cilkrts_c_return_from_initial __cilkrts_worker_unlock 202
__cilkrts_c_return_from_initial save_pedigree_leaf_from_user_worker 210
__cilkrts_c_return_from_initial __cilkrts_destroy_reducer_map 226
__cilkrts_c_return_from_initial global_os_mutex_lock 234
__cilkrts_c_return_from_initial cilkg_is_published 239
__cilkrts_c_return_from_initial __cilkrts_get_tls_worker 252
__cilkrts_c_return_from_initial __cilkrts_set_tls_worker 271
__cilkrts_c_return_from_initial destroy_worker 289
__cilkrts_c_return_from_initial __cilkrts_free 297
__cilkrts_c_return_from_initial __cilkrts_leave_cilk 318
__cilkrts_c_return_from_initial global_os_mutex_unlock 338
__cilkrts_c_return_from_initial __cilkrts_metacall 354
__cilkrts_init_internal cilkg_is_published 10
__cilkrts_init_internal cilkg_init_global_state 19
__cilkrts_init_internal global_os_mutex_lock 31
__cilkrts_init_internal cilkg_is_published 36
__cilkrts_init_internal cilkg_init_global_state 47
__cilkrts_init_internal cilkg_init_global_state 59
__cilkrts_init_internal __cilkrts_establish_c_stack 82
__cilkrts_init_internal cilk_fiber_pool_init 121
__cilkrts_init_internal cilk_fiber_pool_set_fiber_limit 147
__cilkrts_init_internal __cilkrts_malloc 161
__cilkrts_init_internal __cilkrts_malloc 178
__cilkrts_init_internal __cilkrts_metacall 206
__cilkrts_init_internal make_worker 248
__cilkrts_init_internal signal_node_create 275
__cilkrts_init_internal replay_init_workers 322
__cilkrts_init_internal __cilkrts_init_global_sysdep 330
__cilkrts_init_internal cilkg_publish_global_state 338
__cilkrts_init_internal global_os_mutex_unlock 346
__cilkrts_init_internal __cilkrts_assertion_failed 371
__cilkrts_init_internal __cilkrts_bug 376
__cilkrts_init_internal global_os_mutex_lock 393
__cilkrts_init_internal __cilkrts_start_workers 415
__cilkrts_init_internal global_os_mutex_unlock 423
fast_path_reductions_for_spawn_return __cilkrts_assertion_failed 44
fast_path_reductions_for_spawn_return __cilkrts_bug 49
fast_path_reductions_for_spawn_return __cilkrts_merge_pending_exceptions 93
fast_path_reductions_for_spawn_return __cilkrts_merge_pending_exceptions 119
execute_reductions_for_spawn_return __cilkrts_frame_lock 38
execute_reductions_for_spawn_return fast_path_reductions_for_spawn_return 47
execute_reductions_for_spawn_return __cilkrts_frame_unlock 162
execute_reductions_for_spawn_return repeated_merge_reducer_maps 179
execute_reductions_for_spawn_return repeated_merge_reducer_maps 190
execute_reductions_for_spawn_return __cilkrts_assertion_failed 244
execute_reductions_for_spawn_return __cilkrts_bug 249
execute_reductions_for_spawn_return __cilkrts_frame_lock 282
execute_reductions_for_spawn_return __cilkrts_merge_pending_exceptions 335
execute_reductions_for_spawn_return __cilkrts_merge_pending_exceptions 361
execute_reductions_for_spawn_return __cilkrts_frame_unlock 492
__cilkrts_c_THE_exception_check __cilkrts_worker_lock 17
__cilkrts_c_THE_exception_check __cilkrts_assertion_failed 72
__cilkrts_c_THE_exception_check __cilkrts_bug 77
__cilkrts_c_THE_exception_check __cilkrts_save_exception_state 115
__cilkrts_c_THE_exception_check __cilkrts_worker_unlock 140
__cilkrts_c_THE_exception_check replay_record_orphaned_internal 184
__cilkrts_exception_from_spawn __cilkrts_assertion_failed 40
__cilkrts_exception_from_spawn __cilkrts_bug 45
signal_node_create __cilkrts_malloc 10
signal_node_create sem_init 34
signal_node_create __assert_fail 66
signal_node_destroy __cilkrts_assertion_failed 29
signal_node_destroy __cilkrts_bug 34
signal_node_destroy sem_destroy 46
signal_node_destroy __assert_fail 78
signal_node_destroy __cilkrts_free 90
signal_node_should_wait __cilkrts_assertion_failed 30
signal_node_should_wait __cilkrts_bug 35
signal_node_msg __cilkrts_assertion_failed 78
signal_node_msg __cilkrts_bug 83
signal_node_msg sem_post 49
signal_node_wait __cilkrts_assertion_failed 32
signal_node_wait __cilkrts_bug 37
signal_node_wait sem_wait 46
signal_node_wait signal_node_should_wait 62
signal_node_wait __errno_location 76
signal_node_wait perror 94
signal_node_wait abort 99
spin_mutex_create __cilkrts_malloc 9
spin_mutex_lock __cilkrts_xchg 14
spin_mutex_lock __cilkrts_short_pause 29
spin_mutex_lock __cilkrts_yield 44
spin_mutex_lock __cilkrts_xchg 60
spin_mutex_trylock __cilkrts_xchg 12
spin_mutex_unlock __cilkrts_xchg 12
spin_mutex_destroy __cilkrts_free 5
_cilk_spn_0.1444 __cilkrts_enter_frame_fast_1 14
_cilk_spn_0.1444 __cilkrts_save_fp_ctrl_state 125
_cilk_spn_0.1444 __cilkrts_sync 156
_cilk_spn_0.1444 __cilkrts_rethrow 179
_cilk_spn_0.1444 __cilkrts_leave_frame 227
main __cilkrts_enter_frame_1 25
main __cilkrts_save_fp_ctrl_state 36
main __cilkrts_global_state 70
main p 87
main __cilkrts_save_fp_ctrl_state 109
main __cilkrts_sync 140
main __cilkrts_rethrow 163
main __cilkrts_save_fp_ctrl_state 208
main __cilkrts_sync 239
main __cilkrts_rethrow 262
main __cilkrts_leave_frame 310
scheduler_thread_proc_for_system_worker __cilkrts_set_tls_worker 37
scheduler_thread_proc_for_system_worker cilk_fiber_allocate_from_thread 45
scheduler_thread_proc_for_system_worker __cilkrts_cilkscreen_establish_c_stack 81
scheduler_thread_proc_for_system_worker __cilkrts_run_scheduler_with_exceptions 89
scheduler_thread_proc_for_system_worker cilk_fiber_deallocate_from_thread 104
scheduler_thread_proc_for_system_worker __cilkrts_assertion_failed 132
scheduler_thread_proc_for_system_worker __cilkrts_bug 137
write_version_file.isra.2 getenv 20
write_version_file.isra.2 strcasecmp 46
write_version_file.isra.2 stderr 59
write_version_file.isra.2 strcasecmp 74
write_version_file.isra.2 stdout 87
write_version_file.isra.2 fopen 102
write_version_file.isra.2 time 131
write_version_file.isra.2 localtime 151
write_version_file.isra.2 strftime 168
write_version_file.isra.2 fprintf 183
write_version_file.isra.2 fputs 196
write_version_file.isra.2 fputs 209
write_version_file.isra.2 fprintf 233
write_version_file.isra.2 fprintf 253
write_version_file.isra.2 uname 274
write_version_file.isra.2 fputs 289
write_version_file.isra.2 fputs 302
write_version_file.isra.2 dummy_function 316
write_version_file.isra.2 dladdr 321
write_version_file.isra.2 fprintf 350
write_version_file.isra.2 fprintf 394
write_version_file.isra.2 fprintf 425
write_version_file.isra.2 fputs 438
write_version_file.isra.2 fputs 451
write_version_file.isra.2 sysconf 463
write_version_file.isra.2 fprintf 478
write_version_file.isra.2 fprintf 493
write_version_file.isra.2 fputs 506
write_version_file.isra.2 stderr 515
write_version_file.isra.2 stdout 523
write_version_file.isra.2 fclose 534
write_version_file.isra.2 fflush 545
internal_enforce_global_visibility dummy_function 11
internal_enforce_global_visibility dladdr 16
internal_enforce_global_visibility dlopen 40
internal_enforce_global_visibility dlclose 56
__cilkrts_init_global_sysdep __cilkrts_init_tls_variables 14
__cilkrts_init_global_sysdep __cilkrts_malloc 48
__cilkrts_init_global_sysdep __cilkrts_assertion_failed 81
__cilkrts_init_global_sysdep __cilkrts_bug 86
__cilkrts_init_global_sysdep __cilkrts_malloc 108
__cilkrts_destroy_global_sysdep __cilkrts_free 22
__cilkrts_destroy_global_sysdep __cilkrts_free 40
__cilkrts_user_worker_scheduling_stub __cilkrts_get_tls_worker 7
__cilkrts_user_worker_scheduling_stub __cilkrts_assertion_failed 37
__cilkrts_user_worker_scheduling_stub __cilkrts_bug 42
__cilkrts_user_worker_scheduling_stub __cilkrts_run_scheduler_with_exceptions 51
__cilkrts_user_worker_scheduling_stub __cilkrts_assertion_failed 72
__cilkrts_user_worker_scheduling_stub __cilkrts_bug 77
__cilkrts_start_workers scheduler_thread_proc_for_system_worker 69
__cilkrts_start_workers pthread_create 85
__cilkrts_start_workers __cilkrts_bug 105
__cilkrts_stop_workers __cilkrts_assertion_failed 81
__cilkrts_stop_workers signal_node_msg 93
__cilkrts_stop_workers pthread_join 131
__cilkrts_stop_workers __cilkrts_bug 151
sysdep_reset_jump_buffers_for_resume __cilkrts_assertion_failed 29
sysdep_reset_jump_buffers_for_resume __cilkrts_bug 34
sysdep_reset_jump_buffers_for_resume cilk_fiber_get_stack_base 43
sysdep_reset_jump_buffers_for_resume __cilkrts_take_stack 71
sysdep_longjmp_to_sf restore_x86_fp_state 26
__cilkrts_mutex_lock __cilkrts_xchg 16
__cilkrts_mutex_lock __cilkrts_assertion_failed 47
__cilkrts_mutex_lock __cilkrts_bug 52
__cilkrts_mutex_lock __cilkrts_short_pause 64
__cilkrts_mutex_lock __cilkrts_yield 77
__cilkrts_mutex_lock __cilkrts_xchg 91
__cilkrts_mutex_trylock __cilkrts_xchg 14
__cilkrts_mutex_trylock __cilkrts_assertion_failed 45
__cilkrts_mutex_trylock __cilkrts_bug 50
__cilkrts_mutex_unlock __cilkrts_assertion_failed 31
__cilkrts_mutex_unlock __cilkrts_bug 36
__cilkrts_mutex_unlock __cilkrts_xchg 59
_ZNK3GTM11aa_tree_keyIjE4findEj _ZN3GTM12aa_node_base5s_nilE 30
_ZN3GTM11aa_tree_keyIjE8insert_1EPNS_11aa_node_keyIjEES4_ _ZN3GTM12aa_node_base5s_nilE 29
_ZN3GTM11aa_tree_keyIjE8insert_1EPNS_11aa_node_keyIjEES4_ _ZN3GTM12aa_node_base4skewEv 54
_ZN3GTM11aa_tree_keyIjE8insert_1EPNS_11aa_node_keyIjEES4_ _ZN3GTM12aa_node_base5splitEv 71
_ZN3GTM11aa_tree_keyIjE6insertEPNS_11aa_node_keyIjEE _ZN3GTM11aa_tree_keyIjE8insert_1EPNS_11aa_node_keyIjEES4_ 26
_ZN3GTM11aa_tree_keyIjE7erase_1EPNS_11aa_node_keyIjEEjPS4_ _ZN3GTM12aa_node_base5s_nilE 31
_ZN3GTM11aa_tree_keyIjE7erase_1EPNS_11aa_node_keyIjEEjPS4_ _ZN3GTM12aa_node_base5s_nilE 43
_ZN3GTM11aa_tree_keyIjE7erase_1EPNS_11aa_node_keyIjEEjPS4_ _ZN3GTM12aa_node_base5s_nilE 71
_ZN3GTM11aa_tree_keyIjE7erase_1EPNS_11aa_node_keyIjEEjPS4_ _ZN3GTM12aa_node_base14decrease_levelEv 135
_ZN3GTM11aa_tree_keyIjE7erase_1EPNS_11aa_node_keyIjEEjPS4_ _ZN3GTM12aa_node_base4skewEv 143
_ZN3GTM11aa_tree_keyIjE7erase_1EPNS_11aa_node_keyIjEEjPS4_ _ZN3GTM12aa_node_base4skewEv 154
_ZN3GTM11aa_tree_keyIjE7erase_1EPNS_11aa_node_keyIjEEjPS4_ _ZN3GTM12aa_node_base4skewEv 168
_ZN3GTM11aa_tree_keyIjE7erase_1EPNS_11aa_node_keyIjEEjPS4_ _ZN3GTM12aa_node_base5splitEv 179
_ZN3GTM11aa_tree_keyIjE7erase_1EPNS_11aa_node_keyIjEEjPS4_ _ZN3GTM12aa_node_base5splitEv 190
_ZN3GTM11aa_tree_keyIjE5eraseEj _ZN3GTM11aa_tree_keyIjE7erase_1EPNS_11aa_node_keyIjEEjPS4_ 33
_ZN3GTM11aa_tree_keyIjE5eraseEj _ZN3GTM12aa_node_base5s_nilE 46
_GLOBAL__sub_I__ZN3GTM12aa_node_base5s_nilE _ZN3GTM12aa_node_base5s_nilE 3
_GLOBAL__sub_I__ZN3GTM12aa_node_base5s_nilE _ZN3GTM12aa_node_base5s_nilE 7
_GLOBAL__sub_I__ZN3GTM12aa_node_base5s_nilE _ZN3GTM12aa_node_base5s_nilE 13
_GLOBAL__sub_I__ZN3GTM12aa_node_base5s_nilE _ZN3GTM12aa_node_base5s_nilE 17
_GLOBAL__sub_I__ZN3GTM12aa_node_base5s_nilE _ZN3GTM12aa_node_base5s_nilE 23
_ZN3GTM10gtm_thread17record_allocationEPvPFvS1_E _ZN3GTM7aa_treeIjNS_16gtm_alloc_actionEE6insertEj 17
_ZN3GTM10gtm_thread17forget_allocationEPvPFvS1_E _ZN3GTM7aa_treeIjNS_16gtm_alloc_actionEE6insertEj 17
_ZN3GTM10gtm_thread17forget_allocationEPvjPFvS1_jE _ZN3GTM7aa_treeIjNS_16gtm_alloc_actionEE6insertEj 17
_ZN3GTML20commit_allocations_2EjPNS_16gtm_alloc_actionEPv _ZN3GTM7aa_treeIjNS_16gtm_alloc_actionEE6insertEj 66
_ZN3GTM10gtm_thread18commit_allocationsEbPNS_7aa_treeIjNS_16gtm_alloc_actionEEE _ZN3GTM7aa_treeIjNS_16gtm_alloc_actionEE10traverse_1EPNS_7aa_nodeIjS1_EEPFvjPS1_PvES7_ 61
_ZN3GTM10gtm_thread18commit_allocationsEbPNS_7aa_treeIjNS_16gtm_alloc_actionEEE _ZN3GTM7aa_treeIjNS_16gtm_alloc_actionEE7clear_1EPNS_7aa_nodeIjS1_EE 87
_ZN3GTM7aa_treeIjNS_16gtm_alloc_actionEE6insertEj _ZN3GTM7xmallocEjb 12
_ZN3GTM7aa_treeIjNS_16gtm_alloc_actionEE6insertEj _ZN3GTM12aa_node_base5s_nilE 18
_ZN3GTM7aa_treeIjNS_16gtm_alloc_actionEE6insertEj _ZN3GTM12aa_node_base5s_nilE 25
_ZN3GTM7aa_treeIjNS_16gtm_alloc_actionEE6insertEj _ZN3GTM11aa_tree_keyIjE6insertEPNS_11aa_node_keyIjEE 51
_ZN3GTM7aa_treeIjNS_16gtm_alloc_actionEE10traverse_1EPNS_7aa_nodeIjS1_EEPFvjPS1_PvES7_ _ZN3GTM12aa_node_base5s_nilE 20
_ZN3GTM7aa_treeIjNS_16gtm_alloc_actionEE7clear_1EPNS_7aa_nodeIjS1_EE _ZN3GTM12aa_node_base5s_nilE 10
_ZN3GTM7aa_treeIjNS_16gtm_alloc_actionEE7clear_1EPNS_7aa_nodeIjS1_EE free 46
_ITM_malloc malloc 10
_ITM_malloc _ZN3GTM12_gtm_thr_tlsE 24
_ITM_malloc free 29
_ITM_malloc _ZN3GTM10gtm_thread17record_allocationEPvPFvS1_E 41
_ITM_calloc calloc 13
_ITM_calloc _ZN3GTM12_gtm_thr_tlsE 27
_ITM_calloc free 32
_ITM_calloc _ZN3GTM10gtm_thread17record_allocationEPvPFvS1_E 44
_ITM_free free 15
_ITM_free _ZN3GTM12_gtm_thr_tlsE 21
_ITM_free _ZN3GTM10gtm_thread17forget_allocationEPvPFvS1_E 29
_ITM_dropReferences _ZN3GTM9GTM_fatalEPKcz 12
del_opnt _ZdlPvRKSt9nothrow_t 12
del_opvnt _ZdaPvRKSt9nothrow_t 12
delsz_opnt _ZdlPvjRKSt9nothrow_t 15
_ZGTtnwj _Znwj 10
_ZGTtnwj _ZN3GTM12_gtm_thr_tlsE 24
_ZGTtnwj _ZdlPv 29
_ZGTtnwj _ZN3GTM10gtm_thread17record_allocationEPvPFvS1_E 41
_ZGTtnwjRKSt9nothrow_t _ZnwjRKSt9nothrow_t 13
_ZGTtnwjRKSt9nothrow_t _ZN3GTM12_gtm_thr_tlsE 27
_ZGTtnwjRKSt9nothrow_t _ZN3GTM10gtm_thread17record_allocationEPvPFvS1_E 44
_ZGTtnaj _Znaj 10
_ZGTtnaj _ZN3GTM12_gtm_thr_tlsE 24
_ZGTtnaj _ZdaPv 29
_ZGTtnaj _ZN3GTM10gtm_thread17record_allocationEPvPFvS1_E 41
_ZGTtnajRKSt9nothrow_t _ZnajRKSt9nothrow_t 13
_ZGTtnajRKSt9nothrow_t _ZN3GTM12_gtm_thr_tlsE 27
_ZGTtnajRKSt9nothrow_t _ZN3GTM10gtm_thread17record_allocationEPvPFvS1_E 44
_ZGTtdlPv _ZdlPv 15
_ZGTtdlPv _ZN3GTM12_gtm_thr_tlsE 21
_ZGTtdlPv _ZN3GTM10gtm_thread17forget_allocationEPvPFvS1_E 29
_ZGTtdlPvRKSt9nothrow_t _ZN3GTM12_gtm_thr_tlsE 21
_ZGTtdlPvRKSt9nothrow_t _ZN3GTM10gtm_thread17forget_allocationEPvPFvS1_E 29
_ZGTtdaPv _ZdaPv 15
_ZGTtdaPv _ZN3GTM12_gtm_thr_tlsE 21
_ZGTtdaPv _ZN3GTM10gtm_thread17forget_allocationEPvPFvS1_E 29
_ZGTtdaPvRKSt9nothrow_t _ZN3GTM12_gtm_thr_tlsE 21
_ZGTtdaPvRKSt9nothrow_t _ZN3GTM10gtm_thread17forget_allocationEPvPFvS1_E 29
_ZGTtdlPvj _ZdlPvj 14
_ZGTtdlPvj _ZN3GTM12_gtm_thr_tlsE 23
_ZGTtdlPvj _ZN3GTM10gtm_thread17forget_allocationEPvjPFvS1_jE 31
_ZGTtdlPvjRKSt9nothrow_t _ZN3GTM12_gtm_thr_tlsE 23
_ZGTtdlPvjRKSt9nothrow_t _ZN3GTM10gtm_thread17forget_allocationEPvjPFvS1_jE 31
_ZN3GTM12abi_dispatch21memmove_overlap_checkEPvPKvjNS0_11ls_modifierES4_.part.0 _ZN3GTM9GTM_fatalEPKcz 33
_ITM_RU1 _ZN3GTM12_gtm_thr_tlsE 3
_ITM_RaRU1 _ZN3GTM12_gtm_thr_tlsE 3
_ITM_RaWU1 _ZN3GTM12_gtm_thr_tlsE 3
_ITM_RfWU1 _ZN3GTM12_gtm_thr_tlsE 3
_ITM_WU1 _ZN3GTM12_gtm_thr_tlsE 13
_ITM_WaRU1 _ZN3GTM12_gtm_thr_tlsE 13
_ITM_WaWU1 _ZN3GTM12_gtm_thr_tlsE 13
_ITM_RU2 _ZN3GTM12_gtm_thr_tlsE 3
_ITM_RaRU2 _ZN3GTM12_gtm_thr_tlsE 3
_ITM_RaWU2 _ZN3GTM12_gtm_thr_tlsE 3
_ITM_RfWU2 _ZN3GTM12_gtm_thr_tlsE 3
_ITM_WU2 _ZN3GTM12_gtm_thr_tlsE 13
_ITM_WaRU2 _ZN3GTM12_gtm_thr_tlsE 13
_ITM_WaWU2 _ZN3GTM12_gtm_thr_tlsE 13
_ITM_RU4 _ZN3GTM12_gtm_thr_tlsE 3
_ITM_RaRU4 _ZN3GTM12_gtm_thr_tlsE 3
_ITM_RaWU4 _ZN3GTM12_gtm_thr_tlsE 3
_ITM_RfWU4 _ZN3GTM12_gtm_thr_tlsE 3
_ITM_WU4 _ZN3GTM12_gtm_thr_tlsE 10
_ITM_WaRU4 _ZN3GTM12_gtm_thr_tlsE 10
_ITM_WaWU4 _ZN3GTM12_gtm_thr_tlsE 10
_ITM_RU8 _ZN3GTM12_gtm_thr_tlsE 3
_ITM_RaRU8 _ZN3GTM12_gtm_thr_tlsE 3
_ITM_RaWU8 _ZN3GTM12_gtm_thr_tlsE 3
_ITM_RfWU8 _ZN3GTM12_gtm_thr_tlsE 3
_ITM_WU8 _ZN3GTM12_gtm_thr_tlsE 3
_ITM_WaRU8 _ZN3GTM12_gtm_thr_tlsE 3
_ITM_WaWU8 _ZN3GTM12_gtm_thr_tlsE 3
_ITM_RF _ZN3GTM12_gtm_thr_tlsE 3
_ITM_RaRF _ZN3GTM12_gtm_thr_tlsE 3
_ITM_RaWF _ZN3GTM12_gtm_thr_tlsE 3
_ITM_RfWF _ZN3GTM12_gtm_thr_tlsE 3
_ITM_WF _ZN3GTM12_gtm_thr_tlsE 3
_ITM_WaRF _ZN3GTM12_gtm_thr_tlsE 3
_ITM_WaWF _ZN3GTM12_gtm_thr_tlsE 3
_ITM_RD _ZN3GTM12_gtm_thr_tlsE 3
_ITM_RaRD _ZN3GTM12_gtm_thr_tlsE 3
_ITM_RaWD _ZN3GTM12_gtm_thr_tlsE 3
_ITM_RfWD _ZN3GTM12_gtm_thr_tlsE 3
_ITM_WD _ZN3GTM12_gtm_thr_tlsE 3
_ITM_WaRD _ZN3GTM12_gtm_thr_tlsE 3
_ITM_WaWD _ZN3GTM12_gtm_thr_tlsE 3
_ITM_RE _ZN3GTM12_gtm_thr_tlsE 3
_ITM_RaRE _ZN3GTM12_gtm_thr_tlsE 3
_ITM_RaWE _ZN3GTM12_gtm_thr_tlsE 3
_ITM_RfWE _ZN3GTM12_gtm_thr_tlsE 3
_ITM_WE _ZN3GTM12_gtm_thr_tlsE 3
_ITM_WaRE _ZN3GTM12_gtm_thr_tlsE 3
_ITM_WaWE _ZN3GTM12_gtm_thr_tlsE 3
_ITM_RCF _ZN3GTM12_gtm_thr_tlsE 3
_ITM_RaRCF _ZN3GTM12_gtm_thr_tlsE 3
_ITM_RaWCF _ZN3GTM12_gtm_thr_tlsE 3
_ITM_RfWCF _ZN3GTM12_gtm_thr_tlsE 3
_ITM_WCF _ZN3GTM12_gtm_thr_tlsE 3
_ITM_WaRCF _ZN3GTM12_gtm_thr_tlsE 3
_ITM_WaWCF _ZN3GTM12_gtm_thr_tlsE 3
_ITM_RCD _ZN3GTM12_gtm_thr_tlsE 10
_ITM_RaRCD _ZN3GTM12_gtm_thr_tlsE 10
_ITM_RaWCD _ZN3GTM12_gtm_thr_tlsE 10
_ITM_RfWCD _ZN3GTM12_gtm_thr_tlsE 10
_ITM_WCD _ZN3GTM12_gtm_thr_tlsE 3
_ITM_WaRCD _ZN3GTM12_gtm_thr_tlsE 3
_ITM_WaWCD _ZN3GTM12_gtm_thr_tlsE 3
_ITM_RCE _ZN3GTM12_gtm_thr_tlsE 10
_ITM_RaRCE _ZN3GTM12_gtm_thr_tlsE 10
_ITM_RaWCE _ZN3GTM12_gtm_thr_tlsE 10
_ITM_RfWCE _ZN3GTM12_gtm_thr_tlsE 10
_ITM_WCE _ZN3GTM12_gtm_thr_tlsE 3
_ITM_WaRCE _ZN3GTM12_gtm_thr_tlsE 3
_ITM_WaWCE _ZN3GTM12_gtm_thr_tlsE 3
_ITM_memcpyRnWt _ZN3GTM12_gtm_thr_tlsE 9
_ITM_memmoveRnWt _ZN3GTM12_gtm_thr_tlsE 14
_ITM_memcpyRnWtaR _ZN3GTM12_gtm_thr_tlsE 9
_ITM_memmoveRnWtaR _ZN3GTM12_gtm_thr_tlsE 14
_ITM_memcpyRnWtaW _ZN3GTM12_gtm_thr_tlsE 9
_ITM_memmoveRnWtaW _ZN3GTM12_gtm_thr_tlsE 14
_ITM_memcpyRtWn _ZN3GTM12_gtm_thr_tlsE 9
_ITM_memmoveRtWn _ZN3GTM12_gtm_thr_tlsE 14
_ITM_memcpyRtWt _ZN3GTM12_gtm_thr_tlsE 9
_ITM_memmoveRtWt _ZN3GTM12_gtm_thr_tlsE 9
_ITM_memcpyRtWtaR _ZN3GTM12_gtm_thr_tlsE 9
_ITM_memmoveRtWtaR _ZN3GTM12_gtm_thr_tlsE 9
_ITM_memcpyRtWtaW _ZN3GTM12_gtm_thr_tlsE 9
_ITM_memmoveRtWtaW _ZN3GTM12_gtm_thr_tlsE 9
_ITM_memcpyRtaRWn _ZN3GTM12_gtm_thr_tlsE 9
_ITM_memmoveRtaRWn _ZN3GTM12_gtm_thr_tlsE 14
_ITM_memcpyRtaRWt _ZN3GTM12_gtm_thr_tlsE 9
_ITM_memmoveRtaRWt _ZN3GTM12_gtm_thr_tlsE 9
_ITM_memcpyRtaRWtaR _ZN3GTM12_gtm_thr_tlsE 9
_ITM_memmoveRtaRWtaR _ZN3GTM12_gtm_thr_tlsE 9
_ITM_memcpyRtaRWtaW _ZN3GTM12_gtm_thr_tlsE 9
_ITM_memmoveRtaRWtaW _ZN3GTM12_gtm_thr_tlsE 9
_ITM_memcpyRtaWWn _ZN3GTM12_gtm_thr_tlsE 9
_ITM_memmoveRtaWWn _ZN3GTM12_gtm_thr_tlsE 14
_ITM_memcpyRtaWWt _ZN3GTM12_gtm_thr_tlsE 9
_ITM_memmoveRtaWWt _ZN3GTM12_gtm_thr_tlsE 9
_ITM_memcpyRtaWWtaR _ZN3GTM12_gtm_thr_tlsE 9
_ITM_memmoveRtaWWtaR _ZN3GTM12_gtm_thr_tlsE 9
_ITM_memcpyRtaWWtaW _ZN3GTM12_gtm_thr_tlsE 9
_ITM_memmoveRtaWWtaW _ZN3GTM12_gtm_thr_tlsE 9
_ITM_memsetW _ZN3GTM12_gtm_thr_tlsE 9
_ITM_memsetWaR _ZN3GTM12_gtm_thr_tlsE 9
_ITM_memsetWaW _ZN3GTM12_gtm_thr_tlsE 9
_ZL16thread_exit_initv pthread_key_create 17
_ZL16thread_exit_initv _ZN3GTM9GTM_fatalEPKcz 37
_ZN3GTM10gtm_threadnwEj __assert_fail 32
_ZN3GTM10gtm_threadnwEj _ZN3GTM7xmallocEjb 46
_ZN3GTM10gtm_threaddlEPv free 5
_ZN3GTM10gtm_threadC1Ev,_ZN3GTM10gtm_threadC2Ev _ZN3GTM7xmallocEjb 32
_ZN3GTM10gtm_threadC1Ev,_ZN3GTM10gtm_threadC2Ev _ZN3GTM7xmallocEjb 63
_ZN3GTM10gtm_threadC1Ev,_ZN3GTM10gtm_threadC2Ev _ZN3GTM7xmallocEjb 94
_ZN3GTM10gtm_threadC1Ev,_ZN3GTM10gtm_threadC2Ev _ZN3GTM7xmallocEjb 132
_ZN3GTM10gtm_threadC1Ev,_ZN3GTM10gtm_threadC2Ev _ZN3GTM7xmallocEjb 163
_ZN3GTM10gtm_threadC1Ev,_ZN3GTM10gtm_threadC2Ev gtm_serial_lock 186
_ZN3GTM10gtm_threadC1Ev,_ZN3GTM10gtm_threadC2Ev _ZN3GTM10gtm_rwlock10write_lockEv 191
_ZN3GTM10gtm_threadC1Ev,_ZN3GTM10gtm_threadC2Ev _ZN3GTM10gtm_thread15list_of_threadsE 196
_ZN3GTM10gtm_threadC1Ev,_ZN3GTM10gtm_threadC2Ev _ZN3GTM10gtm_thread15list_of_threadsE 205
_ZN3GTM10gtm_threadC1Ev,_ZN3GTM10gtm_threadC2Ev _ZN3GTM10gtm_thread17number_of_threadsE 216
_ZN3GTM10gtm_threadC1Ev,_ZN3GTM10gtm_threadC2Ev _ZN3GTM10gtm_thread17number_of_threadsE 228
_ZN3GTM10gtm_threadC1Ev,_ZN3GTM10gtm_threadC2Ev _ZN3GTM10gtm_thread25number_of_threads_changedEjj 233
_ZN3GTM10gtm_threadC1Ev,_ZN3GTM10gtm_threadC2Ev gtm_serial_lock 240
_ZN3GTM10gtm_threadC1Ev,_ZN3GTM10gtm_threadC2Ev _ZN3GTM10gtm_rwlock12write_unlockEv 245
_ZN3GTM10gtm_threadC1Ev,_ZN3GTM10gtm_threadC2Ev _ZN3GTM10gtm_thread19init_cpp_exceptionsEv 253
_ZN3GTM10gtm_threadC1Ev,_ZN3GTM10gtm_threadC2Ev pthread_once 270
_ZN3GTM10gtm_threadC1Ev,_ZN3GTM10gtm_threadC2Ev pthread_setspecific 301
_ZN3GTM10gtm_threadC1Ev,_ZN3GTM10gtm_threadC2Ev _ZN3GTM9GTM_fatalEPKcz 321
_ZN3GTM18gtm_transaction_cp4saveEPNS_10gtm_threadE _ZN3GTM12_gtm_thr_tlsE 75
_ZN3GTM10gtm_thread8rollbackEPNS_18gtm_transaction_cpEb _ZN3GTM11gtm_undolog8rollbackEPNS_10gtm_threadEj 41
_ZN3GTM10gtm_thread8rollbackEPNS_18gtm_transaction_cpEb _ZN3GTM12_gtm_thr_tlsE 46
_ZN3GTM10gtm_thread8rollbackEPNS_18gtm_transaction_cpEb _ZN3GTM10gtm_thread21rollback_user_actionsEj 86
_ZN3GTM10gtm_thread8rollbackEPNS_18gtm_transaction_cpEb _ZN3GTM10gtm_thread18commit_allocationsEbPNS_7aa_treeIjNS_16gtm_alloc_actionEEE 114
_ZN3GTM10gtm_thread8rollbackEPNS_18gtm_transaction_cpEb _ZN3GTM10gtm_thread21revert_cpp_exceptionsEPNS_18gtm_transaction_cpE 126
_ZN3GTM10gtm_thread8rollbackEPNS_18gtm_transaction_cpEb __assert_fail 167
_ZN3GTM10gtm_thread8rollbackEPNS_18gtm_transaction_cpEb _ZN3GTM12_gtm_thr_tlsE 196
_ZN3GTM10gtm_thread8rollbackEPNS_18gtm_transaction_cpEb _Unwind_DeleteException 308
_ZN3GTM10gtm_thread7restartENS_18gtm_restart_reasonEb _ZN3GTM10gtm_thread8rollbackEPNS_18gtm_transaction_cpEb 21
_ZN3GTM10gtm_thread7restartENS_18gtm_restart_reasonEb gtm_serial_lock 38
_ZN3GTM10gtm_thread7restartENS_18gtm_restart_reasonEb _ZN3GTM10gtm_rwlock20write_upgrade_finishEPNS_10gtm_threadE 43
_ZN3GTM10gtm_thread7restartENS_18gtm_restart_reasonEb _ZN3GTM10gtm_thread21decide_retry_strategyENS_18gtm_restart_reasonE 57
_ZN3GTM10gtm_thread7restartENS_18gtm_restart_reasonEb _ZN3GTM12_gtm_thr_tlsE 63
_ZN3GTM10gtm_thread7restartENS_18gtm_restart_reasonEb _ZN3GTM10gtm_thread21decide_retry_strategyENS_18gtm_restart_reasonE 95
_ZN3GTM10gtm_thread7restartENS_18gtm_restart_reasonEb GTM_longjmp 123
_ITM_abortTransaction _ZN3GTM12_gtm_thr_tlsE 41
_ITM_abortTransaction __assert_fail 75
_ITM_abortTransaction abort 86
_ITM_abortTransaction _ZN3GTM10gtm_thread8rollbackEPNS_18gtm_transaction_cpEb 107
_ITM_abortTransaction gtm_serial_lock 124
_ITM_abortTransaction _ZN3GTM10gtm_rwlock12write_unlockEv 129
_ITM_abortTransaction gtm_serial_lock 139
_ITM_abortTransaction _ZN3GTM10gtm_rwlock11read_unlockEPNS_10gtm_threadE 144
_ITM_abortTransaction GTM_longjmp 172
_ITM_abortTransaction _ZN3GTM10gtm_thread7restartENS_18gtm_restart_reasonEb 193
_ITM_abortTransaction _ZN3GTM6vectorINS_18gtm_transaction_cpELb1EE3popEv 210
_ITM_abortTransaction _ZN3GTM10gtm_thread8rollbackEPNS_18gtm_transaction_cpEb 235
_ZN3GTM10gtm_thread9trycommitEv _ZN3GTM6vectorINS_18gtm_transaction_cpELb1EE3popEv 68
_ZN3GTM10gtm_thread9trycommitEv _ZN3GTM10gtm_thread18commit_allocationsEbPNS_7aa_treeIjNS_16gtm_alloc_actionEEE 85
_ZN3GTM10gtm_thread9trycommitEv _ZN3GTM18gtm_transaction_cp6commitEPNS_10gtm_threadE 94
_ZN3GTM10gtm_thread9trycommitEv _ZN3GTM12_gtm_thr_tlsE 104
_ZN3GTM10gtm_thread9trycommitEv gtm_serial_lock 154
_ZN3GTM10gtm_thread9trycommitEv _ZN3GTM10gtm_rwlock12write_unlockEv 159
_ZN3GTM10gtm_thread9trycommitEv gtm_serial_lock 209
_ZN3GTM10gtm_thread9trycommitEv _ZN3GTM10gtm_rwlock11read_unlockEPNS_10gtm_threadE 214
_ZN3GTM10gtm_thread9trycommitEv _ZN3GTM10gtm_thread15list_of_threadsE 270
_ZN3GTM10gtm_thread9trycommitEv gtm_serial_lock 313
_ZN3GTM10gtm_thread9trycommitEv _ZN3GTM10gtm_rwlock11read_unlockEPNS_10gtm_threadE 318
_ZN3GTM10gtm_thread9trycommitEv _ZN3GTM10gtm_thread19commit_user_actionsEv 330
_ZN3GTM10gtm_thread9trycommitEv _ZN3GTM10gtm_thread18commit_allocationsEbPNS_7aa_treeIjNS_16gtm_alloc_actionEEE 343
_ITM_commitTransaction gtm_serial_lock 8
_ITM_commitTransaction _ZN3GTM10gtm_rwlock21htm_fastpath_disabledEv 13
_ITM_commitTransaction _ZN3GTM12_gtm_thr_tlsE 30
_ITM_commitTransaction _ZN3GTM10gtm_thread9trycommitEv 42
_ITM_commitTransaction _ZN3GTM10gtm_thread7restartENS_18gtm_restart_reasonEb 60
_ITM_commitTransactionEH gtm_serial_lock 11
_ITM_commitTransactionEH _ZN3GTM10gtm_rwlock21htm_fastpath_disabledEv 16
_ITM_commitTransactionEH _ZN3GTM12_gtm_thr_tlsE 33
_ITM_commitTransactionEH _ZN3GTM10gtm_thread9trycommitEv 45
_ITM_commitTransactionEH _ZN3GTM10gtm_thread7restartENS_18gtm_restart_reasonEb 66
GTM_begin_transaction _ZN3GTM9GTM_fatalEPKcz 27
GTM_begin_transaction gtm_serial_lock 32
GTM_begin_transaction gtm_serial_lock 58
GTM_begin_transaction gtm_serial_lock 90
GTM_begin_transaction _ZN3GTM10gtm_rwlock21htm_fastpath_disabledEv 95
GTM_begin_transaction gtm_serial_lock 132
GTM_begin_transaction gtm_serial_lock 144
GTM_begin_transaction _ZN3GTM10gtm_rwlock21htm_fastpath_disabledEv 149
GTM_begin_transaction _ZN3GTM12_gtm_thr_tlsE 162
GTM_begin_transaction _ZN3GTM10gtm_threadnwEj 182
GTM_begin_transaction _ZN3GTM10gtm_threadC1Ev 193
GTM_begin_transaction gtm_serial_lock 216
GTM_begin_transaction _ZN3GTM10gtm_rwlock9read_lockEPNS_10gtm_threadE 224
GTM_begin_transaction gtm_serial_lock 235
GTM_begin_transaction _ZN3GTM10gtm_rwlock11read_unlockEPNS_10gtm_threadE 240
GTM_begin_transaction _ZN3GTM12_gtm_thr_tlsE 255
GTM_begin_transaction _ZN3GTM10gtm_threadnwEj 278
GTM_begin_transaction _ZN3GTM10gtm_threadC1Ev 288
GTM_begin_transaction _ZN3GTM10gtm_thread14serialirr_modeEv 347
GTM_begin_transaction __assert_fail 406
GTM_begin_transaction _ZN3GTM6vectorINS_18gtm_transaction_cpELb1EE15resize_noinlineEv 429
GTM_begin_transaction _ZN3GTM18gtm_transaction_cp4saveEPNS_10gtm_threadE 467
GTM_begin_transaction _ZN3GTM12_gtm_thr_tlsE 476
GTM_begin_transaction _ZN3GTM10gtm_thread21decide_begin_dispatchEj 539
GTM_begin_transaction _ZN3GTM10gtm_thread21decide_retry_strategyENS_18gtm_restart_reasonE 729
GTM_begin_transaction _ZN3GTM12_gtm_thr_tlsE 734
_ZN3GTM10gtm_threadD1Ev,_ZN3GTM10gtm_threadD2Ev _ZN3GTM9GTM_fatalEPKcz 23
_ZN3GTM10gtm_threadD1Ev,_ZN3GTM10gtm_threadD2Ev gtm_serial_lock 31
_ZN3GTM10gtm_threadD1Ev,_ZN3GTM10gtm_threadD2Ev _ZN3GTM10gtm_rwlock10write_lockEv 36
_ZN3GTM10gtm_threadD1Ev,_ZN3GTM10gtm_threadD2Ev _ZN3GTM10gtm_thread15list_of_threadsE 41
_ZN3GTM10gtm_threadD1Ev,_ZN3GTM10gtm_threadD2Ev _ZN3GTM10gtm_thread15list_of_threadsE 49
_ZN3GTM10gtm_threadD1Ev,_ZN3GTM10gtm_threadD2Ev _ZN3GTM10gtm_thread17number_of_threadsE 86
_ZN3GTM10gtm_threadD1Ev,_ZN3GTM10gtm_threadD2Ev _ZN3GTM10gtm_thread17number_of_threadsE 99
_ZN3GTM10gtm_threadD1Ev,_ZN3GTM10gtm_threadD2Ev _ZN3GTM10gtm_thread25number_of_threads_changedEjj 104
_ZN3GTM10gtm_threadD1Ev,_ZN3GTM10gtm_threadD2Ev gtm_serial_lock 111
_ZN3GTM10gtm_threadD1Ev,_ZN3GTM10gtm_threadD2Ev _ZN3GTM10gtm_rwlock12write_unlockEv 116
_ZN3GTM10gtm_threadD1Ev,_ZN3GTM10gtm_threadD2Ev free 139
_ZN3GTM10gtm_threadD1Ev,_ZN3GTM10gtm_threadD2Ev free 159
_ZN3GTM10gtm_threadD1Ev,_ZN3GTM10gtm_threadD2Ev _ZN3GTM7aa_treeIjNS_16gtm_alloc_actionEE7clear_1EPNS_7aa_nodeIjS1_EE 185
_ZN3GTM10gtm_threadD1Ev,_ZN3GTM10gtm_threadD2Ev free 205
_ZN3GTM10gtm_threadD1Ev,_ZN3GTM10gtm_threadD2Ev free 225
_ZN3GTM10gtm_threadD1Ev,_ZN3GTM10gtm_threadD2Ev free 249
_ZL19thread_exit_handlerPv _ZN3GTM12_gtm_thr_tlsE 6
_ZL19thread_exit_handlerPv _ZN3GTM10gtm_threadD1Ev 23
_ZL19thread_exit_handlerPv free 31
_ZN3GTM6vectorINS_18gtm_transaction_cpELb1EE15resize_noinlineEv _ZN3GTM8xreallocEPvjb 71
_GLOBAL__sub_I_gtm_serial_lock gtm_serial_lock 3
_GLOBAL__sub_I_gtm_serial_lock gtm_serial_lock 13
_GLOBAL__sub_I_gtm_serial_lock gtm_serial_lock 23
_GLOBAL__sub_I_gtm_serial_lock gtm_serial_lock 35
_ZN12_GLOBAL__N_118ExcludeTransactionC1Ev,_ZN12_GLOBAL__N_118ExcludeTransactionC2Ev _ZN3GTM12_gtm_thr_tlsE 2
_ZN12_GLOBAL__N_118ExcludeTransactionC1Ev,_ZN12_GLOBAL__N_118ExcludeTransactionC2Ev gtm_serial_lock 39
_ZN12_GLOBAL__N_118ExcludeTransactionC1Ev,_ZN12_GLOBAL__N_118ExcludeTransactionC2Ev _ZN3GTM10gtm_rwlock10write_lockEv 44
_ITM_getTMCloneOrIrrevocable _ZN3GTM12_gtm_thr_tlsE 17
_ITM_getTMCloneOrIrrevocable _ZN3GTM10gtm_thread14serialirr_modeEv 28
_ITM_getTMCloneSafe abort 16
_ITM_registerTMCloneTable _ZN3GTM7xmallocEjb 20
_ITM_registerTMCloneTable qsort 41
_ITM_registerTMCloneTable gtm_serial_lock 80
_ITM_registerTMCloneTable _ZN3GTM10gtm_rwlock12write_unlockEv 85
_ITM_deregisterTMCloneTable gtm_serial_lock 56
_ITM_deregisterTMCloneTable _ZN3GTM10gtm_rwlock12write_unlockEv 61
_ITM_deregisterTMCloneTable free 73
_ZL18free_any_exceptionPv __cxa_tm_cleanup 14
_ITM_cxa_allocate_exception __cxa_allocate_exception 10
_ITM_cxa_allocate_exception _ZN3GTM12_gtm_thr_tlsE 16
_ITM_cxa_allocate_exception _ZN3GTM10gtm_thread17record_allocationEPvPFvS1_E 36
_ITM_cxa_free_exception _ZN3GTM12_gtm_thr_tlsE 7
_ITM_cxa_free_exception _ZN3GTM10gtm_thread17forget_allocationEPvPFvS1_E 23
_ITM_cxa_throw __cxa_throw 5
_ITM_cxa_begin_catch _ZN3GTM12_gtm_thr_tlsE 1
_ITM_cxa_begin_catch _ZN3GTM11aa_tree_keyIjE5eraseEj 24
_ITM_cxa_begin_catch free 32
_ITM_cxa_begin_catch __cxa_begin_catch 52
_ITM_cxa_end_catch _ZN3GTM12_gtm_thr_tlsE 1
_ITM_cxa_end_catch __cxa_end_catch 16
_ZN3GTM10gtm_thread19init_cpp_exceptionsEv __cxa_get_globals 2
_ZN3GTM10gtm_thread19init_cpp_exceptionsEv __cxa_get_globals 18
_ZN3GTM10gtm_thread19init_cpp_exceptionsEv __cxa_get_globals 36
_ZN3GTM10gtm_thread21revert_cpp_exceptionsEPNS_18gtm_transaction_cpE __assert_fail 46
_ZN3GTM10gtm_thread21revert_cpp_exceptionsEPNS_18gtm_transaction_cpE __cxa_tm_cleanup 61
_ZN3GTM10gtm_thread21revert_cpp_exceptionsEPNS_18gtm_transaction_cpE __cxa_tm_cleanup 84
_ZN3GTM11gtm_undolog8rollbackEPNS_10gtm_threadEj _ZN3GTM17mask_stack_bottomEPNS_10gtm_threadE 25
GTM_LB _ZN3GTM12_gtm_thr_tlsE 15
GTM_LB _ZN3GTM6vectorIjLb1EE15resize_noinlineEj 57
_ZN3GTM6vectorIjLb1EE15resize_noinlineEj _ZN3GTM8xreallocEPvjb 70
_ITM_inTransaction gtm_serial_lock 2
_ITM_inTransaction _ZN3GTM12_gtm_thr_tlsE 18
_ITM_getTransactionId gtm_serial_lock 2
_ITM_getTransactionId _ZN3GTM12_gtm_thr_tlsE 18
_ITM_error abort 7
_ZN3GTM10gtm_thread21decide_begin_dispatchEj _ZN3GTM18dispatch_serialirrEv 23
_ZN3GTM10gtm_thread21decide_begin_dispatchEj gtm_serial_lock 76
_ZN3GTM10gtm_thread21decide_begin_dispatchEj _ZN3GTM10gtm_rwlock9read_lockEPNS_10gtm_threadE 84
_ZN3GTM10gtm_thread21decide_begin_dispatchEj gtm_serial_lock 108
_ZN3GTM10gtm_thread21decide_begin_dispatchEj _ZN3GTM10gtm_rwlock11read_unlockEPNS_10gtm_threadE 113
_ZN3GTM10gtm_thread21decide_begin_dispatchEj _ZN3GTM18dispatch_serialirrEv 118
_ZN3GTM10gtm_thread21decide_begin_dispatchEj gtm_serial_lock 132
_ZN3GTM10gtm_thread21decide_begin_dispatchEj _ZN3GTM10gtm_rwlock10write_lockEv 137
_ZN3GTM10gtm_thread21decide_retry_strategyENS_18gtm_restart_reasonE _ZN3GTM12_gtm_thr_tlsE 17
_ZN3GTM10gtm_thread21decide_retry_strategyENS_18gtm_restart_reasonE gtm_serial_lock 60
_ZN3GTM10gtm_thread21decide_retry_strategyENS_18gtm_restart_reasonE _ZN3GTM10gtm_rwlock11read_unlockEPNS_10gtm_threadE 68
_ZN3GTM10gtm_thread21decide_retry_strategyENS_18gtm_restart_reasonE gtm_serial_lock 75
_ZN3GTM10gtm_thread21decide_retry_strategyENS_18gtm_restart_reasonE _ZN3GTM10gtm_rwlock10write_lockEv 80
_ZN3GTM10gtm_thread21decide_retry_strategyENS_18gtm_restart_reasonE gtm_serial_lock 120
_ZN3GTM10gtm_thread21decide_retry_strategyENS_18gtm_restart_reasonE _ZN3GTM10gtm_rwlock12write_unlockEv 125
_ZN3GTM10gtm_thread21decide_retry_strategyENS_18gtm_restart_reasonE _ZN3GTM10gtm_thread21decide_begin_dispatchEj 136
_ZN3GTM10gtm_thread21decide_retry_strategyENS_18gtm_restart_reasonE gtm_serial_lock 199
_ZN3GTM10gtm_thread21decide_retry_strategyENS_18gtm_restart_reasonE _ZN3GTM10gtm_rwlock11read_unlockEPNS_10gtm_threadE 204
_ZN3GTM10gtm_thread21decide_retry_strategyENS_18gtm_restart_reasonE gtm_serial_lock 211
_ZN3GTM10gtm_thread21decide_retry_strategyENS_18gtm_restart_reasonE _ZN3GTM10gtm_rwlock10write_lockEv 216
_ZN3GTM10gtm_thread21decide_retry_strategyENS_18gtm_restart_reasonE _ZN3GTM18dispatch_serialirrEv 242
_ZN3GTM10gtm_thread21decide_retry_strategyENS_18gtm_restart_reasonE _ZN3GTM15dispatch_serialEv 254
_ZN3GTM10gtm_thread25number_of_threads_changedEjj getenv 66
_ZN3GTM10gtm_thread25number_of_threads_changedEjj isspace 93
_ZN3GTM10gtm_thread25number_of_threads_changedEjj strncmp 117
_ZN3GTM10gtm_thread25number_of_threads_changedEjj _ZN3GTM26dispatch_serialirr_onwriteEv 129
_ZN3GTM10gtm_thread25number_of_threads_changedEjj strncmp 153
_ZN3GTM10gtm_thread25number_of_threads_changedEjj _ZN3GTM18dispatch_serialirrEv 165
_ZN3GTM10gtm_thread25number_of_threads_changedEjj strncmp 189
_ZN3GTM10gtm_thread25number_of_threads_changedEjj _ZN3GTM15dispatch_serialEv 201
_ZN3GTM10gtm_thread25number_of_threads_changedEjj strncmp 222
_ZN3GTM10gtm_thread25number_of_threads_changedEjj _ZN3GTM14dispatch_gl_wtEv 234
_ZN3GTM10gtm_thread25number_of_threads_changedEjj strncmp 250
_ZN3GTM10gtm_thread25number_of_threads_changedEjj _ZN3GTM14dispatch_ml_wtEv 262
_ZN3GTM10gtm_thread25number_of_threads_changedEjj strncmp 283
_ZN3GTM10gtm_thread25number_of_threads_changedEjj _ZN3GTM9GTM_errorEPKcz 303
_ZN3GTM10gtm_thread25number_of_threads_changedEjj _ZN3GTM12dispatch_htmEv 315
_ZN3GTM10gtm_thread25number_of_threads_changedEjj isspace 338
_ZN3GTM10gtm_thread25number_of_threads_changedEjj _ZN3GTM18dispatch_serialirrEv 377
_ZN3GTM10gtm_thread25number_of_threads_changedEjj _ZN3GTM10gtm_thread20set_default_dispatchEPNS_12abi_dispatchE 386
_ZN3GTM10gtm_thread25number_of_threads_changedEjj _ZN3GTM18dispatch_serialirrEv 478
_ZN3GTM10gtm_thread25number_of_threads_changedEjj _ZN3GTM12dispatch_htmEv 557
_ZN3GTM10gtm_thread25number_of_threads_changedEjj _ZN3GTM14dispatch_ml_wtEv 564
_ZN3GTM10gtm_rwlock9read_lockEPNS_10gtm_threadE _ZN3GTM10futex_wakeEPSt6atomicIiEi 78
_ZN3GTM10gtm_rwlock9read_lockEPNS_10gtm_threadE _ZN3GTM10futex_waitEPSt6atomicIiEi 114
_ZN3GTM10gtm_rwlock11read_unlockEPNS_10gtm_threadE _ZN3GTM10futex_wakeEPSt6atomicIiEi 53
_ZN3GTM10gtm_rwlock12write_unlockEv _ZN3GTM10futex_wakeEPSt6atomicIiEi 48
_ZN3GTM10gtm_rwlock12write_unlockEv _ZN3GTM10futex_wakeEPSt6atomicIiEi 63
_ZN3GTM10gtm_rwlock18write_lock_genericEPNS_10gtm_threadE _ZN3GTM10futex_waitEPSt6atomicIiEi 77
_ZN3GTM10gtm_rwlock18write_lock_genericEPNS_10gtm_threadE _ZN3GTM10gtm_thread15list_of_threadsE 103
_ZN3GTM10gtm_rwlock18write_lock_genericEPNS_10gtm_threadE _ZN3GTM12_gtm_thr_tlsE 162
_ZN3GTM10gtm_rwlock18write_lock_genericEPNS_10gtm_threadE _ZN3GTM10gtm_rwlock12write_unlockEv 194
_ZN3GTM10gtm_rwlock18write_lock_genericEPNS_10gtm_threadE _ZN3GTM10futex_waitEPSt6atomicIiEi 241
_ZN3GTM10gtm_rwlock10write_lockEv _ZN3GTM10gtm_rwlock18write_lock_genericEPNS_10gtm_threadE 12
_ITM_addUserCommitAction _ZN3GTM12_gtm_thr_tlsE 11
_ITM_addUserCommitAction _ZN3GTM9GTM_fatalEPKcz 35
_ITM_addUserCommitAction _ZN3GTM6vectorINS_10gtm_thread11user_actionELb1EE4pushEv 47
_ITM_addUserUndoAction _ZN3GTM12_gtm_thr_tlsE 8
_ITM_addUserUndoAction _ZN3GTM6vectorINS_10gtm_thread11user_actionELb1EE4pushEv 25
_ZN3GTM6vectorINS_10gtm_thread11user_actionELb1EE15resize_noinlineEv _ZN3GTM8xreallocEPvjb 69
_ZN3GTM6vectorINS_10gtm_thread11user_actionELb1EE4pushEv _ZN3GTM6vectorINS_10gtm_thread11user_actionELb1EE15resize_noinlineEv 20
_ZN3GTML10gtm_verrorEPKcPc stderr 15
_ZN3GTML10gtm_verrorEPKcPc fputs 26
_ZN3GTML10gtm_verrorEPKcPc vfprintf 37
_ZN3GTML10gtm_verrorEPKcPc fputc 47
_ZN3GTM9GTM_fatalEPKcz exit 23
_ZN3GTM7xmallocEjb malloc 12
_ZN3GTM7xmallocEjb _ZN3GTM9GTM_fatalEPKcz 32
_ZN3GTM7xcallocEjb calloc 14
_ZN3GTM7xcallocEjb _ZN3GTM9GTM_fatalEPKcz 34
_ZN3GTM8xreallocEPvjb realloc 15
_ZN3GTM8xreallocEPvjb _ZN3GTM9GTM_fatalEPKcz 35
_ITM_beginTransaction GTM_begin_transaction 36
_ZN12_GLOBAL__N_118serialirr_dispatch8rollbackEPN3GTM18gtm_transaction_cpE abort 7
_ZN12_GLOBAL__N_126serialirr_onwrite_dispatch8rollbackEPN3GTM18gtm_transaction_cpE _ZN3GTM12_gtm_thr_tlsE 1
_ZN12_GLOBAL__N_126serialirr_onwrite_dispatch8rollbackEPN3GTM18gtm_transaction_cpE abort 21
_ZN12_GLOBAL__N_118serialirr_dispatch11memtransferEPvPKvjbN3GTM12abi_dispatch11ls_modifierES6_ memmove 44
_ZN12_GLOBAL__N_16htm_mg4initEv gtm_serial_lock 62
_ZN12_GLOBAL__N_16htm_mg4finiEv gtm_serial_lock 3
__cxa_pure_virtual __x86.get_pc_thunk.bx 5
__cxa_pure_virtual .LC0 20
__cxa_pure_virtual write 30
__cxa_pure_virtual _ZSt9terminatev 35
_ZN3GTM10gtm_thread14serialirr_modeEv _ZN3GTM12_gtm_thr_tlsE 11
_ZN3GTM10gtm_thread14serialirr_modeEv gtm_serial_lock 23
_ZN3GTM10gtm_thread14serialirr_modeEv gtm_serial_lock 41
_ZN3GTM10gtm_thread14serialirr_modeEv __assert_fail 110
_ZN3GTM10gtm_thread14serialirr_modeEv gtm_serial_lock 118
_ZN3GTM10gtm_thread14serialirr_modeEv _ZN3GTM10gtm_rwlock13write_upgradeEPNS_10gtm_threadE 123
_ZN3GTM10gtm_thread14serialirr_modeEv gtm_serial_lock 173
_ZN3GTM10gtm_thread14serialirr_modeEv _ZN3GTM10gtm_rwlock20write_upgrade_finishEPNS_10gtm_threadE 178
_ZN3GTM10gtm_thread14serialirr_modeEv _ZN3GTM10gtm_thread7restartENS_18gtm_restart_reasonEb 194
_ZN12_GLOBAL__N_126serialirr_onwrite_dispatch9pre_writeEv _ZN3GTM12_gtm_thr_tlsE 1
_ZN12_GLOBAL__N_126serialirr_onwrite_dispatch9pre_writeEv _ZN3GTM10gtm_thread14serialirr_modeEv 22
_ZN12_GLOBAL__N_126serialirr_onwrite_dispatch11memtransferEPvPKvjbN3GTM12abi_dispatch11ls_modifierES6_ memmove 67
_ITM_changeTransactionMode __assert_fail 31
_ITM_changeTransactionMode _ZN3GTM12_gtm_thr_tlsE 36
_ITM_changeTransactionMode _ZN3GTM10gtm_thread14serialirr_modeEv 47
_ZN12_GLOBAL__N_115serial_dispatch3logEPKvj _ZN3GTM12_gtm_thr_tlsE 15
_ZN12_GLOBAL__N_115serial_dispatch3logEPKvj _ZN3GTM6vectorIjLb1EE15resize_noinlineEj 57
_ZN12_GLOBAL__N_115serial_dispatch11memtransferEPvPKvjbN3GTM12abi_dispatch11ls_modifierES6_ memmove 81
_ZN12_GLOBAL__N_114gl_wt_dispatch20snapshot_most_recentEv _ZN3GTM12_gtm_thr_tlsE 8
_ZN12_GLOBAL__N_114gl_wt_dispatch9trycommitERj _ZN3GTM12_gtm_thr_tlsE 1
_ZN12_GLOBAL__N_114gl_wt_dispatch16begin_or_restartEv _ZN3GTM12_gtm_thr_tlsE 1
_ZN12_GLOBAL__N_114gl_wt_dispatch16begin_or_restartEv _ZN3GTM18gtm_spin_count_varE 40
_ZN12_GLOBAL__N_114gl_wt_dispatch16begin_or_restartEv _ZN3GTM18gtm_spin_count_varE 48
_ZN12_GLOBAL__N_114gl_wt_dispatch8validateEPN3GTM10gtm_threadE _ZN3GTM10gtm_thread7restartENS_18gtm_restart_reasonEb 28
_ZN12_GLOBAL__N_114gl_wt_dispatch8rollbackEPN3GTM18gtm_transaction_cpE _ZN3GTM12_gtm_thr_tlsE 10
_ZN12_GLOBAL__N_114gl_wt_dispatch9pre_writeEPKvjPN3GTM10gtm_threadE _ZN3GTM10gtm_thread7restartENS_18gtm_restart_reasonEb 60
_ZN12_GLOBAL__N_114gl_wt_dispatch9pre_writeEPKvjPN3GTM10gtm_threadE _ZN3GTM6vectorIjLb1EE15resize_noinlineEj 141
_ZN12_GLOBAL__N_114gl_wt_dispatch6memsetEPvijN3GTM12abi_dispatch11ls_modifierE _ZN3GTM12_gtm_thr_tlsE 19
_ZN12_GLOBAL__N_114gl_wt_dispatch11memtransferEPvPKvjbN3GTM12abi_dispatch11ls_modifierES6_ _ZN3GTM12_gtm_thr_tlsE 39
_ZN12_GLOBAL__N_114gl_wt_dispatch11memtransferEPvPKvjbN3GTM12abi_dispatch11ls_modifierES6_ memmove 116
_ZN12_GLOBAL__N_114gl_wt_dispatch7ITM_WCEEPCeS1_,_ZN12_GLOBAL__N_114gl_wt_dispatch9ITM_WaRCEEPCeS1_ _ZN3GTM12_gtm_thr_tlsE 6
_ZN12_GLOBAL__N_114gl_wt_dispatch4loadICeEET_PKS3_N3GTM12abi_dispatch11ls_modifierE _ZN3GTM12_gtm_thr_tlsE 18
_ZN12_GLOBAL__N_114gl_wt_dispatch4loadICeEET_PKS3_N3GTM12abi_dispatch11ls_modifierE _ZN3GTM12_gtm_thr_tlsE 69
_ZN12_GLOBAL__N_114gl_wt_dispatch7ITM_WCDEPCdS1_,_ZN12_GLOBAL__N_114gl_wt_dispatch9ITM_WaRCDEPCdS1_ _ZN3GTM12_gtm_thr_tlsE 15
_ZN12_GLOBAL__N_114gl_wt_dispatch4loadICdEET_PKS3_N3GTM12abi_dispatch11ls_modifierE _ZN3GTM12_gtm_thr_tlsE 18
_ZN12_GLOBAL__N_114gl_wt_dispatch4loadICdEET_PKS3_N3GTM12abi_dispatch11ls_modifierE _ZN3GTM12_gtm_thr_tlsE 66
_ZN12_GLOBAL__N_114gl_wt_dispatch4loadICfEET_PKS3_N3GTM12abi_dispatch11ls_modifierE _ZN3GTM12_gtm_thr_tlsE 16
_ZN12_GLOBAL__N_114gl_wt_dispatch4loadICfEET_PKS3_N3GTM12abi_dispatch11ls_modifierE _ZN3GTM12_gtm_thr_tlsE 67
_ZN12_GLOBAL__N_114gl_wt_dispatch6ITM_WEEPee _ZN3GTM12_gtm_thr_tlsE 6
_ZN12_GLOBAL__N_114gl_wt_dispatch4loadIeEET_PKS2_N3GTM12abi_dispatch11ls_modifierE _ZN3GTM12_gtm_thr_tlsE 15
_ZN12_GLOBAL__N_114gl_wt_dispatch4loadIeEET_PKS2_N3GTM12abi_dispatch11ls_modifierE _ZN3GTM12_gtm_thr_tlsE 46
_ZN12_GLOBAL__N_114gl_wt_dispatch8ITM_WaRDEPdd _ZN3GTM12_gtm_thr_tlsE 15
_ZN12_GLOBAL__N_114gl_wt_dispatch4loadIdEET_PKS2_N3GTM12abi_dispatch11ls_modifierE _ZN3GTM12_gtm_thr_tlsE 15
_ZN12_GLOBAL__N_114gl_wt_dispatch4loadIdEET_PKS2_N3GTM12abi_dispatch11ls_modifierE _ZN3GTM12_gtm_thr_tlsE 46
_ZN12_GLOBAL__N_114gl_wt_dispatch4loadIfEET_PKS2_N3GTM12abi_dispatch11ls_modifierE _ZN3GTM12_gtm_thr_tlsE 15
_ZN12_GLOBAL__N_114gl_wt_dispatch4loadIfEET_PKS2_N3GTM12abi_dispatch11ls_modifierE _ZN3GTM12_gtm_thr_tlsE 41
_ZN12_GLOBAL__N_114gl_wt_dispatch9ITM_WaRU8EPyy _ZN3GTM12_gtm_thr_tlsE 17
_ZN12_GLOBAL__N_114gl_wt_dispatch4loadIyEET_PKS2_N3GTM12abi_dispatch11ls_modifierE _ZN3GTM12_gtm_thr_tlsE 13
_ZN12_GLOBAL__N_114gl_wt_dispatch4loadIyEET_PKS2_N3GTM12abi_dispatch11ls_modifierE _ZN3GTM12_gtm_thr_tlsE 50
_ZN12_GLOBAL__N_114gl_wt_dispatch7ITM_WU4EPjj _ZN3GTM12_gtm_thr_tlsE 6
_ZN12_GLOBAL__N_114gl_wt_dispatch4loadIjEET_PKS2_N3GTM12abi_dispatch11ls_modifierE _ZN3GTM12_gtm_thr_tlsE 13
_ZN12_GLOBAL__N_114gl_wt_dispatch4loadIjEET_PKS2_N3GTM12abi_dispatch11ls_modifierE _ZN3GTM12_gtm_thr_tlsE 39
_ZN12_GLOBAL__N_114gl_wt_dispatch4loadItEET_PKS2_N3GTM12abi_dispatch11ls_modifierE _ZN3GTM12_gtm_thr_tlsE 13
_ZN12_GLOBAL__N_114gl_wt_dispatch4loadItEET_PKS2_N3GTM12abi_dispatch11ls_modifierE _ZN3GTM12_gtm_thr_tlsE 46
_ZN12_GLOBAL__N_114gl_wt_dispatch4loadIhEET_PKS2_N3GTM12abi_dispatch11ls_modifierE _ZN3GTM12_gtm_thr_tlsE 13
_ZN12_GLOBAL__N_114gl_wt_dispatch4loadIhEET_PKS2_N3GTM12abi_dispatch11ls_modifierE _ZN3GTM12_gtm_thr_tlsE 44
_ZN12_GLOBAL__N_114gl_wt_dispatch8ITM_WaREEPee _ZN3GTM12_gtm_thr_tlsE 6
_ZN12_GLOBAL__N_114gl_wt_dispatch7ITM_WCFEPCfS1_ _ZN3GTM12_gtm_thr_tlsE 6
_ZN12_GLOBAL__N_114gl_wt_dispatch9ITM_WaRCFEPCfS1_ _ZN3GTM12_gtm_thr_tlsE 6
_ZN12_GLOBAL__N_114gl_wt_dispatch6ITM_WDEPdd _ZN3GTM12_gtm_thr_tlsE 15
_ZN12_GLOBAL__N_114gl_wt_dispatch7ITM_WU8EPyy _ZN3GTM12_gtm_thr_tlsE 17
_ZN12_GLOBAL__N_114gl_wt_dispatch6ITM_WFEPff _ZN3GTM12_gtm_thr_tlsE 6
_ZN12_GLOBAL__N_114gl_wt_dispatch8ITM_WaRFEPff _ZN3GTM12_gtm_thr_tlsE 6
_ZN12_GLOBAL__N_114gl_wt_dispatch9ITM_WaRU4EPjj _ZN3GTM12_gtm_thr_tlsE 6
_ZN12_GLOBAL__N_114gl_wt_dispatch7ITM_WU2EPtt _ZN3GTM12_gtm_thr_tlsE 2
_ZN12_GLOBAL__N_114gl_wt_dispatch9ITM_WaRU2EPtt _ZN3GTM12_gtm_thr_tlsE 2
_ZN12_GLOBAL__N_114gl_wt_dispatch7ITM_WU1EPhh _ZN3GTM12_gtm_thr_tlsE 2
_ZN12_GLOBAL__N_114gl_wt_dispatch9ITM_WaRU1EPhh _ZN3GTM12_gtm_thr_tlsE 2
_ZN12_GLOBAL__N_15ml_mg4finiEv free 17
_ZN12_GLOBAL__N_15ml_mg4initEv _ZN3GTM7xcallocEjb 18
_ZN12_GLOBAL__N_114ml_wt_dispatch20snapshot_most_recentEv _ZN3GTM12_gtm_thr_tlsE 1
_ZN12_GLOBAL__N_114ml_wt_dispatch16begin_or_restartEv _ZN3GTM12_gtm_thr_tlsE 1
_ZN12_GLOBAL__N_114ml_wt_dispatch9trycommitERj _ZN3GTM12_gtm_thr_tlsE 8
_ZN12_GLOBAL__N_114ml_wt_dispatch6extendEPN3GTM10gtm_threadE _ZN3GTM10gtm_thread7restartENS_18gtm_restart_reasonEb 29
_ZN12_GLOBAL__N_114ml_wt_dispatch8rollbackEPN3GTM18gtm_transaction_cpE _ZN3GTM12_gtm_thr_tlsE 13
_ZN12_GLOBAL__N_114ml_wt_dispatch9post_loadEPN3GTM10gtm_threadEPNS1_15gtm_rwlog_entryE _ZN3GTM10gtm_thread7restartENS_18gtm_restart_reasonEb 34
_ZN12_GLOBAL__N_114ml_wt_dispatch9pre_writeEPN3GTM10gtm_threadEPKvj _ZN3GTM6vectorINS_15gtm_rwlog_entryELb1EE4pushEv 129
_ZN12_GLOBAL__N_114ml_wt_dispatch9pre_writeEPN3GTM10gtm_threadEPKvj _ZN3GTM6vectorIjLb1EE15resize_noinlineEj 206
_ZN12_GLOBAL__N_114ml_wt_dispatch9pre_writeEPN3GTM10gtm_threadEPKvj _ZN3GTM10gtm_thread7restartENS_18gtm_restart_reasonEb 275
_ZN12_GLOBAL__N_114ml_wt_dispatch9pre_writeEPKvj _ZN3GTM12_gtm_thr_tlsE 9
_ZN12_GLOBAL__N_114ml_wt_dispatch8pre_loadEPN3GTM10gtm_threadEPKvj _ZN3GTM6vectorINS_15gtm_rwlog_entryELb1EE4pushEv 121
_ZN12_GLOBAL__N_114ml_wt_dispatch8pre_loadEPN3GTM10gtm_threadEPKvj _ZN3GTM10gtm_thread7restartENS_18gtm_restart_reasonEb 169
_ZN12_GLOBAL__N_114ml_wt_dispatch11memtransferEPvPKvjbN3GTM12abi_dispatch11ls_modifierES6_ _ZN3GTM12_gtm_thr_tlsE 52
_ZN12_GLOBAL__N_114ml_wt_dispatch11memtransferEPvPKvjbN3GTM12abi_dispatch11ls_modifierES6_ _ZN3GTM12_gtm_thr_tlsE 84
_ZN12_GLOBAL__N_114ml_wt_dispatch11memtransferEPvPKvjbN3GTM12abi_dispatch11ls_modifierES6_ _ZN3GTM12_gtm_thr_tlsE 147
_ZN12_GLOBAL__N_114ml_wt_dispatch11memtransferEPvPKvjbN3GTM12abi_dispatch11ls_modifierES6_ memmove 196
_ZN12_GLOBAL__N_114ml_wt_dispatch4loadICeEET_PKS3_N3GTM12abi_dispatch11ls_modifierE _ZN3GTM12_gtm_thr_tlsE 60
_ZN12_GLOBAL__N_114ml_wt_dispatch4loadICdEET_PKS3_N3GTM12abi_dispatch11ls_modifierE _ZN3GTM12_gtm_thr_tlsE 60
_ZN12_GLOBAL__N_114ml_wt_dispatch4loadICfEET_PKS3_N3GTM12abi_dispatch11ls_modifierE _ZN3GTM12_gtm_thr_tlsE 41
_ZN12_GLOBAL__N_114ml_wt_dispatch4loadIeEET_PKS2_N3GTM12abi_dispatch11ls_modifierE _ZN3GTM12_gtm_thr_tlsE 37
_ZN12_GLOBAL__N_114ml_wt_dispatch4loadIdEET_PKS2_N3GTM12abi_dispatch11ls_modifierE _ZN3GTM12_gtm_thr_tlsE 37
_ZN12_GLOBAL__N_114ml_wt_dispatch4loadIfEET_PKS2_N3GTM12abi_dispatch11ls_modifierE _ZN3GTM12_gtm_thr_tlsE 32
_ZN12_GLOBAL__N_114ml_wt_dispatch4loadIyEET_PKS2_N3GTM12abi_dispatch11ls_modifierE _ZN3GTM12_gtm_thr_tlsE 41
_ZN12_GLOBAL__N_114ml_wt_dispatch4loadIjEET_PKS2_N3GTM12abi_dispatch11ls_modifierE _ZN3GTM12_gtm_thr_tlsE 29
_ZN12_GLOBAL__N_114ml_wt_dispatch4loadItEET_PKS2_N3GTM12abi_dispatch11ls_modifierE _ZN3GTM12_gtm_thr_tlsE 35
_ZN12_GLOBAL__N_114ml_wt_dispatch4loadIhEET_PKS2_N3GTM12abi_dispatch11ls_modifierE _ZN3GTM12_gtm_thr_tlsE 34
_ZN3GTM6vectorINS_15gtm_rwlog_entryELb1EE15resize_noinlineEv _ZN3GTM8xreallocEPvjb 71
_ZN3GTM6vectorINS_15gtm_rwlog_entryELb1EE4pushEv _ZN3GTM6vectorINS_15gtm_rwlog_entryELb1EE15resize_noinlineEv 20
_ITM_RM64 _ZN3GTM12_gtm_thr_tlsE 8
_ITM_RaRM64 _ZN3GTM12_gtm_thr_tlsE 8
_ITM_RaWM64 _ZN3GTM12_gtm_thr_tlsE 8
_ITM_RfWM64 _ZN3GTM12_gtm_thr_tlsE 8
_ITM_WM64 _ZN3GTM12_gtm_thr_tlsE 12
_ITM_WaRM64 _ZN3GTM12_gtm_thr_tlsE 12
_ITM_WaWM64 _ZN3GTM12_gtm_thr_tlsE 12
_ITM_RM128 _ZN3GTM12_gtm_thr_tlsE 8
_ITM_RaRM128 _ZN3GTM12_gtm_thr_tlsE 8
_ITM_RaWM128 _ZN3GTM12_gtm_thr_tlsE 8
_ITM_RfWM128 _ZN3GTM12_gtm_thr_tlsE 8
_ITM_WM128 _ZN3GTM12_gtm_thr_tlsE 12
_ITM_WaRM128 _ZN3GTM12_gtm_thr_tlsE 12
_ITM_WaWM128 _ZN3GTM12_gtm_thr_tlsE 12
_ITM_LM64 GTM_LB 10
_ITM_LM128 GTM_LB 10
_ITM_RM256 _ZN3GTM12_gtm_thr_tlsE 19
_ITM_RaRM256 _ZN3GTM12_gtm_thr_tlsE 19
_ITM_RaWM256 _ZN3GTM12_gtm_thr_tlsE 19
_ITM_RfWM256 _ZN3GTM12_gtm_thr_tlsE 19
_ITM_WM256 _ZN3GTM12_gtm_thr_tlsE 23
_ITM_WaRM256 _ZN3GTM12_gtm_thr_tlsE 23
_ITM_WaWM256 _ZN3GTM12_gtm_thr_tlsE 23
_ITM_LM256 GTM_LB 10
_ZN3GTM10futex_waitEPSt6atomicIiEi strerror 99
_ZN3GTM10futex_waitEPSt6atomicIiEi _ZN3GTM9GTM_fatalEPKcz 112
_ZN3GTM10futex_wakeEPSt6atomicIiEi strerror 77
_ZN3GTM10futex_wakeEPSt6atomicIiEi _ZN3GTM9GTM_fatalEPKcz 90
compare fabsq 47
compare fabsq 104
compare __lttf2 168
compare __netf2 232
__quadmath_x2y2m1q __multf3 133
__quadmath_x2y2m1q fmaq 249
__quadmath_x2y2m1q __multf3 362
__quadmath_x2y2m1q fmaq 502
__quadmath_x2y2m1q __getf2 593
__quadmath_x2y2m1q __subtf3 669
__quadmath_x2y2m1q __subtf3 767
__quadmath_x2y2m1q __subtf3 857
__quadmath_x2y2m1q qsort 908
__quadmath_x2y2m1q __addtf3 1081
__quadmath_x2y2m1q __subtf3 1166
__quadmath_x2y2m1q __addtf3 1243
__quadmath_x2y2m1q qsort 1292
__quadmath_x2y2m1q __addtf3 1372
__quadmath_x2y2m1q __addtf3 1437
__quadmath_x2y2m1q __addtf3 1505
acoshq __subtf3 112
acoshq __divtf3 165
acoshq __addtf3 242
acoshq logq 304
acoshq __addtf3 376
acoshq __multf3 574
acoshq __subtf3 649
acoshq sqrtq 689
acoshq __addtf3 781
acoshq __addtf3 891
acoshq __divtf3 960
acoshq __subtf3 1037
acoshq logq 1077
acoshq __subtf3 1145
acoshq __addtf3 1210
acoshq __multf3 1293
acoshq __addtf3 1364
acoshq sqrtq 1404
acoshq __addtf3 1472
acoshq log1pq 1512
fmodq __multf3 267
fmodq __divtf3 317
acosq __subtf3 211
acosq __divtf3 261
acosq __multf3 401
acosq __multf3 476
acosq __subtf3 545
acosq __multf3 604
acosq __addtf3 673
acosq __multf3 732
acosq __subtf3 804
acosq __multf3 872
acosq __addtf3 956
acosq __multf3 1030
acosq __subtf3 1114
acosq __multf3 1188
acosq __addtf3 1272
acosq __multf3 1346
acosq __subtf3 1430
acosq __multf3 1504
acosq __addtf3 1588
acosq __multf3 1662
acosq __subtf3 1746
acosq __multf3 1820
acosq __multf3 1924
acosq __subtf3 2038
acosq __multf3 2112
acosq __addtf3 2196
acosq __multf3 2270
acosq __subtf3 2354
acosq __multf3 2428
acosq __addtf3 2512
acosq __multf3 2586
acosq __subtf3 2670
acosq __multf3 2744
acosq __addtf3 2828
acosq __multf3 2902
acosq __subtf3 2986
acosq __multf3 3060
acosq __addtf3 3144
acosq __multf3 3218
acosq __subtf3 3302
acosq __divtf3 3394
acosq __addtf3 3486
acosq __subtf3 3570
acosq __subtf3 3651
acosq __subtf3 3750
acosq __multf3 3825
acosq __addtf3 3894
acosq __multf3 3953
acosq __addtf3 4022
acosq __multf3 4081
acosq __subtf3 4153
acosq __multf3 4221
acosq __subtf3 4305
acosq __multf3 4379
acosq __addtf3 4463
acosq __multf3 4537
acosq __addtf3 4621
acosq __multf3 4695
acosq __subtf3 4779
acosq __multf3 4853
acosq __addtf3 4937
acosq __multf3 5011
acosq __subtf3 5095
acosq __multf3 5169
acosq __addtf3 5253
acosq __multf3 5327
acosq __subtf3 5441
acosq __multf3 5515
acosq __subtf3 5599
acosq __multf3 5673
acosq __addtf3 5757
acosq __multf3 5831
acosq __addtf3 5915
acosq __multf3 5989
acosq __subtf3 6073
acosq __multf3 6147
acosq __subtf3 6231
acosq __multf3 6305
acosq __addtf3 6389
acosq __multf3 6463
acosq __subtf3 6547
acosq __multf3 6621
acosq __addtf3 6705
acosq __multf3 6779
acosq __subtf3 6863
acosq __divtf3 6955
acosq __subtf3 7051
acosq __addtf3 7113
acosq __subtf3 7227
acosq __multf3 7302
acosq __addtf3 7371
acosq __multf3 7436
acosq __addtf3 7511
acosq __multf3 7570
acosq __subtf3 7642
acosq __multf3 7710
acosq __subtf3 7794
acosq __multf3 7868
acosq __addtf3 7952
acosq __multf3 8026
acosq __addtf3 8110
acosq __multf3 8184
acosq __subtf3 8268
acosq __multf3 8342
acosq __addtf3 8426
acosq __multf3 8500
acosq __subtf3 8584
acosq __multf3 8658
acosq __addtf3 8742
acosq __multf3 8816
acosq __subtf3 8927
acosq __multf3 8986
acosq __subtf3 9058
acosq __multf3 9120
acosq __addtf3 9189
acosq __multf3 9251
acosq __addtf3 9329
acosq __multf3 9403
acosq __subtf3 9487
acosq __multf3 9561
acosq __subtf3 9645
acosq __multf3 9719
acosq __addtf3 9803
acosq __multf3 9877
acosq __subtf3 9961
acosq __multf3 10035
acosq __addtf3 10119
acosq __multf3 10193
acosq __subtf3 10277
acosq __divtf3 10385
acosq __subtf3 10454
acosq __divtf3 10527
acosq __addtf3 10596
acosq __subtf3 10695
acosq __multf3 10764
acosq sqrtq 10810
acosq __subtf3 10934
acosq __multf3 11051
acosq __subtf3 11110
acosq __addtf3 11227
acosq __multf3 11304
acosq __subtf3 11387
acosq __multf3 11512
acosq __subtf3 11589
acosq __multf3 11688
acosq __subtf3 11757
acosq __multf3 11819
acosq __addtf3 11888
acosq __multf3 11947
acosq __subtf3 12019
acosq __multf3 12087
acosq __addtf3 12171
acosq __multf3 12245
acosq __subtf3 12329
acosq __multf3 12403
acosq __addtf3 12487
acosq __multf3 12561
acosq __subtf3 12645
acosq __multf3 12719
acosq __addtf3 12803
acosq __multf3 12877
acosq __subtf3 12961
acosq __multf3 13035
acosq __multf3 13127
acosq __subtf3 13241
acosq __multf3 13315
acosq __addtf3 13399
acosq __multf3 13473
acosq __subtf3 13557
acosq __multf3 13631
acosq __addtf3 13715
acosq __multf3 13789
acosq __subtf3 13873
acosq __multf3 13947
acosq __addtf3 14031
acosq __multf3 14105
acosq __subtf3 14189
acosq __multf3 14263
acosq __addtf3 14347
acosq __multf3 14421
acosq __subtf3 14505
acosq __divtf3 14597
acosq __addtf3 14719
acosq __divtf3 14811
acosq __addtf3 14885
acosq __addtf3 14977
acosq __subtf3 15077
acosq __addtf3 15146
acosq __addtf3 15205
frexpq __multf3 166
__quadmath_rem_pio2q __subtf3 309
__quadmath_rem_pio2q __subtf3 411
__quadmath_rem_pio2q __subtf3 520
__quadmath_rem_pio2q __subtf3 604
__quadmath_rem_pio2q __addtf3 727
__quadmath_rem_pio2q __addtf3 829
__quadmath_rem_pio2q __subtf3 938
__quadmath_rem_pio2q __addtf3 1022
__quadmath_rem_pio2q __subtf3 1153
__quadmath_rem_pio2q scalbn 1782
__quadmath_rem_pio2q floor 1802
__quadmath_rem_pio2q scalbn 2163
__quadmath_rem_pio2q scalbn 2386
__quadmath_rem_pio2q scalbn 2575
__quadmath_rem_pio2q __extenddftf2 2927
__quadmath_rem_pio2q __extenddftf2 2995
__quadmath_rem_pio2q __addtf3 3084
__quadmath_rem_pio2q __extenddftf2 3147
__quadmath_rem_pio2q __addtf3 3294
__quadmath_rem_pio2q __subtf3 3403
__quadmath_rem_pio2q __subtf3 3489
__quadmath_rem_pio2q __addtf3 3616
__quadmath_rem_pio2q __subtf3 3747
__quadmath_rem_pio2q __subtf3 3833
asinhq __addtf3 97
asinhq __addtf3 204
asinhq __gttf2 271
asinhq logq 357
asinhq __addtf3 429
asinhq __multf3 545
asinhq __addtf3 611
asinhq sqrtq 651
asinhq __addtf3 731
asinhq __divtf3 797
asinhq __addtf3 904
asinhq __addtf3 969
asinhq logq 1009
asinhq __multf3 1061
asinhq __addtf3 1181
asinhq sqrtq 1221
asinhq __addtf3 1296
asinhq __divtf3 1361
asinhq __addtf3 1435
asinhq log1pq 1475
hypotq __addtf3 364
hypotq __addtf3 558
hypotq __multf3 987
hypotq __multf3 1109
hypotq __subtf3 1351
hypotq __lttf2 1474
hypotq __multf3 1568
hypotq __multf3 1693
hypotq __subtf3 1802
hypotq __addtf3 1911
hypotq __multf3 1991
hypotq __subtf3 2077
hypotq __subtf3 2163
hypotq __multf3 2320
hypotq __multf3 2451
hypotq __addtf3 2576
hypotq __subtf3 2655
hypotq __multf3 2732
hypotq __subtf3 2838
hypotq __multf3 2920
hypotq __addtf3 2994
hypotq __subtf3 3086
hypotq __subtf3 3178
hypotq sqrtq 3230
hypotq __multf3 3346
remainderq __multf3 185
remainderq __divtf3 235
remainderq __multf3 390
remainderq __divtf3 440
remainderq __addtf3 564
remainderq fmodq 623
remainderq __multf3 744
remainderq fabsq 809
remainderq fabsq 861
remainderq __addtf3 951
remainderq __lttf2 1014
remainderq __subtf3 1087
remainderq __addtf3 1143
remainderq __letf2 1206
remainderq __subtf3 1276
remainderq __multf3 1371
remainderq __gttf2 1449
remainderq __subtf3 1519
remainderq __letf2 1585
remainderq __subtf3 1651
asinq __multf3 184
asinq __multf3 283
asinq __addtf3 348
asinq __subtf3 461
asinq __divtf3 511
asinq __addtf3 654
asinq __gttf2 721
asinq __multf3 846
asinq __subtf3 985
asinq __multf3 1069
asinq __subtf3 1138
asinq __multf3 1197
asinq __subtf3 1266
asinq __multf3 1325
asinq __addtf3 1397
asinq __multf3 1465
asinq __addtf3 1549
asinq __multf3 1623
asinq __subtf3 1707
asinq __multf3 1781
asinq __subtf3 1865
asinq __multf3 1939
asinq __addtf3 2023
asinq __multf3 2097
asinq __subtf3 2181
asinq __multf3 2255
asinq __addtf3 2339
asinq __multf3 2413
asinq __subtf3 2497
asinq __multf3 2571
asinq __subtf3 2685
asinq __multf3 2759
asinq __subtf3 2843
asinq __multf3 2917
asinq __addtf3 3001
asinq __multf3 3075
asinq __addtf3 3159
asinq __multf3 3233
asinq __subtf3 3317
asinq __multf3 3391
asinq __subtf3 3475
asinq __multf3 3549
asinq __addtf3 3633
asinq __multf3 3707
asinq __subtf3 3791
asinq __multf3 3865
asinq __addtf3 3949
asinq __multf3 4023
asinq __subtf3 4107
asinq __divtf3 4199
asinq __addtf3 4283
asinq __subtf3 4363
asinq __multf3 4432
asinq __multf3 4577
asinq __subtf3 4646
asinq __multf3 4711
asinq __addtf3 4780
asinq __multf3 4845
asinq __subtf3 4917
asinq __multf3 4991
asinq __addtf3 5075
asinq __multf3 5155
asinq __subtf3 5239
asinq __multf3 5319
asinq __addtf3 5403
asinq __multf3 5489
asinq __subtf3 5579
asinq __multf3 5659
asinq __addtf3 5743
asinq __multf3 5823
asinq __subtf3 5907
asinq __multf3 5987
asinq __subtf3 6104
asinq __multf3 6169
asinq __addtf3 6238
asinq __multf3 6303
asinq __subtf3 6372
asinq __multf3 6440
asinq __addtf3 6518
asinq __multf3 6598
asinq __subtf3 6682
asinq __multf3 6762
asinq __addtf3 6846
asinq __multf3 6926
asinq __subtf3 7010
asinq __multf3 7090
asinq __addtf3 7174
asinq __multf3 7254
asinq __subtf3 7338
asinq __divtf3 7470
asinq __multf3 7541
asinq __addtf3 7612
asinq sqrtq 7698
asinq __divtf3 7839
asinq __multf3 7910
asinq __addtf3 7981
asinq __addtf3 8034
asinq __subtf3 8103
asinq __subtf3 8175
asinq __divtf3 8281
asinq __addtf3 8394
asinq __multf3 8471
asinq __multf3 8570
asinq __subtf3 8635
asinq __addtf3 8738
asinq __divtf3 8809
asinq __addtf3 8862
asinq __subtf3 8934
asinq __subtf3 9020
asinq __addtf3 9128
asinq __subtf3 9212
asinq __subtf3 9298
asinq __subtf3 9379
rintq __addtf3 182
rintq __subtf3 244
rintq __addtf3 356
rintq __addtf3 504
rintq __subtf3 566
atan2q __addtf3 361
atan2q atanq 448
atan2q __divtf3 1025
atan2q fabsq 1062
atan2q atanq 1096
atan2q __subtf3 1241
atan2q __subtf3 1310
atan2q __subtf3 1375
atan2q __subtf3 1444
roundq __addtf3 171
roundq __gttf2 238
roundq __addtf3 445
roundq __gttf2 512
roundq __addtf3 674
roundq __addtf3 825
roundq __gttf2 892
atanhq __eqtf2 112
atanhq __divtf3 185
atanhq __subtf3 234
atanhq __divtf3 287
atanhq __addtf3 392
atanhq __gttf2 459
atanhq __addtf3 564
atanhq __multf3 683
atanhq __subtf3 788
atanhq __divtf3 865
atanhq __addtf3 939
atanhq log1pq 979
atanhq __multf3 1051
atanhq __addtf3 1112
atanhq __subtf3 1214
atanhq __divtf3 1288
atanhq log1pq 1328
atanhq __multf3 1400
scalblnq __multf3 168
scalblnq __addtf3 289
scalblnq copysignq 373
scalblnq __multf3 442
scalblnq copysignq 569
scalblnq __multf3 638
scalblnq copysignq 771
scalblnq __multf3 840
scalblnq __multf3 950
atanq __addtf3 126
atanq __addtf3 302
atanq __gttf2 369
atanq __divtf3 487
atanq __multf3 601
atanq __addtf3 670
atanq __fixtfsi 705
atanq __floatsitf 723
atanq __multf3 795
atanq __subtf3 914
atanq __multf3 1027
atanq __addtf3 1096
atanq __divtf3 1173
atanq __multf3 1280
atanq __multf3 1373
atanq __subtf3 1442
atanq __multf3 1507
atanq __subtf3 1576
atanq __multf3 1641
atanq __subtf3 1713
atanq __multf3 1787
atanq __subtf3 1871
atanq __multf3 1999
atanq __multf3 2091
atanq __addtf3 2211
atanq __multf3 2291
atanq __addtf3 2375
atanq __multf3 2455
atanq __addtf3 2539
atanq __multf3 2619
atanq __addtf3 2703
atanq __multf3 2783
atanq __addtf3 2867
atanq __divtf3 2959
atanq __addtf3 3048
atanq __addtf3 3137
neval __multf3 113
neval __addtf3 178
deval __addtf3 108
deval __multf3 190
deval __addtf3 254
j0q finiteq 46
j0q __netf2 98
j0q __eqtf2 223
j0q fabsq 299
j0q __letf2 412
j0q __multf3 515
j0q __multf3 574
j0q __multf3 732
j0q __divtf3 890
j0q __multf3 992
j0q __subtf3 1066
j0q __addtf3 1135
j0q __divtf3 1247
j0q __multf3 1372
j0q __letf2 1487
j0q __letf2 1577
j0q __letf2 1667
j0q __divtf3 1878
j0q __divtf3 2114
j0q __divtf3 2319
j0q __divtf3 2555
j0q __letf2 2639
j0q __divtf3 2850
j0q __divtf3 3086
j0q __divtf3 3291
j0q __divtf3 3527
j0q __letf2 3611
j0q __letf2 3701
j0q __divtf3 3912
j0q __divtf3 4148
j0q __divtf3 4353
j0q __divtf3 4589
j0q __letf2 4673
j0q __divtf3 4884
j0q __divtf3 5120
j0q __divtf3 5325
j0q __divtf3 5561
j0q __multf3 5674
j0q __addtf3 5743
j0q __multf3 5868
j0q __multf3 5927
j0q __multf3 6026
j0q __subtf3 6085
j0q sincosq 6179
j0q __addtf3 6325
j0q cosq 6365
j0q __multf3 6474
j0q __lttf2 6541
j0q __subtf3 6626
j0q __divtf3 6739
j0q __addtf3 6821
j0q __divtf3 6910
j0q sqrtq 7025
j0q __multf3 7144
j0q __multf3 7251
j0q __subtf3 7316
j0q __multf3 7385
j0q __divtf3 7465
y0q finiteq 88
y0q __netf2 186
y0q __letf2 347
y0q __lttf2 437
y0q __multf3 532
y0q __divtf3 601
y0q __subtf3 716
y0q fabsq 802
y0q __letf2 879
y0q logq 951
y0q __multf3 1020
y0q __subtf3 1089
y0q __letf2 1184
y0q __multf3 1248
y0q __divtf3 1479
y0q logq 1564
y0q j0q 1646
y0q __multf3 1751
y0q __multf3 1816
y0q __addtf3 1893
y0q __divtf3 1981
y0q __multf3 2103
y0q __letf2 2218
y0q __letf2 2308
y0q __letf2 2398
y0q __divtf3 2616
y0q __divtf3 2859
y0q __divtf3 3071
y0q __divtf3 3314
y0q __letf2 3398
y0q __divtf3 3616
y0q __divtf3 3859
y0q __divtf3 4071
y0q __divtf3 4314
y0q __letf2 4398
y0q __letf2 4488
y0q __divtf3 4706
y0q __divtf3 4949
y0q __divtf3 5161
y0q __divtf3 5404
y0q __letf2 5488
y0q __divtf3 5706
y0q __divtf3 5949
y0q __divtf3 6161
y0q __divtf3 6404
y0q __multf3 6517
y0q __addtf3 6586
y0q __multf3 6711
y0q __multf3 6770
y0q __multf3 6869
y0q __subtf3 6928
y0q sincosq 7022
y0q __addtf3 7168
y0q cosq 7208
y0q __multf3 7317
y0q __lttf2 7384
y0q __subtf3 7469
y0q __divtf3 7558
y0q __addtf3 7670
y0q __divtf3 7783
y0q sqrtq 7868
y0q __multf3 7987
y0q __multf3 8094
y0q __addtf3 8159
y0q __multf3 8228
y0q __divtf3 8308
scalbnq __multf3 168
scalbnq __addtf3 289
scalbnq copysignq 373
scalbnq __multf3 442
scalbnq copysignq 569
scalbnq __multf3 638
scalbnq copysignq 771
scalbnq __multf3 840
scalbnq __multf3 950
cbrtq finiteq 88
cbrtq __addtf3 187
cbrtq __eqtf2 300
cbrtq __gttf2 429
cbrtq frexpq 525
cbrtq __multf3 603
cbrtq __subtf3 672
cbrtq __multf3 731
cbrtq __addtf3 800
cbrtq __multf3 859
cbrtq __subtf3 931
cbrtq __multf3 999
cbrtq __addtf3 1083
cbrtq __multf3 1157
cbrtq __addtf3 1238
cbrtq __multf3 1369
cbrtq __multf3 1446
cbrtq __multf3 1570
cbrtq __multf3 1643
cbrtq ldexpq 1711
cbrtq __multf3 1776
cbrtq __divtf3 1859
cbrtq __subtf3 1924
cbrtq __multf3 1993
cbrtq __subtf3 2055
cbrtq __multf3 2117
cbrtq __divtf3 2197
cbrtq __subtf3 2262
cbrtq __multf3 2331
cbrtq __subtf3 2393
cbrtq __multf3 2455
cbrtq __divtf3 2535
cbrtq __subtf3 2612
cbrtq __multf3 2681
cbrtq __subtf3 2743
j1q finiteq 88
j1q __netf2 186
j1q __eqtf2 350
j1q fabsq 413
j1q __letf2 526
j1q __multf3 626
j1q __multf3 748
j1q __multf3 896
j1q __divtf3 1044
j1q __multf3 1146
j1q __addtf3 1211
j1q __lttf2 1308
j1q __divtf3 1394
j1q __multf3 1516
j1q __letf2 1631
j1q __letf2 1721
j1q __letf2 1811
j1q __divtf3 2029
j1q __divtf3 2272
j1q __divtf3 2484
j1q __divtf3 2727
j1q __letf2 2811
j1q __divtf3 3029
j1q __divtf3 3272
j1q __divtf3 3484
j1q __divtf3 3727
j1q __letf2 3811
j1q __letf2 3901
j1q __divtf3 4119
j1q __divtf3 4362
j1q __divtf3 4574
j1q __divtf3 4817
j1q __letf2 4901
j1q __divtf3 5119
j1q __divtf3 5362
j1q __divtf3 5574
j1q __divtf3 5817
j1q __multf3 5930
j1q __addtf3 5999
j1q __multf3 6106
j1q __multf3 6183
j1q __multf3 6282
j1q __addtf3 6341
j1q sincosq 6435
j1q __addtf3 6581
j1q cosq 6621
j1q __multf3 6725
j1q __gttf2 6792
j1q __subtf3 6882
j1q __divtf3 6995
j1q __subtf3 7077
j1q __divtf3 7166
j1q sqrtq 7281
j1q __multf3 7400
j1q __multf3 7507
j1q __subtf3 7572
j1q __multf3 7641
j1q __divtf3 7721
j1q __lttf2 7824
y1q finiteq 64
y1q __netf2 138
y1q __letf2 275
y1q __lttf2 353
y1q __multf3 436
y1q __divtf3 505
y1q __subtf3 604
y1q fabsq 680
y1q __letf2 793
y1q __divtf3 869
y1q __letf2 982
y1q __multf3 1082
y1q __multf3 1254
y1q __divtf3 1426
y1q __divtf3 1540
y1q __addtf3 1623
y1q logq 1696
y1q j1q 1766
y1q __multf3 1871
y1q __multf3 1939
y1q __addtf3 2016
y1q __divtf3 2128
y1q __multf3 2250
y1q __letf2 2365
y1q __letf2 2455
y1q __letf2 2545
y1q __divtf3 2763
y1q __divtf3 3006
y1q __divtf3 3218
y1q __divtf3 3461
y1q __letf2 3545
y1q __divtf3 3763
y1q __divtf3 4006
y1q __divtf3 4218
y1q __divtf3 4461
y1q __letf2 4545
y1q __letf2 4635
y1q __divtf3 4853
y1q __divtf3 5096
y1q __divtf3 5308
y1q __divtf3 5551
y1q __letf2 5635
y1q __divtf3 5853
y1q __divtf3 6096
y1q __divtf3 6308
y1q __divtf3 6551
y1q __multf3 6664
y1q __addtf3 6733
y1q __multf3 6840
y1q __multf3 6917
y1q __multf3 7016
y1q __addtf3 7075
y1q sincosq 7169
y1q __addtf3 7315
y1q cosq 7355
y1q __multf3 7459
y1q __gttf2 7526
y1q __subtf3 7616
y1q __divtf3 7705
y1q __subtf3 7817
y1q __divtf3 7930
y1q sqrtq 8015
y1q __multf3 8134
y1q __multf3 8241
y1q __addtf3 8306
y1q __multf3 8375
y1q __divtf3 8455
ceilq __addtf3 187
ceilq __gttf2 254
ceilq __addtf3 483
ceilq __gttf2 550
ceilq __addtf3 738
ceilq __addtf3 892
ceilq __gttf2 959
jnq __addtf3 108
jnq j0q 195
jnq j1q 256
jnq fabsq 332
jnq __eqtf2 433
jnq __floatsitf 471
jnq __getf2 588
jnq sincosq 666
jnq __addtf3 777
jnq __subtf3 832
jnq __subtf3 896
jnq __subtf3 948
jnq sqrtq 1021
jnq __multf3 1120
jnq __divtf3 1191
jnq j0q 1259
jnq j1q 1335
jnq __floatsitf 1398
jnq __divtf3 1472
jnq __multf3 1549
jnq __subtf3 1628
jnq __multf3 1899
jnq __floatsitf 2028
jnq __multf3 2102
jnq __multf3 2206
jnq __divtf3 2296
jnq __floatsitf 2336
jnq __divtf3 2410
jnq __divtf3 2518
jnq __addtf3 2640
jnq __multf3 2738
jnq __subtf3 2807
jnq __lttf2 2944
jnq __addtf3 3038
jnq __multf3 3136
jnq __subtf3 3215
jnq __floatsitf 3388
jnq __divtf3 3459
jnq __subtf3 3536
jnq __divtf3 3602
jnq __multf3 3738
jnq fabsq 3775
jnq logq 3809
jnq __multf3 3886
jnq __lttf2 3953
jnq __floatsitf 3987
jnq __multf3 4176
jnq __divtf3 4244
jnq __subtf3 4321
jnq __subtf3 4480
jnq __floatsitf 4628
jnq __multf3 4850
jnq __divtf3 4923
jnq __subtf3 4997
jnq __subtf3 5099
jnq __gttf2 5202
jnq __divtf3 5290
jnq __divtf3 5400
jnq j0q 5623
jnq j1q 5699
jnq fabsq 5763
jnq fabsq 5827
jnq __getf2 5900
jnq __multf3 6000
jnq __divtf3 6077
jnq __multf3 6153
jnq __divtf3 6230
ynq __addtf3 173
ynq __letf2 251
ynq __eqtf2 335
ynq __subtf3 420
ynq __multf3 539
ynq __divtf3 608
ynq y0q 726
ynq y1q 813
ynq __floatsitf 852
ynq __multf3 920
ynq sincosq 1057
ynq __subtf3 1192
ynq __subtf3 1277
ynq __subtf3 1335
ynq __addtf3 1399
ynq sqrtq 1478
ynq __multf3 1583
ynq __divtf3 1654
ynq y0q 1738
ynq y1q 1814
ynq __floatsitf 1896
ynq __divtf3 1970
ynq __multf3 2041
ynq __subtf3 2115
ynq finiteq 2249
ynq __errno_location 2261
cabsq hypotq 71
cexpiq sincosq 49
cargq atan2q 71
cpowq clogq 118
cpowq __multc3 236
cpowq cexpq 301
ccosq ccoshq 76
ldexpq finiteq 46
ldexpq __eqtf2 107
ldexpq scalbnq 179
ldexpq finiteq 217
ldexpq __eqtf2 278
ldexpq __errno_location 303
sincosq __subtf3 181
sincosq __quadmath_rem_pio2q 256
sincosq __quadmath_kernel_sincosq 358
sincosq __quadmath_kernel_sincosq 421
sincosq __quadmath_kernel_sincosq 481
sincosq __quadmath_kernel_sincosq 555
lgammaq signgam 20
lgammaq finiteq 59
lgammaq __multf3 122
lgammaq __eqtf2 214
lgammaq signbitq 250
lgammaq signgam 263
lgammaq __lttf2 328
lgammaq floorq 384
lgammaq __eqtf2 457
lgammaq __subtf3 530
lgammaq __divtf3 599
lgammaq __fixtfsi 665
lgammaq signgam 698
lgammaq __subtf3 742
lgammaq __gttf2 827
lgammaq __addtf3 913
lgammaq __addtf3 972
lgammaq __multf3 1062
lgammaq sinq 1099
lgammaq __multf3 1158
lgammaq __eqtf2 1249
lgammaq signgam 1268
lgammaq __floatsitf 1274
lgammaq __multf3 1346
lgammaq __multf3 1415
lgammaq __divtf3 1567
lgammaq logq 1604
lgammaq __subtf3 1663
lgammaq __lttf2 1758
lgammaq __addtf3 1838
lgammaq floorq 1875
lgammaq __fixtfsi 1910
lgammaq __letf2 1990
lgammaq __multf3 2104
lgammaq __divtf3 2234
lgammaq __letf2 2300
lgammaq __subtf3 2377
lgammaq __multf3 2513
lgammaq __divtf3 2649
lgammaq __addtf3 2715
lgammaq __subtf3 2781
lgammaq __letf2 2847
lgammaq __subtf3 2924
lgammaq __subtf3 2990
lgammaq __divtf3 3197
lgammaq __multf3 3262
lgammaq __multf3 3324
lgammaq __addtf3 3390
lgammaq __subtf3 3456
lgammaq __letf2 3525
lgammaq __subtf3 3599
lgammaq __multf3 3735
lgammaq __divtf3 3871
lgammaq __addtf3 3937
lgammaq __subtf3 4003
lgammaq __subtf3 4071
lgammaq __multf3 4207
lgammaq __divtf3 4343
lgammaq logq 4401
lgammaq __subtf3 4466
lgammaq __lttf2 4532
lgammaq __letf2 4607
lgammaq __subtf3 4681
lgammaq __subtf3 4747
lgammaq __divtf3 4954
lgammaq __multf3 5019
lgammaq __multf3 5081
lgammaq __addtf3 5147
lgammaq __subtf3 5213
lgammaq __subtf3 5281
lgammaq __multf3 5417
lgammaq __divtf3 5553
lgammaq __addtf3 5619
lgammaq __subtf3 5685
lgammaq logq 5746
lgammaq __subtf3 5811
lgammaq __lttf2 5892
lgammaq __subtf3 5969
lgammaq __multf3 6087
lgammaq __divtf3 6217
lgammaq __eqtf2 6283
lgammaq __letf2 6355
lgammaq __subtf3 6432
lgammaq __multf3 6550
lgammaq __divtf3 6680
lgammaq __letf2 6749
lgammaq __subtf3 6823
lgammaq __multf3 6941
lgammaq __divtf3 7071
lgammaq __addtf3 7137
lgammaq __subtf3 7203
lgammaq __subtf3 7271
lgammaq __subtf3 7337
lgammaq __divtf3 7526
lgammaq __multf3 7585
lgammaq __multf3 7641
lgammaq __addtf3 7707
lgammaq __subtf3 7773
lgammaq __lttf2 7839
lgammaq __subtf3 7916
lgammaq __subtf3 7982
lgammaq __divtf3 8171
lgammaq __multf3 8230
lgammaq __multf3 8286
lgammaq __addtf3 8352
lgammaq __subtf3 8418
lgammaq __lttf2 8484
lgammaq __subtf3 8561
lgammaq __multf3 8679
lgammaq __divtf3 8809
lgammaq __addtf3 8875
lgammaq __subtf3 8941
lgammaq __eqtf2 9007
lgammaq __lttf2 9082
lgammaq __subtf3 9156
lgammaq __multf3 9274
lgammaq __divtf3 9404
lgammaq __subtf3 9472
lgammaq __multf3 9590
lgammaq __divtf3 9720
lgammaq __addtf3 9786
lgammaq __addtf3 9852
lgammaq __lttf2 9921
lgammaq __subtf3 9995
lgammaq __multf3 10113
lgammaq __divtf3 10243
lgammaq __addtf3 10309
lgammaq __addtf3 10375
lgammaq __subtf3 10443
lgammaq __multf3 10561
lgammaq __divtf3 10691
lgammaq __addtf3 10757
lgammaq __addtf3 10823
lgammaq __subtf3 10891
lgammaq __multf3 11009
lgammaq __divtf3 11139
lgammaq __addtf3 11205
lgammaq __addtf3 11271
lgammaq __subtf3 11339
lgammaq __multf3 11457
lgammaq __divtf3 11587
lgammaq __addtf3 11653
lgammaq __addtf3 11719
lgammaq __subtf3 11787
lgammaq __multf3 11905
lgammaq __divtf3 12035
lgammaq __addtf3 12101
lgammaq __addtf3 12167
lgammaq __subtf3 12235
lgammaq __multf3 12353
lgammaq __divtf3 12483
lgammaq __addtf3 12549
lgammaq __addtf3 12615
lgammaq __subtf3 12683
lgammaq __multf3 12801
lgammaq __divtf3 12931
lgammaq __addtf3 12997
lgammaq __addtf3 13063
lgammaq __subtf3 13131
lgammaq __multf3 13249
lgammaq __divtf3 13379
lgammaq __addtf3 13445
lgammaq __addtf3 13511
lgammaq __subtf3 13579
lgammaq __multf3 13697
lgammaq __divtf3 13827
lgammaq __addtf3 13893
lgammaq __addtf3 13959
lgammaq __subtf3 14027
lgammaq __multf3 14145
lgammaq __divtf3 14275
lgammaq __addtf3 14341
lgammaq __addtf3 14407
lgammaq __subtf3 14475
lgammaq __multf3 14593
lgammaq __divtf3 14723
lgammaq __addtf3 14789
lgammaq __addtf3 14855
lgammaq __subtf3 14923
lgammaq __multf3 15041
lgammaq __divtf3 15171
lgammaq __addtf3 15237
lgammaq __addtf3 15303
lgammaq __gttf2 15396
lgammaq signgam 15415
lgammaq __floatsitf 15421
lgammaq __multf3 15493
lgammaq __multf3 15562
lgammaq __subtf3 15659
lgammaq logq 15714
lgammaq __subtf3 15801
lgammaq __multf3 15866
lgammaq __addtf3 15931
lgammaq __gttf2 16016
lgammaq __multf3 16110
lgammaq __divtf3 16179
lgammaq __divtf3 16285
lgammaq __addtf3 16350
__quadmath_kernel_sincosq __fixtfsi 146
__quadmath_kernel_sincosq __multf3 312
__quadmath_kernel_sincosq __multf3 387
__quadmath_kernel_sincosq __subtf3 456
__quadmath_kernel_sincosq __multf3 515
__quadmath_kernel_sincosq __addtf3 584
__quadmath_kernel_sincosq __multf3 643
__quadmath_kernel_sincosq __subtf3 715
__quadmath_kernel_sincosq __multf3 783
__quadmath_kernel_sincosq __addtf3 867
__quadmath_kernel_sincosq __multf3 941
__quadmath_kernel_sincosq __subtf3 1025
__quadmath_kernel_sincosq __multf3 1099
__quadmath_kernel_sincosq __addtf3 1183
__quadmath_kernel_sincosq __multf3 1257
__quadmath_kernel_sincosq __subtf3 1341
__quadmath_kernel_sincosq __multf3 1415
__quadmath_kernel_sincosq __multf3 1519
__quadmath_kernel_sincosq __addtf3 1611
__quadmath_kernel_sincosq __multf3 1712
__quadmath_kernel_sincosq __subtf3 1781
__quadmath_kernel_sincosq __multf3 1840
__quadmath_kernel_sincosq __addtf3 1909
__quadmath_kernel_sincosq __multf3 1968
__quadmath_kernel_sincosq __subtf3 2040
__quadmath_kernel_sincosq __multf3 2108
__quadmath_kernel_sincosq __addtf3 2192
__quadmath_kernel_sincosq __multf3 2266
__quadmath_kernel_sincosq __subtf3 2350
__quadmath_kernel_sincosq __multf3 2424
__quadmath_kernel_sincosq __addtf3 2508
__quadmath_kernel_sincosq __multf3 2582
__quadmath_kernel_sincosq __subtf3 2666
__quadmath_kernel_sincosq __multf3 2740
__quadmath_kernel_sincosq __addtf3 2824
__quadmath_kernel_sincosq signbitq 2952
__quadmath_kernel_sincosq __subtf3 3124
__quadmath_kernel_sincosq __subtf3 3195
__quadmath_kernel_sincosq __subtf3 3285
__quadmath_kernel_sincosq __multf3 3380
__quadmath_kernel_sincosq __multf3 3455
__quadmath_kernel_sincosq __addtf3 3524
__quadmath_kernel_sincosq __multf3 3583
__quadmath_kernel_sincosq __subtf3 3652
__quadmath_kernel_sincosq __multf3 3711
__quadmath_kernel_sincosq __addtf3 3783
__quadmath_kernel_sincosq __multf3 3851
__quadmath_kernel_sincosq __subtf3 3935
__quadmath_kernel_sincosq __multf3 4009
__quadmath_kernel_sincosq __addtf3 4093
__quadmath_kernel_sincosq __multf3 4185
__quadmath_kernel_sincosq __multf3 4296
__quadmath_kernel_sincosq __addtf3 4365
__quadmath_kernel_sincosq __multf3 4424
__quadmath_kernel_sincosq __subtf3 4493
__quadmath_kernel_sincosq __multf3 4552
__quadmath_kernel_sincosq __addtf3 4624
__quadmath_kernel_sincosq __multf3 4692
__quadmath_kernel_sincosq __subtf3 4776
__quadmath_kernel_sincosq __multf3 4850
__quadmath_kernel_sincosq __sincosq_table 4916
__quadmath_kernel_sincosq __sincosq_table 4922
__quadmath_kernel_sincosq __sincosq_table 4928
__quadmath_kernel_sincosq __sincosq_table 4934
__quadmath_kernel_sincosq __sincosq_table 4969
__quadmath_kernel_sincosq __sincosq_table 4975
__quadmath_kernel_sincosq __sincosq_table 4987
__quadmath_kernel_sincosq __sincosq_table 5011
__quadmath_kernel_sincosq __sincosq_table 5035
__quadmath_kernel_sincosq __multf3 5104
__quadmath_kernel_sincosq __sincosq_table 5119
__quadmath_kernel_sincosq __addtf3 5178
__quadmath_kernel_sincosq __multf3 5297
__quadmath_kernel_sincosq __addtf3 5368
__quadmath_kernel_sincosq __addtf3 5433
__quadmath_kernel_sincosq __sincosq_table 5501
__quadmath_kernel_sincosq __multf3 5576
__quadmath_kernel_sincosq __multf3 5689
__quadmath_kernel_sincosq __subtf3 5754
__quadmath_kernel_sincosq __sincosq_table 5769
__quadmath_kernel_sincosq __subtf3 5828
__quadmath_kernel_sincosq __addtf3 5905
coshq __multf3 80
coshq expm1q 125
coshq __addtf3 221
coshq __multf3 343
coshq __addtf3 417
coshq __divtf3 482
coshq __addtf3 551
coshq expq 619
coshq __multf3 697
coshq __divtf3 784
coshq __addtf3 849
coshq expq 910
coshq __multf3 982
coshq __letf2 1068
coshq __multf3 1145
coshq expq 1185
coshq __multf3 1263
coshq __multf3 1322
coshq __multf3 1426
llroundq __fixtfdi 400
sinhq __addtf3 96
sinhq __addtf3 227
sinhq __gttf2 294
sinhq expm1q 375
sinhq __addtf3 465
sinhq __multf3 566
sinhq __addtf3 671
sinhq __divtf3 748
sinhq __subtf3 825
sinhq __multf3 899
sinhq __addtf3 1002
sinhq __divtf3 1067
sinhq __addtf3 1132
sinhq __multf3 1203
sinhq expq 1281
sinhq __multf3 1355
sinhq __letf2 1453
sinhq __multf3 1548
sinhq expq 1588
sinhq __multf3 1674
sinhq __multf3 1742
sinhq __multf3 1830
cosq __subtf3 177
cosq __quadmath_rem_pio2q 241
cosq __quadmath_kernel_cosq 334
cosq __quadmath_kernel_sinq 423
cosq __quadmath_kernel_cosq 509
cosq __quadmath_kernel_sinq 603
log10q __subtf3 95
log10q __divtf3 164
log10q __subtf3 239
log10q __divtf3 289
log10q __addtf3 373
log10q frexpq 436
log10q __lttf2 530
log10q __subtf3 611
log10q __multf3 698
log10q __addtf3 767
log10q __subtf3 835
log10q __subtf3 901
log10q __multf3 985
log10q __addtf3 1054
log10q __divtf3 1132
log10q __multf3 1242
log10q __multf3 1340
log10q __addtf3 1414
log10q __multf3 1496
log10q __subtf3 1592
log10q __multf3 1663
log10q __addtf3 1737
log10q __divtf3 1820
log10q __multf3 1885
log10q __lttf2 1951
log10q __addtf3 2012
log10q __subtf3 2078
log10q __subtf3 2137
log10q __multf3 2239
log10q __multf3 2337
log10q __addtf3 2411
log10q __multf3 2494
log10q __addtf3 2586
log10q __multf3 2657
log10q __addtf3 2731
log10q __divtf3 2814
log10q __multf3 2876
log10q __multf3 2963
log10q __subtf3 3022
log10q __multf3 3118
log10q __multf3 3205
log10q __addtf3 3264
log10q __floatsitf 3297
log10q __multf3 3390
log10q __addtf3 3449
log10q __multf3 3539
log10q __addtf3 3598
log10q __multf3 3685
log10q __addtf3 3744
log10q __multf3 3831
log10q __addtf3 3890
sinq __subtf3 182
sinq __quadmath_rem_pio2q 246
sinq __quadmath_kernel_sinq 344
sinq __quadmath_kernel_cosq 425
sinq __quadmath_kernel_sinq 511
sinq __quadmath_kernel_cosq 600
__quadmath_kernel_cosq __fixtfsi 116
__quadmath_kernel_cosq __multf3 214
__quadmath_kernel_cosq __multf3 292
__quadmath_kernel_cosq __subtf3 361
__quadmath_kernel_cosq __multf3 420
__quadmath_kernel_cosq __addtf3 489
__quadmath_kernel_cosq __multf3 548
__quadmath_kernel_cosq __subtf3 620
__quadmath_kernel_cosq __multf3 688
__quadmath_kernel_cosq __addtf3 772
__quadmath_kernel_cosq __multf3 846
__quadmath_kernel_cosq __subtf3 930
__quadmath_kernel_cosq __multf3 1004
__quadmath_kernel_cosq __addtf3 1088
__quadmath_kernel_cosq __multf3 1162
__quadmath_kernel_cosq __subtf3 1246
__quadmath_kernel_cosq __multf3 1320
__quadmath_kernel_cosq __addtf3 1404
__quadmath_kernel_cosq signbitq 1521
__quadmath_kernel_cosq __subtf3 1675
__quadmath_kernel_cosq __subtf3 1758
__quadmath_kernel_cosq __multf3 1883
__quadmath_kernel_cosq __sincosq_table 1932
__quadmath_kernel_cosq __sincosq_table 1972
__quadmath_kernel_cosq __sincosq_table 1984
__quadmath_kernel_cosq __sincosq_table 1996
__quadmath_kernel_cosq __sincosq_table 2027
__quadmath_kernel_cosq __multf3 2052
__quadmath_kernel_cosq __addtf3 2124
__quadmath_kernel_cosq __multf3 2183
__quadmath_kernel_cosq __subtf3 2252
__quadmath_kernel_cosq __multf3 2311
__quadmath_kernel_cosq __addtf3 2383
__quadmath_kernel_cosq __multf3 2451
__quadmath_kernel_cosq __subtf3 2535
__quadmath_kernel_cosq __multf3 2609
__quadmath_kernel_cosq __addtf3 2693
__quadmath_kernel_cosq __multf3 2785
__quadmath_kernel_cosq __sincosq_table 2809
__quadmath_kernel_cosq __sincosq_table 2815
__quadmath_kernel_cosq __multf3 2922
__quadmath_kernel_cosq __multf3 3036
__quadmath_kernel_cosq __addtf3 3120
__quadmath_kernel_cosq __multf3 3194
__quadmath_kernel_cosq __subtf3 3278
__quadmath_kernel_cosq __multf3 3352
__quadmath_kernel_cosq __addtf3 3436
__quadmath_kernel_cosq __multf3 3510
__quadmath_kernel_cosq __subtf3 3594
__quadmath_kernel_cosq __multf3 3668
__quadmath_kernel_cosq __multf3 3760
__quadmath_kernel_cosq __subtf3 3852
__quadmath_kernel_cosq __sincosq_table 3876
__quadmath_kernel_cosq __subtf3 3947
__quadmath_kernel_cosq __addtf3 4039
log1pq __fixtfsi 126
log1pq __addtf3 199
log1pq __letf2 302
log1pq __eqtf2 404
log1pq __subtf3 495
log1pq __divtf3 564
log1pq __subtf3 637
log1pq __divtf3 706
log1pq frexpq 781
log1pq __lttf2 908
log1pq __subtf3 1013
log1pq __multf3 1088
log1pq __addtf3 1157
log1pq __subtf3 1261
log1pq __subtf3 1330
log1pq __multf3 1429
log1pq __addtf3 1498
log1pq __divtf3 1575
log1pq __multf3 1688
log1pq __multf3 1763
log1pq __addtf3 1832
log1pq __multf3 1891
log1pq __subtf3 1960
log1pq __multf3 2022
log1pq __addtf3 2100
log1pq __multf3 2174
log1pq __subtf3 2258
log1pq __multf3 2332
log1pq __addtf3 2416
log1pq __multf3 2490
log1pq __subtf3 2604
log1pq __multf3 2678
log1pq __addtf3 2762
log1pq __multf3 2836
log1pq __subtf3 2920
log1pq __multf3 2994
log1pq __addtf3 3078
log1pq __multf3 3152
log1pq __subtf3 3236
log1pq __multf3 3310
log1pq __addtf3 3394
log1pq __divtf3 3486
log1pq __multf3 3575
log1pq __floatsitf 3620
log1pq __multf3 3704
log1pq __addtf3 3775
log1pq __addtf3 3852
log1pq __multf3 3951
log1pq __addtf3 4022
log1pq __lttf2 4137
log1pq __addtf3 4246
log1pq __subtf3 4315
log1pq __subtf3 4398
log1pq __multf3 4469
log1pq __multf3 4568
log1pq __addtf3 4637
log1pq __multf3 4696
log1pq __addtf3 4765
log1pq __multf3 4827
log1pq __addtf3 4905
log1pq __multf3 4979
log1pq __addtf3 5063
log1pq __multf3 5137
log1pq __addtf3 5221
log1pq __multf3 5295
log1pq __addtf3 5379
log1pq __multf3 5453
log1pq __addtf3 5537
log1pq __multf3 5611
log1pq __addtf3 5695
log1pq __multf3 5769
log1pq __addtf3 5853
log1pq __multf3 5927
log1pq __addtf3 6011
log1pq __multf3 6085
log1pq __addtf3 6169
log1pq __multf3 6243
log1pq __addtf3 6327
log1pq __multf3 6419
log1pq __addtf3 6533
log1pq __multf3 6607
log1pq __addtf3 6691
log1pq __multf3 6765
log1pq __addtf3 6849
log1pq __multf3 6923
log1pq __addtf3 7007
log1pq __multf3 7081
log1pq __addtf3 7165
log1pq __multf3 7239
log1pq __addtf3 7323
log1pq __multf3 7397
log1pq __addtf3 7481
log1pq __multf3 7555
log1pq __addtf3 7639
log1pq __multf3 7713
log1pq __addtf3 7797
log1pq __multf3 7871
log1pq __addtf3 7955
log1pq __multf3 8029
log1pq __addtf3 8113
log1pq __multf3 8187
log1pq __addtf3 8271
log1pq __divtf3 8363
log1pq __multf3 8437
log1pq __floatsitf 8500
log1pq __multf3 8620
log1pq __multf3 8737
log1pq __addtf3 8820
log1pq __subtf3 8897
log1pq __addtf3 8956
log1pq __multf3 9055
log1pq __addtf3 9117
__quadmath_kernel_sinq __fixtfsi 144
__quadmath_kernel_sinq __multf3 286
__quadmath_kernel_sinq __multf3 364
__quadmath_kernel_sinq __subtf3 433
__quadmath_kernel_sinq __multf3 492
__quadmath_kernel_sinq __addtf3 561
__quadmath_kernel_sinq __multf3 620
__quadmath_kernel_sinq __subtf3 692
__quadmath_kernel_sinq __multf3 760
__quadmath_kernel_sinq __addtf3 844
__quadmath_kernel_sinq __multf3 918
__quadmath_kernel_sinq __subtf3 1002
__quadmath_kernel_sinq __multf3 1076
__quadmath_kernel_sinq __addtf3 1160
__quadmath_kernel_sinq __multf3 1234
__quadmath_kernel_sinq __subtf3 1318
__quadmath_kernel_sinq __multf3 1392
__quadmath_kernel_sinq __multf3 1490
__quadmath_kernel_sinq __addtf3 1582
__quadmath_kernel_sinq fabsq 1710
__quadmath_kernel_sinq __subtf3 1894
__quadmath_kernel_sinq __subtf3 1965
__quadmath_kernel_sinq __subtf3 2064
__quadmath_kernel_sinq __multf3 2195
__quadmath_kernel_sinq __sincosq_table 2275
__quadmath_kernel_sinq __sincosq_table 2281
__quadmath_kernel_sinq __multf3 2333
__quadmath_kernel_sinq __addtf3 2402
__quadmath_kernel_sinq __multf3 2461
__quadmath_kernel_sinq __subtf3 2530
__quadmath_kernel_sinq __multf3 2589
__quadmath_kernel_sinq __addtf3 2661
__quadmath_kernel_sinq __multf3 2729
__quadmath_kernel_sinq __subtf3 2813
__quadmath_kernel_sinq __multf3 2887
__quadmath_kernel_sinq __multf3 2979
__quadmath_kernel_sinq __sincosq_table 3003
__quadmath_kernel_sinq __sincosq_table 3009
__quadmath_kernel_sinq __addtf3 3116
__quadmath_kernel_sinq __multf3 3230
__quadmath_kernel_sinq __addtf3 3314
__quadmath_kernel_sinq __multf3 3388
__quadmath_kernel_sinq __subtf3 3472
__quadmath_kernel_sinq __multf3 3546
__quadmath_kernel_sinq __addtf3 3630
__quadmath_kernel_sinq __multf3 3704
__quadmath_kernel_sinq __subtf3 3788
__quadmath_kernel_sinq __multf3 3862
__quadmath_kernel_sinq __addtf3 3946
__quadmath_kernel_sinq __multf3 4038
__quadmath_kernel_sinq __sincosq_table 4059
__quadmath_kernel_sinq __sincosq_table 4065
__quadmath_kernel_sinq __sincosq_table 4071
__quadmath_kernel_sinq __sincosq_table 4077
__quadmath_kernel_sinq __multf3 4142
__quadmath_kernel_sinq __addtf3 4234
__quadmath_kernel_sinq __addtf3 4323
erfcq __floatunsitf 69
erfcq __divtf3 165
erfcq __addtf3 230
erfcq __subtf3 346
erfcq erfq 413
erfcq __subtf3 482
erfcq __multf3 591
erfcq __fixtfsi 626
erfcq __subtf3 711
erfcq __multf3 821
erfcq __divtf3 970
erfcq __addtf3 1039
erfcq __addtf3 1108
erfcq __subtf3 1173
erfcq __multf3 1283
erfcq __divtf3 1432
erfcq __addtf3 1501
erfcq __addtf3 1570
erfcq __subtf3 1635
erfcq __multf3 1745
erfcq __divtf3 1894
erfcq __addtf3 1963
erfcq __addtf3 2032
erfcq __subtf3 2097
erfcq __multf3 2207
erfcq __divtf3 2356
erfcq __addtf3 2425
erfcq __addtf3 2494
erfcq __subtf3 2559
erfcq __multf3 2669
erfcq __divtf3 2818
erfcq __addtf3 2887
erfcq __addtf3 2956
erfcq __subtf3 3021
erfcq __multf3 3131
erfcq __divtf3 3280
erfcq __addtf3 3349
erfcq __addtf3 3418
erfcq __subtf3 3483
erfcq __multf3 3593
erfcq __divtf3 3742
erfcq __addtf3 3811
erfcq __addtf3 3880
erfcq __subtf3 3945
erfcq __multf3 4055
erfcq __divtf3 4204
erfcq __addtf3 4273
erfcq __addtf3 4342
erfcq __subtf3 4436
erfcq fabsq 4569
erfcq __multf3 4694
erfcq __divtf3 4763
erfcq __divtf3 4862
erfcq __fixtfsi 4897
erfcq __divtf3 5108
erfcq __divtf3 5308
erfcq __divtf3 5508
erfcq __divtf3 5708
erfcq __divtf3 5908
erfcq __divtf3 6108
erfcq __divtf3 6308
erfcq __divtf3 6508
erfcq __multf3 6646
erfcq __subtf3 6715
erfcq expq 6752
erfcq __subtf3 6866
erfcq __addtf3 6986
erfcq __multf3 7063
erfcq __addtf3 7131
erfcq expq 7168
erfcq __multf3 7239
erfcq __divtf3 7328
erfcq __divtf3 7424
erfcq __subtf3 7493
erfq __floatsitf 80
erfq __divtf3 170
erfq __addtf3 232
erfq erfcq 310
erfq __subtf3 379
erfq __multf3 515
erfq __multf3 602
erfq __addtf3 664
erfq __multf3 733
erfq __multf3 827
erfq __addtf3 889
erfq __multf3 976
erfq __multf3 1121
erfq __divtf3 1287
erfq __addtf3 1349
erfq __subtf3 1420
erfq __divtf3 1630
erfq __addtf3 1699
logq __divtf3 123
logq __subtf3 206
logq __divtf3 275
logq __addtf3 352
logq __letf2 643
logq __getf2 715
logq __subtf3 792
logq __subtf3 940
logq __divtf3 999
logq __multf3 1070
logq __multf3 1169
logq __subtf3 1238
logq __multf3 1297
logq __addtf3 1366
logq __multf3 1428
logq __subtf3 1506
logq __multf3 1580
logq __addtf3 1664
logq __multf3 1738
logq __subtf3 1822
logq __multf3 1896
logq __addtf3 1980
logq __multf3 2054
logq __subtf3 2138
logq __multf3 2212
logq __addtf3 2296
logq __multf3 2370
logq __subtf3 2454
logq __multf3 2528
logq __addtf3 2612
logq __multf3 2686
logq __subtf3 2770
logq __multf3 2844
logq __addtf3 2928
logq __multf3 3002
logq __multf3 3094
logq __multf3 3223
logq __subtf3 3300
logq __floatsitf 3354
logq __multf3 3474
logq __addtf3 3551
logq __addtf3 3610
logq __addtf3 3702
logq __subtf3 3789
logq __addtf3 3848
logq __multf3 3947
logq __addtf3 4006
sqrtq isnanq 61
sqrtq isinfq 103
sqrtq __gttf2 177
sqrtq __eqtf2 282
sqrtq __lttf2 356
sqrtq __subtf3 435
sqrtq __divtf3 485
sqrtq __letf2 586
sqrtq __getf2 664
sqrtq __trunctfdf2 710
sqrtq sqrt 721
sqrtq __extenddftf2 736
sqrtq __divtf3 807
sqrtq __subtf3 866
sqrtq __multf3 938
sqrtq __subtf3 994
sqrtq __divtf3 1062
sqrtq __subtf3 1121
sqrtq __multf3 1190
sqrtq __subtf3 1246
sqrtq __letf2 1344
sqrtq __getf2 1422
sqrtq __trunctfxf2 1468
sqrtq sqrtl 1479
sqrtq __extendxftf2 1497
sqrtq __divtf3 1571
sqrtq __subtf3 1630
sqrtq __multf3 1699
sqrtq __subtf3 1755
sqrtq frexpq 1836
sqrtq __addtf3 1904
sqrtq __trunctfdf2 1945
sqrtq sqrt 1956
sqrtq __extenddftf2 1971
sqrtq scalbnq 2026
sqrtq __divtf3 2097
sqrtq __subtf3 2156
sqrtq __multf3 2228
sqrtq __subtf3 2284
sqrtq __divtf3 2352
sqrtq __subtf3 2411
sqrtq __multf3 2480
sqrtq __subtf3 2536
expm1q expq 99
expm1q __gttf2 299
expm1q __errno_location 323
expm1q __multf3 405
expm1q __lttf2 506
expm1q __divtf3 605
expm1q __subtf3 674
expm1q __divtf3 783
expm1q __addtf3 852
expm1q floorq 892
expm1q __fixtfsi 969
expm1q __multf3 1059
expm1q __subtf3 1118
expm1q __multf3 1217
expm1q __subtf3 1276
expm1q __multf3 1335
expm1q __multf3 1434
expm1q __addtf3 1503
expm1q __multf3 1562
expm1q __subtf3 1631
expm1q __multf3 1690
expm1q __addtf3 1762
expm1q __multf3 1830
expm1q __subtf3 1914
expm1q __multf3 1988
expm1q __addtf3 2072
expm1q __multf3 2146
expm1q __subtf3 2230
expm1q __multf3 2304
expm1q __addtf3 2388
expm1q __multf3 2462
expm1q __multf3 2554
expm1q __subtf3 2668
expm1q __multf3 2742
expm1q __addtf3 2826
expm1q __multf3 2900
expm1q __subtf3 2984
expm1q __multf3 3058
expm1q __addtf3 3142
expm1q __multf3 3216
expm1q __subtf3 3300
expm1q __multf3 3374
expm1q __addtf3 3458
expm1q __multf3 3532
expm1q __subtf3 3616
expm1q __multf3 3690
expm1q __addtf3 3774
expm1q __divtf3 3866
expm1q __multf3 3998
expm1q __addtf3 4090
expm1q __addtf3 4161
expm1q ldexpq 4250
expm1q __multf3 4336
expm1q __subtf3 4435
expm1q __addtf3 4512
lroundq __fixtfsi 180
tanhq __divtf3 114
tanhq __subtf3 183
tanhq __divtf3 248
tanhq __addtf3 317
tanhq __eqtf2 421
tanhq __addtf3 517
tanhq expm1q 557
tanhq __addtf3 629
tanhq __divtf3 698
tanhq __subtf3 767
tanhq __multf3 844
tanhq expm1q 884
tanhq __addtf3 968
tanhq __divtf3 1027
expq __unordtf2 78
expq __getf2 150
expq __unordtf2 222
expq __letf2 294
expq feholdexcept 317
expq fesetround 329
expq __multf3 395
expq __addtf3 464
expq __subtf3 533
expq __multf3 650
expq __subtf3 709
expq __multf3 814
expq __addtf3 919
expq __subtf3 988
expq __multf3 1057
expq __fixtfsi 1092
expq __subtf3 1198
expq __subtf3 1326
expq __addtf3 1437
expq __subtf3 1506
expq __multf3 1575
expq __fixtfsi 1610
expq __subtf3 1722
expq __subtf3 1832
expq __addtf3 1897
expq __multf3 2093
expq __fixtfsi 2164
expq __multf3 2335
expq __addtf3 2404
expq __multf3 2472
expq __addtf3 2550
expq __multf3 2630
expq __addtf3 2714
expq __multf3 2794
expq __addtf3 2878
expq __multf3 2958
expq __addtf3 3042
expq __multf3 3152
expq __multf3 3238
expq __addtf3 3318
expq fesetenv 3378
expq __multf3 3464
expq __addtf3 3523
expq __multf3 3621
expq isinfq 3686
expq __multf3 3787
modfq __subtf3 289
modfq __subtf3 552
__quadmath_kernel_tanq __fixtfsi 187
__quadmath_kernel_tanq fabsq 291
__quadmath_kernel_tanq __divtf3 360
__quadmath_kernel_tanq __divtf3 500
__quadmath_kernel_tanq __subtf3 737
__quadmath_kernel_tanq __subtf3 839
__quadmath_kernel_tanq __addtf3 904
__quadmath_kernel_tanq __multf3 1099
__quadmath_kernel_tanq __multf3 1174
__quadmath_kernel_tanq __addtf3 1243
__quadmath_kernel_tanq __multf3 1302
__quadmath_kernel_tanq __subtf3 1371
__quadmath_kernel_tanq __multf3 1433
__quadmath_kernel_tanq __addtf3 1511
__quadmath_kernel_tanq __multf3 1585
__quadmath_kernel_tanq __subtf3 1669
__quadmath_kernel_tanq __multf3 1788
__quadmath_kernel_tanq __subtf3 1887
__quadmath_kernel_tanq __multf3 1946
__quadmath_kernel_tanq __addtf3 2015
__quadmath_kernel_tanq __multf3 2074
__quadmath_kernel_tanq __subtf3 2146
__quadmath_kernel_tanq __multf3 2214
__quadmath_kernel_tanq __addtf3 2298
__quadmath_kernel_tanq __multf3 2372
__quadmath_kernel_tanq __subtf3 2456
__quadmath_kernel_tanq __divtf3 2548
__quadmath_kernel_tanq __multf3 2640
__quadmath_kernel_tanq __addtf3 2732
__quadmath_kernel_tanq __multf3 2806
__quadmath_kernel_tanq __addtf3 2895
__quadmath_kernel_tanq __multf3 2994
__quadmath_kernel_tanq __addtf3 3053
__quadmath_kernel_tanq __addtf3 3178
__quadmath_kernel_tanq __floatsitf 3244
__quadmath_kernel_tanq __multf3 3330
__quadmath_kernel_tanq __addtf3 3437
__quadmath_kernel_tanq __divtf3 3514
__quadmath_kernel_tanq __subtf3 3591
__quadmath_kernel_tanq __subtf3 3671
__quadmath_kernel_tanq __addtf3 3733
__quadmath_kernel_tanq __subtf3 3822
__quadmath_kernel_tanq __divtf3 3975
__quadmath_kernel_tanq __subtf3 4078
__quadmath_kernel_tanq __subtf3 4155
__quadmath_kernel_tanq __multf3 4216
__quadmath_kernel_tanq __multf3 4315
__quadmath_kernel_tanq __addtf3 4387
__quadmath_kernel_tanq __addtf3 4473
__quadmath_kernel_tanq __multf3 4553
__quadmath_kernel_tanq __addtf3 4629
tanq __subtf3 170
tanq __quadmath_rem_pio2q 231
tgammaq __divtf3 131
tgammaq rintq 191
tgammaq __eqtf2 249
tgammaq __subtf3 312
tgammaq __divtf3 362
tgammaq __subtf3 442
tgammaq lgammaq 510
tgammaq expq 544
tgammaq signbitq 597
nextafterq __addtf3 259
nextafterq __eqtf2 321
nextafterq __addtf3 653
truncq __addtf3 217
floorq __addtf3 187
floorq __gttf2 254
floorq __addtf3 479
floorq __gttf2 546
floorq __addtf3 726
floorq __addtf3 880
floorq __gttf2 947
powq __eqtf2 264
powq __eqtf2 344
powq __addtf3 522
powq floorq 637
powq __eqtf2 710
powq __multf3 805
powq floorq 869
powq __eqtf2 942
powq __subtf3 1109
powq __divtf3 1372
powq __multf3 1503
powq sqrtq 1573
powq fabsq 1650
powq __divtf3 1788
powq __subtf3 1886
powq __divtf3 1936
powq __subtf3 2107
powq __divtf3 2157
powq __multf3 2295
powq __multf3 2389
powq __multf3 2495
powq __multf3 2594
powq __gttf2 2723
powq __lttf2 2810
powq __lttf2 2912
powq __multf3 3058
powq __subtf3 3328
powq __addtf3 3465
powq __divtf3 3540
powq __multf3 3665
powq __multf3 3818
powq __subtf3 3895
powq __subtf3 4006
powq __subtf3 4086
powq __multf3 4170
powq __subtf3 4262
powq __multf3 4360
powq __multf3 4497
powq __multf3 4590
powq __addtf3 4659
powq __multf3 4724
powq __subtf3 4796
powq __multf3 4870
powq __addtf3 4954
powq __multf3 5034
powq __subtf3 5118
powq __multf3 5234
powq __multf3 5326
powq __subtf3 5446
powq __multf3 5526
powq __addtf3 5610
powq __multf3 5690
powq __subtf3 5774
powq __multf3 5854
powq __addtf3 5938
powq __multf3 6018
powq __subtf3 6102
powq __divtf3 6194
powq __addtf3 6317
powq __multf3 6394
powq __addtf3 6459
powq __multf3 6580
powq __addtf3 6673
powq __addtf3 6750
powq __multf3 6845
powq __subtf3 6948
powq __subtf3 7025
powq __subtf3 7102
powq __multf3 7182
powq __multf3 7302
powq __addtf3 7394
powq __addtf3 7507
powq __multf3 7596
powq __subtf3 7707
powq __subtf3 7784
powq __multf3 7853
powq __multf3 7962
powq __addtf3 8048
powq __addtf3 8148
powq __floatsitf 8211
powq __addtf3 8386
powq __addtf3 8463
powq __addtf3 8534
powq __subtf3 8652
powq __subtf3 8729
powq __subtf3 8806
powq __subtf3 8886
powq __subtf3 9069
powq __multf3 9144
powq __multf3 9269
powq __addtf3 9349
powq __multf3 9467
powq __addtf3 9637
powq __multf3 9801
powq __multf3 9870
powq __addtf3 9956
powq __subtf3 10069
powq __gttf2 10138
powq __multf3 10227
powq __multf3 10299
powq __multf3 10452
powq __multf3 10521
powq __subtf3 10632
powq __letf2 10707
powq __multf3 10796
powq __multf3 10865
powq __addtf3 11008
powq floorq 11045
powq __fixtfsi 11080
powq __floatsitf 11095
powq __subtf3 11178
powq __addtf3 11309
powq __multf3 11404
powq __subtf3 11515
powq __subtf3 11592
powq __multf3 11661
powq __multf3 11767
powq __addtf3 11853
powq __addtf3 11954
powq __subtf3 12079
powq __subtf3 12144
powq __multf3 12269
powq __multf3 12362
powq __addtf3 12431
powq __multf3 12496
powq __addtf3 12568
powq __multf3 12642
powq __addtf3 12732
powq __multf3 12818
powq __addtf3 12902
powq __multf3 12982
powq __addtf3 13102
powq __multf3 13182
powq __addtf3 13266
powq __multf3 13346
powq __addtf3 13430
powq __multf3 13510
powq __addtf3 13594
powq __divtf3 13686
powq __subtf3 13778
powq __multf3 13885
powq __subtf3 13990
powq __divtf3 14067
powq __multf3 14183
powq __addtf3 14269
powq __subtf3 14349
powq __subtf3 14441
powq __subtf3 14522
powq scalbnq 14592
powq __multf3 14669
fmaq __addtf3 508
fmaq __addtf3 588
fmaq __netf2 672
fmaq __eqtf2 751
fmaq __netf2 850
fmaq __multf3 949
fmaq __eqtf2 1112
fmaq __eqtf2 1198
fmaq __multf3 1318
fmaq __addtf3 1392
fmaq __addtf3 1528
fmaq __multf3 1614
fmaq __addtf3 1688
fmaq __multf3 1846
fmaq __multf3 1963
fmaq __multf3 2465
fmaq __multf3 2676
fmaq __multf3 2912
fmaq __eqtf2 3124
fmaq __eqtf2 3210
fmaq __eqtf2 3312
fmaq __multf3 3415
fmaq __addtf3 3483
fmaq feholdexcept 3503
fmaq fesetround 3515
fmaq __multf3 3596
fmaq __multf3 3704
fmaq __multf3 3826
fmaq __subtf3 3942
fmaq __addtf3 4010
fmaq __subtf3 4126
fmaq __addtf3 4200
fmaq __subtf3 4316
fmaq __subtf3 4438
fmaq __multf3 4554
fmaq __subtf3 4634
fmaq __multf3 4762
fmaq __addtf3 4854
fmaq __multf3 4988
fmaq __addtf3 5074
fmaq __multf3 5208
fmaq __addtf3 5294
fmaq __addtf3 5464
fmaq feclearexcept 5504
fmaq __eqtf2 5577
fmaq __eqtf2 5667
fmaq feupdateenv 5686
fmaq __addtf3 5763
fmaq __subtf3 5854
fmaq fesetround 5903
fmaq __subtf3 5986
fmaq __subtf3 6108
fmaq __subtf3 6230
fmaq __addtf3 6310
fmaq __addtf3 6402
fmaq fetestexcept 6482
fmaq feupdateenv 6508
fmaq __addtf3 6582
fmaq fetestexcept 6648
fmaq feupdateenv 6674
fmaq __addtf3 6748
fmaq __multf3 6820
fmaq fetestexcept 6871
fmaq __addtf3 6959
fmaq fetestexcept 6993
fmaq feupdateenv 7010
fmaq __multf3 7092
fmaq __addtf3 7191
fmaq __multf3 7263
fmaq __addtf3 7378
fmaq __multf3 7479
fmaq __multf3 7611
fmaq __multf3 7707
fmaq __addtf3 7781
fmaq __multf3 7895
logbq fabsq 85
logbq __divtf3 157
logbq __multf3 244
logbq __floatditf 359
cacoshq __unordtf2 160
cacoshq __gttf2 249
cacoshq __getf2 338
cacoshq __eqtf2 426
cacoshq __unordtf2 512
cacoshq __gttf2 592
cacoshq __getf2 675
cacoshq __eqtf2 760
cacoshq __lttf2 930
cacoshq signbitq 1124
cacoshq copysignq 1237
cacoshq nanq 1270
cacoshq nanq 1306
cacoshq nanq 1356
cacoshq copysignq 1464
cacoshq fabsq 1530
cacoshq fabsq 1615
cacoshq __multf3 1723
cacoshq __lttf2 1786
cacoshq __multf3 1875
cacoshq __addtf3 1974
cacoshq __multf3 2043
cacoshq csqrtq 2102
cacoshq __subtf3 2255
cacoshq __multf3 2324
cacoshq csqrtq 2383
cacoshq __addtf3 2496
cacoshq __addtf3 2603
cacoshq clogq 2662
cacoshq __addtf3 2742
cacoshq __addtf3 2825
cacoshq signbitq 2890
cacoshq __subtf3 3038
cacoshq __addtf3 3145
cacoshq __multf3 3210
cacoshq __subtf3 3279
cacoshq __addtf3 3395
cacoshq __multf3 3475
cacoshq csqrtq 3552
cacoshq signbitq 3659
cacoshq __addtf3 3764
cacoshq __addtf3 3871
cacoshq clogq 3942
cacosq casinq 73
cacosq __subtf3 169
casinhq __unordtf2 152
casinhq __gttf2 252
casinhq __getf2 352
casinhq __eqtf2 448
casinhq __unordtf2 529
casinhq __gttf2 603
casinhq __getf2 680
casinhq __eqtf2 753
casinhq copysignq 883
casinhq nanq 1141
casinhq nanq 1186
casinhq nanq 1224
casinhq __subtf3 1372
casinhq __addtf3 1479
casinhq __multf3 1556
casinhq __addtf3 1625
casinhq __addtf3 1750
casinhq __multf3 1809
casinhq csqrtq 1895
casinhq __addtf3 2029
casinhq __addtf3 2136
casinhq clogq 2219
casinhq copysignq 2350
casinhq copysignq 2457
casinq isnanq 64
casinq __eqtf2 132
casinq isnanq 189
casinq casinhq 261
casinq isinfq 327
casinq nanq 357
casinq copysignq 444
casinq isinfq 508
casinq nanq 538
casinq nanq 570
catanhq __unordtf2 98
catanhq __gttf2 177
catanhq __getf2 256
catanhq __eqtf2 331
catanhq __unordtf2 412
catanhq __gttf2 489
catanhq __getf2 569
catanhq __eqtf2 645
catanhq copysignq 751
catanhq copysignq 916
catanhq copysignq 1012
catanhq nanq 1054
catanhq nanq 1099
catanhq nanq 1131
catanhq __multf3 1246
catanhq __addtf3 1333
catanhq __multf3 1392
catanhq __subtf3 1488
catanhq __multf3 1547
catanhq __addtf3 1612
catanhq __addtf3 1722
catanhq logq 1762
catanhq logq 1844
catanhq __multf3 1936
catanhq __subtf3 2011
catanhq __subtf3 2076
catanhq __addtf3 2166
catanhq atan2q 2206
catanhq __subtf3 2316
catanhq __multf3 2385
catanhq __multf3 2472
catanq __unordtf2 155
catanq __gttf2 237
catanq __getf2 319
catanq __eqtf2 394
catanq __unordtf2 484
catanq __gttf2 567
catanq __getf2 653
catanq __eqtf2 732
catanq copysignq 832
catanq copysignq 945
catanq nanq 990
catanq copysignq 1092
catanq nanq 1149
catanq nanq 1258
catanq nanq 1299
catanq __multf3 1408
catanq __subtf3 1519
catanq __multf3 1611
catanq __subtf3 1679
catanq __addtf3 1763
catanq atan2q 1800
catanq __multf3 1869
catanq __addtf3 1962
catanq __multf3 2012
catanq __subtf3 2096
catanq __multf3 2152
catanq __addtf3 2253
catanq __addtf3 2351
catanq __divtf3 2410
catanq logq 2447
catanq __multf3 2516
cprojq isnanq 82
cprojq isnanq 118
cprojq finiteq 206
cprojq copysignq 279
cprojq finiteq 364
fdimq __unordtf2 116
fdimq __gttf2 201
fdimq __getf2 286
fdimq __eqtf2 367
fdimq __unordtf2 439
fdimq __gttf2 513
fdimq __getf2 590
fdimq __eqtf2 663
fdimq __lttf2 750
fdimq __subtf3 831
fdimq __letf2 916
fdimq __subtf3 1017
fdimq isinfq 1064
fdimq __errno_location 1076
fmaxq __unordtf2 92
fmaxq __lttf2 153
fmaxq isnanq 189
fminq __unordtf2 92
fminq __gttf2 153
fminq isnanq 189
ilogbq __errno_location 171
ilogbq __errno_location 189
llrintq __addtf3 157
llrintq __subtf3 243
llrintq __fixtfdi 449
log2q __subtf3 95
log2q __divtf3 164
log2q __subtf3 237
log2q __divtf3 287
log2q __addtf3 371
log2q frexpq 437
log2q __lttf2 531
log2q __subtf3 612
log2q __multf3 699
log2q __addtf3 768
log2q __subtf3 836
log2q __subtf3 902
log2q __multf3 986
log2q __addtf3 1055
log2q __divtf3 1133
log2q __multf3 1243
log2q __multf3 1341
log2q __addtf3 1415
log2q __multf3 1497
log2q __subtf3 1593
log2q __multf3 1664
log2q __addtf3 1738
log2q __divtf3 1821
log2q __multf3 1886
log2q __lttf2 1952
log2q __addtf3 2013
log2q __subtf3 2079
log2q __subtf3 2138
log2q __multf3 2240
log2q __multf3 2338
log2q __addtf3 2412
log2q __multf3 2495
log2q __addtf3 2587
log2q __multf3 2658
log2q __addtf3 2732
log2q __divtf3 2815
log2q __multf3 2877
log2q __multf3 2964
log2q __subtf3 3023
log2q __multf3 3110
log2q __multf3 3200
log2q __addtf3 3262
log2q __addtf3 3321
log2q __addtf3 3383
log2q __floatsitf 3416
log2q __addtf3 3478
lrintq __addtf3 155
lrintq __subtf3 241
lrintq __fixtfsi 330
nearbyintq feholdexcept 115
nearbyintq __addtf3 222
nearbyintq __subtf3 290
nearbyintq fesetenv 320
nearbyintq __addtf3 398
nearbyintq feholdexcept 463
nearbyintq __addtf3 564
nearbyintq __subtf3 629
nearbyintq fesetenv 659
remquoq __multf3 184
remquoq __divtf3 234
remquoq __multf3 366
remquoq __divtf3 416
remquoq __multf3 544
remquoq fmodq 603
remquoq __multf3 747
remquoq fabsq 812
remquoq fabsq 864
remquoq __multf3 960
remquoq __getf2 1038
remquoq __subtf3 1107
remquoq __addtf3 1212
remquoq __getf2 1293
remquoq __subtf3 1365
remquoq __addtf3 1444
remquoq __lttf2 1507
remquoq __subtf3 1577
remquoq __addtf3 1633
remquoq __letf2 1696
remquoq __subtf3 1766
remquoq __multf3 1849
remquoq __gttf2 1930
remquoq __subtf3 2003
remquoq __letf2 2072
remquoq __subtf3 2146
ccoshq __unordtf2 112
ccoshq __gttf2 192
ccoshq __getf2 272
ccoshq __eqtf2 345
ccoshq __unordtf2 442
ccoshq __gttf2 517
ccoshq __getf2 592
ccoshq __eqtf2 663
ccoshq sincosq 735
ccoshq fabsq 833
ccoshq __gttf2 898
ccoshq expq 950
ccoshq fabsq 1005
ccoshq signbitq 1058
ccoshq __subtf3 1141
ccoshq __multf3 1228
ccoshq __multf3 1314
ccoshq __multf3 1445
ccoshq __gttf2 1563
ccoshq __subtf3 1640
ccoshq __multf3 1729
ccoshq __multf3 1818
ccoshq __gttf2 1912
ccoshq __multf3 1992
ccoshq __multf3 2076
ccoshq expq 2133
ccoshq __multf3 2204
ccoshq __multf3 2284
ccoshq coshq 2350
ccoshq __multf3 2415
ccoshq sinhq 2470
ccoshq __multf3 2535
ccoshq sincosq 2637
ccoshq copysignq 2769
ccoshq copysignq 2856
ccoshq copysignq 2943
ccoshq __multf3 3008
ccoshq copysignq 3126
ccoshq __multf3 3195
ccoshq nanq 3241
ccoshq nanq 3273
ccoshq __addtf3 3341
ccoshq feraiseexcept 3395
ccoshq nanq 3428
ccoshq __eqtf2 3510
ccoshq nanq 3533
ccoshq __netf2 3668
ccoshq nanq 3691
ccoshq nanq 3749
ccoshq nanq 3781
ccoshq __addtf3 3840
cexpq __unordtf2 95
cexpq __gttf2 171
cexpq __getf2 247
cexpq __eqtf2 319
cexpq __unordtf2 406
cexpq __gttf2 484
cexpq __getf2 562
cexpq __eqtf2 636
cexpq sincosq 714
cexpq __gttf2 839
cexpq expq 894
cexpq __subtf3 981
cexpq __multf3 1061
cexpq __multf3 1174
cexpq __gttf2 1298
cexpq __subtf3 1372
cexpq __multf3 1452
cexpq __multf3 1550
cexpq __gttf2 1635
cexpq __multf3 1718
cexpq __multf3 1802
cexpq expq 1862
cexpq __multf3 1936
cexpq __multf3 2016
cexpq signbitq 2093
cexpq nanq 2193
cexpq nanq 2225
cexpq feraiseexcept 2262
cexpq sincosq 2330
cexpq copysignq 2464
cexpq copysignq 2547
cexpq signbitq 2590
cexpq copysignq 2679
cexpq nanq 2731
cexpq nanq 2763
cexpq feraiseexcept 2812
cexpq nanq 2842
cexpq feraiseexcept 2892
clog10q __unordtf2 166
clog10q __gttf2 255
clog10q __getf2 344
clog10q __eqtf2 430
clog10q __unordtf2 535
clog10q __gttf2 624
clog10q __getf2 713
clog10q __eqtf2 801
clog10q signbitq 880
clog10q copysignq 996
clog10q fabsq 1069
clog10q __divtf3 1138
clog10q fabsq 1226
clog10q fabsq 1296
clog10q __lttf2 1369
clog10q __gttf2 1477
clog10q scalbnq 1527
clog10q __getf2 1612
clog10q scalbnq 1668
clog10q __lttf2 1761
clog10q __lttf2 1839
clog10q scalbnq 1889
clog10q scalbnq 1954
clog10q __eqtf2 2088
clog10q __multf3 2180
clog10q __letf2 2253
clog10q __multf3 2333
clog10q __multf3 2401
clog10q __multf3 2470
clog10q __subtf3 2532
clog10q __multf3 2601
clog10q log1pq 2646
clog10q __multf3 2715
clog10q __gttf2 2781
clog10q __lttf2 2853
clog10q __lttf2 2931
clog10q __subtf3 3027
clog10q __addtf3 3120
clog10q __multf3 3191
clog10q __getf2 3273
clog10q __multf3 3358
clog10q __addtf3 3414
clog10q log1pq 3460
clog10q __multf3 3532
clog10q __lttf2 3598
clog10q __getf2 3670
clog10q __lttf2 3748
clog10q __subtf3 3841
clog10q __addtf3 3928
clog10q __multf3 3993
clog10q log1pq 4030
clog10q __multf3 4099
clog10q __getf2 4165
clog10q __getf2 4239
clog10q __quadmath_x2y2m1q 4320
clog10q log1pq 4357
clog10q __multf3 4426
clog10q hypotq 4505
clog10q log10q 4545
clog10q __floatsitf 4582
clog10q __multf3 4654
clog10q __subtf3 4713
clog10q atan2q 4826
clog10q __multf3 4898
clog10q nanq 4943
clog10q nanq 5002
clogq __unordtf2 136
clogq __gttf2 216
clogq __getf2 296
clogq __eqtf2 373
clogq __unordtf2 472
clogq __gttf2 558
clogq __getf2 644
clogq __eqtf2 729
clogq signbitq 799
clogq copysignq 912
clogq fabsq 976
clogq __divtf3 1045
clogq fabsq 1124
clogq fabsq 1191
clogq __lttf2 1264
clogq __gttf2 1372
clogq scalbnq 1422
clogq __getf2 1507
clogq scalbnq 1563
clogq __lttf2 1656
clogq __lttf2 1734
clogq scalbnq 1784
clogq scalbnq 1849
clogq __eqtf2 1983
clogq __multf3 2075
clogq __letf2 2148
clogq __multf3 2228
clogq __multf3 2296
clogq __multf3 2365
clogq __subtf3 2427
clogq log1pq 2472
clogq __multf3 2541
clogq __gttf2 2607
clogq __lttf2 2679
clogq __lttf2 2757
clogq __subtf3 2853
clogq __addtf3 2946
clogq __multf3 3017
clogq __getf2 3099
clogq __multf3 3184
clogq __addtf3 3240
clogq log1pq 3286
clogq __multf3 3358
clogq __lttf2 3424
clogq __getf2 3496
clogq __lttf2 3574
clogq __subtf3 3667
clogq __addtf3 3754
clogq __multf3 3819
clogq log1pq 3856
clogq __multf3 3925
clogq __getf2 3991
clogq __getf2 4065
clogq __quadmath_x2y2m1q 4146
clogq log1pq 4183
clogq __multf3 4252
clogq hypotq 4331
clogq logq 4371
clogq __floatsitf 4408
clogq __multf3 4480
clogq __subtf3 4539
clogq atan2q 4637
clogq nanq 4682
clogq nanq 4741
csinq signbitq 106
csinq __unordtf2 169
csinq __gttf2 248
csinq __getf2 327
csinq __eqtf2 405
csinq __unordtf2 491
csinq __gttf2 571
csinq __getf2 651
csinq __eqtf2 727
csinq fabsq 775
csinq sincosq 848
csinq fabsq 933
csinq __gttf2 998
csinq expq 1050
csinq fabsq 1108
csinq signbitq 1161
csinq __subtf3 1241
csinq __multf3 1331
csinq __multf3 1402
csinq __multf3 1509
csinq __gttf2 1618
csinq __subtf3 1698
csinq __multf3 1784
csinq __multf3 1867
csinq __gttf2 1964
csinq __multf3 2044
csinq __multf3 2128
csinq expq 2197
csinq __multf3 2274
csinq __multf3 2354
csinq coshq 2396
csinq __multf3 2461
csinq sinhq 2516
csinq __multf3 2581
csinq nanq 2644
csinq nanq 2680
csinq nanq 2712
csinq feraiseexcept 2743
csinq copysignq 2848
csinq sincosq 2919
csinq copysignq 3036
csinq copysignq 3120
csinq signbitq 3189
csinq nanq 3230
csinq feraiseexcept 3299
csinq copysignq 3398
csinq nanq 3434
csinq nanq 3468
csinhq signbitq 76
csinhq __unordtf2 142
csinhq __gttf2 224
csinhq __getf2 306
csinhq __eqtf2 384
csinhq __unordtf2 482
csinhq __gttf2 561
csinhq __getf2 640
csinhq __eqtf2 715
csinhq fabsq 770
csinhq sincosq 862
csinhq fabsq 953
csinhq __gttf2 1018
csinhq expq 1070
csinhq fabsq 1134
csinhq signbitq 1187
csinhq __subtf3 1267
csinhq __multf3 1363
csinhq __multf3 1437
csinhq __multf3 1553
csinhq __gttf2 1668
csinhq __subtf3 1748
csinhq __multf3 1843
csinhq __multf3 1935
csinhq __gttf2 2032
csinhq __multf3 2112
csinhq __multf3 2196
csinhq expq 2268
csinhq __multf3 2339
csinhq __multf3 2419
csinhq sinhq 2491
csinhq __multf3 2556
csinhq coshq 2611
csinhq __multf3 2678
csinhq copysignq 2827
csinhq nanq 2865
csinhq nanq 2900
csinhq __addtf3 2962
csinhq nanq 2995
csinhq nanq 3027
csinhq feraiseexcept 3067
csinhq sincosq 3142
csinhq copysignq 3265
csinhq copysignq 3352
csinhq nanq 3471
csinhq nanq 3503
csinhq __addtf3 3567
csinhq feraiseexcept 3632
csinhq nanq 3662
csinhq __eqtf2 3744
csinhq nanq 3767
csqrtq __unordtf2 97
csqrtq __gttf2 176
csqrtq __getf2 255
csqrtq __eqtf2 327
csqrtq __unordtf2 414
csqrtq __gttf2 494
csqrtq __getf2 577
csqrtq __eqtf2 656
csqrtq __lttf2 792
csqrtq nanq 822
csqrtq nanq 938
csqrtq copysignq 1030
csqrtq nanq 1090
csqrtq nanq 1122
csqrtq __lttf2 1226
csqrtq sqrtq 1279
csqrtq copysignq 1347
csqrtq sqrtq 1399
csqrtq fabsq 1439
csqrtq copysignq 1526
csqrtq fabsq 1584
csqrtq __getf2 1649
csqrtq fabsq 1700
csqrtq __multf3 1772
csqrtq sqrtq 1812
csqrtq fabsq 1875
csqrtq __addtf3 1928
csqrtq sqrtq 1968
csqrtq __multf3 2040
csqrtq copysignq 2114
csqrtq fabsq 2159
csqrtq __gttf2 2224
csqrtq scalbnq 2267
csqrtq fabsq 2367
csqrtq __gttf2 2432
csqrtq fabsq 2474
csqrtq __getf2 2539
csqrtq scalbnq 2582
csqrtq scalbnq 2655
csqrtq fabsq 2725
csqrtq __lttf2 2790
csqrtq fabsq 2849
csqrtq __lttf2 2914
csqrtq scalbnq 2957
csqrtq scalbnq 3017
csqrtq hypotq 3110
csqrtq __gttf2 3192
csqrtq __addtf3 3265
csqrtq __multf3 3334
csqrtq sqrtq 3374
csqrtq __divtf3 3460
csqrtq __multf3 3529
csqrtq __subtf3 3608
csqrtq __multf3 3674
csqrtq sqrtq 3714
csqrtq __divtf3 3788
csqrtq __multf3 3854
csqrtq fabsq 3894
csqrtq scalbnq 3986
csqrtq scalbnq 4047
csqrtq copysignq 4118
ctanq finiteq 103
ctanq __quadmath_isinf_nsq 158
ctanq copysignq 238
ctanq copysignq 334
ctanq finiteq 464
ctanq __eqtf2 538
ctanq nanq 568
ctanq nanq 600
ctanq __quadmath_isinf_nsq 680
ctanq feraiseexcept 701
ctanq __unordtf2 765
ctanq __gttf2 840
ctanq __getf2 915
ctanq __eqtf2 980
ctanq sincosq 1027
ctanq fabsq 1079
ctanq __gttf2 1144
ctanq expq 1196
ctanq copysignq 1310
ctanq __multf3 1415
ctanq __multf3 1486
ctanq fabsq 1568
ctanq __subtf3 1637
ctanq __divtf3 1741
ctanq __gttf2 1838
ctanq __divtf3 1944
ctanq __addtf3 2059
ctanq expq 2096
ctanq __divtf3 2173
ctanq fabsq 2287
ctanq __gttf2 2352
ctanq sinhq 2409
ctanq coshq 2476
ctanq fabsq 2609
ctanq fabsq 2667
ctanq __multf3 2736
ctanq __gttf2 2799
ctanq __multf3 2863
ctanq __multf3 2970
ctanq __addtf3 3029
ctanq __multf3 3087
ctanq __multf3 3176
ctanq __divtf3 3241
ctanq __multf3 3360
ctanq __divtf3 3419
ctanhq finiteq 136
ctanhq __quadmath_isinf_nsq 188
ctanhq copysignq 283
ctanhq copysignq 379
ctanhq finiteq 434
ctanhq __eqtf2 535
ctanhq nanq 562
ctanhq nanq 600
ctanhq __quadmath_isinf_nsq 671
ctanhq feraiseexcept 692
ctanhq __unordtf2 757
ctanhq __gttf2 829
ctanhq __getf2 901
ctanhq __eqtf2 969
ctanhq sincosq 1019
ctanhq fabsq 1068
ctanhq __gttf2 1133
ctanhq expq 1185
ctanhq copysignq 1296
ctanhq __multf3 1401
ctanhq __multf3 1472
ctanhq fabsq 1551
ctanhq __subtf3 1620
ctanhq __divtf3 1724
ctanhq __gttf2 1821
ctanhq __divtf3 1927
ctanhq __addtf3 2042
ctanhq expq 2079
ctanhq __divtf3 2156
ctanhq fabsq 2267
ctanhq __gttf2 2332
ctanhq sinhq 2386
ctanhq coshq 2450
ctanhq fabsq 2601
ctanhq fabsq 2659
ctanhq __multf3 2734
ctanhq __gttf2 2791
ctanhq __multf3 2915
ctanhq __multf3 2998
ctanhq __addtf3 3075
ctanhq __multf3 3133
ctanhq __multf3 3240
ctanhq __divtf3 3299
ctanhq __multf3 3394
ctanhq __divtf3 3453
__quadmath_mpn_divrem __quadmath_mpn_sub_n 503
__quadmath_mpn_divrem __quadmath_mpn_cmp 535
__quadmath_mpn_divrem __quadmath_mpn_submul_1 690
__quadmath_mpn_divrem __quadmath_mpn_add_n 712
__quadmath_mpn_impn_mul_n_basecase __quadmath_mpn_mul_1 71
__quadmath_mpn_impn_mul_n_basecase __quadmath_mpn_add_n 132
__quadmath_mpn_impn_mul_n_basecase __quadmath_mpn_addmul_1 143
__quadmath_mpn_impn_mul_n __quadmath_mpn_impn_mul_n_basecase 62
__quadmath_mpn_impn_mul_n __quadmath_mpn_addmul_1 108
__quadmath_mpn_impn_mul_n __quadmath_mpn_addmul_1 129
__quadmath_mpn_impn_mul_n __quadmath_mpn_impn_mul_n_basecase 184
__quadmath_mpn_impn_mul_n __quadmath_mpn_cmp 247
__quadmath_mpn_impn_mul_n __quadmath_mpn_sub_n 265
__quadmath_mpn_impn_mul_n __quadmath_mpn_sub_n 288
__quadmath_mpn_impn_mul_n __quadmath_mpn_cmp 315
__quadmath_mpn_impn_mul_n __quadmath_mpn_sub_n 339
__quadmath_mpn_impn_mul_n __quadmath_mpn_sub_n 356
__quadmath_mpn_impn_mul_n __quadmath_mpn_impn_mul_n_basecase 384
__quadmath_mpn_impn_mul_n __quadmath_mpn_add_n 493
__quadmath_mpn_impn_mul_n __quadmath_mpn_sub_n 518
__quadmath_mpn_impn_mul_n __quadmath_mpn_add_n 541
__quadmath_mpn_impn_mul_n __quadmath_mpn_impn_mul_n_basecase 570
__quadmath_mpn_impn_mul_n __quadmath_mpn_add_n 616
__quadmath_mpn_impn_mul_n __quadmath_mpn_add_n 676
__quadmath_mpn_mul __quadmath_mpn_mul_1 99
__quadmath_mpn_mul __quadmath_mpn_add_n 172
__quadmath_mpn_mul __quadmath_mpn_addmul_1 185
__quadmath_mpn_mul __quadmath_mpn_impn_mul_n 248
__quadmath_mpn_mul __quadmath_mpn_impn_mul_n 319
__quadmath_mpn_mul __quadmath_mpn_add_n 331
__quadmath_mpn_mul __quadmath_mpn_add_n 406
__quadmath_do_putc putwc 21
__quadmath_do_putc putc 33
__quadmath_printf_fphex localeconv 60
__quadmath_printf_fphex isnanq 224
__quadmath_printf_fphex isinfq 343
__quadmath_printf_fphex signbitq 451
__quadmath_printf_fphex __quadmath_do_pad 549
__quadmath_printf_fphex __quadmath_do_pad 764
__quadmath_printf_fphex fegetround 1643
__quadmath_printf_fphex __quadmath_do_pad 2103
__quadmath_printf_fphex __quadmath_do_pad 2312
__quadmath_printf_fphex __quadmath_do_pad 2783
__quadmath_printf_fphex tolower 2849
__quadmath_printf_fphex tolower 2900
__quadmath_printf_fphex __quadmath_do_pad 3083
hack_digit.4151 __quadmath_mpn_mul_1 39
hack_digit.4151 __quadmath_mpn_divrem 95
hack_digit.4151 __quadmath_mpn_mul_1 157
__quadmath_printf_fp localeconv 56
__quadmath_printf_fp isnanq 368
__quadmath_printf_fp isinfq 475
__quadmath_printf_fp __lttf2 547
__quadmath_printf_fp __quadmath_mpn_extract_flt128 668
__quadmath_printf_fp __quadmath_do_pad 815
__quadmath_printf_fp __quadmath_do_pad 1015
__quadmath_printf_fp __quadmath_mpn_lshift 1093
__quadmath_printf_fp __quadmath_fpioconst_pow10 1188
__quadmath_printf_fp __quadmath_tens 1258
__quadmath_printf_fp __quadmath_tens 1298
__quadmath_printf_fp __quadmath_mpn_mul 1311
__quadmath_printf_fp __quadmath_mpn_cmp 1415
__quadmath_printf_fp __quadmath_fpioconst_pow10 1432
__quadmath_printf_fp __quadmath_mpn_lshift 1649
__quadmath_printf_fp __quadmath_mpn_lshift 1663
__quadmath_printf_fp __quadmath_mpn_rshift 1722
__quadmath_printf_fp __quadmath_mpn_rshift 1747
__quadmath_printf_fp __quadmath_mpn_rshift 1797
__quadmath_printf_fp __quadmath_mpn_rshift 1822
__quadmath_printf_fp __quadmath_fpioconst_pow10 1870
__quadmath_printf_fp __quadmath_mpn_lshift 1877
__quadmath_printf_fp __quadmath_tens 1967
__quadmath_printf_fp __quadmath_tens 1983
__quadmath_printf_fp __quadmath_mpn_mul 1996
__quadmath_printf_fp __quadmath_mpn_lshift 2146
__quadmath_printf_fp __quadmath_mpn_lshift 2341
__quadmath_printf_fp __quadmath_mpn_rshift 2409
__quadmath_printf_fp __quadmath_fpioconst_pow10 2427
__quadmath_printf_fp __quadmath_mpn_mul_1 2461
__quadmath_printf_fp __quadmath_mpn_lshift 2508
__quadmath_printf_fp __quadmath_mpn_rshift 2535
__quadmath_printf_fp __quadmath_mpn_lshift 2565
__quadmath_printf_fp tolower 2617
__quadmath_printf_fp __errno_location 2971
__quadmath_printf_fp malloc 3016
__quadmath_printf_fp fegetround 3488
__quadmath_printf_fp memmove 4172
__quadmath_printf_fp __quadmath_do_pad 4623
__quadmath_printf_fp __quadmath_do_pad 4734
__quadmath_printf_fp malloc 4863
__quadmath_printf_fp fwrite 5046
__quadmath_printf_fp free 5076
__quadmath_printf_fp putwc 5106
__quadmath_printf_fp free 5280
__quadmath_printf_fp free 5289
__quadmath_printf_fp __quadmath_do_pad 5324
__quadmath_do_put putwc 43
__quadmath_do_put fwrite 66
quadmath_snprintf __quadmath_printf_fphex 469
quadmath_snprintf __quadmath_printf_fp 480
str_to_mpn.isra.1.constprop.2 __quadmath_mpn_mul_1 107
str_to_mpn.isra.1.constprop.2 __quadmath_tens_in_limb 226
str_to_mpn.isra.1.constprop.2 __quadmath_tens_in_limb 237
str_to_mpn.isra.1.constprop.2 __quadmath_tens_in_limb 259
str_to_mpn.isra.1.constprop.2 __quadmath_mpn_mul_1 284
round_and_return fegetround 21
round_and_return __errno_location 65
round_and_return __quadmath_mpn_rshift 332
round_and_return __quadmath_mpn_rshift 502
round_and_return __errno_location 549
round_and_return __quadmath_mpn_rshift 773
round_and_return __errno_location 843
round_and_return __multf3 931
round_and_return __multf3 1006
round_and_return __quadmath_mpn_construct_float128 1051
strtoflt128 localeconv 13
strtoflt128 tolower 445
strtoflt128 strtoull 496
strtoflt128 tolower 631
strtoflt128 tolower 732
strtoflt128 tolower 876
strtoflt128 tolower 983
strtoflt128 __divdi3 1367
strtoflt128 __moddi3 1407
strtoflt128 __errno_location 1577
strtoflt128 isxdigit 1838
strtoflt128 isxdigit 2174
strtoflt128 tolower 2238
strtoflt128 isxdigit 2384
strtoflt128 tolower 2435
strtoflt128 __errno_location 2781
strtoflt128 __multf3 2875
strtoflt128 __multf3 2950
strtoflt128 __errno_location 3000
strtoflt128 __quadmath_fpioconst_pow10 3132
strtoflt128 __quadmath_tens 3266
strtoflt128 __quadmath_tens 3286
strtoflt128 __quadmath_mpn_mul 3299
strtoflt128 __quadmath_mpn_lshift 3778
strtoflt128 __quadmath_mpn_rshift 3833
strtoflt128 __divdi3 3991
strtoflt128 __quadmath_fpioconst_pow10 4165
strtoflt128 __quadmath_tens 4284
strtoflt128 __quadmath_tens 4317
strtoflt128 __quadmath_mpn_mul 4329
strtoflt128 __quadmath_mpn_lshift 4533
strtoflt128 __quadmath_mpn_lshift 4547
strtoflt128 __quadmath_mpn_lshift 4815
strtoflt128 __quadmath_mpn_lshift 5058
strtoflt128 __quadmath_mpn_lshift 5477
strtoflt128 __quadmath_mpn_cmp 5631
strtoflt128 __quadmath_mpn_lshift 5861
strtoflt128 __quadmath_mpn_lshift 5919
strtoflt128 __quadmath_mpn_submul_1 6183
strtoflt128 __quadmath_mpn_add_n 6211
strtoflt128 __quadmath_mpn_lshift 6430
strtoflt128 tolower 6663
strtoflt128 tolower 6919
_ZNSt23_Sp_counted_ptr_inplaceINSt12experimental10filesystem2v17__cxx114_DirESaIS4_ELN9__gnu_cxx12_Lock_policyE2EE10_M_destroyEv __x86.get_pc_thunk.bx 5
_ZNSt23_Sp_counted_ptr_inplaceINSt12experimental10filesystem2v17__cxx114_DirESaIS4_ELN9__gnu_cxx12_Lock_policyE2EE10_M_destroyEv _ZdlPv 22
_ZNSt23_Sp_counted_ptr_inplaceINSt12experimental10filesystem2v17__cxx114_DirESaIS4_ELN9__gnu_cxx12_Lock_policyE2EED0Ev __x86.get_pc_thunk.bx 5
_ZNSt23_Sp_counted_ptr_inplaceINSt12experimental10filesystem2v17__cxx114_DirESaIS4_ELN9__gnu_cxx12_Lock_policyE2EED0Ev _ZdlPvj 24
_ZNSt23_Sp_counted_ptr_inplaceINSt12experimental10filesystem2v17__cxx1128recursive_directory_iterator10_Dir_stackESaIS5_ELN9__gnu_cxx12_Lock_policyE2EED0Ev __x86.get_pc_thunk.bx 5
_ZNSt23_Sp_counted_ptr_inplaceINSt12experimental10filesystem2v17__cxx1128recursive_directory_iterator10_Dir_stackESaIS5_ELN9__gnu_cxx12_Lock_policyE2EED0Ev _ZdlPvj 24
_ZNSt7__cxx1112basic_stringIcSt11char_traitsIcESaIcEEC2EPKcRKS3_.isra.61 __x86.get_pc_thunk.bx 12
_ZNSt7__cxx1112basic_stringIcSt11char_traitsIcESaIcEEC2EPKcRKS3_.isra.61 _ZNSt7__cxx1112basic_stringIcSt11char_traitsIcESaIcEE9_M_createERjj 66
_ZNSt7__cxx1112basic_stringIcSt11char_traitsIcESaIcEEC2EPKcRKS3_.isra.61 _ZNSt7__cxx1112basic_stringIcSt11char_traitsIcESaIcEE13_S_copy_charsEPcPKcS7_ 90
_ZNSt7__cxx1112basic_stringIcSt11char_traitsIcESaIcEEC2EPKcRKS3_.isra.61 .LC0 116
_ZNSt7__cxx1112basic_stringIcSt11char_traitsIcESaIcEEC2EPKcRKS3_.isra.61 _ZSt19__throw_logic_errorPKc 125
_ZNSt7__cxx1112basic_stringIcSt11char_traitsIcESaIcEE12_M_constructIN9__gnu_cxx17__normal_iteratorIPKcS4_EEEEvT_SB_St20forward_iterator_tag.isra.80 __x86.get_pc_thunk.bx 21
_ZNSt7__cxx1112basic_stringIcSt11char_traitsIcESaIcEE12_M_constructIN9__gnu_cxx17__normal_iteratorIPKcS4_EEEEvT_SB_St20forward_iterator_tag.isra.80 _ZNSt7__cxx1112basic_stringIcSt11char_traitsIcESaIcEE9_M_createERjj 48
_ZNSt7__cxx1112basic_stringIcSt11char_traitsIcESaIcEE12_M_constructIN9__gnu_cxx17__normal_iteratorIPKcS4_EEEEvT_SB_St20forward_iterator_tag.isra.80 _ZNSt7__cxx1112basic_stringIcSt11char_traitsIcESaIcEE13_S_copy_charsEPcPKcS7_ 72
_ZNSt23_Sp_counted_ptr_inplaceINSt12experimental10filesystem2v17__cxx1128recursive_directory_iterator10_Dir_stackESaIS5_ELN9__gnu_cxx12_Lock_policyE2EE14_M_get_deleterERKSt9type_info __x86.get_pc_thunk.bx 9
_ZNSt23_Sp_counted_ptr_inplaceINSt12experimental10filesystem2v17__cxx1128recursive_directory_iterator10_Dir_stackESaIS5_ELN9__gnu_cxx12_Lock_policyE2EE14_M_get_deleterERKSt9type_info _ZTSSt19_Sp_make_shared_tag 24
_ZNSt23_Sp_counted_ptr_inplaceINSt12experimental10filesystem2v17__cxx1128recursive_directory_iterator10_Dir_stackESaIS5_ELN9__gnu_cxx12_Lock_policyE2EE14_M_get_deleterERKSt9type_info strcmp 44
_ZNSt23_Sp_counted_ptr_inplaceINSt12experimental10filesystem2v17__cxx1128recursive_directory_iterator10_Dir_stackESaIS5_ELN9__gnu_cxx12_Lock_policyE2EE10_M_destroyEv __x86.get_pc_thunk.bx 5
_ZNSt23_Sp_counted_ptr_inplaceINSt12experimental10filesystem2v17__cxx1128recursive_directory_iterator10_Dir_stackESaIS5_ELN9__gnu_cxx12_Lock_policyE2EE10_M_destroyEv _ZdlPv 22
_ZNSt23_Sp_counted_ptr_inplaceINSt12experimental10filesystem2v17__cxx114_DirESaIS4_ELN9__gnu_cxx12_Lock_policyE2EE14_M_get_deleterERKSt9type_info __x86.get_pc_thunk.bx 9
_ZNSt23_Sp_counted_ptr_inplaceINSt12experimental10filesystem2v17__cxx114_DirESaIS4_ELN9__gnu_cxx12_Lock_policyE2EE14_M_get_deleterERKSt9type_info _ZTSSt19_Sp_make_shared_tag 24
_ZNSt23_Sp_counted_ptr_inplaceINSt12experimental10filesystem2v17__cxx114_DirESaIS4_ELN9__gnu_cxx12_Lock_policyE2EE14_M_get_deleterERKSt9type_info strcmp 44
_ZNSt12system_errorC1ESt10error_codeRKNSt7__cxx1112basic_stringIcSt11char_traitsIcESaIcEEE,_ZNSt12system_errorC2ESt10error_codeRKNSt7__cxx1112basic_stringIcSt11char_traitsIcESaIcEEE __x86.get_pc_thunk.si 10
_ZNSt12system_errorC1ESt10error_codeRKNSt7__cxx1112basic_stringIcSt11char_traitsIcESaIcEEE,_ZNSt12system_errorC2ESt10error_codeRKNSt7__cxx1112basic_stringIcSt11char_traitsIcESaIcEEE _ZNSt7__cxx1112basic_stringIcSt11char_traitsIcESaIcEEC1ERKS4_ 66
_ZNSt12system_errorC1ESt10error_codeRKNSt7__cxx1112basic_stringIcSt11char_traitsIcESaIcEEE,_ZNSt12system_errorC2ESt10error_codeRKNSt7__cxx1112basic_stringIcSt11char_traitsIcESaIcEEE .LC1 74
_ZNSt12system_errorC1ESt10error_codeRKNSt7__cxx1112basic_stringIcSt11char_traitsIcESaIcEEE,_ZNSt12system_errorC2ESt10error_codeRKNSt7__cxx1112basic_stringIcSt11char_traitsIcESaIcEEE _ZNSt7__cxx1112basic_stringIcSt11char_traitsIcESaIcEE6appendEPKc 81
_ZNSt12system_errorC1ESt10error_codeRKNSt7__cxx1112basic_stringIcSt11char_traitsIcESaIcEEE,_ZNSt12system_errorC2ESt10error_codeRKNSt7__cxx1112basic_stringIcSt11char_traitsIcESaIcEEE _ZNSt7__cxx1112basic_stringIcSt11char_traitsIcESaIcEE10_M_disposeEv 152
_ZNSt12system_errorC1ESt10error_codeRKNSt7__cxx1112basic_stringIcSt11char_traitsIcESaIcEEE,_ZNSt12system_errorC2ESt10error_codeRKNSt7__cxx1112basic_stringIcSt11char_traitsIcESaIcEEE _ZNSt7__cxx1112basic_stringIcSt11char_traitsIcESaIcEE10_M_disposeEv 175
_ZNSt12system_errorC1ESt10error_codeRKNSt7__cxx1112basic_stringIcSt11char_traitsIcESaIcEEE,_ZNSt12system_errorC2ESt10error_codeRKNSt7__cxx1112basic_stringIcSt11char_traitsIcESaIcEEE _ZNSt7__cxx1112basic_stringIcSt11char_traitsIcESaIcEE10_M_disposeEv 199
_ZNSt12system_errorC1ESt10error_codeRKNSt7__cxx1112basic_stringIcSt11char_traitsIcESaIcEEE,_ZNSt12system_errorC2ESt10error_codeRKNSt7__cxx1112basic_stringIcSt11char_traitsIcESaIcEEE _Unwind_Resume 210
_ZNSt12system_errorC1ESt10error_codeRKNSt7__cxx1112basic_stringIcSt11char_traitsIcESaIcEEE,_ZNSt12system_errorC2ESt10error_codeRKNSt7__cxx1112basic_stringIcSt11char_traitsIcESaIcEEE _ZNSt7__cxx1112basic_stringIcSt11char_traitsIcESaIcEE6appendERKS4_ 226
_ZNSt12system_errorC1ESt10error_codeRKNSt7__cxx1112basic_stringIcSt11char_traitsIcESaIcEEE,_ZNSt12system_errorC2ESt10error_codeRKNSt7__cxx1112basic_stringIcSt11char_traitsIcESaIcEEE _ZNSt7__cxx1112basic_stringIcSt11char_traitsIcESaIcEE6insertEjRKS4_ 247
_ZNSt12system_errorC1ESt10error_codeRKNSt7__cxx1112basic_stringIcSt11char_traitsIcESaIcEEE,_ZNSt12system_errorC2ESt10error_codeRKNSt7__cxx1112basic_stringIcSt11char_traitsIcESaIcEEE _ZNSt7__cxx1112basic_stringIcSt11char_traitsIcESaIcEEC1EOS4_ 264
_ZNSt12system_errorC1ESt10error_codeRKNSt7__cxx1112basic_stringIcSt11char_traitsIcESaIcEEE,_ZNSt12system_errorC2ESt10error_codeRKNSt7__cxx1112basic_stringIcSt11char_traitsIcESaIcEEE _ZNSt13runtime_errorC2ERKNSt7__cxx1112basic_stringIcSt11char_traitsIcESaIcEEE 275
_ZNSt12system_errorC1ESt10error_codeRKNSt7__cxx1112basic_stringIcSt11char_traitsIcESaIcEEE,_ZNSt12system_errorC2ESt10error_codeRKNSt7__cxx1112basic_stringIcSt11char_traitsIcESaIcEEE _ZNSt7__cxx1112basic_stringIcSt11char_traitsIcESaIcEE10_M_disposeEv 283
_ZNSt12system_errorC1ESt10error_codeRKNSt7__cxx1112basic_stringIcSt11char_traitsIcESaIcEEE,_ZNSt12system_errorC2ESt10error_codeRKNSt7__cxx1112basic_stringIcSt11char_traitsIcESaIcEEE _ZNSt7__cxx1112basic_stringIcSt11char_traitsIcESaIcEE10_M_disposeEv 294
_ZNSt12system_errorC1ESt10error_codeRKNSt7__cxx1112basic_stringIcSt11char_traitsIcESaIcEEE,_ZNSt12system_errorC2ESt10error_codeRKNSt7__cxx1112basic_stringIcSt11char_traitsIcESaIcEEE _ZNSt7__cxx1112basic_stringIcSt11char_traitsIcESaIcEE10_M_disposeEv 303
_ZNSt12system_errorC1ESt10error_codeRKNSt7__cxx1112basic_stringIcSt11char_traitsIcESaIcEEE,_ZNSt12system_errorC2ESt10error_codeRKNSt7__cxx1112basic_stringIcSt11char_traitsIcESaIcEEE _ZTVSt12system_error 309
_ZNSt12experimental10filesystem2v17__cxx114pathC1EOS3_,_ZNSt12experimental10filesystem2v17__cxx114pathC2EOS3_ __x86.get_pc_thunk.bx 7
_ZNSt12experimental10filesystem2v17__cxx114pathC1EOS3_,_ZNSt12experimental10filesystem2v17__cxx114pathC2EOS3_ _ZNSt7__cxx1112basic_stringIcSt11char_traitsIcESaIcEEC1EOS4_ 29
_ZNSt12experimental10filesystem2v17__cxx114pathC1EOS3_,_ZNSt12experimental10filesystem2v17__cxx114pathC2EOS3_ _ZNSt12experimental10filesystem2v17__cxx114path14_M_split_cmptsEv 64
_ZNSt12experimental10filesystem2v17__cxx114pathC1EOS3_,_ZNSt12experimental10filesystem2v17__cxx114pathC2EOS3_ _ZNSt12experimental10filesystem2v17__cxx114path14_M_split_cmptsEv 84
_ZNSt12experimental10filesystem2v17__cxx1116filesystem_error11_M_gen_whatEv __x86.get_pc_thunk.di 7
_ZNSt12experimental10filesystem2v17__cxx1116filesystem_error11_M_gen_whatEv .LC2 25
_ZNSt12experimental10filesystem2v17__cxx1116filesystem_error11_M_gen_whatEv _ZNKSt13runtime_error4whatEv 43
_ZNSt12experimental10filesystem2v17__cxx1116filesystem_error11_M_gen_whatEv _ZNSt7__cxx1112basic_stringIcSt11char_traitsIcESaIcEEpLEPKc 54
_ZNSt12experimental10filesystem2v17__cxx1116filesystem_error11_M_gen_whatEv _ZNSt7__cxx1112basic_stringIcSt11char_traitsIcESaIcEE12_M_constructIN9__gnu_cxx17__normal_iteratorIPKcS4_EEEEvT_SB_St20forward_iterator_tag.isra.94 92
_ZNSt12experimental10filesystem2v17__cxx1116filesystem_error11_M_gen_whatEv .LC3 99
_ZNSt12experimental10filesystem2v17__cxx1116filesystem_error11_M_gen_whatEv _ZNSt7__cxx1112basic_stringIcSt11char_traitsIcESaIcEE6insertEjPKc 110
_ZNSt12experimental10filesystem2v17__cxx1116filesystem_error11_M_gen_whatEv _ZNSt7__cxx1112basic_stringIcSt11char_traitsIcESaIcEEC1EOS4_ 122
_ZNSt12experimental10filesystem2v17__cxx1116filesystem_error11_M_gen_whatEv _ZNSt7__cxx1112basic_stringIcSt11char_traitsIcESaIcEE6appendEjc 135
_ZNSt12experimental10filesystem2v17__cxx1116filesystem_error11_M_gen_whatEv _ZNSt7__cxx1112basic_stringIcSt11char_traitsIcESaIcEEC1EOS4_ 147
_ZNSt12experimental10filesystem2v17__cxx1116filesystem_error11_M_gen_whatEv _ZNSt7__cxx1112basic_stringIcSt11char_traitsIcESaIcEEpLERKS4_ 158
_ZNSt12experimental10filesystem2v17__cxx1116filesystem_error11_M_gen_whatEv _ZNSt7__cxx1112basic_stringIcSt11char_traitsIcESaIcEE10_M_disposeEv 166
_ZNSt12experimental10filesystem2v17__cxx1116filesystem_error11_M_gen_whatEv _ZNSt7__cxx1112basic_stringIcSt11char_traitsIcESaIcEE10_M_disposeEv 177
_ZNSt12experimental10filesystem2v17__cxx1116filesystem_error11_M_gen_whatEv _ZNSt7__cxx1112basic_stringIcSt11char_traitsIcESaIcEE10_M_disposeEv 186
_ZNSt12experimental10filesystem2v17__cxx1116filesystem_error11_M_gen_whatEv _ZNSt7__cxx1112basic_stringIcSt11char_traitsIcESaIcEE12_M_constructIN9__gnu_cxx17__normal_iteratorIPKcS4_EEEEvT_SB_St20forward_iterator_tag.isra.94 228
_ZNSt12experimental10filesystem2v17__cxx1116filesystem_error11_M_gen_whatEv .LC3 234
_ZNSt12experimental10filesystem2v17__cxx1116filesystem_error11_M_gen_whatEv _ZNSt7__cxx1112basic_stringIcSt11char_traitsIcESaIcEE6insertEjPKc 248
_ZNSt12experimental10filesystem2v17__cxx1116filesystem_error11_M_gen_whatEv _ZNSt7__cxx1112basic_stringIcSt11char_traitsIcESaIcEEC1EOS4_ 260
_ZNSt12experimental10filesystem2v17__cxx1116filesystem_error11_M_gen_whatEv _ZNSt7__cxx1112basic_stringIcSt11char_traitsIcESaIcEE6appendEjc 273
_ZNSt12experimental10filesystem2v17__cxx1116filesystem_error11_M_gen_whatEv _ZNSt7__cxx1112basic_stringIcSt11char_traitsIcESaIcEEC1EOS4_ 288
_ZNSt12experimental10filesystem2v17__cxx1116filesystem_error11_M_gen_whatEv _ZNSt7__cxx1112basic_stringIcSt11char_traitsIcESaIcEEpLERKS4_ 301
_ZNSt12experimental10filesystem2v17__cxx1116filesystem_error11_M_gen_whatEv _ZNSt7__cxx1112basic_stringIcSt11char_traitsIcESaIcEE10_M_disposeEv 310
_ZNSt12experimental10filesystem2v17__cxx1116filesystem_error11_M_gen_whatEv _ZNSt7__cxx1112basic_stringIcSt11char_traitsIcESaIcEE10_M_disposeEv 318
_ZNSt12experimental10filesystem2v17__cxx1116filesystem_error11_M_gen_whatEv _ZNSt7__cxx1112basic_stringIcSt11char_traitsIcESaIcEE10_M_disposeEv 327
_ZNSt12experimental10filesystem2v17__cxx1116filesystem_error11_M_gen_whatEv _ZNSt7__cxx1112basic_stringIcSt11char_traitsIcESaIcEE10_M_disposeEv 349
_ZNSt12experimental10filesystem2v17__cxx1116filesystem_error11_M_gen_whatEv _ZNSt7__cxx1112basic_stringIcSt11char_traitsIcESaIcEE10_M_disposeEv 390
_ZNSt12experimental10filesystem2v17__cxx1116filesystem_error11_M_gen_whatEv _ZNSt7__cxx1112basic_stringIcSt11char_traitsIcESaIcEE10_M_disposeEv 415
_ZNSt12experimental10filesystem2v17__cxx1116filesystem_error11_M_gen_whatEv _ZNSt7__cxx1112basic_stringIcSt11char_traitsIcESaIcEE10_M_disposeEv 439
_ZNSt12experimental10filesystem2v17__cxx1116filesystem_error11_M_gen_whatEv _ZNSt7__cxx1112basic_stringIcSt11char_traitsIcESaIcEE10_M_disposeEv 463
_ZNSt12experimental10filesystem2v17__cxx1116filesystem_error11_M_gen_whatEv _Unwind_Resume 474
_ZNSt12experimental10filesystem2v17__cxx114_DirC1EOS3_,_ZNSt12experimental10filesystem2v17__cxx114_DirC2EOS3_ __x86.get_pc_thunk.bx 7
_ZNSt12experimental10filesystem2v17__cxx114_DirC1EOS3_,_ZNSt12experimental10filesystem2v17__cxx114_DirC2EOS3_ _ZNSt12experimental10filesystem2v17__cxx114pathC1EOS3_ 45
_ZNSt12experimental10filesystem2v17__cxx114_DirC1EOS3_,_ZNSt12experimental10filesystem2v17__cxx114_DirC2EOS3_ _ZNSt12experimental10filesystem2v17__cxx114pathC1EOS3_ 60
_ZNSt6vectorINSt12experimental10filesystem2v17__cxx114path5_CmptESaIS5_EED1Ev,_ZNSt6vectorINSt12experimental10filesystem2v17__cxx114path5_CmptESaIS5_EED2Ev __x86.get_pc_thunk.bx 10
_ZNSt6vectorINSt12experimental10filesystem2v17__cxx114path5_CmptESaIS5_EED1Ev,_ZNSt6vectorINSt12experimental10filesystem2v17__cxx114path5_CmptESaIS5_EED2Ev _ZNSt12_Destroy_auxILb0EE9__destroyIPNSt12experimental10filesystem2v17__cxx114path5_CmptEEEvT_S9_ 27
_ZNSt12experimental10filesystem2v17__cxx114pathD1Ev,_ZNSt12experimental10filesystem2v17__cxx114pathD2Ev __x86.get_pc_thunk.bx 12
_ZNSt12experimental10filesystem2v17__cxx114pathD1Ev,_ZNSt12experimental10filesystem2v17__cxx114pathD2Ev _ZNSt6vectorINSt12experimental10filesystem2v17__cxx114path5_CmptESaIS5_EED1Ev 27
_ZNSt12experimental10filesystem2v17__cxx114pathD1Ev,_ZNSt12experimental10filesystem2v17__cxx114pathD2Ev _ZNSt7__cxx1112basic_stringIcSt11char_traitsIcESaIcEE10_M_disposeEv 35
_ZNSt12experimental10filesystem2v17__cxx114_DirD1Ev,_ZNSt12experimental10filesystem2v17__cxx114_DirD2Ev __x86.get_pc_thunk.bx 9
_ZNSt12experimental10filesystem2v17__cxx114_DirD1Ev,_ZNSt12experimental10filesystem2v17__cxx114_DirD2Ev closedir 30
_ZNSt12experimental10filesystem2v17__cxx114_DirD1Ev,_ZNSt12experimental10filesystem2v17__cxx114_DirD2Ev _ZNSt12experimental10filesystem2v17__cxx114pathD1Ev 48
_ZNSt12experimental10filesystem2v17__cxx114_DirD1Ev,_ZNSt12experimental10filesystem2v17__cxx114_DirD2Ev _ZNSt12experimental10filesystem2v17__cxx114pathD1Ev 56
_ZNSt23_Sp_counted_ptr_inplaceINSt12experimental10filesystem2v17__cxx114_DirESaIS4_ELN9__gnu_cxx12_Lock_policyE2EE10_M_disposeEv __x86.get_pc_thunk.bx 5
_ZNSt23_Sp_counted_ptr_inplaceINSt12experimental10filesystem2v17__cxx114_DirESaIS4_ELN9__gnu_cxx12_Lock_policyE2EE10_M_disposeEv _ZNSt12experimental10filesystem2v17__cxx114_DirD1Ev 26
_ZNSt12experimental10filesystem2v17__cxx1116filesystem_errorC1ERKNSt7__cxx1112basic_stringIcSt11char_traitsIcESaIcEEESt10error_code,_ZNSt12experimental10filesystem2v17__cxx1116filesystem_errorC2ERKNSt7__cxx1112basic_stringIcSt11char_traitsIcESaIcEEESt10error_code __x86.get_pc_thunk.si 7
_ZNSt12experimental10filesystem2v17__cxx1116filesystem_errorC1ERKNSt7__cxx1112basic_stringIcSt11char_traitsIcESaIcEEESt10error_code,_ZNSt12experimental10filesystem2v17__cxx1116filesystem_errorC2ERKNSt7__cxx1112basic_stringIcSt11char_traitsIcESaIcEEESt10error_code _ZNSt12system_errorC2ESt10error_codeRKNSt7__cxx1112basic_stringIcSt11char_traitsIcESaIcEEE 36
_ZNSt12experimental10filesystem2v17__cxx1116filesystem_errorC1ERKNSt7__cxx1112basic_stringIcSt11char_traitsIcESaIcEEESt10error_code,_ZNSt12experimental10filesystem2v17__cxx1116filesystem_errorC2ERKNSt7__cxx1112basic_stringIcSt11char_traitsIcESaIcEEESt10error_code _ZTVNSt12experimental10filesystem2v17__cxx1116filesystem_errorE 42
_ZNSt12experimental10filesystem2v17__cxx1116filesystem_errorC1ERKNSt7__cxx1112basic_stringIcSt11char_traitsIcESaIcEEESt10error_code,_ZNSt12experimental10filesystem2v17__cxx1116filesystem_errorC2ERKNSt7__cxx1112basic_stringIcSt11char_traitsIcESaIcEEESt10error_code _ZNSt12experimental10filesystem2v17__cxx114pathC1Ev 61
_ZNSt12experimental10filesystem2v17__cxx1116filesystem_errorC1ERKNSt7__cxx1112basic_stringIcSt11char_traitsIcESaIcEEESt10error_code,_ZNSt12experimental10filesystem2v17__cxx1116filesystem_errorC2ERKNSt7__cxx1112basic_stringIcSt11char_traitsIcESaIcEEESt10error_code _ZNSt12experimental10filesystem2v17__cxx114pathC1Ev 75
_ZNSt12experimental10filesystem2v17__cxx1116filesystem_errorC1ERKNSt7__cxx1112basic_stringIcSt11char_traitsIcESaIcEEESt10error_code,_ZNSt12experimental10filesystem2v17__cxx1116filesystem_errorC2ERKNSt7__cxx1112basic_stringIcSt11char_traitsIcESaIcEEESt10error_code _ZNSt12experimental10filesystem2v17__cxx1116filesystem_error11_M_gen_whatEv 87
_ZNSt12experimental10filesystem2v17__cxx1116filesystem_errorC1ERKNSt7__cxx1112basic_stringIcSt11char_traitsIcESaIcEEESt10error_code,_ZNSt12experimental10filesystem2v17__cxx1116filesystem_errorC2ERKNSt7__cxx1112basic_stringIcSt11char_traitsIcESaIcEEESt10error_code _ZNSt12experimental10filesystem2v17__cxx114pathD1Ev 114
_ZNSt12experimental10filesystem2v17__cxx1116filesystem_errorC1ERKNSt7__cxx1112basic_stringIcSt11char_traitsIcESaIcEEESt10error_code,_ZNSt12experimental10filesystem2v17__cxx1116filesystem_errorC2ERKNSt7__cxx1112basic_stringIcSt11char_traitsIcESaIcEEESt10error_code _ZNSt12experimental10filesystem2v17__cxx114pathD1Ev 123
_ZNSt12experimental10filesystem2v17__cxx1116filesystem_errorC1ERKNSt7__cxx1112basic_stringIcSt11char_traitsIcESaIcEEESt10error_code,_ZNSt12experimental10filesystem2v17__cxx1116filesystem_errorC2ERKNSt7__cxx1112basic_stringIcSt11char_traitsIcESaIcEEESt10error_code _ZNSt12system_errorD2Ev 131
_ZNSt12experimental10filesystem2v17__cxx1116filesystem_errorC1ERKNSt7__cxx1112basic_stringIcSt11char_traitsIcESaIcEEESt10error_code,_ZNSt12experimental10filesystem2v17__cxx1116filesystem_errorC2ERKNSt7__cxx1112basic_stringIcSt11char_traitsIcESaIcEEESt10error_code _Unwind_Resume 142
_ZNKSt12experimental10filesystem2v17__cxx1118directory_iteratordeEv __x86.get_pc_thunk.si 7
_ZNKSt12experimental10filesystem2v17__cxx1118directory_iteratordeEv __cxa_allocate_exception 44
_ZNKSt12experimental10filesystem2v17__cxx1118directory_iteratordeEv _ZNSt3_V216generic_categoryEv 52
_ZNKSt12experimental10filesystem2v17__cxx1118directory_iteratordeEv .LC4 58
_ZNKSt12experimental10filesystem2v17__cxx1118directory_iteratordeEv _ZNSt12experimental10filesystem2v17__cxx1116filesystem_errorC1ERKNSt7__cxx1112basic_stringIcSt11char_traitsIcESaIcEEESt10error_code 93
_ZNKSt12experimental10filesystem2v17__cxx1118directory_iteratordeEv _ZNSt7__cxx1112basic_stringIcSt11char_traitsIcESaIcEE10_M_disposeEv 101
_ZNKSt12experimental10filesystem2v17__cxx1118directory_iteratordeEv _ZNSt12experimental10filesystem2v17__cxx1116filesystem_errorD1Ev 110
_ZNKSt12experimental10filesystem2v17__cxx1118directory_iteratordeEv _ZTINSt12experimental10filesystem2v17__cxx1116filesystem_errorE 116
_ZNKSt12experimental10filesystem2v17__cxx1118directory_iteratordeEv __cxa_throw 124
_ZNKSt12experimental10filesystem2v17__cxx1118directory_iteratordeEv _ZNSt7__cxx1112basic_stringIcSt11char_traitsIcESaIcEE10_M_disposeEv 138
_ZNKSt12experimental10filesystem2v17__cxx1118directory_iteratordeEv __cxa_free_exception 162
_ZNKSt12experimental10filesystem2v17__cxx1118directory_iteratordeEv _Unwind_Resume 173
_ZNSt12experimental10filesystem2v17__cxx114pathaSEOS3_ __x86.get_pc_thunk.bx 7
_ZNSt12experimental10filesystem2v17__cxx114pathaSEOS3_ _ZNSt7__cxx1112basic_stringIcSt11char_traitsIcESaIcEEaSEOS4_ 29
_ZNSt12experimental10filesystem2v17__cxx114pathaSEOS3_ _ZNSt6vectorINSt12experimental10filesystem2v17__cxx114path5_CmptESaIS5_EED1Ev 116
_ZNSt12experimental10filesystem2v17__cxx114pathaSEOS3_ _ZNSt12experimental10filesystem2v17__cxx114path14_M_split_cmptsEv 142
_ZNSt6vectorINSt12experimental10filesystem2v17__cxx114path5_CmptESaIS5_EEC1ERKS7_,_ZNSt6vectorINSt12experimental10filesystem2v17__cxx114path5_CmptESaIS5_EEC2ERKS7_ __x86.get_pc_thunk.ax 2
_ZNSt6vectorINSt12experimental10filesystem2v17__cxx114path5_CmptESaIS5_EEC1ERKS7_,_ZNSt6vectorINSt12experimental10filesystem2v17__cxx114path5_CmptESaIS5_EEC2ERKS7_ _ZSt17__throw_bad_allocv 79
_ZNSt6vectorINSt12experimental10filesystem2v17__cxx114path5_CmptESaIS5_EEC1ERKS7_,_ZNSt6vectorINSt12experimental10filesystem2v17__cxx114path5_CmptESaIS5_EEC2ERKS7_ _Znwj 94
_ZNSt6vectorINSt12experimental10filesystem2v17__cxx114path5_CmptESaIS5_EEC1ERKS7_,_ZNSt6vectorINSt12experimental10filesystem2v17__cxx114path5_CmptESaIS5_EEC2ERKS7_ _ZNSt12experimental10filesystem2v17__cxx114pathC2ERKS3_ 156
_ZNSt6vectorINSt12experimental10filesystem2v17__cxx114path5_CmptESaIS5_EEC1ERKS7_,_ZNSt6vectorINSt12experimental10filesystem2v17__cxx114path5_CmptESaIS5_EEC2ERKS7_ __cxa_begin_catch 203
_ZNSt6vectorINSt12experimental10filesystem2v17__cxx114path5_CmptESaIS5_EEC1ERKS7_,_ZNSt6vectorINSt12experimental10filesystem2v17__cxx114path5_CmptESaIS5_EEC2ERKS7_ _ZNSt12experimental10filesystem2v17__cxx114pathD2Ev 225
_ZNSt6vectorINSt12experimental10filesystem2v17__cxx114path5_CmptESaIS5_EEC1ERKS7_,_ZNSt6vectorINSt12experimental10filesystem2v17__cxx114path5_CmptESaIS5_EEC2ERKS7_ __cxa_rethrow 235
_ZNSt6vectorINSt12experimental10filesystem2v17__cxx114path5_CmptESaIS5_EEC1ERKS7_,_ZNSt6vectorINSt12experimental10filesystem2v17__cxx114path5_CmptESaIS5_EEC2ERKS7_ __cxa_end_catch 245
_ZNSt6vectorINSt12experimental10filesystem2v17__cxx114path5_CmptESaIS5_EEC1ERKS7_,_ZNSt6vectorINSt12experimental10filesystem2v17__cxx114path5_CmptESaIS5_EEC2ERKS7_ _ZdlPv 266
_ZNSt6vectorINSt12experimental10filesystem2v17__cxx114path5_CmptESaIS5_EEC1ERKS7_,_ZNSt6vectorINSt12experimental10filesystem2v17__cxx114path5_CmptESaIS5_EEC2ERKS7_ _Unwind_Resume 281
_ZNSt12experimental10filesystem2v17__cxx114pathC1ERKS3_,_ZNSt12experimental10filesystem2v17__cxx114pathC2ERKS3_ __x86.get_pc_thunk.ax 2
_ZNSt12experimental10filesystem2v17__cxx114pathC1ERKS3_,_ZNSt12experimental10filesystem2v17__cxx114pathC2ERKS3_ _ZNSt7__cxx1112basic_stringIcSt11char_traitsIcESaIcEEC1ERKS4_ 33
_ZNSt12experimental10filesystem2v17__cxx114pathC1ERKS3_,_ZNSt12experimental10filesystem2v17__cxx114pathC2ERKS3_ _ZNSt20__uninitialized_copyILb0EE13__uninit_copyIN9__gnu_cxx17__normal_iteratorIPKNSt12experimental10filesystem2v17__cxx114path5_CmptESt6vectorIS9_SaIS9_EEEEPS9_EET0_T_SI_SH_ 114
_ZNSt12experimental10filesystem2v17__cxx114pathC1ERKS3_,_ZNSt12experimental10filesystem2v17__cxx114pathC2ERKS3_ _ZNSt7__cxx1112basic_stringIcSt11char_traitsIcESaIcEE10_M_disposeEv 160
_ZNSt12experimental10filesystem2v17__cxx114pathC1ERKS3_,_ZNSt12experimental10filesystem2v17__cxx114pathC2ERKS3_ _Unwind_Resume 171
_ZNSt12experimental10filesystem2v17__cxx114_Dir7advanceEPSt10error_codeNS1_17directory_optionsE __x86.get_pc_thunk.ax 2
_ZNSt12experimental10filesystem2v17__cxx114_Dir7advanceEPSt10error_codeNS1_17directory_optionsE _ZNSt3_V215system_categoryEv 51
_ZNSt12experimental10filesystem2v17__cxx114_Dir7advanceEPSt10error_codeNS1_17directory_optionsE __errno_location 71
_ZNSt12experimental10filesystem2v17__cxx114_Dir7advanceEPSt10error_codeNS1_17directory_optionsE readdir 104
_ZNSt12experimental10filesystem2v17__cxx114_Dir7advanceEPSt10error_codeNS1_17directory_optionsE __errno_location 124
_ZNSt12experimental10filesystem2v17__cxx114_Dir7advanceEPSt10error_codeNS1_17directory_optionsE .LC5 176
_ZNSt12experimental10filesystem2v17__cxx114_Dir7advanceEPSt10error_codeNS1_17directory_optionsE strcmp 183
_ZNSt12experimental10filesystem2v17__cxx114_Dir7advanceEPSt10error_codeNS1_17directory_optionsE .LC6 198
_ZNSt12experimental10filesystem2v17__cxx114_Dir7advanceEPSt10error_codeNS1_17directory_optionsE strcmp 205
_ZNSt12experimental10filesystem2v17__cxx114_Dir7advanceEPSt10error_codeNS1_17directory_optionsE _ZNSt12experimental10filesystem2v17__cxx114path14_M_split_cmptsEv 310
_ZNSt12experimental10filesystem2v17__cxx114_Dir7advanceEPSt10error_codeNS1_17directory_optionsE _ZNSt12experimental10filesystem2v17__cxx114pathC1ERKS3_ 334
_ZNSt12experimental10filesystem2v17__cxx114_Dir7advanceEPSt10error_codeNS1_17directory_optionsE _ZNSt6vectorINSt12experimental10filesystem2v17__cxx114path5_CmptESaIS5_EED1Ev 359
_ZNSt12experimental10filesystem2v17__cxx114_Dir7advanceEPSt10error_codeNS1_17directory_optionsE _ZNSt7__cxx1112basic_stringIcSt11char_traitsIcESaIcEE10_M_disposeEv 373
_ZNSt12experimental10filesystem2v17__cxx114_Dir7advanceEPSt10error_codeNS1_17directory_optionsE _ZNSt7__cxx1112basic_stringIcSt11char_traitsIcESaIcEEpLERKS4_ 406
_ZNSt12experimental10filesystem2v17__cxx114_Dir7advanceEPSt10error_codeNS1_17directory_optionsE _ZNSt12experimental10filesystem2v17__cxx114path14_M_split_cmptsEv 420
_ZNSt12experimental10filesystem2v17__cxx114_Dir7advanceEPSt10error_codeNS1_17directory_optionsE _ZNSt12experimental10filesystem2v17__cxx114pathC1ERKS3_ 479
_ZNSt12experimental10filesystem2v17__cxx114_Dir7advanceEPSt10error_codeNS1_17directory_optionsE _ZNSt12experimental10filesystem2v17__cxx114pathD1Ev 496
_ZNSt12experimental10filesystem2v17__cxx114_Dir7advanceEPSt10error_codeNS1_17directory_optionsE _ZNSt12experimental10filesystem2v17__cxx114pathC1ERKS3_ 523
_ZNSt12experimental10filesystem2v17__cxx114_Dir7advanceEPSt10error_codeNS1_17directory_optionsE _ZNSt12experimental10filesystem2v17__cxx114pathaSEOS3_ 544
_ZNSt12experimental10filesystem2v17__cxx114_Dir7advanceEPSt10error_codeNS1_17directory_optionsE _ZNSt12experimental10filesystem2v17__cxx114pathD1Ev 558
_ZNSt12experimental10filesystem2v17__cxx114_Dir7advanceEPSt10error_codeNS1_17directory_optionsE _ZNSt12experimental10filesystem2v17__cxx114pathD1Ev 578
_ZNSt12experimental10filesystem2v17__cxx114_Dir7advanceEPSt10error_codeNS1_17directory_optionsE _ZNSt12experimental10filesystem2v17__cxx114pathD1Ev 592
_ZNSt12experimental10filesystem2v17__cxx114_Dir7advanceEPSt10error_codeNS1_17directory_optionsE _ZNSt12experimental10filesystem2v17__cxx114pathC1Ev 711
_ZNSt12experimental10filesystem2v17__cxx114_Dir7advanceEPSt10error_codeNS1_17directory_optionsE _ZNSt12experimental10filesystem2v17__cxx114pathaSEOS3_ 732
_ZNSt12experimental10filesystem2v17__cxx114_Dir7advanceEPSt10error_codeNS1_17directory_optionsE _ZNSt12experimental10filesystem2v17__cxx114pathD1Ev 746
_ZNSt12experimental10filesystem2v17__cxx114_Dir7advanceEPSt10error_codeNS1_17directory_optionsE _ZNSt12experimental10filesystem2v17__cxx114pathD1Ev 789
_ZNSt12experimental10filesystem2v17__cxx114_Dir7advanceEPSt10error_codeNS1_17directory_optionsE _ZNSt12experimental10filesystem2v17__cxx114pathD1Ev 821
_ZNSt12experimental10filesystem2v17__cxx114_Dir7advanceEPSt10error_codeNS1_17directory_optionsE _Unwind_Resume 841
_ZNSt12experimental10filesystem2v17__cxx114_Dir7advanceEPSt10error_codeNS1_17directory_optionsE _ZNSt7__cxx1112basic_stringIcSt11char_traitsIcESaIcEE9push_backEc 857
_ZNSt12experimental10filesystem2v17__cxx114_Dir7advanceEPSt10error_codeNS1_17directory_optionsE __cxa_allocate_exception 889
_ZNSt12experimental10filesystem2v17__cxx114_Dir7advanceEPSt10error_codeNS1_17directory_optionsE _ZNSt3_V216generic_categoryEv 902
_ZNSt12experimental10filesystem2v17__cxx114_Dir7advanceEPSt10error_codeNS1_17directory_optionsE .LC7 917
_ZNSt12experimental10filesystem2v17__cxx114_Dir7advanceEPSt10error_codeNS1_17directory_optionsE _ZNSt12experimental10filesystem2v17__cxx1116filesystem_errorC1ERKNSt7__cxx1112basic_stringIcSt11char_traitsIcESaIcEEESt10error_code 958
_ZNSt12experimental10filesystem2v17__cxx114_Dir7advanceEPSt10error_codeNS1_17directory_optionsE _ZNSt7__cxx1112basic_stringIcSt11char_traitsIcESaIcEE10_M_disposeEv 972
_ZNSt12experimental10filesystem2v17__cxx114_Dir7advanceEPSt10error_codeNS1_17directory_optionsE _ZNSt12experimental10filesystem2v17__cxx1116filesystem_errorD1Ev 987
_ZNSt12experimental10filesystem2v17__cxx114_Dir7advanceEPSt10error_codeNS1_17directory_optionsE _ZTINSt12experimental10filesystem2v17__cxx1116filesystem_errorE 993
_ZNSt12experimental10filesystem2v17__cxx114_Dir7advanceEPSt10error_codeNS1_17directory_optionsE __cxa_throw 1001
_ZNSt12experimental10filesystem2v17__cxx114_Dir7advanceEPSt10error_codeNS1_17directory_optionsE _ZNSt3_V216generic_categoryEv 1012
_ZNSt12experimental10filesystem2v17__cxx114_Dir7advanceEPSt10error_codeNS1_17directory_optionsE _ZNSt7__cxx1112basic_stringIcSt11char_traitsIcESaIcEE10_M_disposeEv 1043
_ZNSt12experimental10filesystem2v17__cxx114_Dir7advanceEPSt10error_codeNS1_17directory_optionsE __cxa_free_exception 1075
_ZNSt12experimental10filesystem2v17__cxx1116filesystem_errorC1ERKNSt7__cxx1112basic_stringIcSt11char_traitsIcESaIcEEERKNS2_4pathESt10error_code,_ZNSt12experimental10filesystem2v17__cxx1116filesystem_errorC2ERKNSt7__cxx1112basic_stringIcSt11char_traitsIcESaIcEEERKNS2_4pathESt10error_code __x86.get_pc_thunk.si 7
_ZNSt12experimental10filesystem2v17__cxx1116filesystem_errorC1ERKNSt7__cxx1112basic_stringIcSt11char_traitsIcESaIcEEERKNS2_4pathESt10error_code,_ZNSt12experimental10filesystem2v17__cxx1116filesystem_errorC2ERKNSt7__cxx1112basic_stringIcSt11char_traitsIcESaIcEEERKNS2_4pathESt10error_code _ZNSt12system_errorC2ESt10error_codeRKNSt7__cxx1112basic_stringIcSt11char_traitsIcESaIcEEE 36
_ZNSt12experimental10filesystem2v17__cxx1116filesystem_errorC1ERKNSt7__cxx1112basic_stringIcSt11char_traitsIcESaIcEEERKNS2_4pathESt10error_code,_ZNSt12experimental10filesystem2v17__cxx1116filesystem_errorC2ERKNSt7__cxx1112basic_stringIcSt11char_traitsIcESaIcEEERKNS2_4pathESt10error_code _ZTVNSt12experimental10filesystem2v17__cxx1116filesystem_errorE 42
_ZNSt12experimental10filesystem2v17__cxx1116filesystem_errorC1ERKNSt7__cxx1112basic_stringIcSt11char_traitsIcESaIcEEERKNS2_4pathESt10error_code,_ZNSt12experimental10filesystem2v17__cxx1116filesystem_errorC2ERKNSt7__cxx1112basic_stringIcSt11char_traitsIcESaIcEEERKNS2_4pathESt10error_code _ZNSt12experimental10filesystem2v17__cxx114pathC1ERKS3_ 64
_ZNSt12experimental10filesystem2v17__cxx1116filesystem_errorC1ERKNSt7__cxx1112basic_stringIcSt11char_traitsIcESaIcEEERKNS2_4pathESt10error_code,_ZNSt12experimental10filesystem2v17__cxx1116filesystem_errorC2ERKNSt7__cxx1112basic_stringIcSt11char_traitsIcESaIcEEERKNS2_4pathESt10error_code _ZNSt12experimental10filesystem2v17__cxx114pathC1Ev 78
_ZNSt12experimental10filesystem2v17__cxx1116filesystem_errorC1ERKNSt7__cxx1112basic_stringIcSt11char_traitsIcESaIcEEERKNS2_4pathESt10error_code,_ZNSt12experimental10filesystem2v17__cxx1116filesystem_errorC2ERKNSt7__cxx1112basic_stringIcSt11char_traitsIcESaIcEEERKNS2_4pathESt10error_code _ZNSt12experimental10filesystem2v17__cxx1116filesystem_error11_M_gen_whatEv 90
_ZNSt12experimental10filesystem2v17__cxx1116filesystem_errorC1ERKNSt7__cxx1112basic_stringIcSt11char_traitsIcESaIcEEERKNS2_4pathESt10error_code,_ZNSt12experimental10filesystem2v17__cxx1116filesystem_errorC2ERKNSt7__cxx1112basic_stringIcSt11char_traitsIcESaIcEEERKNS2_4pathESt10error_code _ZNSt12experimental10filesystem2v17__cxx114pathD1Ev 117
_ZNSt12experimental10filesystem2v17__cxx1116filesystem_errorC1ERKNSt7__cxx1112basic_stringIcSt11char_traitsIcESaIcEEERKNS2_4pathESt10error_code,_ZNSt12experimental10filesystem2v17__cxx1116filesystem_errorC2ERKNSt7__cxx1112basic_stringIcSt11char_traitsIcESaIcEEERKNS2_4pathESt10error_code _ZNSt12experimental10filesystem2v17__cxx114pathD1Ev 126
_ZNSt12experimental10filesystem2v17__cxx1116filesystem_errorC1ERKNSt7__cxx1112basic_stringIcSt11char_traitsIcESaIcEEERKNS2_4pathESt10error_code,_ZNSt12experimental10filesystem2v17__cxx1116filesystem_errorC2ERKNSt7__cxx1112basic_stringIcSt11char_traitsIcESaIcEEERKNS2_4pathESt10error_code _ZNSt12system_errorD2Ev 148
_ZNSt12experimental10filesystem2v17__cxx1116filesystem_errorC1ERKNSt7__cxx1112basic_stringIcSt11char_traitsIcESaIcEEERKNS2_4pathESt10error_code,_ZNSt12experimental10filesystem2v17__cxx1116filesystem_errorC2ERKNSt7__cxx1112basic_stringIcSt11char_traitsIcESaIcEEERKNS2_4pathESt10error_code _Unwind_Resume 159
_ZN12_GLOBAL__N_18open_dirERKNSt12experimental10filesystem2v17__cxx114pathENS2_17directory_optionsEPSt10error_code __x86.get_pc_thunk.di 9
_ZN12_GLOBAL__N_18open_dirERKNSt12experimental10filesystem2v17__cxx114pathENS2_17directory_optionsEPSt10error_code _ZNSt3_V215system_categoryEv 37
_ZN12_GLOBAL__N_18open_dirERKNSt12experimental10filesystem2v17__cxx114pathENS2_17directory_optionsEPSt10error_code opendir 64
_ZN12_GLOBAL__N_18open_dirERKNSt12experimental10filesystem2v17__cxx114pathENS2_17directory_optionsEPSt10error_code _ZNSt12experimental10filesystem2v17__cxx114pathC1ERKS3_ 93
_ZN12_GLOBAL__N_18open_dirERKNSt12experimental10filesystem2v17__cxx114pathENS2_17directory_optionsEPSt10error_code __errno_location 105
_ZN12_GLOBAL__N_18open_dirERKNSt12experimental10filesystem2v17__cxx114pathENS2_17directory_optionsEPSt10error_code _ZNSt12experimental10filesystem2v17__cxx114pathC1Ev 141
_ZN12_GLOBAL__N_18open_dirERKNSt12experimental10filesystem2v17__cxx114pathENS2_17directory_optionsEPSt10error_code _ZNSt12experimental10filesystem2v17__cxx114pathC1Ev 150
_ZN12_GLOBAL__N_18open_dirERKNSt12experimental10filesystem2v17__cxx114pathENS2_17directory_optionsEPSt10error_code __cxa_allocate_exception 188
_ZN12_GLOBAL__N_18open_dirERKNSt12experimental10filesystem2v17__cxx114pathENS2_17directory_optionsEPSt10error_code _ZNSt3_V216generic_categoryEv 196
_ZN12_GLOBAL__N_18open_dirERKNSt12experimental10filesystem2v17__cxx114pathENS2_17directory_optionsEPSt10error_code .LC8 205
_ZN12_GLOBAL__N_18open_dirERKNSt12experimental10filesystem2v17__cxx114pathENS2_17directory_optionsEPSt10error_code _ZNSt12experimental10filesystem2v17__cxx1116filesystem_errorC1ERKNSt7__cxx1112basic_stringIcSt11char_traitsIcESaIcEEERKNS2_4pathESt10error_code 242
_ZN12_GLOBAL__N_18open_dirERKNSt12experimental10filesystem2v17__cxx114pathENS2_17directory_optionsEPSt10error_code _ZNSt7__cxx1112basic_stringIcSt11char_traitsIcESaIcEE10_M_disposeEv 251
_ZN12_GLOBAL__N_18open_dirERKNSt12experimental10filesystem2v17__cxx114pathENS2_17directory_optionsEPSt10error_code _ZNSt12experimental10filesystem2v17__cxx1116filesystem_errorD1Ev 260
_ZN12_GLOBAL__N_18open_dirERKNSt12experimental10filesystem2v17__cxx114pathENS2_17directory_optionsEPSt10error_code _ZTINSt12experimental10filesystem2v17__cxx1116filesystem_errorE 266
_ZN12_GLOBAL__N_18open_dirERKNSt12experimental10filesystem2v17__cxx114pathENS2_17directory_optionsEPSt10error_code __cxa_throw 274
_ZN12_GLOBAL__N_18open_dirERKNSt12experimental10filesystem2v17__cxx114pathENS2_17directory_optionsEPSt10error_code _ZNSt3_V216generic_categoryEv 284
_ZN12_GLOBAL__N_18open_dirERKNSt12experimental10filesystem2v17__cxx114pathENS2_17directory_optionsEPSt10error_code _ZNSt12experimental10filesystem2v17__cxx114pathC1Ev 313
_ZN12_GLOBAL__N_18open_dirERKNSt12experimental10filesystem2v17__cxx114pathENS2_17directory_optionsEPSt10error_code _ZNSt7__cxx1112basic_stringIcSt11char_traitsIcESaIcEE10_M_disposeEv 338
_ZN12_GLOBAL__N_18open_dirERKNSt12experimental10filesystem2v17__cxx114pathENS2_17directory_optionsEPSt10error_code __cxa_free_exception 362
_ZN12_GLOBAL__N_18open_dirERKNSt12experimental10filesystem2v17__cxx114pathENS2_17directory_optionsEPSt10error_code _Unwind_Resume 373
_ZNSt14__shared_countILN9__gnu_cxx12_Lock_policyE2EED1Ev,_ZNSt14__shared_countILN9__gnu_cxx12_Lock_policyE2EED2Ev __x86.get_pc_thunk.bx 9
_ZNSt14__shared_countILN9__gnu_cxx12_Lock_policyE2EED1Ev,_ZNSt14__shared_countILN9__gnu_cxx12_Lock_policyE2EED2Ev _ZNSt16_Sp_counted_baseILN9__gnu_cxx12_Lock_policyE2EE10_M_releaseEv 30
_ZNSt12experimental10filesystem2v17__cxx1128recursive_directory_iteratorD1Ev,_ZNSt12experimental10filesystem2v17__cxx1128recursive_directory_iteratorD2Ev __x86.get_pc_thunk.bx 5
_ZNSt12experimental10filesystem2v17__cxx1128recursive_directory_iteratorD1Ev,_ZNSt12experimental10filesystem2v17__cxx1128recursive_directory_iteratorD2Ev _ZNSt14__shared_countILN9__gnu_cxx12_Lock_policyE2EED1Ev 26
_ZNSt12__shared_ptrINSt12experimental10filesystem2v17__cxx114_DirELN9__gnu_cxx12_Lock_policyE2EE5resetEv __x86.get_pc_thunk.bx 5
_ZNSt12__shared_ptrINSt12experimental10filesystem2v17__cxx114_DirELN9__gnu_cxx12_Lock_policyE2EE5resetEv _ZNSt14__shared_countILN9__gnu_cxx12_Lock_policyE2EED1Ev 50
_ZNSt12experimental10filesystem2v17__cxx1118directory_iterator9incrementERSt10error_code __x86.get_pc_thunk.bx 7
_ZNSt12experimental10filesystem2v17__cxx1118directory_iterator9incrementERSt10error_code _ZNSt3_V216generic_categoryEv 33
_ZNSt12experimental10filesystem2v17__cxx1118directory_iterator9incrementERSt10error_code _ZNSt12experimental10filesystem2v17__cxx114_Dir7advanceEPSt10error_codeNS1_17directory_optionsE 54
_ZNSt12experimental10filesystem2v17__cxx1118directory_iterator9incrementERSt10error_code _ZNSt12__shared_ptrINSt12experimental10filesystem2v17__cxx114_DirELN9__gnu_cxx12_Lock_policyE2EE5resetEv 70
_ZNSt12experimental10filesystem2v17__cxx1118directory_iteratorppEv __x86.get_pc_thunk.si 7
_ZNSt12experimental10filesystem2v17__cxx1118directory_iteratorppEv __cxa_allocate_exception 40
_ZNSt12experimental10filesystem2v17__cxx1118directory_iteratorppEv _ZNSt3_V216generic_categoryEv 48
_ZNSt12experimental10filesystem2v17__cxx1118directory_iteratorppEv .LC9 54
_ZNSt12experimental10filesystem2v17__cxx1118directory_iteratorppEv _ZNSt12experimental10filesystem2v17__cxx1116filesystem_errorC1ERKNSt7__cxx1112basic_stringIcSt11char_traitsIcESaIcEEESt10error_code 89
_ZNSt12experimental10filesystem2v17__cxx1118directory_iteratorppEv _ZNSt7__cxx1112basic_stringIcSt11char_traitsIcESaIcEE10_M_disposeEv 97
_ZNSt12experimental10filesystem2v17__cxx1118directory_iteratorppEv _ZNSt12experimental10filesystem2v17__cxx1116filesystem_errorD1Ev 106
_ZNSt12experimental10filesystem2v17__cxx1118directory_iteratorppEv _ZTINSt12experimental10filesystem2v17__cxx1116filesystem_errorE 112
_ZNSt12experimental10filesystem2v17__cxx1118directory_iteratorppEv __cxa_throw 120
_ZNSt12experimental10filesystem2v17__cxx1118directory_iteratorppEv _ZNSt12experimental10filesystem2v17__cxx114_Dir7advanceEPSt10error_codeNS1_17directory_optionsE 133
_ZNSt12experimental10filesystem2v17__cxx1118directory_iteratorppEv _ZNSt12__shared_ptrINSt12experimental10filesystem2v17__cxx114_DirELN9__gnu_cxx12_Lock_policyE2EE5resetEv 149
_ZNSt12experimental10filesystem2v17__cxx1118directory_iteratorppEv _ZNSt7__cxx1112basic_stringIcSt11char_traitsIcESaIcEE10_M_disposeEv 168
_ZNSt12experimental10filesystem2v17__cxx1118directory_iteratorppEv __cxa_free_exception 192
_ZNSt12experimental10filesystem2v17__cxx1118directory_iteratorppEv _Unwind_Resume 203
_ZNSt12__shared_ptrINSt12experimental10filesystem2v17__cxx1128recursive_directory_iterator10_Dir_stackELN9__gnu_cxx12_Lock_policyE2EE5resetEv __x86.get_pc_thunk.bx 5
_ZNSt12__shared_ptrINSt12experimental10filesystem2v17__cxx1128recursive_directory_iterator10_Dir_stackELN9__gnu_cxx12_Lock_policyE2EE5resetEv _ZNSt14__shared_countILN9__gnu_cxx12_Lock_policyE2EED1Ev 50
_ZNSt12experimental10filesystem2v17__cxx1128recursive_directory_iteratoraSEOS3_ __x86.get_pc_thunk.bx 7
_ZNSt12experimental10filesystem2v17__cxx1128recursive_directory_iteratoraSEOS3_ _ZNSt14__shared_countILN9__gnu_cxx12_Lock_policyE2EED1Ev 65
_ZNSt12experimental10filesystem2v17__cxx1128recursive_directory_iteratoraSERKS3_ __x86.get_pc_thunk.bx 7
_ZNSt12experimental10filesystem2v17__cxx1128recursive_directory_iteratoraSERKS3_ _ZNSt16_Sp_counted_baseILN9__gnu_cxx12_Lock_policyE2EE10_M_releaseEv 61
_ZNKSt12experimental10filesystem2v17__cxx1128recursive_directory_iteratordeEv __x86.get_pc_thunk.bx 5
_ZNKSt12experimental10filesystem2v17__cxx1128recursive_directory_iteratordeEv _ZNSt5dequeINSt12experimental10filesystem2v17__cxx114_DirESaIS4_EE4backEv 24
_ZNSt5dequeINSt12experimental10filesystem2v17__cxx114_DirESaIS4_EE8pop_backEv __x86.get_pc_thunk.bx 9
_ZNSt5dequeINSt12experimental10filesystem2v17__cxx114_DirESaIS4_EE8pop_backEv _ZdlPv 44
_ZNSt5dequeINSt12experimental10filesystem2v17__cxx114_DirESaIS4_EE8pop_backEv _ZNSt12experimental10filesystem2v17__cxx114_DirD1Ev 84
_ZNSt12experimental10filesystem2v17__cxx1128recursive_directory_iterator3popERSt10error_code __x86.get_pc_thunk.bx 7
_ZNSt12experimental10filesystem2v17__cxx1128recursive_directory_iterator3popERSt10error_code _ZNSt3_V216generic_categoryEv 32
_ZNSt12experimental10filesystem2v17__cxx1128recursive_directory_iterator3popERSt10error_code _ZNSt5dequeINSt12experimental10filesystem2v17__cxx114_DirESaIS4_EE4backEv 52
_ZNSt12experimental10filesystem2v17__cxx1128recursive_directory_iterator3popERSt10error_code _ZNSt12experimental10filesystem2v17__cxx114_Dir7advanceEPSt10error_codeNS1_17directory_optionsE 66
_ZNSt12experimental10filesystem2v17__cxx1128recursive_directory_iterator3popERSt10error_code _ZNSt5dequeINSt12experimental10filesystem2v17__cxx114_DirESaIS4_EE8pop_backEv 83
_ZNSt12experimental10filesystem2v17__cxx1128recursive_directory_iterator3popERSt10error_code _ZNSt12__shared_ptrINSt12experimental10filesystem2v17__cxx1128recursive_directory_iterator10_Dir_stackELN9__gnu_cxx12_Lock_policyE2EE5resetEv 105
_ZNSt12experimental10filesystem2v17__cxx1128recursive_directory_iterator3popERSt10error_code _ZNSt3_V215system_categoryEv 110
_ZNSt12experimental10filesystem2v17__cxx1128recursive_directory_iterator3popEv __x86.get_pc_thunk.si 6
_ZNSt12experimental10filesystem2v17__cxx1128recursive_directory_iterator3popEv _ZNSt3_V215system_categoryEv 33
_ZNSt12experimental10filesystem2v17__cxx1128recursive_directory_iterator3popEv _ZNSt12experimental10filesystem2v17__cxx1128recursive_directory_iterator3popERSt10error_code 48
_ZNSt12experimental10filesystem2v17__cxx1128recursive_directory_iterator3popEv __cxa_allocate_exception 71
_ZNSt12experimental10filesystem2v17__cxx1128recursive_directory_iterator3popEv .LC11 86
_ZNSt12experimental10filesystem2v17__cxx1128recursive_directory_iterator3popEv .LC10 92
_ZNSt12experimental10filesystem2v17__cxx1128recursive_directory_iterator3popEv _ZNSt12experimental10filesystem2v17__cxx1116filesystem_errorC1ERKNSt7__cxx1112basic_stringIcSt11char_traitsIcESaIcEEESt10error_code 120
_ZNSt12experimental10filesystem2v17__cxx1128recursive_directory_iterator3popEv _ZNSt7__cxx1112basic_stringIcSt11char_traitsIcESaIcEE10_M_disposeEv 128
_ZNSt12experimental10filesystem2v17__cxx1128recursive_directory_iterator3popEv _ZNSt12experimental10filesystem2v17__cxx1116filesystem_errorD1Ev 137
_ZNSt12experimental10filesystem2v17__cxx1128recursive_directory_iterator3popEv _ZTINSt12experimental10filesystem2v17__cxx1116filesystem_errorE 143
_ZNSt12experimental10filesystem2v17__cxx1128recursive_directory_iterator3popEv __cxa_throw 151
_ZNSt12experimental10filesystem2v17__cxx1128recursive_directory_iterator3popEv _ZNSt7__cxx1112basic_stringIcSt11char_traitsIcESaIcEE10_M_disposeEv 165
_ZNSt12experimental10filesystem2v17__cxx1128recursive_directory_iterator3popEv __cxa_free_exception 189
_ZNSt12experimental10filesystem2v17__cxx1128recursive_directory_iterator3popEv _Unwind_Resume 200
_ZNSt5dequeINSt12experimental10filesystem2v17__cxx114_DirESaIS4_EE12emplace_backIJS4_EEEvDpOT_ __x86.get_pc_thunk.bx 7
_ZNSt5dequeINSt12experimental10filesystem2v17__cxx114_DirESaIS4_EE12emplace_backIJS4_EEEvDpOT_ _ZNSt12experimental10filesystem2v17__cxx114_DirC1EOS3_ 47
_ZNSt5dequeINSt12experimental10filesystem2v17__cxx114_DirESaIS4_EE12emplace_backIJS4_EEEvDpOT_ memmove 199
_ZNSt5dequeINSt12experimental10filesystem2v17__cxx114_DirESaIS4_EE12emplace_backIJS4_EEEvDpOT_ _ZSt17__throw_bad_allocv 230
_ZNSt5dequeINSt12experimental10filesystem2v17__cxx114_DirESaIS4_EE12emplace_backIJS4_EEEvDpOT_ _Znwj 245
_ZNSt5dequeINSt12experimental10filesystem2v17__cxx114_DirESaIS4_EE12emplace_backIJS4_EEEvDpOT_ memmove 291
_ZNSt5dequeINSt12experimental10filesystem2v17__cxx114_DirESaIS4_EE12emplace_backIJS4_EEEvDpOT_ _ZdlPv 304
_ZNSt5dequeINSt12experimental10filesystem2v17__cxx114_DirESaIS4_EE12emplace_backIJS4_EEEvDpOT_ _Znwj 373
_ZNSt5dequeINSt12experimental10filesystem2v17__cxx114_DirESaIS4_EE12emplace_backIJS4_EEEvDpOT_ _ZNSt12experimental10filesystem2v17__cxx114_DirC1EOS3_ 397
_ZNSt12experimental10filesystem2v17__cxx1128recursive_directory_iterator9incrementERSt10error_code __x86.get_pc_thunk.bx 7
_ZNSt12experimental10filesystem2v17__cxx1128recursive_directory_iterator9incrementERSt10error_code _ZNSt3_V216generic_categoryEv 36
_ZNSt12experimental10filesystem2v17__cxx1128recursive_directory_iterator9incrementERSt10error_code _ZNSt5dequeINSt12experimental10filesystem2v17__cxx114_DirESaIS4_EE4backEv 59
_ZNSt12experimental10filesystem2v17__cxx1128recursive_directory_iterator9incrementERSt10error_code _ZNSt12__shared_ptrINSt12experimental10filesystem2v17__cxx1128recursive_directory_iterator10_Dir_stackELN9__gnu_cxx12_Lock_policyE2EE5resetEv 147
_ZNSt12experimental10filesystem2v17__cxx1128recursive_directory_iterator9incrementERSt10error_code _ZNSt12experimental10filesystem2v17__cxx114_DirD1Ev 159
_ZNSt12experimental10filesystem2v17__cxx1128recursive_directory_iterator9incrementERSt10error_code _ZNSt12experimental10filesystem2v16statusERKNS1_7__cxx114pathE 205
_ZNSt12experimental10filesystem2v17__cxx1128recursive_directory_iterator9incrementERSt10error_code _ZNSt12experimental10filesystem2v114symlink_statusERKNS1_7__cxx114pathERSt10error_code 255
_ZNSt12experimental10filesystem2v17__cxx1128recursive_directory_iterator9incrementERSt10error_code _ZNSt12experimental10filesystem2v16statusERKNS1_7__cxx114pathERSt10error_code 302
_ZNSt12experimental10filesystem2v17__cxx1128recursive_directory_iterator9incrementERSt10error_code _ZNSt5dequeINSt12experimental10filesystem2v17__cxx114_DirESaIS4_EE12emplace_backIJS4_EEEvDpOT_ 344
_ZNSt12experimental10filesystem2v17__cxx1128recursive_directory_iterator9incrementERSt10error_code _ZNSt12experimental10filesystem2v17__cxx114_DirD1Ev 361
_ZNSt12experimental10filesystem2v17__cxx1128recursive_directory_iterator9incrementERSt10error_code _ZNSt5dequeINSt12experimental10filesystem2v17__cxx114_DirESaIS4_EE4backEv 374
_ZNSt12experimental10filesystem2v17__cxx1128recursive_directory_iterator9incrementERSt10error_code _ZNSt12experimental10filesystem2v17__cxx114_Dir7advanceEPSt10error_codeNS1_17directory_optionsE 388
_ZNSt12experimental10filesystem2v17__cxx1128recursive_directory_iterator9incrementERSt10error_code _ZNSt5dequeINSt12experimental10filesystem2v17__cxx114_DirESaIS4_EE8pop_backEv 410
_ZNSt12experimental10filesystem2v17__cxx1128recursive_directory_iterator9incrementERSt10error_code _ZNSt12__shared_ptrINSt12experimental10filesystem2v17__cxx1128recursive_directory_iterator10_Dir_stackELN9__gnu_cxx12_Lock_policyE2EE5resetEv 432
_ZNSt12experimental10filesystem2v17__cxx1128recursive_directory_iteratorppEv __x86.get_pc_thunk.si 6
_ZNSt12experimental10filesystem2v17__cxx1128recursive_directory_iteratorppEv _ZNSt3_V215system_categoryEv 33
_ZNSt12experimental10filesystem2v17__cxx1128recursive_directory_iteratorppEv _ZNSt12experimental10filesystem2v17__cxx1128recursive_directory_iterator9incrementERSt10error_code 48
_ZNSt12experimental10filesystem2v17__cxx1128recursive_directory_iteratorppEv __cxa_allocate_exception 70
_ZNSt12experimental10filesystem2v17__cxx1128recursive_directory_iteratorppEv .LC12 76
_ZNSt12experimental10filesystem2v17__cxx1128recursive_directory_iteratorppEv _ZNSt12experimental10filesystem2v17__cxx1116filesystem_errorC1ERKNSt7__cxx1112basic_stringIcSt11char_traitsIcESaIcEEESt10error_code 104
_ZNSt12experimental10filesystem2v17__cxx1128recursive_directory_iteratorppEv _ZNSt7__cxx1112basic_stringIcSt11char_traitsIcESaIcEE10_M_disposeEv 112
_ZNSt12experimental10filesystem2v17__cxx1128recursive_directory_iteratorppEv _ZNSt12experimental10filesystem2v17__cxx1116filesystem_errorD1Ev 121
_ZNSt12experimental10filesystem2v17__cxx1128recursive_directory_iteratorppEv _ZTINSt12experimental10filesystem2v17__cxx1116filesystem_errorE 127
_ZNSt12experimental10filesystem2v17__cxx1128recursive_directory_iteratorppEv __cxa_throw 135
_ZNSt12experimental10filesystem2v17__cxx1128recursive_directory_iteratorppEv _ZNSt7__cxx1112basic_stringIcSt11char_traitsIcESaIcEE10_M_disposeEv 149
_ZNSt12experimental10filesystem2v17__cxx1128recursive_directory_iteratorppEv __cxa_free_exception 173
_ZNSt12experimental10filesystem2v17__cxx1128recursive_directory_iteratorppEv _Unwind_Resume 184
_ZNSt12experimental10filesystem2v17__cxx1118directory_iteratorC1ERKNS2_4pathENS1_17directory_optionsEPSt10error_code,_ZNSt12experimental10filesystem2v17__cxx1118directory_iteratorC2ERKNS2_4pathENS1_17directory_optionsEPSt10error_code __x86.get_pc_thunk.si 7
_ZNSt12experimental10filesystem2v17__cxx1118directory_iteratorC1ERKNS2_4pathENS1_17directory_optionsEPSt10error_code,_ZNSt12experimental10filesystem2v17__cxx1118directory_iteratorC2ERKNS2_4pathENS1_17directory_optionsEPSt10error_code _Znwj 97
_ZNSt12experimental10filesystem2v17__cxx1118directory_iteratorC1ERKNS2_4pathENS1_17directory_optionsEPSt10error_code,_ZNSt12experimental10filesystem2v17__cxx1118directory_iteratorC2ERKNS2_4pathENS1_17directory_optionsEPSt10error_code _ZTVSt23_Sp_counted_ptr_inplaceINSt12experimental10filesystem2v17__cxx114_DirESaIS4_ELN9__gnu_cxx12_Lock_policyE2EE 106
_ZNSt12experimental10filesystem2v17__cxx1118directory_iteratorC1ERKNS2_4pathENS1_17directory_optionsEPSt10error_code,_ZNSt12experimental10filesystem2v17__cxx1118directory_iteratorC2ERKNS2_4pathENS1_17directory_optionsEPSt10error_code _ZNSt12experimental10filesystem2v17__cxx114_DirC1EOS3_ 139
_ZNSt12experimental10filesystem2v17__cxx1118directory_iteratorC1ERKNS2_4pathENS1_17directory_optionsEPSt10error_code,_ZNSt12experimental10filesystem2v17__cxx1118directory_iteratorC2ERKNS2_4pathENS1_17directory_optionsEPSt10error_code _ZTISt19_Sp_make_shared_tag 153
_ZNSt12experimental10filesystem2v17__cxx1118directory_iteratorC1ERKNS2_4pathENS1_17directory_optionsEPSt10error_code,_ZNSt12experimental10filesystem2v17__cxx1118directory_iteratorC2ERKNS2_4pathENS1_17directory_optionsEPSt10error_code _ZNKSt14__shared_countILN9__gnu_cxx12_Lock_policyE2EE14_M_get_deleterERKSt9type_info 159
_ZNSt12experimental10filesystem2v17__cxx1118directory_iteratorC1ERKNS2_4pathENS1_17directory_optionsEPSt10error_code,_ZNSt12experimental10filesystem2v17__cxx1118directory_iteratorC2ERKNS2_4pathENS1_17directory_optionsEPSt10error_code _ZNSt12experimental10filesystem2v17__cxx114_Dir7advanceEPSt10error_codeNS1_17directory_optionsE 178
_ZNSt12experimental10filesystem2v17__cxx1118directory_iteratorC1ERKNS2_4pathENS1_17directory_optionsEPSt10error_code,_ZNSt12experimental10filesystem2v17__cxx1118directory_iteratorC2ERKNS2_4pathENS1_17directory_optionsEPSt10error_code _ZNSt14__shared_countILN9__gnu_cxx12_Lock_policyE2EED1Ev 224
_ZNSt12experimental10filesystem2v17__cxx1118directory_iteratorC1ERKNS2_4pathENS1_17directory_optionsEPSt10error_code,_ZNSt12experimental10filesystem2v17__cxx1118directory_iteratorC2ERKNS2_4pathENS1_17directory_optionsEPSt10error_code _ZNSt12experimental10filesystem2v17__cxx114_DirD1Ev 241
_ZNSt12experimental10filesystem2v17__cxx1118directory_iteratorC1ERKNS2_4pathENS1_17directory_optionsEPSt10error_code,_ZNSt12experimental10filesystem2v17__cxx1118directory_iteratorC2ERKNS2_4pathENS1_17directory_optionsEPSt10error_code _ZNSt14__shared_countILN9__gnu_cxx12_Lock_policyE2EED1Ev 263
_ZNSt12experimental10filesystem2v17__cxx1118directory_iteratorC1ERKNS2_4pathENS1_17directory_optionsEPSt10error_code,_ZNSt12experimental10filesystem2v17__cxx1118directory_iteratorC2ERKNS2_4pathENS1_17directory_optionsEPSt10error_code _ZNSt12experimental10filesystem2v17__cxx114_DirD1Ev 289
_ZNSt12experimental10filesystem2v17__cxx1118directory_iteratorC1ERKNS2_4pathENS1_17directory_optionsEPSt10error_code,_ZNSt12experimental10filesystem2v17__cxx1118directory_iteratorC2ERKNS2_4pathENS1_17directory_optionsEPSt10error_code _ZNSt14__shared_countILN9__gnu_cxx12_Lock_policyE2EED1Ev 313
_ZNSt12experimental10filesystem2v17__cxx1118directory_iteratorC1ERKNS2_4pathENS1_17directory_optionsEPSt10error_code,_ZNSt12experimental10filesystem2v17__cxx1118directory_iteratorC2ERKNS2_4pathENS1_17directory_optionsEPSt10error_code _Unwind_Resume 321
_ZNSt12_Destroy_auxILb0EE9__destroyIPNSt12experimental10filesystem2v17__cxx114_DirEEEvT_S8_ __x86.get_pc_thunk.bx 9
_ZNSt12_Destroy_auxILb0EE9__destroyIPNSt12experimental10filesystem2v17__cxx114_DirEEEvT_S8_ _ZNSt12experimental10filesystem2v17__cxx114_DirD1Ev 32
_ZNSt5dequeINSt12experimental10filesystem2v17__cxx114_DirESaIS4_EED1Ev,_ZNSt5dequeINSt12experimental10filesystem2v17__cxx114_DirESaIS4_EED2Ev __x86.get_pc_thunk.bx 7
_ZNSt5dequeINSt12experimental10filesystem2v17__cxx114_DirESaIS4_EED1Ev,_ZNSt5dequeINSt12experimental10filesystem2v17__cxx114_DirESaIS4_EED2Ev _ZNSt12_Destroy_auxILb0EE9__destroyIPNSt12experimental10filesystem2v17__cxx114_DirEEEvT_S8_ 80
_ZNSt5dequeINSt12experimental10filesystem2v17__cxx114_DirESaIS4_EED1Ev,_ZNSt5dequeINSt12experimental10filesystem2v17__cxx114_DirESaIS4_EED2Ev _ZNSt12_Destroy_auxILb0EE9__destroyIPNSt12experimental10filesystem2v17__cxx114_DirEEEvT_S8_ 112
_ZNSt5dequeINSt12experimental10filesystem2v17__cxx114_DirESaIS4_EED1Ev,_ZNSt5dequeINSt12experimental10filesystem2v17__cxx114_DirESaIS4_EED2Ev _ZNSt12_Destroy_auxILb0EE9__destroyIPNSt12experimental10filesystem2v17__cxx114_DirEEEvT_S8_ 131
_ZNSt5dequeINSt12experimental10filesystem2v17__cxx114_DirESaIS4_EED1Ev,_ZNSt5dequeINSt12experimental10filesystem2v17__cxx114_DirESaIS4_EED2Ev _ZdlPv 169
_ZNSt5dequeINSt12experimental10filesystem2v17__cxx114_DirESaIS4_EED1Ev,_ZNSt5dequeINSt12experimental10filesystem2v17__cxx114_DirESaIS4_EED2Ev _ZdlPv 184
_ZNSt23_Sp_counted_ptr_inplaceINSt12experimental10filesystem2v17__cxx1128recursive_directory_iterator10_Dir_stackESaIS5_ELN9__gnu_cxx12_Lock_policyE2EE10_M_disposeEv __x86.get_pc_thunk.bx 5
_ZNSt23_Sp_counted_ptr_inplaceINSt12experimental10filesystem2v17__cxx1128recursive_directory_iterator10_Dir_stackESaIS5_ELN9__gnu_cxx12_Lock_policyE2EE10_M_disposeEv _ZNSt5dequeINSt12experimental10filesystem2v17__cxx114_DirESaIS4_EED1Ev 26
_ZNSt11_Deque_baseINSt12experimental10filesystem2v17__cxx114_DirESaIS4_EE17_M_initialize_mapEj __x86.get_pc_thunk.ax 9
_ZNSt11_Deque_baseINSt12experimental10filesystem2v17__cxx114_DirESaIS4_EE17_M_initialize_mapEj _Znwj 68
_ZNSt11_Deque_baseINSt12experimental10filesystem2v17__cxx114_DirESaIS4_EE17_M_initialize_mapEj _Znwj 123
_ZNSt11_Deque_baseINSt12experimental10filesystem2v17__cxx114_DirESaIS4_EE17_M_initialize_mapEj __cxa_begin_catch 149
_ZNSt11_Deque_baseINSt12experimental10filesystem2v17__cxx114_DirESaIS4_EE17_M_initialize_mapEj _ZdlPv 173
_ZNSt11_Deque_baseINSt12experimental10filesystem2v17__cxx114_DirESaIS4_EE17_M_initialize_mapEj __cxa_rethrow 183
_ZNSt11_Deque_baseINSt12experimental10filesystem2v17__cxx114_DirESaIS4_EE17_M_initialize_mapEj __cxa_end_catch 193
_ZNSt11_Deque_baseINSt12experimental10filesystem2v17__cxx114_DirESaIS4_EE17_M_initialize_mapEj __cxa_begin_catch 205
_ZNSt11_Deque_baseINSt12experimental10filesystem2v17__cxx114_DirESaIS4_EE17_M_initialize_mapEj _ZdlPv 216
_ZNSt11_Deque_baseINSt12experimental10filesystem2v17__cxx114_DirESaIS4_EE17_M_initialize_mapEj __cxa_rethrow 240
_ZNSt11_Deque_baseINSt12experimental10filesystem2v17__cxx114_DirESaIS4_EE17_M_initialize_mapEj __cxa_end_catch 322
_ZNSt11_Deque_baseINSt12experimental10filesystem2v17__cxx114_DirESaIS4_EE17_M_initialize_mapEj _Unwind_Resume 334
_ZNSt12experimental10filesystem2v17__cxx1128recursive_directory_iterator10_Dir_stackC1Ev,_ZNSt12experimental10filesystem2v17__cxx1128recursive_directory_iterator10_Dir_stackC2Ev __x86.get_pc_thunk.di 10
_ZNSt12experimental10filesystem2v17__cxx1128recursive_directory_iterator10_Dir_stackC1Ev,_ZNSt12experimental10filesystem2v17__cxx1128recursive_directory_iterator10_Dir_stackC2Ev _ZNSt11_Deque_baseINSt12experimental10filesystem2v17__cxx114_DirESaIS4_EE17_M_initialize_mapEj 105
_ZNSt12experimental10filesystem2v17__cxx1128recursive_directory_iterator10_Dir_stackC1Ev,_ZNSt12experimental10filesystem2v17__cxx1128recursive_directory_iterator10_Dir_stackC2Ev _ZNSt11_Deque_baseINSt12experimental10filesystem2v17__cxx114_DirESaIS4_EE17_M_initialize_mapEj 184
_ZNSt12experimental10filesystem2v17__cxx1128recursive_directory_iterator10_Dir_stackC1Ev,_ZNSt12experimental10filesystem2v17__cxx1128recursive_directory_iterator10_Dir_stackC2Ev _ZSt4swapISt15_Deque_iteratorINSt12experimental10filesystem2v17__cxx114_DirERS5_PS5_EENSt9enable_ifIXsrSt6__and_IJSt21is_move_constructibleIT_ESt18is_move_assignableISC_EEE5valueEvE4typeERSC_SJ_ 208
_ZNSt12experimental10filesystem2v17__cxx1128recursive_directory_iterator10_Dir_stackC1Ev,_ZNSt12experimental10filesystem2v17__cxx1128recursive_directory_iterator10_Dir_stackC2Ev _ZSt4swapISt15_Deque_iteratorINSt12experimental10filesystem2v17__cxx114_DirERS5_PS5_EENSt9enable_ifIXsrSt6__and_IJSt21is_move_constructibleIT_ESt18is_move_assignableISC_EEE5valueEvE4typeERSC_SJ_ 223
_ZNSt12experimental10filesystem2v17__cxx1128recursive_directory_iterator10_Dir_stackC1Ev,_ZNSt12experimental10filesystem2v17__cxx1128recursive_directory_iterator10_Dir_stackC2Ev _ZNSt5dequeINSt12experimental10filesystem2v17__cxx114_DirESaIS4_EED1Ev 261
_ZNSt12experimental10filesystem2v17__cxx1128recursive_directory_iterator10_Dir_stackC1Ev,_ZNSt12experimental10filesystem2v17__cxx1128recursive_directory_iterator10_Dir_stackC2Ev _ZNSt5dequeINSt12experimental10filesystem2v17__cxx114_DirESaIS4_EED1Ev 284
_ZNSt12experimental10filesystem2v17__cxx1128recursive_directory_iterator10_Dir_stackC1Ev,_ZNSt12experimental10filesystem2v17__cxx1128recursive_directory_iterator10_Dir_stackC2Ev _Unwind_Resume 292
_ZNSt12experimental10filesystem2v17__cxx1128recursive_directory_iteratorC1ERKNS2_4pathENS1_17directory_optionsEPSt10error_code,_ZNSt12experimental10filesystem2v17__cxx1128recursive_directory_iteratorC2ERKNS2_4pathENS1_17directory_optionsEPSt10error_code __x86.get_pc_thunk.si 7
_ZNSt12experimental10filesystem2v17__cxx1128recursive_directory_iteratorC1ERKNS2_4pathENS1_17directory_optionsEPSt10error_code,_ZNSt12experimental10filesystem2v17__cxx1128recursive_directory_iteratorC2ERKNS2_4pathENS1_17directory_optionsEPSt10error_code opendir 61
_ZNSt12experimental10filesystem2v17__cxx1128recursive_directory_iteratorC1ERKNS2_4pathENS1_17directory_optionsEPSt10error_code,_ZNSt12experimental10filesystem2v17__cxx1128recursive_directory_iteratorC2ERKNS2_4pathENS1_17directory_optionsEPSt10error_code _Znwj 108
_ZNSt12experimental10filesystem2v17__cxx1128recursive_directory_iteratorC1ERKNS2_4pathENS1_17directory_optionsEPSt10error_code,_ZNSt12experimental10filesystem2v17__cxx1128recursive_directory_iteratorC2ERKNS2_4pathENS1_17directory_optionsEPSt10error_code _ZTVSt23_Sp_counted_ptr_inplaceINSt12experimental10filesystem2v17__cxx1128recursive_directory_iterator10_Dir_stackESaIS5_ELN9__gnu_cxx12_Lock_policyE2EE 134
_ZNSt12experimental10filesystem2v17__cxx1128recursive_directory_iteratorC1ERKNS2_4pathENS1_17directory_optionsEPSt10error_code,_ZNSt12experimental10filesystem2v17__cxx1128recursive_directory_iteratorC2ERKNS2_4pathENS1_17directory_optionsEPSt10error_code _ZNSt12experimental10filesystem2v17__cxx1128recursive_directory_iterator10_Dir_stackC1Ev 174
_ZNSt12experimental10filesystem2v17__cxx1128recursive_directory_iteratorC1ERKNS2_4pathENS1_17directory_optionsEPSt10error_code,_ZNSt12experimental10filesystem2v17__cxx1128recursive_directory_iteratorC2ERKNS2_4pathENS1_17directory_optionsEPSt10error_code _ZTISt19_Sp_make_shared_tag 188
_ZNSt12experimental10filesystem2v17__cxx1128recursive_directory_iteratorC1ERKNS2_4pathENS1_17directory_optionsEPSt10error_code,_ZNSt12experimental10filesystem2v17__cxx1128recursive_directory_iteratorC2ERKNS2_4pathENS1_17directory_optionsEPSt10error_code _ZNKSt14__shared_countILN9__gnu_cxx12_Lock_policyE2EE14_M_get_deleterERKSt9type_info 212
_ZNSt12experimental10filesystem2v17__cxx1128recursive_directory_iteratorC1ERKNS2_4pathENS1_17directory_optionsEPSt10error_code,_ZNSt12experimental10filesystem2v17__cxx1128recursive_directory_iteratorC2ERKNS2_4pathENS1_17directory_optionsEPSt10error_code _ZNSt12experimental10filesystem2v17__cxx114pathC1ERKS3_ 241
_ZNSt12experimental10filesystem2v17__cxx1128recursive_directory_iteratorC1ERKNS2_4pathENS1_17directory_optionsEPSt10error_code,_ZNSt12experimental10filesystem2v17__cxx1128recursive_directory_iteratorC2ERKNS2_4pathENS1_17directory_optionsEPSt10error_code _ZNSt12experimental10filesystem2v17__cxx114pathC1Ev 255
_ZNSt12experimental10filesystem2v17__cxx1128recursive_directory_iteratorC1ERKNS2_4pathENS1_17directory_optionsEPSt10error_code,_ZNSt12experimental10filesystem2v17__cxx1128recursive_directory_iteratorC2ERKNS2_4pathENS1_17directory_optionsEPSt10error_code _ZNSt5dequeINSt12experimental10filesystem2v17__cxx114_DirESaIS4_EE12emplace_backIJS4_EEEvDpOT_ 273
_ZNSt12experimental10filesystem2v17__cxx1128recursive_directory_iteratorC1ERKNS2_4pathENS1_17directory_optionsEPSt10error_code,_ZNSt12experimental10filesystem2v17__cxx1128recursive_directory_iteratorC2ERKNS2_4pathENS1_17directory_optionsEPSt10error_code _ZdlPv 297
_ZNSt12experimental10filesystem2v17__cxx1128recursive_directory_iteratorC1ERKNS2_4pathENS1_17directory_optionsEPSt10error_code,_ZNSt12experimental10filesystem2v17__cxx1128recursive_directory_iteratorC2ERKNS2_4pathENS1_17directory_optionsEPSt10error_code _ZNSt12experimental10filesystem2v17__cxx114_DirD1Ev 312
_ZNSt12experimental10filesystem2v17__cxx1128recursive_directory_iteratorC1ERKNS2_4pathENS1_17directory_optionsEPSt10error_code,_ZNSt12experimental10filesystem2v17__cxx1128recursive_directory_iteratorC2ERKNS2_4pathENS1_17directory_optionsEPSt10error_code _ZNSt5dequeINSt12experimental10filesystem2v17__cxx114_DirESaIS4_EE4backEv 324
_ZNSt12experimental10filesystem2v17__cxx1128recursive_directory_iteratorC1ERKNS2_4pathENS1_17directory_optionsEPSt10error_code,_ZNSt12experimental10filesystem2v17__cxx1128recursive_directory_iteratorC2ERKNS2_4pathENS1_17directory_optionsEPSt10error_code _ZNSt12experimental10filesystem2v17__cxx114_Dir7advanceEPSt10error_codeNS1_17directory_optionsE 338
_ZNSt12experimental10filesystem2v17__cxx1128recursive_directory_iteratorC1ERKNS2_4pathENS1_17directory_optionsEPSt10error_code,_ZNSt12experimental10filesystem2v17__cxx1128recursive_directory_iteratorC2ERKNS2_4pathENS1_17directory_optionsEPSt10error_code _ZNSt14__shared_countILN9__gnu_cxx12_Lock_policyE2EED1Ev 401
_ZNSt12experimental10filesystem2v17__cxx1128recursive_directory_iteratorC1ERKNS2_4pathENS1_17directory_optionsEPSt10error_code,_ZNSt12experimental10filesystem2v17__cxx1128recursive_directory_iteratorC2ERKNS2_4pathENS1_17directory_optionsEPSt10error_code __errno_location 416
_ZNSt12experimental10filesystem2v17__cxx1128recursive_directory_iteratorC1ERKNS2_4pathENS1_17directory_optionsEPSt10error_code,_ZNSt12experimental10filesystem2v17__cxx1128recursive_directory_iteratorC2ERKNS2_4pathENS1_17directory_optionsEPSt10error_code _ZNSt12experimental10filesystem2v17__cxx114_DirD1Ev 460
_ZNSt12experimental10filesystem2v17__cxx1128recursive_directory_iteratorC1ERKNS2_4pathENS1_17directory_optionsEPSt10error_code,_ZNSt12experimental10filesystem2v17__cxx1128recursive_directory_iteratorC2ERKNS2_4pathENS1_17directory_optionsEPSt10error_code _ZNSt14__shared_countILN9__gnu_cxx12_Lock_policyE2EED1Ev 493
_ZNSt12experimental10filesystem2v17__cxx1128recursive_directory_iteratorC1ERKNS2_4pathENS1_17directory_optionsEPSt10error_code,_ZNSt12experimental10filesystem2v17__cxx1128recursive_directory_iteratorC2ERKNS2_4pathENS1_17directory_optionsEPSt10error_code _ZNSt14__shared_countILN9__gnu_cxx12_Lock_policyE2EED1Ev 527
_ZNSt12experimental10filesystem2v17__cxx1128recursive_directory_iteratorC1ERKNS2_4pathENS1_17directory_optionsEPSt10error_code,_ZNSt12experimental10filesystem2v17__cxx1128recursive_directory_iteratorC2ERKNS2_4pathENS1_17directory_optionsEPSt10error_code _Unwind_Resume 541
_ZNSt12experimental10filesystem2v17__cxx1128recursive_directory_iteratorC1ERKNS2_4pathENS1_17directory_optionsEPSt10error_code,_ZNSt12experimental10filesystem2v17__cxx1128recursive_directory_iteratorC2ERKNS2_4pathENS1_17directory_optionsEPSt10error_code _ZNSt3_V215system_categoryEv 558
_ZNSt12experimental10filesystem2v17__cxx1128recursive_directory_iteratorC1ERKNS2_4pathENS1_17directory_optionsEPSt10error_code,_ZNSt12experimental10filesystem2v17__cxx1128recursive_directory_iteratorC2ERKNS2_4pathENS1_17directory_optionsEPSt10error_code _ZNSt3_V216generic_categoryEv 584
_ZNSt12experimental10filesystem2v17__cxx1128recursive_directory_iteratorC1ERKNS2_4pathENS1_17directory_optionsEPSt10error_code,_ZNSt12experimental10filesystem2v17__cxx1128recursive_directory_iteratorC2ERKNS2_4pathENS1_17directory_optionsEPSt10error_code __cxa_allocate_exception 621
_ZNSt12experimental10filesystem2v17__cxx1128recursive_directory_iteratorC1ERKNS2_4pathENS1_17directory_optionsEPSt10error_code,_ZNSt12experimental10filesystem2v17__cxx1128recursive_directory_iteratorC2ERKNS2_4pathENS1_17directory_optionsEPSt10error_code _ZNSt3_V216generic_categoryEv 632
_ZNSt12experimental10filesystem2v17__cxx1128recursive_directory_iteratorC1ERKNS2_4pathENS1_17directory_optionsEPSt10error_code,_ZNSt12experimental10filesystem2v17__cxx1128recursive_directory_iteratorC2ERKNS2_4pathENS1_17directory_optionsEPSt10error_code .LC13 661
_ZNSt12experimental10filesystem2v17__cxx1128recursive_directory_iteratorC1ERKNS2_4pathENS1_17directory_optionsEPSt10error_code,_ZNSt12experimental10filesystem2v17__cxx1128recursive_directory_iteratorC2ERKNS2_4pathENS1_17directory_optionsEPSt10error_code _ZNSt12experimental10filesystem2v17__cxx1116filesystem_errorC1ERKNSt7__cxx1112basic_stringIcSt11char_traitsIcESaIcEEERKNS2_4pathESt10error_code 696
_ZNSt12experimental10filesystem2v17__cxx1128recursive_directory_iteratorC1ERKNS2_4pathENS1_17directory_optionsEPSt10error_code,_ZNSt12experimental10filesystem2v17__cxx1128recursive_directory_iteratorC2ERKNS2_4pathENS1_17directory_optionsEPSt10error_code _ZNSt7__cxx1112basic_stringIcSt11char_traitsIcESaIcEE10_M_disposeEv 705
_ZNSt12experimental10filesystem2v17__cxx1128recursive_directory_iteratorC1ERKNS2_4pathENS1_17directory_optionsEPSt10error_code,_ZNSt12experimental10filesystem2v17__cxx1128recursive_directory_iteratorC2ERKNS2_4pathENS1_17directory_optionsEPSt10error_code _ZNSt12experimental10filesystem2v17__cxx1116filesystem_errorD1Ev 714
_ZNSt12experimental10filesystem2v17__cxx1128recursive_directory_iteratorC1ERKNS2_4pathENS1_17directory_optionsEPSt10error_code,_ZNSt12experimental10filesystem2v17__cxx1128recursive_directory_iteratorC2ERKNS2_4pathENS1_17directory_optionsEPSt10error_code _ZTINSt12experimental10filesystem2v17__cxx1116filesystem_errorE 720
_ZNSt12experimental10filesystem2v17__cxx1128recursive_directory_iteratorC1ERKNS2_4pathENS1_17directory_optionsEPSt10error_code,_ZNSt12experimental10filesystem2v17__cxx1128recursive_directory_iteratorC2ERKNS2_4pathENS1_17directory_optionsEPSt10error_code __cxa_throw 731
_ZNSt12experimental10filesystem2v17__cxx1128recursive_directory_iteratorC1ERKNS2_4pathENS1_17directory_optionsEPSt10error_code,_ZNSt12experimental10filesystem2v17__cxx1128recursive_directory_iteratorC2ERKNS2_4pathENS1_17directory_optionsEPSt10error_code _ZNSt7__cxx1112basic_stringIcSt11char_traitsIcESaIcEE10_M_disposeEv 748
_ZNSt12experimental10filesystem2v17__cxx1128recursive_directory_iteratorC1ERKNS2_4pathENS1_17directory_optionsEPSt10error_code,_ZNSt12experimental10filesystem2v17__cxx1128recursive_directory_iteratorC2ERKNS2_4pathENS1_17directory_optionsEPSt10error_code __cxa_free_exception 781
_ZN9__gnu_cxx13stdio_filebufIcSt11char_traitsIcEED1Ev,_ZN9__gnu_cxx13stdio_filebufIcSt11char_traitsIcEED2Ev __x86.get_pc_thunk.bx 5
_ZN9__gnu_cxx13stdio_filebufIcSt11char_traitsIcEED1Ev,_ZN9__gnu_cxx13stdio_filebufIcSt11char_traitsIcEED2Ev _ZTVN9__gnu_cxx13stdio_filebufIcSt11char_traitsIcEEE 23
_ZN9__gnu_cxx13stdio_filebufIcSt11char_traitsIcEED1Ev,_ZN9__gnu_cxx13stdio_filebufIcSt11char_traitsIcEED2Ev _ZNSt13basic_filebufIcSt11char_traitsIcEED2Ev 34
_ZNSt10unique_ptrIA_cN12_GLOBAL__N_117free_as_in_mallocEED1Ev,_ZNSt10unique_ptrIA_cN12_GLOBAL__N_117free_as_in_mallocEED2Ev __x86.get_pc_thunk.bx 8
_ZNSt10unique_ptrIA_cN12_GLOBAL__N_117free_as_in_mallocEED1Ev,_ZNSt10unique_ptrIA_cN12_GLOBAL__N_117free_as_in_mallocEED2Ev free 27
_ZN9__gnu_cxx13stdio_filebufIcSt11char_traitsIcEED0Ev __x86.get_pc_thunk.bx 12
_ZN9__gnu_cxx13stdio_filebufIcSt11char_traitsIcEED0Ev _ZN9__gnu_cxx13stdio_filebufIcSt11char_traitsIcEED1Ev 24
_ZN9__gnu_cxx13stdio_filebufIcSt11char_traitsIcEED0Ev _ZdlPvj 37
_ZNSt12experimental10filesystem2v111resize_fileERKNS1_7__cxx114pathEyRSt10error_code.part.45,_ZNSt12experimental10filesystem2v112current_pathERKNS1_7__cxx114pathERSt10error_code.part.41,_ZNSt12experimental10filesystem2v114create_symlinkERKNS1_7__cxx114pathES5_RSt10error_code.part.40,_ZNSt12experimental10filesystem2v116create_hard_linkERKNS1_7__cxx114pathES5_RSt10error_code.part.39,_ZNSt12experimental10filesystem2v15spaceERKNS1_7__cxx114pathERSt10error_code.part.46,_ZNSt12experimental10filesystem2v16renameERKNS1_7__cxx114pathES5_RSt10error_code.part.44 __x86.get_pc_thunk.bx 9
_ZNSt12experimental10filesystem2v111resize_fileERKNS1_7__cxx114pathEyRSt10error_code.part.45,_ZNSt12experimental10filesystem2v112current_pathERKNS1_7__cxx114pathERSt10error_code.part.41,_ZNSt12experimental10filesystem2v114create_symlinkERKNS1_7__cxx114pathES5_RSt10error_code.part.40,_ZNSt12experimental10filesystem2v116create_hard_linkERKNS1_7__cxx114pathES5_RSt10error_code.part.39,_ZNSt12experimental10filesystem2v15spaceERKNS1_7__cxx114pathERSt10error_code.part.46,_ZNSt12experimental10filesystem2v16renameERKNS1_7__cxx114pathES5_RSt10error_code.part.44 _ZNSt3_V216generic_categoryEv 23
_ZNSt12experimental10filesystem2v111resize_fileERKNS1_7__cxx114pathEyRSt10error_code.part.45,_ZNSt12experimental10filesystem2v112current_pathERKNS1_7__cxx114pathERSt10error_code.part.41,_ZNSt12experimental10filesystem2v114create_symlinkERKNS1_7__cxx114pathES5_RSt10error_code.part.40,_ZNSt12experimental10filesystem2v116create_hard_linkERKNS1_7__cxx114pathES5_RSt10error_code.part.39,_ZNSt12experimental10filesystem2v15spaceERKNS1_7__cxx114pathERSt10error_code.part.46,_ZNSt12experimental10filesystem2v16renameERKNS1_7__cxx114pathES5_RSt10error_code.part.44 __errno_location 30
_ZNSt12_Vector_baseINSt12experimental10filesystem2v17__cxx114path5_CmptESaIS5_EE13_M_deallocateEPS5_j.isra.90 __x86.get_pc_thunk.bx 6
_ZNSt12_Vector_baseINSt12experimental10filesystem2v17__cxx114path5_CmptESaIS5_EE13_M_deallocateEPS5_j.isra.90 _ZdlPv 25
_ZNSt11_Deque_baseINSt12experimental10filesystem2v17__cxx114pathESaIS4_EE16_M_destroy_nodesEPPS4_S8_.isra.96 __x86.get_pc_thunk.bx 11
_ZNSt11_Deque_baseINSt12experimental10filesystem2v17__cxx114pathESaIS4_EE16_M_destroy_nodesEPPS4_S8_.isra.96 _ZdlPv 37
_ZNSt7__cxx1112basic_stringIcSt11char_traitsIcESaIcEE12_M_constructIPKcEEvT_S8_St20forward_iterator_tag.isra.109 __x86.get_pc_thunk.bx 11
_ZNSt7__cxx1112basic_stringIcSt11char_traitsIcESaIcEE12_M_constructIPKcEEvT_S8_St20forward_iterator_tag.isra.109 _ZNSt7__cxx1112basic_stringIcSt11char_traitsIcESaIcEE9_M_createERjj 56
_ZNSt7__cxx1112basic_stringIcSt11char_traitsIcESaIcEE12_M_constructIPKcEEvT_S8_St20forward_iterator_tag.isra.109 _ZNSt7__cxx1112basic_stringIcSt11char_traitsIcESaIcEE13_S_copy_charsEPcPKcS7_ 80
_ZNSt7__cxx1112basic_stringIcSt11char_traitsIcESaIcEE12_M_constructIPKcEEvT_S8_St20forward_iterator_tag.isra.109 .LC6 106
_ZNSt7__cxx1112basic_stringIcSt11char_traitsIcESaIcEE12_M_constructIPKcEEvT_S8_St20forward_iterator_tag.isra.109 _ZSt19__throw_logic_errorPKc 115
_ZNSt7__cxx1112basic_stringIcSt11char_traitsIcESaIcEE12_M_constructIN9__gnu_cxx17__normal_iteratorIPKcS4_EEEEvT_SB_St20forward_iterator_tag.isra.138 __x86.get_pc_thunk.bx 21
_ZNSt7__cxx1112basic_stringIcSt11char_traitsIcESaIcEE12_M_constructIN9__gnu_cxx17__normal_iteratorIPKcS4_EEEEvT_SB_St20forward_iterator_tag.isra.138 _ZNSt7__cxx1112basic_stringIcSt11char_traitsIcESaIcEE9_M_createERjj 48
_ZNSt7__cxx1112basic_stringIcSt11char_traitsIcESaIcEE12_M_constructIN9__gnu_cxx17__normal_iteratorIPKcS4_EEEEvT_SB_St20forward_iterator_tag.isra.138 _ZNSt7__cxx1112basic_stringIcSt11char_traitsIcESaIcEE13_S_copy_charsEPcPKcS7_ 72
_ZNSt10error_codeC1Ev,_ZNSt10error_codeC2Ev __x86.get_pc_thunk.bx 9
_ZNSt10error_codeC1Ev,_ZNSt10error_codeC2Ev _ZNSt3_V215system_categoryEv 26
_ZNSt10error_code5clearEv __x86.get_pc_thunk.bx 9
_ZNSt10error_code5clearEv _ZNSt3_V215system_categoryEv 20
_ZN12_GLOBAL__N_19file_timeERK4statRSt10error_code __x86.get_pc_thunk.bx 7
_ZN12_GLOBAL__N_19file_timeERK4statRSt10error_code .LC6 34
_ZN12_GLOBAL__N_19file_timeERK4statRSt10error_code _ZNSt3_V216generic_categoryEv 53
_ZN12_GLOBAL__N_19file_timeERK4statRSt10error_code _ZNSt10error_code5clearEv 95
_ZNSt12experimental10filesystem2v17__cxx114path9_M_appendERKNSt7__cxx1112basic_stringIcSt11char_traitsIcESaIcEEE __x86.get_pc_thunk.bx 7
_ZNSt12experimental10filesystem2v17__cxx114path9_M_appendERKNSt7__cxx1112basic_stringIcSt11char_traitsIcESaIcEEE _ZNSt7__cxx1112basic_stringIcSt11char_traitsIcESaIcEE9push_backEc 61
_ZNSt12experimental10filesystem2v17__cxx114path9_M_appendERKNSt7__cxx1112basic_stringIcSt11char_traitsIcESaIcEEE _ZNSt7__cxx1112basic_stringIcSt11char_traitsIcESaIcEEpLERKS4_ 73
_ZNSt12experimental10filesystem2v17__cxx114path9_M_appendERKNSt7__cxx1112basic_stringIcSt11char_traitsIcESaIcEEE _ZNSt12experimental10filesystem2v17__cxx114path14_M_split_cmptsEv 81
_ZSt9__advanceINSt12experimental10filesystem2v17__cxx114path8iteratorEiEvRT_T0_St26bidirectional_iterator_tag.isra.135 __x86.get_pc_thunk.bx 11
_ZSt9__advanceINSt12experimental10filesystem2v17__cxx114path8iteratorEiEvRT_T0_St26bidirectional_iterator_tag.isra.135 _ZNSt12experimental10filesystem2v17__cxx114path8iteratorppEv 39
_ZNSt12experimental10filesystem2v116create_hard_linkERKNS1_7__cxx114pathES5_RSt10error_code __x86.get_pc_thunk.bx 14
_ZNSt12experimental10filesystem2v116create_hard_linkERKNS1_7__cxx114pathES5_RSt10error_code link 32
_ZNSt12experimental10filesystem2v116create_hard_linkERKNS1_7__cxx114pathES5_RSt10error_code _ZNSt10error_code5clearEv 61
_ZNSt12experimental10filesystem2v114create_symlinkERKNS1_7__cxx114pathES5_RSt10error_code __x86.get_pc_thunk.bx 14
_ZNSt12experimental10filesystem2v114create_symlinkERKNS1_7__cxx114pathES5_RSt10error_code symlink 32
_ZNSt12experimental10filesystem2v114create_symlinkERKNS1_7__cxx114pathES5_RSt10error_code _ZNSt10error_code5clearEv 61
_ZNSt12experimental10filesystem2v124create_directory_symlinkERKNS1_7__cxx114pathES5_RSt10error_code __x86.get_pc_thunk.bx 5
_ZNSt12experimental10filesystem2v124create_directory_symlinkERKNS1_7__cxx114pathES5_RSt10error_code _ZNSt12experimental10filesystem2v114create_symlinkERKNS1_7__cxx114pathES5_RSt10error_code 28
_ZNSt12experimental10filesystem2v112current_pathERKNS1_7__cxx114pathERSt10error_code __x86.get_pc_thunk.bx 15
_ZNSt12experimental10filesystem2v112current_pathERKNS1_7__cxx114pathERSt10error_code chdir 28
_ZNSt12experimental10filesystem2v112current_pathERKNS1_7__cxx114pathERSt10error_code _ZNSt10error_code5clearEv 57
_ZNSt12experimental10filesystem2v110equivalentERKNS1_7__cxx114pathES5_RSt10error_code __x86.get_pc_thunk.bx 13
_ZNSt12experimental10filesystem2v110equivalentERKNS1_7__cxx114pathES5_RSt10error_code stat 45
_ZNSt12experimental10filesystem2v110equivalentERKNS1_7__cxx114pathES5_RSt10error_code __errno_location 90
_ZNSt12experimental10filesystem2v110equivalentERKNS1_7__cxx114pathES5_RSt10error_code __errno_location 107
_ZNSt12experimental10filesystem2v110equivalentERKNS1_7__cxx114pathES5_RSt10error_code stat 149
_ZNSt12experimental10filesystem2v110equivalentERKNS1_7__cxx114pathES5_RSt10error_code __errno_location 192
_ZNSt12experimental10filesystem2v110equivalentERKNS1_7__cxx114pathES5_RSt10error_code __errno_location 209
_ZNSt12experimental10filesystem2v110equivalentERKNS1_7__cxx114pathES5_RSt10error_code _ZNSt3_V216generic_categoryEv 286
_ZNSt12experimental10filesystem2v110equivalentERKNS1_7__cxx114pathES5_RSt10error_code _ZNSt3_V216generic_categoryEv 357
_ZNSt12experimental10filesystem2v110equivalentERKNS1_7__cxx114pathES5_RSt10error_code _ZNSt10error_code5clearEv 383
_ZNSt12experimental10filesystem2v110equivalentERKNS1_7__cxx114pathES5_RSt10error_code _ZNSt10error_code5clearEv 473
_ZNSt12experimental10filesystem2v110equivalentERKNS1_7__cxx114pathES5_RSt10error_code _ZNSt3_V216generic_categoryEv 489
_ZNSt12experimental10filesystem2v19file_sizeERKNS1_7__cxx114pathERSt10error_code __x86.get_pc_thunk.bx 10
_ZNSt12experimental10filesystem2v19file_sizeERKNS1_7__cxx114pathERSt10error_code stat 33
_ZNSt12experimental10filesystem2v19file_sizeERKNS1_7__cxx114pathERSt10error_code _ZNSt3_V216generic_categoryEv 45
_ZNSt12experimental10filesystem2v19file_sizeERKNS1_7__cxx114pathERSt10error_code __errno_location 52
_ZNSt12experimental10filesystem2v19file_sizeERKNS1_7__cxx114pathERSt10error_code _ZNSt10error_code5clearEv 72
_ZNSt12experimental10filesystem2v19file_sizeERKNS1_7__cxx114pathERSt10error_code _ZNSt3_V216generic_categoryEv 110
_ZNSt12experimental10filesystem2v19file_sizeERKNS1_7__cxx114pathERSt10error_code _ZNSt3_V216generic_categoryEv 123
_ZNSt12experimental10filesystem2v115hard_link_countERKNS1_7__cxx114pathERSt10error_code __x86.get_pc_thunk.bx 10
_ZNSt12experimental10filesystem2v115hard_link_countERKNS1_7__cxx114pathERSt10error_code stat 33
_ZNSt12experimental10filesystem2v115hard_link_countERKNS1_7__cxx114pathERSt10error_code _ZNSt3_V216generic_categoryEv 45
_ZNSt12experimental10filesystem2v115hard_link_countERKNS1_7__cxx114pathERSt10error_code __errno_location 52
_ZNSt12experimental10filesystem2v115hard_link_countERKNS1_7__cxx114pathERSt10error_code _ZNSt10error_code5clearEv 75
_ZNSt12experimental10filesystem2v115last_write_timeERKNS1_7__cxx114pathERSt10error_code __x86.get_pc_thunk.bx 10
_ZNSt12experimental10filesystem2v115last_write_timeERKNS1_7__cxx114pathERSt10error_code stat 33
_ZNSt12experimental10filesystem2v115last_write_timeERKNS1_7__cxx114pathERSt10error_code _ZNSt3_V216generic_categoryEv 45
_ZNSt12experimental10filesystem2v115last_write_timeERKNS1_7__cxx114pathERSt10error_code __errno_location 52
_ZNSt12experimental10filesystem2v115last_write_timeERKNS1_7__cxx114pathERSt10error_code _ZNSt10error_code5clearEv 86
_ZNSt12experimental10filesystem2v115last_write_timeERKNS1_7__cxx114pathENSt6chrono10time_pointINS6_3_V212system_clockENS6_8durationIxSt5ratioILx1ELx1000000000EEEEEERSt10error_code __x86.get_pc_thunk.bx 7
_ZNSt12experimental10filesystem2v115last_write_timeERKNS1_7__cxx114pathENSt6chrono10time_pointINS6_3_V212system_clockENS6_8durationIxSt5ratioILx1ELx1000000000EEEEEERSt10error_code __divdi3 34
_ZNSt12experimental10filesystem2v115last_write_timeERKNS1_7__cxx114pathENSt6chrono10time_pointINS6_3_V212system_clockENS6_8durationIxSt5ratioILx1ELx1000000000EEEEEERSt10error_code __moddi3 57
_ZNSt12experimental10filesystem2v115last_write_timeERKNS1_7__cxx114pathENSt6chrono10time_pointINS6_3_V212system_clockENS6_8durationIxSt5ratioILx1ELx1000000000EEEEEERSt10error_code utimensat 110
_ZNSt12experimental10filesystem2v115last_write_timeERKNS1_7__cxx114pathENSt6chrono10time_pointINS6_3_V212system_clockENS6_8durationIxSt5ratioILx1ELx1000000000EEEEEERSt10error_code _ZNSt3_V216generic_categoryEv 122
_ZNSt12experimental10filesystem2v115last_write_timeERKNS1_7__cxx114pathENSt6chrono10time_pointINS6_3_V212system_clockENS6_8durationIxSt5ratioILx1ELx1000000000EEEEEERSt10error_code __errno_location 129
_ZNSt12experimental10filesystem2v115last_write_timeERKNS1_7__cxx114pathENSt6chrono10time_pointINS6_3_V212system_clockENS6_8durationIxSt5ratioILx1ELx1000000000EEEEEERSt10error_code _ZNSt10error_code5clearEv 152
_ZNSt12experimental10filesystem2v16renameERKNS1_7__cxx114pathES5_RSt10error_code __x86.get_pc_thunk.bx 14
_ZNSt12experimental10filesystem2v16renameERKNS1_7__cxx114pathES5_RSt10error_code rename 32
_ZNSt12experimental10filesystem2v16renameERKNS1_7__cxx114pathES5_RSt10error_code _ZNSt10error_code5clearEv 61
_ZNSt12experimental10filesystem2v111resize_fileERKNS1_7__cxx114pathEyRSt10error_code __x86.get_pc_thunk.bx 12
_ZNSt12experimental10filesystem2v111resize_fileERKNS1_7__cxx114pathEyRSt10error_code _ZNSt3_V216generic_categoryEv 33
_ZNSt12experimental10filesystem2v111resize_fileERKNS1_7__cxx114pathEyRSt10error_code truncate 56
_ZNSt12experimental10filesystem2v111resize_fileERKNS1_7__cxx114pathEyRSt10error_code _ZNSt10error_code5clearEv 85
_ZNSt12experimental10filesystem2v15spaceERKNS1_7__cxx114pathERSt10error_code __x86.get_pc_thunk.bx 15
_ZNSt12experimental10filesystem2v15spaceERKNS1_7__cxx114pathERSt10error_code statvfs 49
_ZNSt12experimental10filesystem2v15spaceERKNS1_7__cxx114pathERSt10error_code _ZNSt10error_code5clearEv 186
_ZNSt12experimental10filesystem2v16statusERKNS1_7__cxx114pathERSt10error_code __x86.get_pc_thunk.bx 10
_ZNSt12experimental10filesystem2v16statusERKNS1_7__cxx114pathERSt10error_code stat 52
_ZNSt12experimental10filesystem2v16statusERKNS1_7__cxx114pathERSt10error_code __errno_location 67
_ZNSt12experimental10filesystem2v16statusERKNS1_7__cxx114pathERSt10error_code _ZNSt3_V216generic_categoryEv 77
_ZNSt12experimental10filesystem2v16statusERKNS1_7__cxx114pathERSt10error_code _ZNSt10error_code5clearEv 126
_ZNSt12experimental10filesystem2v16existsERKNS1_7__cxx114pathERSt10error_code __x86.get_pc_thunk.bx 15
_ZNSt12experimental10filesystem2v16existsERKNS1_7__cxx114pathERSt10error_code _ZNSt12experimental10filesystem2v16statusERKNS1_7__cxx114pathERSt10error_code 31
_ZNSt12experimental10filesystem2v16existsERKNS1_7__cxx114pathERSt10error_code _ZNSt10error_code5clearEv 53
_ZNSt12experimental10filesystem2v114symlink_statusERKNS1_7__cxx114pathERSt10error_code __x86.get_pc_thunk.bx 10
_ZNSt12experimental10filesystem2v114symlink_statusERKNS1_7__cxx114pathERSt10error_code lstat 52
_ZNSt12experimental10filesystem2v114symlink_statusERKNS1_7__cxx114pathERSt10error_code __errno_location 67
_ZNSt12experimental10filesystem2v114symlink_statusERKNS1_7__cxx114pathERSt10error_code _ZNSt3_V216generic_categoryEv 77
_ZNSt12experimental10filesystem2v114symlink_statusERKNS1_7__cxx114pathERSt10error_code _ZNSt10error_code5clearEv 116
_ZNSt12experimental10filesystem2v111permissionsERKNS1_7__cxx114pathENS1_5permsERSt10error_code __x86.get_pc_thunk.bx 7
_ZNSt12experimental10filesystem2v111permissionsERKNS1_7__cxx114pathENS1_5permsERSt10error_code _ZNSt3_V216generic_categoryEv 61
_ZNSt12experimental10filesystem2v111permissionsERKNS1_7__cxx114pathENS1_5permsERSt10error_code _ZNSt12experimental10filesystem2v114symlink_statusERKNS1_7__cxx114pathERSt10error_code 123
_ZNSt12experimental10filesystem2v111permissionsERKNS1_7__cxx114pathENS1_5permsERSt10error_code _ZNSt12experimental10filesystem2v16statusERKNS1_7__cxx114pathERSt10error_code 139
_ZNSt12experimental10filesystem2v111permissionsERKNS1_7__cxx114pathENS1_5permsERSt10error_code fchmodat 208
_ZNSt12experimental10filesystem2v111permissionsERKNS1_7__cxx114pathENS1_5permsERSt10error_code __errno_location 220
_ZNSt12experimental10filesystem2v111permissionsERKNS1_7__cxx114pathENS1_5permsERSt10error_code _ZNSt3_V216generic_categoryEv 231
_ZNSt12experimental10filesystem2v111permissionsERKNS1_7__cxx114pathENS1_5permsERSt10error_code _ZNSt10error_code5clearEv 247
_ZNSt12experimental10filesystem2v16removeERKNS1_7__cxx114pathERSt10error_code __x86.get_pc_thunk.bx 10
_ZNSt12experimental10filesystem2v16removeERKNS1_7__cxx114pathERSt10error_code _ZNSt12experimental10filesystem2v114symlink_statusERKNS1_7__cxx114pathERSt10error_code 32
_ZNSt12experimental10filesystem2v16removeERKNS1_7__cxx114pathERSt10error_code remove 62
_ZNSt12experimental10filesystem2v16removeERKNS1_7__cxx114pathERSt10error_code _ZNSt10error_code5clearEv 78
_ZNSt12experimental10filesystem2v16removeERKNS1_7__cxx114pathERSt10error_code _ZNSt3_V216generic_categoryEv 88
_ZNSt12experimental10filesystem2v16removeERKNS1_7__cxx114pathERSt10error_code __errno_location 95
_ZNSt12experimental10filesystem2v110remove_allERKNS1_7__cxx114pathERSt10error_code __x86.get_pc_thunk.bx 10
_ZNSt12experimental10filesystem2v110remove_allERKNS1_7__cxx114pathERSt10error_code _ZNSt12experimental10filesystem2v114symlink_statusERKNS1_7__cxx114pathERSt10error_code 32
_ZNSt12experimental10filesystem2v110remove_allERKNS1_7__cxx114pathERSt10error_code _ZNSt12experimental10filesystem2v17__cxx1118directory_iteratorC1ERKNS2_4pathENS1_17directory_optionsEPSt10error_code 76
_ZNSt12experimental10filesystem2v110remove_allERKNS1_7__cxx114pathERSt10error_code _ZNSt14__shared_countILN9__gnu_cxx12_Lock_policyE2EED1Ev 110
_ZNSt12experimental10filesystem2v110remove_allERKNS1_7__cxx114pathERSt10error_code _ZNSt14__shared_countILN9__gnu_cxx12_Lock_policyE2EED1Ev 121
_ZNSt12experimental10filesystem2v110remove_allERKNS1_7__cxx114pathERSt10error_code _ZNSt12experimental10filesystem2v16removeERKNS1_7__cxx114pathERSt10error_code 147
_ZNSt12experimental10filesystem2v110remove_allERKNS1_7__cxx114pathERSt10error_code _ZNKSt12experimental10filesystem2v17__cxx1118directory_iteratordeEv 185
_ZNSt12experimental10filesystem2v110remove_allERKNS1_7__cxx114pathERSt10error_code _ZNSt12experimental10filesystem2v17__cxx1118directory_iteratorppEv 208
_ZNSt12experimental10filesystem2v18is_emptyERKNS1_7__cxx114pathERSt10error_code __x86.get_pc_thunk.bx 10
_ZNSt12experimental10filesystem2v18is_emptyERKNS1_7__cxx114pathERSt10error_code _ZNSt12experimental10filesystem2v16statusERKNS1_7__cxx114pathERSt10error_code 33
_ZNSt12experimental10filesystem2v18is_emptyERKNS1_7__cxx114pathERSt10error_code _ZNSt12experimental10filesystem2v17__cxx1118directory_iteratorC1ERKNS2_4pathENS1_17directory_optionsEPSt10error_code 79
_ZNSt12experimental10filesystem2v18is_emptyERKNS1_7__cxx114pathERSt10error_code _ZNSt14__shared_countILN9__gnu_cxx12_Lock_policyE2EED1Ev 102
_ZNSt12experimental10filesystem2v18is_emptyERKNS1_7__cxx114pathERSt10error_code _ZNSt14__shared_countILN9__gnu_cxx12_Lock_policyE2EED1Ev 113
_ZNSt12experimental10filesystem2v18is_emptyERKNS1_7__cxx114pathERSt10error_code _ZNSt12experimental10filesystem2v19file_sizeERKNS1_7__cxx114pathERSt10error_code 130
_ZN9__gnu_cxx13stdio_filebufIcSt11char_traitsIcEEC1EiSt13_Ios_Openmodej,_ZN9__gnu_cxx13stdio_filebufIcSt11char_traitsIcEEC2EiSt13_Ios_Openmodej __x86.get_pc_thunk.di 7
_ZN9__gnu_cxx13stdio_filebufIcSt11char_traitsIcEEC1EiSt13_Ios_Openmodej,_ZN9__gnu_cxx13stdio_filebufIcSt11char_traitsIcEEC2EiSt13_Ios_Openmodej _ZNSt13basic_filebufIcSt11char_traitsIcEEC2Ev 27
_ZN9__gnu_cxx13stdio_filebufIcSt11char_traitsIcEEC1EiSt13_Ios_Openmodej,_ZN9__gnu_cxx13stdio_filebufIcSt11char_traitsIcEEC2EiSt13_Ios_Openmodej _ZTVN9__gnu_cxx13stdio_filebufIcSt11char_traitsIcEEE 33
_ZN9__gnu_cxx13stdio_filebufIcSt11char_traitsIcEEC1EiSt13_Ios_Openmodej,_ZN9__gnu_cxx13stdio_filebufIcSt11char_traitsIcEEC2EiSt13_Ios_Openmodej _ZNSt12__basic_fileIcE8sys_openEiSt13_Ios_Openmode 59
_ZN9__gnu_cxx13stdio_filebufIcSt11char_traitsIcEEC1EiSt13_Ios_Openmodej,_ZN9__gnu_cxx13stdio_filebufIcSt11char_traitsIcEEC2EiSt13_Ios_Openmodej _ZNKSt12__basic_fileIcE7is_openEv 70
_ZN9__gnu_cxx13stdio_filebufIcSt11char_traitsIcEEC1EiSt13_Ios_Openmodej,_ZN9__gnu_cxx13stdio_filebufIcSt11char_traitsIcEEC2EiSt13_Ios_Openmodej _ZNSt13basic_filebufIcSt11char_traitsIcEE27_M_allocate_internal_bufferEv 98
_ZN9__gnu_cxx13stdio_filebufIcSt11char_traitsIcEEC1EiSt13_Ios_Openmodej,_ZN9__gnu_cxx13stdio_filebufIcSt11char_traitsIcEEC2EiSt13_Ios_Openmodej _ZNSt13basic_filebufIcSt11char_traitsIcEE13_M_set_bufferEi 116
_ZN9__gnu_cxx13stdio_filebufIcSt11char_traitsIcEEC1EiSt13_Ios_Openmodej,_ZN9__gnu_cxx13stdio_filebufIcSt11char_traitsIcEEC2EiSt13_Ios_Openmodej _ZNSt13basic_filebufIcSt11char_traitsIcEED2Ev 135
_ZN9__gnu_cxx13stdio_filebufIcSt11char_traitsIcEEC1EiSt13_Ios_Openmodej,_ZN9__gnu_cxx13stdio_filebufIcSt11char_traitsIcEEC2EiSt13_Ios_Openmodej _Unwind_Resume 146
_ZN12_GLOBAL__N_112do_copy_fileERKNSt12experimental10filesystem2v17__cxx114pathES6_NS2_12copy_optionsEP4statS9_RSt10error_code __x86.get_pc_thunk.bx 7
_ZN12_GLOBAL__N_112do_copy_fileERKNSt12experimental10filesystem2v17__cxx114pathES6_NS2_12copy_optionsEP4statS9_RSt10error_code stat 63
_ZN12_GLOBAL__N_112do_copy_fileERKNSt12experimental10filesystem2v17__cxx114pathES6_NS2_12copy_optionsEP4statS9_RSt10error_code __errno_location 75
_ZN12_GLOBAL__N_112do_copy_fileERKNSt12experimental10filesystem2v17__cxx114pathES6_NS2_12copy_optionsEP4statS9_RSt10error_code _ZNSt3_V216generic_categoryEv 117
_ZN12_GLOBAL__N_112do_copy_fileERKNSt12experimental10filesystem2v17__cxx114pathES6_NS2_12copy_optionsEP4statS9_RSt10error_code stat 197
_ZN12_GLOBAL__N_112do_copy_fileERKNSt12experimental10filesystem2v17__cxx114pathES6_NS2_12copy_optionsEP4statS9_RSt10error_code _ZNSt3_V216generic_categoryEv 245
_ZN12_GLOBAL__N_112do_copy_fileERKNSt12experimental10filesystem2v17__cxx114pathES6_NS2_12copy_optionsEP4statS9_RSt10error_code _ZNSt3_V216generic_categoryEv 325
_ZN12_GLOBAL__N_112do_copy_fileERKNSt12experimental10filesystem2v17__cxx114pathES6_NS2_12copy_optionsEP4statS9_RSt10error_code _ZNSt10error_code5clearEv 357
_ZN12_GLOBAL__N_112do_copy_fileERKNSt12experimental10filesystem2v17__cxx114pathES6_NS2_12copy_optionsEP4statS9_RSt10error_code open 507
_ZN12_GLOBAL__N_112do_copy_fileERKNSt12experimental10filesystem2v17__cxx114pathES6_NS2_12copy_optionsEP4statS9_RSt10error_code _ZNSt3_V216generic_categoryEv 524
_ZN12_GLOBAL__N_112do_copy_fileERKNSt12experimental10filesystem2v17__cxx114pathES6_NS2_12copy_optionsEP4statS9_RSt10error_code __errno_location 531
_ZN12_GLOBAL__N_112do_copy_fileERKNSt12experimental10filesystem2v17__cxx114pathES6_NS2_12copy_optionsEP4statS9_RSt10error_code open 590
_ZN12_GLOBAL__N_112do_copy_fileERKNSt12experimental10filesystem2v17__cxx114pathES6_NS2_12copy_optionsEP4statS9_RSt10error_code __errno_location 607
_ZN12_GLOBAL__N_112do_copy_fileERKNSt12experimental10filesystem2v17__cxx114pathES6_NS2_12copy_optionsEP4statS9_RSt10error_code _ZNSt10error_code5clearEv 638
_ZN12_GLOBAL__N_112do_copy_fileERKNSt12experimental10filesystem2v17__cxx114pathES6_NS2_12copy_optionsEP4statS9_RSt10error_code fchmod 665
_ZN12_GLOBAL__N_112do_copy_fileERKNSt12experimental10filesystem2v17__cxx114pathES6_NS2_12copy_optionsEP4statS9_RSt10error_code sendfile 722
_ZN12_GLOBAL__N_112do_copy_fileERKNSt12experimental10filesystem2v17__cxx114pathES6_NS2_12copy_optionsEP4statS9_RSt10error_code __errno_location 736
_ZN12_GLOBAL__N_112do_copy_fileERKNSt12experimental10filesystem2v17__cxx114pathES6_NS2_12copy_optionsEP4statS9_RSt10error_code __errno_location 746
_ZN12_GLOBAL__N_112do_copy_fileERKNSt12experimental10filesystem2v17__cxx114pathES6_NS2_12copy_optionsEP4statS9_RSt10error_code _ZNSt3_V216generic_categoryEv 771
_ZN12_GLOBAL__N_112do_copy_fileERKNSt12experimental10filesystem2v17__cxx114pathES6_NS2_12copy_optionsEP4statS9_RSt10error_code __errno_location 778
_ZN12_GLOBAL__N_112do_copy_fileERKNSt12experimental10filesystem2v17__cxx114pathES6_NS2_12copy_optionsEP4statS9_RSt10error_code _ZN9__gnu_cxx13stdio_filebufIcSt11char_traitsIcEEC1EiSt13_Ios_Openmodej 817
_ZN12_GLOBAL__N_112do_copy_fileERKNSt12experimental10filesystem2v17__cxx114pathES6_NS2_12copy_optionsEP4statS9_RSt10error_code _ZN9__gnu_cxx13stdio_filebufIcSt11char_traitsIcEEC1EiSt13_Ios_Openmodej 851
_ZN12_GLOBAL__N_112do_copy_fileERKNSt12experimental10filesystem2v17__cxx114pathES6_NS2_12copy_optionsEP4statS9_RSt10error_code _ZNKSt12__basic_fileIcE7is_openEv 865
_ZN12_GLOBAL__N_112do_copy_fileERKNSt12experimental10filesystem2v17__cxx114pathES6_NS2_12copy_optionsEP4statS9_RSt10error_code _ZNKSt12__basic_fileIcE7is_openEv 905
_ZN12_GLOBAL__N_112do_copy_fileERKNSt12experimental10filesystem2v17__cxx114pathES6_NS2_12copy_optionsEP4statS9_RSt10error_code _ZNSoC1EPSt15basic_streambufIcSt11char_traitsIcEE 973
_ZN12_GLOBAL__N_112do_copy_fileERKNSt12experimental10filesystem2v17__cxx114pathES6_NS2_12copy_optionsEP4statS9_RSt10error_code _ZNSolsEPSt15basic_streambufIcSt11char_traitsIcEE 988
_ZN12_GLOBAL__N_112do_copy_fileERKNSt12experimental10filesystem2v17__cxx114pathES6_NS2_12copy_optionsEP4statS9_RSt10error_code _ZNSoD1Ev 1018
_ZN12_GLOBAL__N_112do_copy_fileERKNSt12experimental10filesystem2v17__cxx114pathES6_NS2_12copy_optionsEP4statS9_RSt10error_code _ZNSt3_V216generic_categoryEv 1033
_ZN12_GLOBAL__N_112do_copy_fileERKNSt12experimental10filesystem2v17__cxx114pathES6_NS2_12copy_optionsEP4statS9_RSt10error_code _ZN9__gnu_cxx13stdio_filebufIcSt11char_traitsIcEED1Ev 1059
_ZN12_GLOBAL__N_112do_copy_fileERKNSt12experimental10filesystem2v17__cxx114pathES6_NS2_12copy_optionsEP4statS9_RSt10error_code _ZN9__gnu_cxx13stdio_filebufIcSt11char_traitsIcEED1Ev 1073
_ZN12_GLOBAL__N_112do_copy_fileERKNSt12experimental10filesystem2v17__cxx114pathES6_NS2_12copy_optionsEP4statS9_RSt10error_code close 1099
_ZN12_GLOBAL__N_112do_copy_fileERKNSt12experimental10filesystem2v17__cxx114pathES6_NS2_12copy_optionsEP4statS9_RSt10error_code close 1129
_ZN12_GLOBAL__N_112do_copy_fileERKNSt12experimental10filesystem2v17__cxx114pathES6_NS2_12copy_optionsEP4statS9_RSt10error_code _ZNSt13basic_filebufIcSt11char_traitsIcEE5closeEv 1152
_ZN12_GLOBAL__N_112do_copy_fileERKNSt12experimental10filesystem2v17__cxx114pathES6_NS2_12copy_optionsEP4statS9_RSt10error_code _ZNSt13basic_filebufIcSt11char_traitsIcEE5closeEv 1174
_ZN12_GLOBAL__N_112do_copy_fileERKNSt12experimental10filesystem2v17__cxx114pathES6_NS2_12copy_optionsEP4statS9_RSt10error_code close 1206
_ZN12_GLOBAL__N_112do_copy_fileERKNSt12experimental10filesystem2v17__cxx114pathES6_NS2_12copy_optionsEP4statS9_RSt10error_code close 1227
_ZN12_GLOBAL__N_112do_copy_fileERKNSt12experimental10filesystem2v17__cxx114pathES6_NS2_12copy_optionsEP4statS9_RSt10error_code _ZNSt3_V216generic_categoryEv 1251
_ZN12_GLOBAL__N_112do_copy_fileERKNSt12experimental10filesystem2v17__cxx114pathES6_NS2_12copy_optionsEP4statS9_RSt10error_code __errno_location 1258
_ZN12_GLOBAL__N_112do_copy_fileERKNSt12experimental10filesystem2v17__cxx114pathES6_NS2_12copy_optionsEP4statS9_RSt10error_code _ZNSt10error_code5clearEv 1284
_ZN12_GLOBAL__N_112do_copy_fileERKNSt12experimental10filesystem2v17__cxx114pathES6_NS2_12copy_optionsEP4statS9_RSt10error_code _ZNSt3_V216generic_categoryEv 1297
_ZN12_GLOBAL__N_112do_copy_fileERKNSt12experimental10filesystem2v17__cxx114pathES6_NS2_12copy_optionsEP4statS9_RSt10error_code __errno_location 1304
_ZN12_GLOBAL__N_112do_copy_fileERKNSt12experimental10filesystem2v17__cxx114pathES6_NS2_12copy_optionsEP4statS9_RSt10error_code _ZNSt10error_code5clearEv 1332
_ZNSt11_Deque_baseINSt12experimental10filesystem2v17__cxx114pathESaIS4_EE17_M_initialize_mapEj __x86.get_pc_thunk.ax 9
_ZNSt11_Deque_baseINSt12experimental10filesystem2v17__cxx114pathESaIS4_EE17_M_initialize_mapEj _Znwj 68
_ZNSt11_Deque_baseINSt12experimental10filesystem2v17__cxx114pathESaIS4_EE17_M_initialize_mapEj _Znwj 119
_ZNSt11_Deque_baseINSt12experimental10filesystem2v17__cxx114pathESaIS4_EE17_M_initialize_mapEj __cxa_begin_catch 145
_ZNSt11_Deque_baseINSt12experimental10filesystem2v17__cxx114pathESaIS4_EE17_M_initialize_mapEj __cxa_rethrow 166
_ZNSt11_Deque_baseINSt12experimental10filesystem2v17__cxx114pathESaIS4_EE17_M_initialize_mapEj __cxa_end_catch 176
_ZNSt11_Deque_baseINSt12experimental10filesystem2v17__cxx114pathESaIS4_EE17_M_initialize_mapEj __cxa_begin_catch 188
_ZNSt11_Deque_baseINSt12experimental10filesystem2v17__cxx114pathESaIS4_EE17_M_initialize_mapEj _ZdlPv 199
_ZNSt11_Deque_baseINSt12experimental10filesystem2v17__cxx114pathESaIS4_EE17_M_initialize_mapEj __cxa_rethrow 223
_ZNSt11_Deque_baseINSt12experimental10filesystem2v17__cxx114pathESaIS4_EE17_M_initialize_mapEj __cxa_end_catch 305
_ZNSt11_Deque_baseINSt12experimental10filesystem2v17__cxx114pathESaIS4_EE17_M_initialize_mapEj _Unwind_Resume 317
_ZNSt11_Deque_baseINSt12experimental10filesystem2v17__cxx114pathESaIS4_EEC1Ev,_ZNSt11_Deque_baseINSt12experimental10filesystem2v17__cxx114pathESaIS4_EEC2Ev __x86.get_pc_thunk.bx 5
_ZNSt11_Deque_baseINSt12experimental10filesystem2v17__cxx114pathESaIS4_EEC1Ev,_ZNSt11_Deque_baseINSt12experimental10filesystem2v17__cxx114pathESaIS4_EEC2Ev _ZNSt11_Deque_baseINSt12experimental10filesystem2v17__cxx114pathESaIS4_EE17_M_initialize_mapEj 94
_ZNKSt15_Deque_iteratorINSt12experimental10filesystem2v17__cxx114pathERS4_PS4_EplEi __x86.get_pc_thunk.bx 10
_ZNKSt15_Deque_iteratorINSt12experimental10filesystem2v17__cxx114pathERS4_PS4_EplEi _ZNSt15_Deque_iteratorINSt12experimental10filesystem2v17__cxx114pathERS4_PS4_EC1ERKS7_ 31
_ZNKSt15_Deque_iteratorINSt12experimental10filesystem2v17__cxx114pathERS4_PS4_EplEi _ZNSt15_Deque_iteratorINSt12experimental10filesystem2v17__cxx114pathERS4_PS4_EpLEi 42
_ZNKSt15_Deque_iteratorINSt12experimental10filesystem2v17__cxx114pathERS4_PS4_EplEi _ZNSt15_Deque_iteratorINSt12experimental10filesystem2v17__cxx114pathERS4_PS4_EC1ERKS7_ 51
_ZNSt12_Destroy_auxILb0EE9__destroyIPNSt12experimental10filesystem2v17__cxx114path5_CmptEEEvT_S9_ __x86.get_pc_thunk.bx 9
_ZNSt12_Destroy_auxILb0EE9__destroyIPNSt12experimental10filesystem2v17__cxx114path5_CmptEEEvT_S9_ _ZNSt12experimental10filesystem2v17__cxx114pathD2Ev 32
_ZNSt12experimental10filesystem2v112current_pathERKNS1_7__cxx114pathE __x86.get_pc_thunk.si 10
_ZNSt12experimental10filesystem2v112current_pathERKNS1_7__cxx114pathE _ZNSt10error_codeC1Ev 27
_ZNSt12experimental10filesystem2v112current_pathERKNS1_7__cxx114pathE _ZNSt12experimental10filesystem2v112current_pathERKNS1_7__cxx114pathERSt10error_code 38
_ZNSt12experimental10filesystem2v112current_pathERKNS1_7__cxx114pathE __cxa_allocate_exception 60
_ZNSt12experimental10filesystem2v112current_pathERKNS1_7__cxx114pathE .LC11 66
_ZNSt12experimental10filesystem2v112current_pathERKNS1_7__cxx114pathE _ZNSt12experimental10filesystem2v17__cxx1116filesystem_errorC1ERKNSt7__cxx1112basic_stringIcSt11char_traitsIcESaIcEEESt10error_code 94
_ZNSt12experimental10filesystem2v112current_pathERKNS1_7__cxx114pathE _ZNSt7__cxx1112basic_stringIcSt11char_traitsIcESaIcEE10_M_disposeEv 102
_ZNSt12experimental10filesystem2v112current_pathERKNS1_7__cxx114pathE _ZNSt12experimental10filesystem2v17__cxx1116filesystem_errorD1Ev 111
_ZNSt12experimental10filesystem2v112current_pathERKNS1_7__cxx114pathE _ZTINSt12experimental10filesystem2v17__cxx1116filesystem_errorE 117
_ZNSt12experimental10filesystem2v112current_pathERKNS1_7__cxx114pathE __cxa_throw 125
_ZNSt12experimental10filesystem2v112current_pathERKNS1_7__cxx114pathE _ZNSt7__cxx1112basic_stringIcSt11char_traitsIcESaIcEE10_M_disposeEv 139
_ZNSt12experimental10filesystem2v112current_pathERKNS1_7__cxx114pathE __cxa_free_exception 163
_ZNSt12experimental10filesystem2v112current_pathERKNS1_7__cxx114pathE _Unwind_Resume 174
_ZNSt12experimental10filesystem2v17__cxx114pathC1IPcS3_EERKT_,_ZNSt12experimental10filesystem2v17__cxx114pathC2IPcS3_EERKT_ __x86.get_pc_thunk.di 7
_ZNSt12experimental10filesystem2v17__cxx114pathC1IPcS3_EERKT_,_ZNSt12experimental10filesystem2v17__cxx114pathC2IPcS3_EERKT_ _ZNSt12experimental10filesystem2v17__cxx114path14_M_split_cmptsEv 67
_ZNSt12experimental10filesystem2v17__cxx114pathC1IPcS3_EERKT_,_ZNSt12experimental10filesystem2v17__cxx114pathC2IPcS3_EERKT_ _ZNSt6vectorINSt12experimental10filesystem2v17__cxx114path5_CmptESaIS5_EED1Ev 95
_ZNSt12experimental10filesystem2v17__cxx114pathC1IPcS3_EERKT_,_ZNSt12experimental10filesystem2v17__cxx114pathC2IPcS3_EERKT_ _ZNSt7__cxx1112basic_stringIcSt11char_traitsIcESaIcEE10_M_disposeEv 103
_ZNSt12experimental10filesystem2v17__cxx114pathC1IPcS3_EERKT_,_ZNSt12experimental10filesystem2v17__cxx114pathC2IPcS3_EERKT_ _Unwind_Resume 114
_ZNSt12experimental10filesystem2v17__cxx114path6assignIPcEERNSt9enable_ifIXsrSt6__and_IJSt6__not_ISt7is_sameIT_S3_EENS3_20__constructible_fromISA_vEEEE5valueES3_E4typeERKSA_ __x86.get_pc_thunk.bx 15
_ZNSt12experimental10filesystem2v17__cxx114path6assignIPcEERNSt9enable_ifIXsrSt6__and_IJSt6__not_ISt7is_sameIT_S3_EENS3_20__constructible_fromISA_vEEEE5valueES3_E4typeERKSA_ _ZNSt12experimental10filesystem2v17__cxx114pathC1IPcS3_EERKT_ 27
_ZNSt12experimental10filesystem2v17__cxx114path6assignIPcEERNSt9enable_ifIXsrSt6__and_IJSt6__not_ISt7is_sameIT_S3_EENS3_20__constructible_fromISA_vEEEE5valueES3_E4typeERKSA_ _ZNSt12experimental10filesystem2v17__cxx114pathaSEOS3_ 38
_ZNSt12experimental10filesystem2v17__cxx114path6assignIPcEERNSt9enable_ifIXsrSt6__and_IJSt6__not_ISt7is_sameIT_S3_EENS3_20__constructible_fromISA_vEEEE5valueES3_E4typeERKSA_ _ZNSt12experimental10filesystem2v17__cxx114pathD1Ev 49
_ZNSt12experimental10filesystem2v112current_pathB5cxx11ERSt10error_code __x86.get_pc_thunk.si 10
_ZNSt12experimental10filesystem2v112current_pathB5cxx11ERSt10error_code _ZNSt12experimental10filesystem2v17__cxx114pathC1Ev 30
_ZNSt12experimental10filesystem2v112current_pathB5cxx11ERSt10error_code .LC12 38
_ZNSt12experimental10filesystem2v112current_pathB5cxx11ERSt10error_code pathconf 46
_ZNSt12experimental10filesystem2v112current_pathB5cxx11ERSt10error_code malloc 106
_ZNSt12experimental10filesystem2v112current_pathB5cxx11ERSt10error_code free 128
_ZNSt12experimental10filesystem2v112current_pathB5cxx11ERSt10error_code getcwd 149
_ZNSt12experimental10filesystem2v112current_pathB5cxx11ERSt10error_code _ZNSt12experimental10filesystem2v17__cxx114path6assignIPcEERNSt9enable_ifIXsrSt6__and_IJSt6__not_ISt7is_sameIT_S3_EENS3_20__constructible_fromISA_vEEEE5valueES3_E4typeERKSA_ 175
_ZNSt12experimental10filesystem2v112current_pathB5cxx11ERSt10error_code _ZNSt10error_code5clearEv 184
_ZNSt12experimental10filesystem2v112current_pathB5cxx11ERSt10error_code __errno_location 196
_ZNSt12experimental10filesystem2v112current_pathB5cxx11ERSt10error_code _ZNSt3_V216generic_categoryEv 206
_ZNSt12experimental10filesystem2v112current_pathB5cxx11ERSt10error_code __errno_location 213
_ZNSt12experimental10filesystem2v112current_pathB5cxx11ERSt10error_code _ZNSt3_V216generic_categoryEv 232
_ZNSt12experimental10filesystem2v112current_pathB5cxx11ERSt10error_code _ZNSt12experimental10filesystem2v17__cxx114pathC1Ev 255
_ZNSt12experimental10filesystem2v112current_pathB5cxx11ERSt10error_code _ZNSt12experimental10filesystem2v17__cxx114pathC1EOS3_ 298
_ZNSt12experimental10filesystem2v112current_pathB5cxx11ERSt10error_code _ZNSt12experimental10filesystem2v17__cxx114pathD1Ev 330
_ZNSt12experimental10filesystem2v112current_pathB5cxx11ERSt10error_code _Unwind_Resume 338
_ZNSt12experimental10filesystem2v112current_pathB5cxx11ERSt10error_code _ZNSt12experimental10filesystem2v17__cxx114pathD1Ev 351
_ZNSt12experimental10filesystem2v112current_pathB5cxx11Ev __x86.get_pc_thunk.si 10
_ZNSt12experimental10filesystem2v112current_pathB5cxx11Ev _ZNSt10error_codeC1Ev 27
_ZNSt12experimental10filesystem2v112current_pathB5cxx11Ev _ZNSt12experimental10filesystem2v112current_pathB5cxx11ERSt10error_code 38
_ZNSt12experimental10filesystem2v112current_pathB5cxx11Ev __cxa_allocate_exception 64
_ZNSt12experimental10filesystem2v112current_pathB5cxx11Ev .LC13 70
_ZNSt12experimental10filesystem2v112current_pathB5cxx11Ev _ZNSt12experimental10filesystem2v17__cxx1116filesystem_errorC1ERKNSt7__cxx1112basic_stringIcSt11char_traitsIcESaIcEEESt10error_code 98
_ZNSt12experimental10filesystem2v112current_pathB5cxx11Ev _ZNSt7__cxx1112basic_stringIcSt11char_traitsIcESaIcEE10_M_disposeEv 106
_ZNSt12experimental10filesystem2v112current_pathB5cxx11Ev _ZNSt12experimental10filesystem2v17__cxx1116filesystem_errorD1Ev 115
_ZNSt12experimental10filesystem2v112current_pathB5cxx11Ev _ZTINSt12experimental10filesystem2v17__cxx1116filesystem_errorE 121
_ZNSt12experimental10filesystem2v112current_pathB5cxx11Ev __cxa_throw 129
_ZNSt12experimental10filesystem2v112current_pathB5cxx11Ev _ZNSt7__cxx1112basic_stringIcSt11char_traitsIcESaIcEE10_M_disposeEv 143
_ZNSt12experimental10filesystem2v112current_pathB5cxx11Ev __cxa_free_exception 168
_ZNSt12experimental10filesystem2v112current_pathB5cxx11Ev _ZNSt12experimental10filesystem2v17__cxx114pathD1Ev 188
_ZNSt12experimental10filesystem2v112current_pathB5cxx11Ev _Unwind_Resume 196
_ZNSt12experimental10filesystem2v119temp_directory_pathB5cxx11ERSt10error_code __x86.get_pc_thunk.bx 15
_ZNSt12experimental10filesystem2v119temp_directory_pathB5cxx11ERSt10error_code getenv 53
_ZNSt12experimental10filesystem2v119temp_directory_pathB5cxx11ERSt10error_code .LC14 68
_ZNSt12experimental10filesystem2v119temp_directory_pathB5cxx11ERSt10error_code _ZNSt12experimental10filesystem2v17__cxx114pathC2IPcS3_EERKT_ 86
_ZNSt12experimental10filesystem2v119temp_directory_pathB5cxx11ERSt10error_code _ZNSt12experimental10filesystem2v16statusERKNS1_7__cxx114pathERSt10error_code 102
_ZNSt12experimental10filesystem2v119temp_directory_pathB5cxx11ERSt10error_code _ZNSt10error_code5clearEv 129
_ZNSt12experimental10filesystem2v119temp_directory_pathB5cxx11ERSt10error_code _ZNSt12experimental10filesystem2v17__cxx114pathC1EOS3_ 140
_ZNSt12experimental10filesystem2v119temp_directory_pathB5cxx11ERSt10error_code _ZNSt3_V216generic_categoryEv 147
_ZNSt12experimental10filesystem2v119temp_directory_pathB5cxx11ERSt10error_code _ZNSt12experimental10filesystem2v17__cxx114pathC1Ev 170
_ZNSt12experimental10filesystem2v119temp_directory_pathB5cxx11ERSt10error_code _ZNSt12experimental10filesystem2v17__cxx114pathD1Ev 182
_ZNSt12experimental10filesystem2v119temp_directory_pathB5cxx11Ev __x86.get_pc_thunk.si 10
_ZNSt12experimental10filesystem2v119temp_directory_pathB5cxx11Ev _ZNSt10error_codeC1Ev 27
_ZNSt12experimental10filesystem2v119temp_directory_pathB5cxx11Ev _ZNSt12experimental10filesystem2v119temp_directory_pathB5cxx11ERSt10error_code 38
_ZNSt12experimental10filesystem2v119temp_directory_pathB5cxx11Ev __cxa_allocate_exception 64
_ZNSt12experimental10filesystem2v119temp_directory_pathB5cxx11Ev .LC16 70
_ZNSt12experimental10filesystem2v119temp_directory_pathB5cxx11Ev _ZNSt12experimental10filesystem2v17__cxx1116filesystem_errorC1ERKNSt7__cxx1112basic_stringIcSt11char_traitsIcESaIcEEESt10error_code 98
_ZNSt12experimental10filesystem2v119temp_directory_pathB5cxx11Ev _ZNSt7__cxx1112basic_stringIcSt11char_traitsIcESaIcEE10_M_disposeEv 106
_ZNSt12experimental10filesystem2v119temp_directory_pathB5cxx11Ev _ZNSt12experimental10filesystem2v17__cxx1116filesystem_errorD1Ev 115
_ZNSt12experimental10filesystem2v119temp_directory_pathB5cxx11Ev _ZTINSt12experimental10filesystem2v17__cxx1116filesystem_errorE 121
_ZNSt12experimental10filesystem2v119temp_directory_pathB5cxx11Ev __cxa_throw 129
_ZNSt12experimental10filesystem2v119temp_directory_pathB5cxx11Ev _ZNSt7__cxx1112basic_stringIcSt11char_traitsIcESaIcEE10_M_disposeEv 143
_ZNSt12experimental10filesystem2v119temp_directory_pathB5cxx11Ev __cxa_free_exception 168
_ZNSt12experimental10filesystem2v119temp_directory_pathB5cxx11Ev _ZNSt12experimental10filesystem2v17__cxx114pathD1Ev 188
_ZNSt12experimental10filesystem2v119temp_directory_pathB5cxx11Ev _Unwind_Resume 196
_ZNSt12experimental10filesystem2v112read_symlinkERKNS1_7__cxx114pathERSt10error_code __x86.get_pc_thunk.si 10
_ZNSt12experimental10filesystem2v112read_symlinkERKNS1_7__cxx114pathERSt10error_code lstat 38
_ZNSt12experimental10filesystem2v112read_symlinkERKNS1_7__cxx114pathERSt10error_code _ZNSt3_V216generic_categoryEv 50
_ZNSt12experimental10filesystem2v112read_symlinkERKNS1_7__cxx114pathERSt10error_code __errno_location 61
_ZNSt12experimental10filesystem2v112read_symlinkERKNS1_7__cxx114pathERSt10error_code _ZNSt12experimental10filesystem2v17__cxx114pathC1Ev 86
_ZNSt12experimental10filesystem2v112read_symlinkERKNS1_7__cxx114pathERSt10error_code _ZNSt7__cxx1112basic_stringIcSt11char_traitsIcESaIcEE12_M_constructEjc 134
_ZNSt12experimental10filesystem2v112read_symlinkERKNS1_7__cxx114pathERSt10error_code readlink 159
_ZNSt12experimental10filesystem2v112read_symlinkERKNS1_7__cxx114pathERSt10error_code _ZNSt3_V216generic_categoryEv 172
_ZNSt12experimental10filesystem2v112read_symlinkERKNS1_7__cxx114pathERSt10error_code __errno_location 183
_ZNSt12experimental10filesystem2v112read_symlinkERKNS1_7__cxx114pathERSt10error_code _ZNSt12experimental10filesystem2v17__cxx114pathC1Ev 210
_ZNSt12experimental10filesystem2v112read_symlinkERKNS1_7__cxx114pathERSt10error_code _ZNSt10error_code5clearEv 231
_ZNSt12experimental10filesystem2v112read_symlinkERKNS1_7__cxx114pathERSt10error_code _ZNSt12experimental10filesystem2v17__cxx114path14_M_split_cmptsEv 295
_ZNSt12experimental10filesystem2v112read_symlinkERKNS1_7__cxx114pathERSt10error_code _ZNSt7__cxx1112basic_stringIcSt11char_traitsIcESaIcEE10_M_disposeEv 314
_ZNSt12experimental10filesystem2v112read_symlinkERKNS1_7__cxx114pathERSt10error_code _ZNSt6vectorINSt12experimental10filesystem2v17__cxx114path5_CmptESaIS5_EED1Ev 336
_ZNSt12experimental10filesystem2v112read_symlinkERKNS1_7__cxx114pathERSt10error_code _ZNSt7__cxx1112basic_stringIcSt11char_traitsIcESaIcEE10_M_disposeEv 344
_ZNSt12experimental10filesystem2v112read_symlinkERKNS1_7__cxx114pathERSt10error_code _ZNSt7__cxx1112basic_stringIcSt11char_traitsIcESaIcEE10_M_disposeEv 392
_ZNSt12experimental10filesystem2v112read_symlinkERKNS1_7__cxx114pathERSt10error_code _Unwind_Resume 406
_ZNSt12experimental10filesystem2v112copy_symlinkERKNS1_7__cxx114pathES5_RSt10error_code __x86.get_pc_thunk.bx 10
_ZNSt12experimental10filesystem2v112copy_symlinkERKNS1_7__cxx114pathES5_RSt10error_code _ZNSt12experimental10filesystem2v112read_symlinkERKNS1_7__cxx114pathERSt10error_code 32
_ZNSt12experimental10filesystem2v112copy_symlinkERKNS1_7__cxx114pathES5_RSt10error_code _ZNSt12experimental10filesystem2v114create_symlinkERKNS1_7__cxx114pathES5_RSt10error_code 51
_ZNSt12experimental10filesystem2v112copy_symlinkERKNS1_7__cxx114pathES5_RSt10error_code _ZNSt12experimental10filesystem2v17__cxx114pathD1Ev 65
_ZNSt20__uninitialized_copyILb0EE13__uninit_copyIN9__gnu_cxx17__normal_iteratorIPKNSt12experimental10filesystem2v17__cxx114path5_CmptESt6vectorIS9_SaIS9_EEEEPS9_EET0_T_SI_SH_ __x86.get_pc_thunk.ax 2
_ZNSt20__uninitialized_copyILb0EE13__uninit_copyIN9__gnu_cxx17__normal_iteratorIPKNSt12experimental10filesystem2v17__cxx114path5_CmptESt6vectorIS9_SaIS9_EEEEPS9_EET0_T_SI_SH_ _ZNSt12experimental10filesystem2v17__cxx114pathC2ERKS3_ 45
_ZNSt20__uninitialized_copyILb0EE13__uninit_copyIN9__gnu_cxx17__normal_iteratorIPKNSt12experimental10filesystem2v17__cxx114path5_CmptESt6vectorIS9_SaIS9_EEEEPS9_EET0_T_SI_SH_ __cxa_begin_catch 74
_ZNSt20__uninitialized_copyILb0EE13__uninit_copyIN9__gnu_cxx17__normal_iteratorIPKNSt12experimental10filesystem2v17__cxx114path5_CmptESt6vectorIS9_SaIS9_EEEEPS9_EET0_T_SI_SH_ _ZNSt12_Destroy_auxILb0EE9__destroyIPNSt12experimental10filesystem2v17__cxx114path5_CmptEEEvT_S9_ 88
_ZNSt20__uninitialized_copyILb0EE13__uninit_copyIN9__gnu_cxx17__normal_iteratorIPKNSt12experimental10filesystem2v17__cxx114path5_CmptESt6vectorIS9_SaIS9_EEEEPS9_EET0_T_SI_SH_ __cxa_rethrow 99
_ZNSt20__uninitialized_copyILb0EE13__uninit_copyIN9__gnu_cxx17__normal_iteratorIPKNSt12experimental10filesystem2v17__cxx114path5_CmptESt6vectorIS9_SaIS9_EEEEPS9_EET0_T_SI_SH_ __cxa_end_catch 109
_ZNSt20__uninitialized_copyILb0EE13__uninit_copyIN9__gnu_cxx17__normal_iteratorIPKNSt12experimental10filesystem2v17__cxx114path5_CmptESt6vectorIS9_SaIS9_EEEEPS9_EET0_T_SI_SH_ _Unwind_Resume 121
_ZNSt12experimental10filesystem2v17__cxx11dvERKNS2_4pathES5_ __x86.get_pc_thunk.di 10
_ZNSt12experimental10filesystem2v17__cxx11dvERKNS2_4pathES5_ _ZNSt12experimental10filesystem2v17__cxx114pathC1ERKS3_ 30
_ZNSt12experimental10filesystem2v17__cxx11dvERKNS2_4pathES5_ _ZNSt12experimental10filesystem2v17__cxx114path9_M_appendERKNSt7__cxx1112basic_stringIcSt11char_traitsIcESaIcEEE 41
_ZNSt12experimental10filesystem2v17__cxx11dvERKNS2_4pathES5_ _ZNSt12experimental10filesystem2v17__cxx114pathC1ERKS3_ 52
_ZNSt12experimental10filesystem2v17__cxx11dvERKNS2_4pathES5_ _ZNSt12experimental10filesystem2v17__cxx114pathD1Ev 62
_ZNSt12experimental10filesystem2v17__cxx11dvERKNS2_4pathES5_ _ZNSt12experimental10filesystem2v17__cxx114pathD1Ev 89
_ZNSt12experimental10filesystem2v17__cxx11dvERKNS2_4pathES5_ _Unwind_Resume 100
_ZNKSt12experimental10filesystem2v17__cxx114path8filenameEv __x86.get_pc_thunk.bx 12
_ZNKSt12experimental10filesystem2v17__cxx114path8filenameEv _ZNSt12experimental10filesystem2v17__cxx114pathC1Ev 33
_ZNKSt12experimental10filesystem2v17__cxx114path8filenameEv _ZNSt12experimental10filesystem2v17__cxx114pathC1ERKS3_ 56
_ZNSt12experimental10filesystem2v17__cxx1116filesystem_errorC1ERKNSt7__cxx1112basic_stringIcSt11char_traitsIcESaIcEEERKNS2_4pathESE_St10error_code,_ZNSt12experimental10filesystem2v17__cxx1116filesystem_errorC2ERKNSt7__cxx1112basic_stringIcSt11char_traitsIcESaIcEEERKNS2_4pathESE_St10error_code __x86.get_pc_thunk.si 7
_ZNSt12experimental10filesystem2v17__cxx1116filesystem_errorC1ERKNSt7__cxx1112basic_stringIcSt11char_traitsIcESaIcEEERKNS2_4pathESE_St10error_code,_ZNSt12experimental10filesystem2v17__cxx1116filesystem_errorC2ERKNSt7__cxx1112basic_stringIcSt11char_traitsIcESaIcEEERKNS2_4pathESE_St10error_code _ZNSt12system_errorC2ESt10error_codeRKNSt7__cxx1112basic_stringIcSt11char_traitsIcESaIcEEE 36
_ZNSt12experimental10filesystem2v17__cxx1116filesystem_errorC1ERKNSt7__cxx1112basic_stringIcSt11char_traitsIcESaIcEEERKNS2_4pathESE_St10error_code,_ZNSt12experimental10filesystem2v17__cxx1116filesystem_errorC2ERKNSt7__cxx1112basic_stringIcSt11char_traitsIcESaIcEEERKNS2_4pathESE_St10error_code _ZTVNSt12experimental10filesystem2v17__cxx1116filesystem_errorE 42
_ZNSt12experimental10filesystem2v17__cxx1116filesystem_errorC1ERKNSt7__cxx1112basic_stringIcSt11char_traitsIcESaIcEEERKNS2_4pathESE_St10error_code,_ZNSt12experimental10filesystem2v17__cxx1116filesystem_errorC2ERKNSt7__cxx1112basic_stringIcSt11char_traitsIcESaIcEEERKNS2_4pathESE_St10error_code _ZNSt12experimental10filesystem2v17__cxx114pathC1ERKS3_ 64
_ZNSt12experimental10filesystem2v17__cxx1116filesystem_errorC1ERKNSt7__cxx1112basic_stringIcSt11char_traitsIcESaIcEEERKNS2_4pathESE_St10error_code,_ZNSt12experimental10filesystem2v17__cxx1116filesystem_errorC2ERKNSt7__cxx1112basic_stringIcSt11char_traitsIcESaIcEEERKNS2_4pathESE_St10error_code _ZNSt12experimental10filesystem2v17__cxx114pathC1ERKS3_ 81
_ZNSt12experimental10filesystem2v17__cxx1116filesystem_errorC1ERKNSt7__cxx1112basic_stringIcSt11char_traitsIcESaIcEEERKNS2_4pathESE_St10error_code,_ZNSt12experimental10filesystem2v17__cxx1116filesystem_errorC2ERKNSt7__cxx1112basic_stringIcSt11char_traitsIcESaIcEEERKNS2_4pathESE_St10error_code _ZNSt12experimental10filesystem2v17__cxx1116filesystem_error11_M_gen_whatEv 93
_ZNSt12experimental10filesystem2v17__cxx1116filesystem_errorC1ERKNSt7__cxx1112basic_stringIcSt11char_traitsIcESaIcEEERKNS2_4pathESE_St10error_code,_ZNSt12experimental10filesystem2v17__cxx1116filesystem_errorC2ERKNSt7__cxx1112basic_stringIcSt11char_traitsIcESaIcEEERKNS2_4pathESE_St10error_code _ZNSt12experimental10filesystem2v17__cxx114pathD1Ev 120
_ZNSt12experimental10filesystem2v17__cxx1116filesystem_errorC1ERKNSt7__cxx1112basic_stringIcSt11char_traitsIcESaIcEEERKNS2_4pathESE_St10error_code,_ZNSt12experimental10filesystem2v17__cxx1116filesystem_errorC2ERKNSt7__cxx1112basic_stringIcSt11char_traitsIcESaIcEEERKNS2_4pathESE_St10error_code _ZNSt12experimental10filesystem2v17__cxx114pathD1Ev 144
_ZNSt12experimental10filesystem2v17__cxx1116filesystem_errorC1ERKNSt7__cxx1112basic_stringIcSt11char_traitsIcESaIcEEERKNS2_4pathESE_St10error_code,_ZNSt12experimental10filesystem2v17__cxx1116filesystem_errorC2ERKNSt7__cxx1112basic_stringIcSt11char_traitsIcESaIcEEERKNS2_4pathESE_St10error_code _ZNSt12system_errorD2Ev 166
_ZNSt12experimental10filesystem2v17__cxx1116filesystem_errorC1ERKNSt7__cxx1112basic_stringIcSt11char_traitsIcESaIcEEERKNS2_4pathESE_St10error_code,_ZNSt12experimental10filesystem2v17__cxx1116filesystem_errorC2ERKNSt7__cxx1112basic_stringIcSt11char_traitsIcESaIcEEERKNS2_4pathESE_St10error_code _Unwind_Resume 177
_ZNSt12experimental10filesystem2v19copy_fileERKNS1_7__cxx114pathES5_NS1_12copy_optionsE __x86.get_pc_thunk.si 10
_ZNSt12experimental10filesystem2v19copy_fileERKNS1_7__cxx114pathES5_NS1_12copy_optionsE _ZNSt10error_codeC1Ev 33
_ZNSt12experimental10filesystem2v19copy_fileERKNS1_7__cxx114pathES5_NS1_12copy_optionsE _ZNSt12experimental10filesystem2v19copy_fileERKNS1_7__cxx114pathES5_NS1_12copy_optionsERSt10error_code 49
_ZNSt12experimental10filesystem2v19copy_fileERKNS1_7__cxx114pathES5_NS1_12copy_optionsE __cxa_allocate_exception 75
_ZNSt12experimental10filesystem2v19copy_fileERKNS1_7__cxx114pathES5_NS1_12copy_optionsE .LC17 81
_ZNSt12experimental10filesystem2v19copy_fileERKNS1_7__cxx114pathES5_NS1_12copy_optionsE _ZNSt12experimental10filesystem2v17__cxx1116filesystem_errorC1ERKNSt7__cxx1112basic_stringIcSt11char_traitsIcESaIcEEERKNS2_4pathESE_St10error_code 117
_ZNSt12experimental10filesystem2v19copy_fileERKNS1_7__cxx114pathES5_NS1_12copy_optionsE _ZNSt7__cxx1112basic_stringIcSt11char_traitsIcESaIcEE10_M_disposeEv 126
_ZNSt12experimental10filesystem2v19copy_fileERKNS1_7__cxx114pathES5_NS1_12copy_optionsE _ZNSt12experimental10filesystem2v17__cxx1116filesystem_errorD1Ev 135
_ZNSt12experimental10filesystem2v19copy_fileERKNS1_7__cxx114pathES5_NS1_12copy_optionsE _ZTINSt12experimental10filesystem2v17__cxx1116filesystem_errorE 141
_ZNSt12experimental10filesystem2v19copy_fileERKNS1_7__cxx114pathES5_NS1_12copy_optionsE __cxa_throw 149
_ZNSt12experimental10filesystem2v19copy_fileERKNS1_7__cxx114pathES5_NS1_12copy_optionsE _ZNSt7__cxx1112basic_stringIcSt11char_traitsIcESaIcEE10_M_disposeEv 163
_ZNSt12experimental10filesystem2v19copy_fileERKNS1_7__cxx114pathES5_NS1_12copy_optionsE __cxa_free_exception 187
_ZNSt12experimental10filesystem2v19copy_fileERKNS1_7__cxx114pathES5_NS1_12copy_optionsE _Unwind_Resume 198
_ZNSt12experimental10filesystem2v112copy_symlinkERKNS1_7__cxx114pathES5_ __x86.get_pc_thunk.si 10
_ZNSt12experimental10filesystem2v112copy_symlinkERKNS1_7__cxx114pathES5_ _ZNSt10error_codeC1Ev 27
_ZNSt12experimental10filesystem2v112copy_symlinkERKNS1_7__cxx114pathES5_ _ZNSt12experimental10filesystem2v112copy_symlinkERKNS1_7__cxx114pathES5_RSt10error_code 42
_ZNSt12experimental10filesystem2v112copy_symlinkERKNS1_7__cxx114pathES5_ __cxa_allocate_exception 68
_ZNSt12experimental10filesystem2v112copy_symlinkERKNS1_7__cxx114pathES5_ .LC18 74
_ZNSt12experimental10filesystem2v112copy_symlinkERKNS1_7__cxx114pathES5_ _ZNSt12experimental10filesystem2v17__cxx1116filesystem_errorC1ERKNSt7__cxx1112basic_stringIcSt11char_traitsIcESaIcEEERKNS2_4pathESE_St10error_code 110
_ZNSt12experimental10filesystem2v112copy_symlinkERKNS1_7__cxx114pathES5_ _ZNSt7__cxx1112basic_stringIcSt11char_traitsIcESaIcEE10_M_disposeEv 119
_ZNSt12experimental10filesystem2v112copy_symlinkERKNS1_7__cxx114pathES5_ _ZNSt12experimental10filesystem2v17__cxx1116filesystem_errorD1Ev 128
_ZNSt12experimental10filesystem2v112copy_symlinkERKNS1_7__cxx114pathES5_ _ZTINSt12experimental10filesystem2v17__cxx1116filesystem_errorE 134
_ZNSt12experimental10filesystem2v112copy_symlinkERKNS1_7__cxx114pathES5_ __cxa_throw 142
_ZNSt12experimental10filesystem2v112copy_symlinkERKNS1_7__cxx114pathES5_ _ZNSt7__cxx1112basic_stringIcSt11char_traitsIcESaIcEE10_M_disposeEv 156
_ZNSt12experimental10filesystem2v112copy_symlinkERKNS1_7__cxx114pathES5_ __cxa_free_exception 180
_ZNSt12experimental10filesystem2v112copy_symlinkERKNS1_7__cxx114pathES5_ _Unwind_Resume 191
_ZNSt12experimental10filesystem2v124create_directory_symlinkERKNS1_7__cxx114pathES5_ __x86.get_pc_thunk.si 10
_ZNSt12experimental10filesystem2v124create_directory_symlinkERKNS1_7__cxx114pathES5_ _ZNSt10error_codeC1Ev 27
_ZNSt12experimental10filesystem2v124create_directory_symlinkERKNS1_7__cxx114pathES5_ _ZNSt12experimental10filesystem2v124create_directory_symlinkERKNS1_7__cxx114pathES5_RSt10error_code 42
_ZNSt12experimental10filesystem2v124create_directory_symlinkERKNS1_7__cxx114pathES5_ __cxa_allocate_exception 68
_ZNSt12experimental10filesystem2v124create_directory_symlinkERKNS1_7__cxx114pathES5_ .LC19 74
_ZNSt12experimental10filesystem2v124create_directory_symlinkERKNS1_7__cxx114pathES5_ _ZNSt12experimental10filesystem2v17__cxx1116filesystem_errorC1ERKNSt7__cxx1112basic_stringIcSt11char_traitsIcESaIcEEERKNS2_4pathESE_St10error_code 110
_ZNSt12experimental10filesystem2v124create_directory_symlinkERKNS1_7__cxx114pathES5_ _ZNSt7__cxx1112basic_stringIcSt11char_traitsIcESaIcEE10_M_disposeEv 119
_ZNSt12experimental10filesystem2v124create_directory_symlinkERKNS1_7__cxx114pathES5_ _ZNSt12experimental10filesystem2v17__cxx1116filesystem_errorD1Ev 128
_ZNSt12experimental10filesystem2v124create_directory_symlinkERKNS1_7__cxx114pathES5_ _ZTINSt12experimental10filesystem2v17__cxx1116filesystem_errorE 134
_ZNSt12experimental10filesystem2v124create_directory_symlinkERKNS1_7__cxx114pathES5_ __cxa_throw 142
_ZNSt12experimental10filesystem2v124create_directory_symlinkERKNS1_7__cxx114pathES5_ _ZNSt7__cxx1112basic_stringIcSt11char_traitsIcESaIcEE10_M_disposeEv 156
_ZNSt12experimental10filesystem2v124create_directory_symlinkERKNS1_7__cxx114pathES5_ __cxa_free_exception 180
_ZNSt12experimental10filesystem2v124create_directory_symlinkERKNS1_7__cxx114pathES5_ _Unwind_Resume 191
_ZNSt12experimental10filesystem2v116create_hard_linkERKNS1_7__cxx114pathES5_ __x86.get_pc_thunk.si 10
_ZNSt12experimental10filesystem2v116create_hard_linkERKNS1_7__cxx114pathES5_ _ZNSt10error_codeC1Ev 27
_ZNSt12experimental10filesystem2v116create_hard_linkERKNS1_7__cxx114pathES5_ _ZNSt12experimental10filesystem2v116create_hard_linkERKNS1_7__cxx114pathES5_RSt10error_code 42
_ZNSt12experimental10filesystem2v116create_hard_linkERKNS1_7__cxx114pathES5_ __cxa_allocate_exception 68
_ZNSt12experimental10filesystem2v116create_hard_linkERKNS1_7__cxx114pathES5_ .LC20 74
_ZNSt12experimental10filesystem2v116create_hard_linkERKNS1_7__cxx114pathES5_ _ZNSt12experimental10filesystem2v17__cxx1116filesystem_errorC1ERKNSt7__cxx1112basic_stringIcSt11char_traitsIcESaIcEEERKNS2_4pathESE_St10error_code 110
_ZNSt12experimental10filesystem2v116create_hard_linkERKNS1_7__cxx114pathES5_ _ZNSt7__cxx1112basic_stringIcSt11char_traitsIcESaIcEE10_M_disposeEv 119
_ZNSt12experimental10filesystem2v116create_hard_linkERKNS1_7__cxx114pathES5_ _ZNSt12experimental10filesystem2v17__cxx1116filesystem_errorD1Ev 128
_ZNSt12experimental10filesystem2v116create_hard_linkERKNS1_7__cxx114pathES5_ _ZTINSt12experimental10filesystem2v17__cxx1116filesystem_errorE 134
_ZNSt12experimental10filesystem2v116create_hard_linkERKNS1_7__cxx114pathES5_ __cxa_throw 142
_ZNSt12experimental10filesystem2v116create_hard_linkERKNS1_7__cxx114pathES5_ _ZNSt7__cxx1112basic_stringIcSt11char_traitsIcESaIcEE10_M_disposeEv 156
_ZNSt12experimental10filesystem2v116create_hard_linkERKNS1_7__cxx114pathES5_ __cxa_free_exception 180
_ZNSt12experimental10filesystem2v116create_hard_linkERKNS1_7__cxx114pathES5_ _Unwind_Resume 191
_ZNSt12experimental10filesystem2v114create_symlinkERKNS1_7__cxx114pathES5_ __x86.get_pc_thunk.si 10
_ZNSt12experimental10filesystem2v114create_symlinkERKNS1_7__cxx114pathES5_ _ZNSt10error_codeC1Ev 27
_ZNSt12experimental10filesystem2v114create_symlinkERKNS1_7__cxx114pathES5_ _ZNSt12experimental10filesystem2v114create_symlinkERKNS1_7__cxx114pathES5_RSt10error_code 42
_ZNSt12experimental10filesystem2v114create_symlinkERKNS1_7__cxx114pathES5_ __cxa_allocate_exception 68
_ZNSt12experimental10filesystem2v114create_symlinkERKNS1_7__cxx114pathES5_ .LC21 74
_ZNSt12experimental10filesystem2v114create_symlinkERKNS1_7__cxx114pathES5_ _ZNSt12experimental10filesystem2v17__cxx1116filesystem_errorC1ERKNSt7__cxx1112basic_stringIcSt11char_traitsIcESaIcEEERKNS2_4pathESE_St10error_code 110
_ZNSt12experimental10filesystem2v114create_symlinkERKNS1_7__cxx114pathES5_ _ZNSt7__cxx1112basic_stringIcSt11char_traitsIcESaIcEE10_M_disposeEv 119
_ZNSt12experimental10filesystem2v114create_symlinkERKNS1_7__cxx114pathES5_ _ZNSt12experimental10filesystem2v17__cxx1116filesystem_errorD1Ev 128
_ZNSt12experimental10filesystem2v114create_symlinkERKNS1_7__cxx114pathES5_ _ZTINSt12experimental10filesystem2v17__cxx1116filesystem_errorE 134
_ZNSt12experimental10filesystem2v114create_symlinkERKNS1_7__cxx114pathES5_ __cxa_throw 142
_ZNSt12experimental10filesystem2v114create_symlinkERKNS1_7__cxx114pathES5_ _ZNSt7__cxx1112basic_stringIcSt11char_traitsIcESaIcEE10_M_disposeEv 156
_ZNSt12experimental10filesystem2v114create_symlinkERKNS1_7__cxx114pathES5_ __cxa_free_exception 180
_ZNSt12experimental10filesystem2v114create_symlinkERKNS1_7__cxx114pathES5_ _Unwind_Resume 191
_ZNSt12experimental10filesystem2v110equivalentERKNS1_7__cxx114pathES5_ __x86.get_pc_thunk.si 10
_ZNSt12experimental10filesystem2v110equivalentERKNS1_7__cxx114pathES5_ _ZNSt10error_codeC1Ev 27
_ZNSt12experimental10filesystem2v110equivalentERKNS1_7__cxx114pathES5_ _ZNSt12experimental10filesystem2v110equivalentERKNS1_7__cxx114pathES5_RSt10error_code 42
_ZNSt12experimental10filesystem2v110equivalentERKNS1_7__cxx114pathES5_ __cxa_allocate_exception 68
_ZNSt12experimental10filesystem2v110equivalentERKNS1_7__cxx114pathES5_ .LC22 74
_ZNSt12experimental10filesystem2v110equivalentERKNS1_7__cxx114pathES5_ _ZNSt12experimental10filesystem2v17__cxx1116filesystem_errorC1ERKNSt7__cxx1112basic_stringIcSt11char_traitsIcESaIcEEERKNS2_4pathESE_St10error_code 110
_ZNSt12experimental10filesystem2v110equivalentERKNS1_7__cxx114pathES5_ _ZNSt7__cxx1112basic_stringIcSt11char_traitsIcESaIcEE10_M_disposeEv 119
_ZNSt12experimental10filesystem2v110equivalentERKNS1_7__cxx114pathES5_ _ZNSt12experimental10filesystem2v17__cxx1116filesystem_errorD1Ev 128
_ZNSt12experimental10filesystem2v110equivalentERKNS1_7__cxx114pathES5_ _ZTINSt12experimental10filesystem2v17__cxx1116filesystem_errorE 134
_ZNSt12experimental10filesystem2v110equivalentERKNS1_7__cxx114pathES5_ __cxa_throw 142
_ZNSt12experimental10filesystem2v110equivalentERKNS1_7__cxx114pathES5_ _ZNSt7__cxx1112basic_stringIcSt11char_traitsIcESaIcEE10_M_disposeEv 156
_ZNSt12experimental10filesystem2v110equivalentERKNS1_7__cxx114pathES5_ __cxa_free_exception 180
_ZNSt12experimental10filesystem2v110equivalentERKNS1_7__cxx114pathES5_ _Unwind_Resume 191
_ZNSt12experimental10filesystem2v16renameERKNS1_7__cxx114pathES5_ __x86.get_pc_thunk.si 10
_ZNSt12experimental10filesystem2v16renameERKNS1_7__cxx114pathES5_ _ZNSt10error_codeC1Ev 27
_ZNSt12experimental10filesystem2v16renameERKNS1_7__cxx114pathES5_ _ZNSt12experimental10filesystem2v16renameERKNS1_7__cxx114pathES5_RSt10error_code 42
_ZNSt12experimental10filesystem2v16renameERKNS1_7__cxx114pathES5_ __cxa_allocate_exception 68
_ZNSt12experimental10filesystem2v16renameERKNS1_7__cxx114pathES5_ .LC23 74
_ZNSt12experimental10filesystem2v16renameERKNS1_7__cxx114pathES5_ _ZNSt12experimental10filesystem2v17__cxx1116filesystem_errorC1ERKNSt7__cxx1112basic_stringIcSt11char_traitsIcESaIcEEERKNS2_4pathESE_St10error_code 110
_ZNSt12experimental10filesystem2v16renameERKNS1_7__cxx114pathES5_ _ZNSt7__cxx1112basic_stringIcSt11char_traitsIcESaIcEE10_M_disposeEv 119
_ZNSt12experimental10filesystem2v16renameERKNS1_7__cxx114pathES5_ _ZNSt12experimental10filesystem2v17__cxx1116filesystem_errorD1Ev 128
_ZNSt12experimental10filesystem2v16renameERKNS1_7__cxx114pathES5_ _ZTINSt12experimental10filesystem2v17__cxx1116filesystem_errorE 134
_ZNSt12experimental10filesystem2v16renameERKNS1_7__cxx114pathES5_ __cxa_throw 142
_ZNSt12experimental10filesystem2v16renameERKNS1_7__cxx114pathES5_ _ZNSt7__cxx1112basic_stringIcSt11char_traitsIcESaIcEE10_M_disposeEv 156
_ZNSt12experimental10filesystem2v16renameERKNS1_7__cxx114pathES5_ __cxa_free_exception 180
_ZNSt12experimental10filesystem2v16renameERKNS1_7__cxx114pathES5_ _Unwind_Resume 191
_ZNSt12experimental10filesystem2v19file_sizeERKNS1_7__cxx114pathE __x86.get_pc_thunk.si 10
_ZNSt12experimental10filesystem2v19file_sizeERKNS1_7__cxx114pathE _ZNSt10error_codeC1Ev 27
_ZNSt12experimental10filesystem2v19file_sizeERKNS1_7__cxx114pathE _ZNSt12experimental10filesystem2v19file_sizeERKNS1_7__cxx114pathERSt10error_code 38
_ZNSt12experimental10filesystem2v19file_sizeERKNS1_7__cxx114pathE __cxa_allocate_exception 64
_ZNSt12experimental10filesystem2v19file_sizeERKNS1_7__cxx114pathE .LC24 70
_ZNSt12experimental10filesystem2v19file_sizeERKNS1_7__cxx114pathE _ZNSt12experimental10filesystem2v17__cxx1116filesystem_errorC1ERKNSt7__cxx1112basic_stringIcSt11char_traitsIcESaIcEEERKNS2_4pathESt10error_code 104
_ZNSt12experimental10filesystem2v19file_sizeERKNS1_7__cxx114pathE _ZNSt7__cxx1112basic_stringIcSt11char_traitsIcESaIcEE10_M_disposeEv 113
_ZNSt12experimental10filesystem2v19file_sizeERKNS1_7__cxx114pathE _ZNSt12experimental10filesystem2v17__cxx1116filesystem_errorD1Ev 122
_ZNSt12experimental10filesystem2v19file_sizeERKNS1_7__cxx114pathE _ZTINSt12experimental10filesystem2v17__cxx1116filesystem_errorE 128
_ZNSt12experimental10filesystem2v19file_sizeERKNS1_7__cxx114pathE __cxa_throw 136
_ZNSt12experimental10filesystem2v19file_sizeERKNS1_7__cxx114pathE _ZNSt7__cxx1112basic_stringIcSt11char_traitsIcESaIcEE10_M_disposeEv 150
_ZNSt12experimental10filesystem2v19file_sizeERKNS1_7__cxx114pathE __cxa_free_exception 174
_ZNSt12experimental10filesystem2v19file_sizeERKNS1_7__cxx114pathE _Unwind_Resume 185
_ZNSt12experimental10filesystem2v115hard_link_countERKNS1_7__cxx114pathE __x86.get_pc_thunk.si 10
_ZNSt12experimental10filesystem2v115hard_link_countERKNS1_7__cxx114pathE _ZNSt10error_codeC1Ev 27
_ZNSt12experimental10filesystem2v115hard_link_countERKNS1_7__cxx114pathE _ZNSt12experimental10filesystem2v115hard_link_countERKNS1_7__cxx114pathERSt10error_code 38
_ZNSt12experimental10filesystem2v115hard_link_countERKNS1_7__cxx114pathE __cxa_allocate_exception 64
_ZNSt12experimental10filesystem2v115hard_link_countERKNS1_7__cxx114pathE .LC25 70
_ZNSt12experimental10filesystem2v115hard_link_countERKNS1_7__cxx114pathE _ZNSt12experimental10filesystem2v17__cxx1116filesystem_errorC1ERKNSt7__cxx1112basic_stringIcSt11char_traitsIcESaIcEEERKNS2_4pathESt10error_code 104
_ZNSt12experimental10filesystem2v115hard_link_countERKNS1_7__cxx114pathE _ZNSt7__cxx1112basic_stringIcSt11char_traitsIcESaIcEE10_M_disposeEv 113
_ZNSt12experimental10filesystem2v115hard_link_countERKNS1_7__cxx114pathE _ZNSt12experimental10filesystem2v17__cxx1116filesystem_errorD1Ev 122
_ZNSt12experimental10filesystem2v115hard_link_countERKNS1_7__cxx114pathE _ZTINSt12experimental10filesystem2v17__cxx1116filesystem_errorE 128
_ZNSt12experimental10filesystem2v115hard_link_countERKNS1_7__cxx114pathE __cxa_throw 136
_ZNSt12experimental10filesystem2v115hard_link_countERKNS1_7__cxx114pathE _ZNSt7__cxx1112basic_stringIcSt11char_traitsIcESaIcEE10_M_disposeEv 150
_ZNSt12experimental10filesystem2v115hard_link_countERKNS1_7__cxx114pathE __cxa_free_exception 174
_ZNSt12experimental10filesystem2v115hard_link_countERKNS1_7__cxx114pathE _Unwind_Resume 185
_ZNSt12experimental10filesystem2v18is_emptyERKNS1_7__cxx114pathE __x86.get_pc_thunk.si 10
_ZNSt12experimental10filesystem2v18is_emptyERKNS1_7__cxx114pathE _ZNSt10error_codeC1Ev 27
_ZNSt12experimental10filesystem2v18is_emptyERKNS1_7__cxx114pathE _ZNSt12experimental10filesystem2v18is_emptyERKNS1_7__cxx114pathERSt10error_code 38
_ZNSt12experimental10filesystem2v18is_emptyERKNS1_7__cxx114pathE __cxa_allocate_exception 64
_ZNSt12experimental10filesystem2v18is_emptyERKNS1_7__cxx114pathE .LC26 70
_ZNSt12experimental10filesystem2v18is_emptyERKNS1_7__cxx114pathE _ZNSt12experimental10filesystem2v17__cxx1116filesystem_errorC1ERKNSt7__cxx1112basic_stringIcSt11char_traitsIcESaIcEEERKNS2_4pathESt10error_code 104
_ZNSt12experimental10filesystem2v18is_emptyERKNS1_7__cxx114pathE _ZNSt7__cxx1112basic_stringIcSt11char_traitsIcESaIcEE10_M_disposeEv 113
_ZNSt12experimental10filesystem2v18is_emptyERKNS1_7__cxx114pathE _ZNSt12experimental10filesystem2v17__cxx1116filesystem_errorD1Ev 122
_ZNSt12experimental10filesystem2v18is_emptyERKNS1_7__cxx114pathE _ZTINSt12experimental10filesystem2v17__cxx1116filesystem_errorE 128
_ZNSt12experimental10filesystem2v18is_emptyERKNS1_7__cxx114pathE __cxa_throw 136
_ZNSt12experimental10filesystem2v18is_emptyERKNS1_7__cxx114pathE _ZNSt7__cxx1112basic_stringIcSt11char_traitsIcESaIcEE10_M_disposeEv 150
_ZNSt12experimental10filesystem2v18is_emptyERKNS1_7__cxx114pathE __cxa_free_exception 174
_ZNSt12experimental10filesystem2v18is_emptyERKNS1_7__cxx114pathE _Unwind_Resume 185
_ZNSt12experimental10filesystem2v115last_write_timeERKNS1_7__cxx114pathE __x86.get_pc_thunk.si 10
_ZNSt12experimental10filesystem2v115last_write_timeERKNS1_7__cxx114pathE _ZNSt10error_codeC1Ev 27
_ZNSt12experimental10filesystem2v115last_write_timeERKNS1_7__cxx114pathE _ZNSt12experimental10filesystem2v115last_write_timeERKNS1_7__cxx114pathERSt10error_code 42
_ZNSt12experimental10filesystem2v115last_write_timeERKNS1_7__cxx114pathE __cxa_allocate_exception 68
_ZNSt12experimental10filesystem2v115last_write_timeERKNS1_7__cxx114pathE .LC27 74
_ZNSt12experimental10filesystem2v115last_write_timeERKNS1_7__cxx114pathE _ZNSt12experimental10filesystem2v17__cxx1116filesystem_errorC1ERKNSt7__cxx1112basic_stringIcSt11char_traitsIcESaIcEEERKNS2_4pathESt10error_code 108
_ZNSt12experimental10filesystem2v115last_write_timeERKNS1_7__cxx114pathE _ZNSt7__cxx1112basic_stringIcSt11char_traitsIcESaIcEE10_M_disposeEv 117
_ZNSt12experimental10filesystem2v115last_write_timeERKNS1_7__cxx114pathE _ZNSt12experimental10filesystem2v17__cxx1116filesystem_errorD1Ev 126
_ZNSt12experimental10filesystem2v115last_write_timeERKNS1_7__cxx114pathE _ZTINSt12experimental10filesystem2v17__cxx1116filesystem_errorE 132
_ZNSt12experimental10filesystem2v115last_write_timeERKNS1_7__cxx114pathE __cxa_throw 140
_ZNSt12experimental10filesystem2v115last_write_timeERKNS1_7__cxx114pathE _ZNSt7__cxx1112basic_stringIcSt11char_traitsIcESaIcEE10_M_disposeEv 154
_ZNSt12experimental10filesystem2v115last_write_timeERKNS1_7__cxx114pathE __cxa_free_exception 178
_ZNSt12experimental10filesystem2v115last_write_timeERKNS1_7__cxx114pathE _Unwind_Resume 189
_ZNSt12experimental10filesystem2v115last_write_timeERKNS1_7__cxx114pathENSt6chrono10time_pointINS6_3_V212system_clockENS6_8durationIxSt5ratioILx1ELx1000000000EEEEEE __x86.get_pc_thunk.si 10
_ZNSt12experimental10filesystem2v115last_write_timeERKNS1_7__cxx114pathENSt6chrono10time_pointINS6_3_V212system_clockENS6_8durationIxSt5ratioILx1ELx1000000000EEEEEE _ZNSt10error_codeC1Ev 27
_ZNSt12experimental10filesystem2v115last_write_timeERKNS1_7__cxx114pathENSt6chrono10time_pointINS6_3_V212system_clockENS6_8durationIxSt5ratioILx1ELx1000000000EEEEEE _ZNSt12experimental10filesystem2v115last_write_timeERKNS1_7__cxx114pathENSt6chrono10time_pointINS6_3_V212system_clockENS6_8durationIxSt5ratioILx1ELx1000000000EEEEEERSt10error_code 42
_ZNSt12experimental10filesystem2v115last_write_timeERKNS1_7__cxx114pathENSt6chrono10time_pointINS6_3_V212system_clockENS6_8durationIxSt5ratioILx1ELx1000000000EEEEEE __cxa_allocate_exception 68
_ZNSt12experimental10filesystem2v115last_write_timeERKNS1_7__cxx114pathENSt6chrono10time_pointINS6_3_V212system_clockENS6_8durationIxSt5ratioILx1ELx1000000000EEEEEE .LC28 74
_ZNSt12experimental10filesystem2v115last_write_timeERKNS1_7__cxx114pathENSt6chrono10time_pointINS6_3_V212system_clockENS6_8durationIxSt5ratioILx1ELx1000000000EEEEEE _ZNSt12experimental10filesystem2v17__cxx1116filesystem_errorC1ERKNSt7__cxx1112basic_stringIcSt11char_traitsIcESaIcEEERKNS2_4pathESt10error_code 108
_ZNSt12experimental10filesystem2v115last_write_timeERKNS1_7__cxx114pathENSt6chrono10time_pointINS6_3_V212system_clockENS6_8durationIxSt5ratioILx1ELx1000000000EEEEEE _ZNSt7__cxx1112basic_stringIcSt11char_traitsIcESaIcEE10_M_disposeEv 117
_ZNSt12experimental10filesystem2v115last_write_timeERKNS1_7__cxx114pathENSt6chrono10time_pointINS6_3_V212system_clockENS6_8durationIxSt5ratioILx1ELx1000000000EEEEEE _ZNSt12experimental10filesystem2v17__cxx1116filesystem_errorD1Ev 126
_ZNSt12experimental10filesystem2v115last_write_timeERKNS1_7__cxx114pathENSt6chrono10time_pointINS6_3_V212system_clockENS6_8durationIxSt5ratioILx1ELx1000000000EEEEEE _ZTINSt12experimental10filesystem2v17__cxx1116filesystem_errorE 132
_ZNSt12experimental10filesystem2v115last_write_timeERKNS1_7__cxx114pathENSt6chrono10time_pointINS6_3_V212system_clockENS6_8durationIxSt5ratioILx1ELx1000000000EEEEEE __cxa_throw 140
_ZNSt12experimental10filesystem2v115last_write_timeERKNS1_7__cxx114pathENSt6chrono10time_pointINS6_3_V212system_clockENS6_8durationIxSt5ratioILx1ELx1000000000EEEEEE _ZNSt7__cxx1112basic_stringIcSt11char_traitsIcESaIcEE10_M_disposeEv 154
_ZNSt12experimental10filesystem2v115last_write_timeERKNS1_7__cxx114pathENSt6chrono10time_pointINS6_3_V212system_clockENS6_8durationIxSt5ratioILx1ELx1000000000EEEEEE __cxa_free_exception 178
_ZNSt12experimental10filesystem2v115last_write_timeERKNS1_7__cxx114pathENSt6chrono10time_pointINS6_3_V212system_clockENS6_8durationIxSt5ratioILx1ELx1000000000EEEEEE _Unwind_Resume 189
_ZNSt12experimental10filesystem2v111permissionsERKNS1_7__cxx114pathENS1_5permsE __x86.get_pc_thunk.si 10
_ZNSt12experimental10filesystem2v111permissionsERKNS1_7__cxx114pathENS1_5permsE _ZNSt10error_codeC1Ev 27
_ZNSt12experimental10filesystem2v111permissionsERKNS1_7__cxx114pathENS1_5permsE _ZNSt12experimental10filesystem2v111permissionsERKNS1_7__cxx114pathENS1_5permsERSt10error_code 42
_ZNSt12experimental10filesystem2v111permissionsERKNS1_7__cxx114pathENS1_5permsE __cxa_allocate_exception 68
_ZNSt12experimental10filesystem2v111permissionsERKNS1_7__cxx114pathENS1_5permsE .LC29 74
_ZNSt12experimental10filesystem2v111permissionsERKNS1_7__cxx114pathENS1_5permsE _ZNSt12experimental10filesystem2v17__cxx1116filesystem_errorC1ERKNSt7__cxx1112basic_stringIcSt11char_traitsIcESaIcEEERKNS2_4pathESt10error_code 108
_ZNSt12experimental10filesystem2v111permissionsERKNS1_7__cxx114pathENS1_5permsE _ZNSt7__cxx1112basic_stringIcSt11char_traitsIcESaIcEE10_M_disposeEv 117
_ZNSt12experimental10filesystem2v111permissionsERKNS1_7__cxx114pathENS1_5permsE _ZNSt12experimental10filesystem2v17__cxx1116filesystem_errorD1Ev 126
_ZNSt12experimental10filesystem2v111permissionsERKNS1_7__cxx114pathENS1_5permsE _ZTINSt12experimental10filesystem2v17__cxx1116filesystem_errorE 132
_ZNSt12experimental10filesystem2v111permissionsERKNS1_7__cxx114pathENS1_5permsE __cxa_throw 140
_ZNSt12experimental10filesystem2v111permissionsERKNS1_7__cxx114pathENS1_5permsE _ZNSt7__cxx1112basic_stringIcSt11char_traitsIcESaIcEE10_M_disposeEv 154
_ZNSt12experimental10filesystem2v111permissionsERKNS1_7__cxx114pathENS1_5permsE __cxa_free_exception 178
_ZNSt12experimental10filesystem2v111permissionsERKNS1_7__cxx114pathENS1_5permsE _Unwind_Resume 189
_ZNSt12experimental10filesystem2v112read_symlinkERKNS1_7__cxx114pathE __x86.get_pc_thunk.si 10
_ZNSt12experimental10filesystem2v112read_symlinkERKNS1_7__cxx114pathE _ZNSt10error_codeC1Ev 27
_ZNSt12experimental10filesystem2v112read_symlinkERKNS1_7__cxx114pathE _ZNSt12experimental10filesystem2v112read_symlinkERKNS1_7__cxx114pathERSt10error_code 42
_ZNSt12experimental10filesystem2v112read_symlinkERKNS1_7__cxx114pathE __cxa_allocate_exception 68
_ZNSt12experimental10filesystem2v112read_symlinkERKNS1_7__cxx114pathE .LC30 74
_ZNSt12experimental10filesystem2v112read_symlinkERKNS1_7__cxx114pathE _ZNSt12experimental10filesystem2v17__cxx1116filesystem_errorC1ERKNSt7__cxx1112basic_stringIcSt11char_traitsIcESaIcEEERKNS2_4pathESt10error_code 108
_ZNSt12experimental10filesystem2v112read_symlinkERKNS1_7__cxx114pathE _ZNSt7__cxx1112basic_stringIcSt11char_traitsIcESaIcEE10_M_disposeEv 117
_ZNSt12experimental10filesystem2v112read_symlinkERKNS1_7__cxx114pathE _ZNSt12experimental10filesystem2v17__cxx1116filesystem_errorD1Ev 126
_ZNSt12experimental10filesystem2v112read_symlinkERKNS1_7__cxx114pathE _ZTINSt12experimental10filesystem2v17__cxx1116filesystem_errorE 132
_ZNSt12experimental10filesystem2v112read_symlinkERKNS1_7__cxx114pathE __cxa_throw 140
_ZNSt12experimental10filesystem2v112read_symlinkERKNS1_7__cxx114pathE _ZNSt7__cxx1112basic_stringIcSt11char_traitsIcESaIcEE10_M_disposeEv 154
_ZNSt12experimental10filesystem2v112read_symlinkERKNS1_7__cxx114pathE __cxa_free_exception 179
_ZNSt12experimental10filesystem2v112read_symlinkERKNS1_7__cxx114pathE _ZNSt12experimental10filesystem2v17__cxx114pathD1Ev 199
_ZNSt12experimental10filesystem2v112read_symlinkERKNS1_7__cxx114pathE _Unwind_Resume 207
_ZNSt12experimental10filesystem2v16removeERKNS1_7__cxx114pathE __x86.get_pc_thunk.si 10
_ZNSt12experimental10filesystem2v16removeERKNS1_7__cxx114pathE _ZNSt10error_codeC1Ev 27
_ZNSt12experimental10filesystem2v16removeERKNS1_7__cxx114pathE _ZNSt12experimental10filesystem2v16removeERKNS1_7__cxx114pathERSt10error_code 38
_ZNSt12experimental10filesystem2v16removeERKNS1_7__cxx114pathE __cxa_allocate_exception 64
_ZNSt12experimental10filesystem2v16removeERKNS1_7__cxx114pathE .LC31 70
_ZNSt12experimental10filesystem2v16removeERKNS1_7__cxx114pathE _ZNSt12experimental10filesystem2v17__cxx1116filesystem_errorC1ERKNSt7__cxx1112basic_stringIcSt11char_traitsIcESaIcEEERKNS2_4pathESt10error_code 104
_ZNSt12experimental10filesystem2v16removeERKNS1_7__cxx114pathE _ZNSt7__cxx1112basic_stringIcSt11char_traitsIcESaIcEE10_M_disposeEv 113
_ZNSt12experimental10filesystem2v16removeERKNS1_7__cxx114pathE _ZNSt12experimental10filesystem2v17__cxx1116filesystem_errorD1Ev 122
_ZNSt12experimental10filesystem2v16removeERKNS1_7__cxx114pathE _ZTINSt12experimental10filesystem2v17__cxx1116filesystem_errorE 128
_ZNSt12experimental10filesystem2v16removeERKNS1_7__cxx114pathE __cxa_throw 136
_ZNSt12experimental10filesystem2v16removeERKNS1_7__cxx114pathE _ZNSt7__cxx1112basic_stringIcSt11char_traitsIcESaIcEE10_M_disposeEv 150
_ZNSt12experimental10filesystem2v16removeERKNS1_7__cxx114pathE __cxa_free_exception 174
_ZNSt12experimental10filesystem2v16removeERKNS1_7__cxx114pathE _Unwind_Resume 185
_ZNSt12experimental10filesystem2v110remove_allERKNS1_7__cxx114pathE __x86.get_pc_thunk.si 10
_ZNSt12experimental10filesystem2v110remove_allERKNS1_7__cxx114pathE _ZNSt10error_codeC1Ev 27
_ZNSt12experimental10filesystem2v110remove_allERKNS1_7__cxx114pathE _ZNSt12experimental10filesystem2v110remove_allERKNS1_7__cxx114pathERSt10error_code 38
_ZNSt12experimental10filesystem2v110remove_allERKNS1_7__cxx114pathE __cxa_allocate_exception 69
_ZNSt12experimental10filesystem2v110remove_allERKNS1_7__cxx114pathE .LC32 75
_ZNSt12experimental10filesystem2v110remove_allERKNS1_7__cxx114pathE _ZNSt12experimental10filesystem2v17__cxx1116filesystem_errorC1ERKNSt7__cxx1112basic_stringIcSt11char_traitsIcESaIcEEERKNS2_4pathESt10error_code 109
_ZNSt12experimental10filesystem2v110remove_allERKNS1_7__cxx114pathE _ZNSt7__cxx1112basic_stringIcSt11char_traitsIcESaIcEE10_M_disposeEv 118
_ZNSt12experimental10filesystem2v110remove_allERKNS1_7__cxx114pathE _ZNSt12experimental10filesystem2v17__cxx1116filesystem_errorD1Ev 127
_ZNSt12experimental10filesystem2v110remove_allERKNS1_7__cxx114pathE _ZTINSt12experimental10filesystem2v17__cxx1116filesystem_errorE 133
_ZNSt12experimental10filesystem2v110remove_allERKNS1_7__cxx114pathE __cxa_throw 141
_ZNSt12experimental10filesystem2v110remove_allERKNS1_7__cxx114pathE _ZNSt7__cxx1112basic_stringIcSt11char_traitsIcESaIcEE10_M_disposeEv 155
_ZNSt12experimental10filesystem2v110remove_allERKNS1_7__cxx114pathE __cxa_free_exception 179
_ZNSt12experimental10filesystem2v110remove_allERKNS1_7__cxx114pathE _Unwind_Resume 190
_ZNSt12experimental10filesystem2v111resize_fileERKNS1_7__cxx114pathEy __x86.get_pc_thunk.si 10
_ZNSt12experimental10filesystem2v111resize_fileERKNS1_7__cxx114pathEy _ZNSt10error_codeC1Ev 39
_ZNSt12experimental10filesystem2v111resize_fileERKNS1_7__cxx114pathEy _ZNSt12experimental10filesystem2v111resize_fileERKNS1_7__cxx114pathEyRSt10error_code 56
_ZNSt12experimental10filesystem2v111resize_fileERKNS1_7__cxx114pathEy __cxa_allocate_exception 82
_ZNSt12experimental10filesystem2v111resize_fileERKNS1_7__cxx114pathEy .LC33 88
_ZNSt12experimental10filesystem2v111resize_fileERKNS1_7__cxx114pathEy _ZNSt12experimental10filesystem2v17__cxx1116filesystem_errorC1ERKNSt7__cxx1112basic_stringIcSt11char_traitsIcESaIcEEERKNS2_4pathESt10error_code 122
_ZNSt12experimental10filesystem2v111resize_fileERKNS1_7__cxx114pathEy _ZNSt7__cxx1112basic_stringIcSt11char_traitsIcESaIcEE10_M_disposeEv 131
_ZNSt12experimental10filesystem2v111resize_fileERKNS1_7__cxx114pathEy _ZNSt12experimental10filesystem2v17__cxx1116filesystem_errorD1Ev 140
_ZNSt12experimental10filesystem2v111resize_fileERKNS1_7__cxx114pathEy _ZTINSt12experimental10filesystem2v17__cxx1116filesystem_errorE 146
_ZNSt12experimental10filesystem2v111resize_fileERKNS1_7__cxx114pathEy __cxa_throw 154
_ZNSt12experimental10filesystem2v111resize_fileERKNS1_7__cxx114pathEy _ZNSt7__cxx1112basic_stringIcSt11char_traitsIcESaIcEE10_M_disposeEv 168
_ZNSt12experimental10filesystem2v111resize_fileERKNS1_7__cxx114pathEy __cxa_free_exception 192
_ZNSt12experimental10filesystem2v111resize_fileERKNS1_7__cxx114pathEy _Unwind_Resume 203
_ZNSt12experimental10filesystem2v15spaceERKNS1_7__cxx114pathE __x86.get_pc_thunk.si 10
_ZNSt12experimental10filesystem2v15spaceERKNS1_7__cxx114pathE _ZNSt10error_codeC1Ev 27
_ZNSt12experimental10filesystem2v15spaceERKNS1_7__cxx114pathE _ZNSt12experimental10filesystem2v15spaceERKNS1_7__cxx114pathERSt10error_code 42
_ZNSt12experimental10filesystem2v15spaceERKNS1_7__cxx114pathE __cxa_allocate_exception 68
_ZNSt12experimental10filesystem2v15spaceERKNS1_7__cxx114pathE .LC34 74
_ZNSt12experimental10filesystem2v15spaceERKNS1_7__cxx114pathE _ZNSt12experimental10filesystem2v17__cxx1116filesystem_errorC1ERKNSt7__cxx1112basic_stringIcSt11char_traitsIcESaIcEEERKNS2_4pathESt10error_code 108
_ZNSt12experimental10filesystem2v15spaceERKNS1_7__cxx114pathE _ZNSt7__cxx1112basic_stringIcSt11char_traitsIcESaIcEE10_M_disposeEv 117
_ZNSt12experimental10filesystem2v15spaceERKNS1_7__cxx114pathE _ZNSt12experimental10filesystem2v17__cxx1116filesystem_errorD1Ev 126
_ZNSt12experimental10filesystem2v15spaceERKNS1_7__cxx114pathE _ZTINSt12experimental10filesystem2v17__cxx1116filesystem_errorE 132
_ZNSt12experimental10filesystem2v15spaceERKNS1_7__cxx114pathE __cxa_throw 140
_ZNSt12experimental10filesystem2v15spaceERKNS1_7__cxx114pathE _ZNSt7__cxx1112basic_stringIcSt11char_traitsIcESaIcEE10_M_disposeEv 154
_ZNSt12experimental10filesystem2v15spaceERKNS1_7__cxx114pathE __cxa_free_exception 178
_ZNSt12experimental10filesystem2v15spaceERKNS1_7__cxx114pathE _Unwind_Resume 189
_ZNSt12experimental10filesystem2v16statusERKNS1_7__cxx114pathE __x86.get_pc_thunk.si 10
_ZNSt12experimental10filesystem2v16statusERKNS1_7__cxx114pathE _ZNSt10error_codeC1Ev 27
_ZNSt12experimental10filesystem2v16statusERKNS1_7__cxx114pathE _ZNSt12experimental10filesystem2v16statusERKNS1_7__cxx114pathERSt10error_code 42
_ZNSt12experimental10filesystem2v16statusERKNS1_7__cxx114pathE __cxa_allocate_exception 70
_ZNSt12experimental10filesystem2v16statusERKNS1_7__cxx114pathE .LC35 76
_ZNSt12experimental10filesystem2v16statusERKNS1_7__cxx114pathE _ZNSt12experimental10filesystem2v17__cxx1116filesystem_errorC1ERKNSt7__cxx1112basic_stringIcSt11char_traitsIcESaIcEEERKNS2_4pathESt10error_code 110
_ZNSt12experimental10filesystem2v16statusERKNS1_7__cxx114pathE _ZNSt7__cxx1112basic_stringIcSt11char_traitsIcESaIcEE10_M_disposeEv 119
_ZNSt12experimental10filesystem2v16statusERKNS1_7__cxx114pathE _ZNSt12experimental10filesystem2v17__cxx1116filesystem_errorD1Ev 128
_ZNSt12experimental10filesystem2v16statusERKNS1_7__cxx114pathE _ZTINSt12experimental10filesystem2v17__cxx1116filesystem_errorE 134
_ZNSt12experimental10filesystem2v16statusERKNS1_7__cxx114pathE __cxa_throw 142
_ZNSt12experimental10filesystem2v16statusERKNS1_7__cxx114pathE _ZNSt7__cxx1112basic_stringIcSt11char_traitsIcESaIcEE10_M_disposeEv 156
_ZNSt12experimental10filesystem2v16statusERKNS1_7__cxx114pathE __cxa_free_exception 180
_ZNSt12experimental10filesystem2v16statusERKNS1_7__cxx114pathE _Unwind_Resume 191
_ZN12_GLOBAL__N_110create_dirERKNSt12experimental10filesystem2v17__cxx114pathENS2_5permsERSt10error_code.part.141 __x86.get_pc_thunk.bx 9
_ZN12_GLOBAL__N_110create_dirERKNSt12experimental10filesystem2v17__cxx114pathENS2_5permsERSt10error_code.part.141 __errno_location 26
_ZN12_GLOBAL__N_110create_dirERKNSt12experimental10filesystem2v17__cxx114pathENS2_5permsERSt10error_code.part.141 _ZNSt12experimental10filesystem2v16statusERKNS1_7__cxx114pathE 48
_ZN12_GLOBAL__N_110create_dirERKNSt12experimental10filesystem2v17__cxx114pathENS2_5permsERSt10error_code.part.141 _ZNSt10error_code5clearEv 66
_ZN12_GLOBAL__N_110create_dirERKNSt12experimental10filesystem2v17__cxx114pathENS2_5permsERSt10error_code.part.141 _ZNSt3_V216generic_categoryEv 76
_ZNSt12experimental10filesystem2v116create_directoryERKNS1_7__cxx114pathES5_RSt10error_code __x86.get_pc_thunk.bx 10
_ZNSt12experimental10filesystem2v116create_directoryERKNS1_7__cxx114pathES5_RSt10error_code stat 36
_ZNSt12experimental10filesystem2v116create_directoryERKNS1_7__cxx114pathES5_RSt10error_code _ZNSt3_V216generic_categoryEv 48
_ZNSt12experimental10filesystem2v116create_directoryERKNS1_7__cxx114pathES5_RSt10error_code __errno_location 55
_ZNSt12experimental10filesystem2v116create_directoryERKNS1_7__cxx114pathES5_RSt10error_code mkdir 78
_ZNSt12experimental10filesystem2v116create_directoryERKNS1_7__cxx114pathES5_RSt10error_code _ZNSt10error_code5clearEv 105
_ZNSt12experimental10filesystem2v14copyERKNS1_7__cxx114pathES5_NS1_12copy_optionsERSt10error_code __x86.get_pc_thunk.bx 7
_ZNSt12experimental10filesystem2v14copyERKNS1_7__cxx114pathES5_NS1_12copy_optionsERSt10error_code lstat 125
_ZNSt12experimental10filesystem2v14copyERKNS1_7__cxx114pathES5_NS1_12copy_optionsERSt10error_code stat 140
_ZNSt12experimental10filesystem2v14copyERKNS1_7__cxx114pathES5_NS1_12copy_optionsERSt10error_code lstat 177
_ZNSt12experimental10filesystem2v14copyERKNS1_7__cxx114pathES5_NS1_12copy_optionsERSt10error_code stat 192
_ZNSt12experimental10filesystem2v14copyERKNS1_7__cxx114pathES5_NS1_12copy_optionsERSt10error_code __errno_location 209
_ZNSt12experimental10filesystem2v14copyERKNS1_7__cxx114pathES5_NS1_12copy_optionsERSt10error_code _ZNSt3_V216generic_categoryEv 226
_ZNSt12experimental10filesystem2v14copyERKNS1_7__cxx114pathES5_NS1_12copy_optionsERSt10error_code __errno_location 233
_ZNSt12experimental10filesystem2v14copyERKNS1_7__cxx114pathES5_NS1_12copy_optionsERSt10error_code _ZNSt3_V216generic_categoryEv 403
_ZNSt12experimental10filesystem2v14copyERKNS1_7__cxx114pathES5_NS1_12copy_optionsERSt10error_code _ZNSt3_V216generic_categoryEv 474
_ZNSt12experimental10filesystem2v14copyERKNS1_7__cxx114pathES5_NS1_12copy_optionsERSt10error_code _ZNSt3_V216generic_categoryEv 529
_ZNSt12experimental10filesystem2v14copyERKNS1_7__cxx114pathES5_NS1_12copy_optionsERSt10error_code _ZNSt10error_code5clearEv 559
_ZNSt12experimental10filesystem2v14copyERKNS1_7__cxx114pathES5_NS1_12copy_optionsERSt10error_code _ZNSt12experimental10filesystem2v112copy_symlinkERKNS1_7__cxx114pathES5_RSt10error_code 603
_ZNSt12experimental10filesystem2v14copyERKNS1_7__cxx114pathES5_NS1_12copy_optionsERSt10error_code _ZNSt12experimental10filesystem2v114create_symlinkERKNS1_7__cxx114pathES5_RSt10error_code 639
_ZNSt12experimental10filesystem2v14copyERKNS1_7__cxx114pathES5_NS1_12copy_optionsERSt10error_code _ZNSt12experimental10filesystem2v116create_hard_linkERKNS1_7__cxx114pathES5_RSt10error_code 663
_ZNSt12experimental10filesystem2v14copyERKNS1_7__cxx114pathES5_NS1_12copy_optionsERSt10error_code _ZNKSt12experimental10filesystem2v17__cxx114path8filenameEv 700
_ZNSt12experimental10filesystem2v14copyERKNS1_7__cxx114pathES5_NS1_12copy_optionsERSt10error_code _ZNSt12experimental10filesystem2v17__cxx11dvERKNS2_4pathES5_ 729
_ZNSt12experimental10filesystem2v14copyERKNS1_7__cxx114pathES5_NS1_12copy_optionsERSt10error_code _ZNSt12experimental10filesystem2v17__cxx114pathD1Ev 771
_ZNSt12experimental10filesystem2v14copyERKNS1_7__cxx114pathES5_NS1_12copy_optionsERSt10error_code _ZNSt12experimental10filesystem2v17__cxx114pathD1Ev 783
_ZNSt12experimental10filesystem2v14copyERKNS1_7__cxx114pathES5_NS1_12copy_optionsERSt10error_code _ZNSt14__shared_countILN9__gnu_cxx12_Lock_policyE2EED1Ev 838
_ZNSt12experimental10filesystem2v14copyERKNS1_7__cxx114pathES5_NS1_12copy_optionsERSt10error_code _ZNSt14__shared_countILN9__gnu_cxx12_Lock_policyE2EED1Ev 852
_ZNSt12experimental10filesystem2v14copyERKNS1_7__cxx114pathES5_NS1_12copy_optionsERSt10error_code _ZNSt14__shared_countILN9__gnu_cxx12_Lock_policyE2EED1Ev 866
_ZNSt12experimental10filesystem2v14copyERKNS1_7__cxx114pathES5_NS1_12copy_optionsERSt10error_code _ZNSt3_V216generic_categoryEv 879
_ZNSt12experimental10filesystem2v14copyERKNS1_7__cxx114pathES5_NS1_12copy_optionsERSt10error_code _ZNSt12experimental10filesystem2v116create_directoryERKNS1_7__cxx114pathES5_RSt10error_code 952
_ZNSt12experimental10filesystem2v14copyERKNS1_7__cxx114pathES5_NS1_12copy_optionsERSt10error_code _ZNSt12experimental10filesystem2v17__cxx1118directory_iteratorC1ERKNS2_4pathENS1_17directory_optionsEPSt10error_code 1010
_ZNSt12experimental10filesystem2v14copyERKNS1_7__cxx114pathES5_NS1_12copy_optionsERSt10error_code _ZNSt14__shared_countILN9__gnu_cxx12_Lock_policyE2EED1Ev 1104
_ZNSt12experimental10filesystem2v14copyERKNS1_7__cxx114pathES5_NS1_12copy_optionsERSt10error_code _ZNSt14__shared_countILN9__gnu_cxx12_Lock_policyE2EED1Ev 1174
_ZNSt12experimental10filesystem2v14copyERKNS1_7__cxx114pathES5_NS1_12copy_optionsERSt10error_code _ZNKSt12experimental10filesystem2v17__cxx1118directory_iteratordeEv 1221
_ZNSt12experimental10filesystem2v14copyERKNS1_7__cxx114pathES5_NS1_12copy_optionsERSt10error_code _ZNKSt12experimental10filesystem2v17__cxx114path8filenameEv 1236
_ZNSt12experimental10filesystem2v14copyERKNS1_7__cxx114pathES5_NS1_12copy_optionsERSt10error_code _ZNSt12experimental10filesystem2v17__cxx11dvERKNS2_4pathES5_ 1260
_ZNSt12experimental10filesystem2v14copyERKNS1_7__cxx114pathES5_NS1_12copy_optionsERSt10error_code _ZNSt12experimental10filesystem2v17__cxx114pathD1Ev 1305
_ZNSt12experimental10filesystem2v14copyERKNS1_7__cxx114pathES5_NS1_12copy_optionsERSt10error_code _ZNSt12experimental10filesystem2v17__cxx114pathD1Ev 1313
_ZNSt12experimental10filesystem2v14copyERKNS1_7__cxx114pathES5_NS1_12copy_optionsERSt10error_code _ZNSt12experimental10filesystem2v17__cxx1118directory_iteratorppEv 1325
_ZNSt12experimental10filesystem2v14copyERKNS1_7__cxx114pathES5_NS1_12copy_optionsE __x86.get_pc_thunk.si 10
_ZNSt12experimental10filesystem2v14copyERKNS1_7__cxx114pathES5_NS1_12copy_optionsE _ZNSt10error_codeC1Ev 33
_ZNSt12experimental10filesystem2v14copyERKNS1_7__cxx114pathES5_NS1_12copy_optionsE _ZNSt12experimental10filesystem2v14copyERKNS1_7__cxx114pathES5_NS1_12copy_optionsERSt10error_code 49
_ZNSt12experimental10filesystem2v14copyERKNS1_7__cxx114pathES5_NS1_12copy_optionsE __cxa_allocate_exception 75
_ZNSt12experimental10filesystem2v14copyERKNS1_7__cxx114pathES5_NS1_12copy_optionsE .LC36 81
_ZNSt12experimental10filesystem2v14copyERKNS1_7__cxx114pathES5_NS1_12copy_optionsE _ZNSt12experimental10filesystem2v17__cxx1116filesystem_errorC1ERKNSt7__cxx1112basic_stringIcSt11char_traitsIcESaIcEEERKNS2_4pathESE_St10error_code 117
_ZNSt12experimental10filesystem2v14copyERKNS1_7__cxx114pathES5_NS1_12copy_optionsE _ZNSt7__cxx1112basic_stringIcSt11char_traitsIcESaIcEE10_M_disposeEv 126
_ZNSt12experimental10filesystem2v14copyERKNS1_7__cxx114pathES5_NS1_12copy_optionsE _ZNSt12experimental10filesystem2v17__cxx1116filesystem_errorD1Ev 135
_ZNSt12experimental10filesystem2v14copyERKNS1_7__cxx114pathES5_NS1_12copy_optionsE _ZTINSt12experimental10filesystem2v17__cxx1116filesystem_errorE 141
_ZNSt12experimental10filesystem2v14copyERKNS1_7__cxx114pathES5_NS1_12copy_optionsE __cxa_throw 149
_ZNSt12experimental10filesystem2v14copyERKNS1_7__cxx114pathES5_NS1_12copy_optionsE _ZNSt7__cxx1112basic_stringIcSt11char_traitsIcESaIcEE10_M_disposeEv 163
_ZNSt12experimental10filesystem2v14copyERKNS1_7__cxx114pathES5_NS1_12copy_optionsE __cxa_free_exception 187
_ZNSt12experimental10filesystem2v14copyERKNS1_7__cxx114pathES5_NS1_12copy_optionsE _Unwind_Resume 198
_ZNSt12experimental10filesystem2v116create_directoryERKNS1_7__cxx114pathERSt10error_code __x86.get_pc_thunk.bx 7
_ZNSt12experimental10filesystem2v116create_directoryERKNS1_7__cxx114pathERSt10error_code mkdir 34
_ZNSt12experimental10filesystem2v116create_directoryERKNS1_7__cxx114pathERSt10error_code _ZNSt10error_code5clearEv 66
_ZNSt12experimental10filesystem2v116create_directoryERKNS1_7__cxx114pathE __x86.get_pc_thunk.si 10
_ZNSt12experimental10filesystem2v116create_directoryERKNS1_7__cxx114pathE _ZNSt10error_codeC1Ev 27
_ZNSt12experimental10filesystem2v116create_directoryERKNS1_7__cxx114pathE _ZNSt12experimental10filesystem2v116create_directoryERKNS1_7__cxx114pathERSt10error_code 38
_ZNSt12experimental10filesystem2v116create_directoryERKNS1_7__cxx114pathE __cxa_allocate_exception 64
_ZNSt12experimental10filesystem2v116create_directoryERKNS1_7__cxx114pathE .LC37 70
_ZNSt12experimental10filesystem2v116create_directoryERKNS1_7__cxx114pathE _ZNSt12experimental10filesystem2v17__cxx1116filesystem_errorC1ERKNSt7__cxx1112basic_stringIcSt11char_traitsIcESaIcEEERKNS2_4pathESt10error_code 104
_ZNSt12experimental10filesystem2v116create_directoryERKNS1_7__cxx114pathE _ZNSt7__cxx1112basic_stringIcSt11char_traitsIcESaIcEE10_M_disposeEv 113
_ZNSt12experimental10filesystem2v116create_directoryERKNS1_7__cxx114pathE _ZNSt12experimental10filesystem2v17__cxx1116filesystem_errorD1Ev 122
_ZNSt12experimental10filesystem2v116create_directoryERKNS1_7__cxx114pathE _ZTINSt12experimental10filesystem2v17__cxx1116filesystem_errorE 128
_ZNSt12experimental10filesystem2v116create_directoryERKNS1_7__cxx114pathE __cxa_throw 136
_ZNSt12experimental10filesystem2v116create_directoryERKNS1_7__cxx114pathE _ZNSt7__cxx1112basic_stringIcSt11char_traitsIcESaIcEE10_M_disposeEv 150
_ZNSt12experimental10filesystem2v116create_directoryERKNS1_7__cxx114pathE __cxa_free_exception 174
_ZNSt12experimental10filesystem2v116create_directoryERKNS1_7__cxx114pathE _Unwind_Resume 185
_ZNSt12experimental10filesystem2v116create_directoryERKNS1_7__cxx114pathES5_ __x86.get_pc_thunk.si 10
_ZNSt12experimental10filesystem2v116create_directoryERKNS1_7__cxx114pathES5_ _ZNSt10error_codeC1Ev 27
_ZNSt12experimental10filesystem2v116create_directoryERKNS1_7__cxx114pathES5_ _ZNSt12experimental10filesystem2v116create_directoryERKNS1_7__cxx114pathES5_RSt10error_code 42
_ZNSt12experimental10filesystem2v116create_directoryERKNS1_7__cxx114pathES5_ __cxa_allocate_exception 68
_ZNSt12experimental10filesystem2v116create_directoryERKNS1_7__cxx114pathES5_ .LC37 74
_ZNSt12experimental10filesystem2v116create_directoryERKNS1_7__cxx114pathES5_ _ZNSt12experimental10filesystem2v17__cxx1116filesystem_errorC1ERKNSt7__cxx1112basic_stringIcSt11char_traitsIcESaIcEEERKNS2_4pathESt10error_code 108
_ZNSt12experimental10filesystem2v116create_directoryERKNS1_7__cxx114pathES5_ _ZNSt7__cxx1112basic_stringIcSt11char_traitsIcESaIcEE10_M_disposeEv 117
_ZNSt12experimental10filesystem2v116create_directoryERKNS1_7__cxx114pathES5_ _ZNSt12experimental10filesystem2v17__cxx1116filesystem_errorD1Ev 126
_ZNSt12experimental10filesystem2v116create_directoryERKNS1_7__cxx114pathES5_ _ZTINSt12experimental10filesystem2v17__cxx1116filesystem_errorE 132
_ZNSt12experimental10filesystem2v116create_directoryERKNS1_7__cxx114pathES5_ __cxa_throw 140
_ZNSt12experimental10filesystem2v116create_directoryERKNS1_7__cxx114pathES5_ _ZNSt7__cxx1112basic_stringIcSt11char_traitsIcESaIcEE10_M_disposeEv 154
_ZNSt12experimental10filesystem2v116create_directoryERKNS1_7__cxx114pathES5_ __cxa_free_exception 178
_ZNSt12experimental10filesystem2v116create_directoryERKNS1_7__cxx114pathES5_ _Unwind_Resume 189
_ZNSt12experimental10filesystem2v114symlink_statusERKNS1_7__cxx114pathE __x86.get_pc_thunk.si 10
_ZNSt12experimental10filesystem2v114symlink_statusERKNS1_7__cxx114pathE _ZNSt10error_codeC1Ev 27
_ZNSt12experimental10filesystem2v114symlink_statusERKNS1_7__cxx114pathE _ZNSt12experimental10filesystem2v114symlink_statusERKNS1_7__cxx114pathERSt10error_code 42
_ZNSt12experimental10filesystem2v114symlink_statusERKNS1_7__cxx114pathE __cxa_allocate_exception 70
_ZNSt12experimental10filesystem2v114symlink_statusERKNS1_7__cxx114pathE .LC38 76
_ZNSt12experimental10filesystem2v114symlink_statusERKNS1_7__cxx114pathE _ZNSt12experimental10filesystem2v17__cxx1116filesystem_errorC1ERKNSt7__cxx1112basic_stringIcSt11char_traitsIcESaIcEEERKNS2_4pathESt10error_code 110
_ZNSt12experimental10filesystem2v114symlink_statusERKNS1_7__cxx114pathE _ZNSt7__cxx1112basic_stringIcSt11char_traitsIcESaIcEE10_M_disposeEv 119
_ZNSt12experimental10filesystem2v114symlink_statusERKNS1_7__cxx114pathE _ZNSt12experimental10filesystem2v17__cxx1116filesystem_errorD1Ev 128
_ZNSt12experimental10filesystem2v114symlink_statusERKNS1_7__cxx114pathE _ZTINSt12experimental10filesystem2v17__cxx1116filesystem_errorE 134
_ZNSt12experimental10filesystem2v114symlink_statusERKNS1_7__cxx114pathE __cxa_throw 142
_ZNSt12experimental10filesystem2v114symlink_statusERKNS1_7__cxx114pathE _ZNSt7__cxx1112basic_stringIcSt11char_traitsIcESaIcEE10_M_disposeEv 156
_ZNSt12experimental10filesystem2v114symlink_statusERKNS1_7__cxx114pathE __cxa_free_exception 180
_ZNSt12experimental10filesystem2v114symlink_statusERKNS1_7__cxx114pathE _Unwind_Resume 191
_ZNSt5dequeINSt12experimental10filesystem2v17__cxx114pathESaIS4_EE17_M_reallocate_mapEjb __x86.get_pc_thunk.bx 7
_ZNSt5dequeINSt12experimental10filesystem2v17__cxx114pathESaIS4_EE17_M_reallocate_mapEjb memmove 152
_ZNSt5dequeINSt12experimental10filesystem2v17__cxx114pathESaIS4_EE17_M_reallocate_mapEjb _ZSt17__throw_bad_allocv 185
_ZNSt5dequeINSt12experimental10filesystem2v17__cxx114pathESaIS4_EE17_M_reallocate_mapEjb _Znwj 200
_ZNSt5dequeINSt12experimental10filesystem2v17__cxx114pathESaIS4_EE17_M_reallocate_mapEjb memmove 268
_ZNSt5dequeINSt12experimental10filesystem2v17__cxx114pathESaIS4_EE17_M_reallocate_mapEjb _ZdlPv 281
_ZNSt5dequeINSt12experimental10filesystem2v17__cxx114pathESaIS4_EE22_M_reserve_map_at_backEj __x86.get_pc_thunk.bx 7
_ZNSt5dequeINSt12experimental10filesystem2v17__cxx114pathESaIS4_EE22_M_reserve_map_at_backEj _ZNSt5dequeINSt12experimental10filesystem2v17__cxx114pathESaIS4_EE17_M_reallocate_mapEjb 52
_ZNSt5dequeINSt12experimental10filesystem2v17__cxx114pathESaIS4_EE9push_backERKS4_ __x86.get_pc_thunk.di 7
_ZNSt5dequeINSt12experimental10filesystem2v17__cxx114pathESaIS4_EE9push_backERKS4_ _ZNSt12experimental10filesystem2v17__cxx114pathC1ERKS3_ 49
_ZNSt5dequeINSt12experimental10filesystem2v17__cxx114pathESaIS4_EE9push_backERKS4_ _ZNSt5dequeINSt12experimental10filesystem2v17__cxx114pathESaIS4_EE22_M_reserve_map_at_backEj 73
_ZNSt5dequeINSt12experimental10filesystem2v17__cxx114pathESaIS4_EE9push_backERKS4_ _Znwj 91
_ZNSt5dequeINSt12experimental10filesystem2v17__cxx114pathESaIS4_EE9push_backERKS4_ _ZNSt12experimental10filesystem2v17__cxx114pathC1ERKS3_ 149
_ZNSt5dequeINSt12experimental10filesystem2v17__cxx114pathESaIS4_EE9push_backERKS4_ __cxa_begin_catch 165
_ZNSt5dequeINSt12experimental10filesystem2v17__cxx114pathESaIS4_EE9push_backERKS4_ _ZdlPv 177
_ZNSt5dequeINSt12experimental10filesystem2v17__cxx114pathESaIS4_EE9push_backERKS4_ __cxa_rethrow 185
_ZNSt5dequeINSt12experimental10filesystem2v17__cxx114pathESaIS4_EE9push_backERKS4_ __cxa_end_catch 194
_ZNSt5dequeINSt12experimental10filesystem2v17__cxx114pathESaIS4_EE9push_backERKS4_ _Unwind_Resume 203
_ZNSt11__copy_moveILb0ELb0ESt26random_access_iterator_tagE8__copy_mIPNSt12experimental10filesystem2v17__cxx114path5_CmptES9_EET0_T_SB_SA_ __x86.get_pc_thunk.bx 7
_ZNSt11__copy_moveILb0ELb0ESt26random_access_iterator_tagE8__copy_mIPNSt12experimental10filesystem2v17__cxx114path5_CmptES9_EET0_T_SB_SA_ _ZNSt12experimental10filesystem2v17__cxx114pathaSERKS3_ 60
_ZNSt6vectorINSt12experimental10filesystem2v17__cxx114path5_CmptESaIS5_EEaSERKS7_ __x86.get_pc_thunk.ax 2
_ZNSt6vectorINSt12experimental10filesystem2v17__cxx114path5_CmptESaIS5_EEaSERKS7_ _ZNSt20__uninitialized_copyILb0EE13__uninit_copyIN9__gnu_cxx17__normal_iteratorIPKNSt12experimental10filesystem2v17__cxx114path5_CmptESt6vectorIS9_SaIS9_EEEEPS9_EET0_T_SI_SH_ 108
_ZNSt6vectorINSt12experimental10filesystem2v17__cxx114path5_CmptESaIS5_EEaSERKS7_ _ZNSt12_Destroy_auxILb0EE9__destroyIPNSt12experimental10filesystem2v17__cxx114path5_CmptEEEvT_S9_ 126
_ZNSt6vectorINSt12experimental10filesystem2v17__cxx114path5_CmptESaIS5_EEaSERKS7_ __cxa_begin_catch 167
_ZNSt6vectorINSt12experimental10filesystem2v17__cxx114path5_CmptESaIS5_EEaSERKS7_ __cxa_rethrow 185
_ZNSt6vectorINSt12experimental10filesystem2v17__cxx114path5_CmptESaIS5_EEaSERKS7_ __cxa_end_catch 195
_ZNSt6vectorINSt12experimental10filesystem2v17__cxx114path5_CmptESaIS5_EEaSERKS7_ _ZNSt11__copy_moveILb0ELb0ESt26random_access_iterator_tagE8__copy_mIPNSt12experimental10filesystem2v17__cxx114path5_CmptES9_EET0_T_SB_SA_ 238
_ZNSt6vectorINSt12experimental10filesystem2v17__cxx114path5_CmptESaIS5_EEaSERKS7_ _ZNSt12experimental10filesystem2v17__cxx114pathD2Ev 266
_ZNSt6vectorINSt12experimental10filesystem2v17__cxx114path5_CmptESaIS5_EEaSERKS7_ _ZNSt11__copy_moveILb0ELb0ESt26random_access_iterator_tagE8__copy_mIPNSt12experimental10filesystem2v17__cxx114path5_CmptES9_EET0_T_SB_SA_ 285
_ZNSt6vectorINSt12experimental10filesystem2v17__cxx114path5_CmptESaIS5_EEaSERKS7_ _ZNSt12experimental10filesystem2v17__cxx114pathC2ERKS3_ 343
_ZNSt6vectorINSt12experimental10filesystem2v17__cxx114path5_CmptESaIS5_EEaSERKS7_ __cxa_begin_catch 372
_ZNSt6vectorINSt12experimental10filesystem2v17__cxx114path5_CmptESaIS5_EEaSERKS7_ _ZNSt12_Destroy_auxILb0EE9__destroyIPNSt12experimental10filesystem2v17__cxx114path5_CmptEEEvT_S9_ 386
_ZNSt6vectorINSt12experimental10filesystem2v17__cxx114path5_CmptESaIS5_EEaSERKS7_ __cxa_rethrow 397
_ZNSt6vectorINSt12experimental10filesystem2v17__cxx114path5_CmptESaIS5_EEaSERKS7_ __cxa_end_catch 407
_ZNSt6vectorINSt12experimental10filesystem2v17__cxx114path5_CmptESaIS5_EEaSERKS7_ _Unwind_Resume 419
_ZNSt12experimental10filesystem2v17__cxx114pathaSERKS3_ __x86.get_pc_thunk.bx 7
_ZNSt12experimental10filesystem2v17__cxx114pathaSERKS3_ _ZNSt7__cxx1112basic_stringIcSt11char_traitsIcESaIcEE9_M_assignERKS4_ 29
_ZNSt12experimental10filesystem2v17__cxx114pathaSERKS3_ _ZNSt6vectorINSt12experimental10filesystem2v17__cxx114path5_CmptESaIS5_EEaSERKS7_ 44
_ZNSt12experimental10filesystem2v18absoluteERKNS1_7__cxx114pathES5_ __x86.get_pc_thunk.di 7
_ZNSt12experimental10filesystem2v18absoluteERKNS1_7__cxx114pathES5_ _ZNKSt12experimental10filesystem2v17__cxx114path18has_root_directoryEv 29
_ZNSt12experimental10filesystem2v18absoluteERKNS1_7__cxx114pathES5_ _ZNKSt12experimental10filesystem2v17__cxx114path13has_root_nameEv 44
_ZNSt12experimental10filesystem2v18absoluteERKNS1_7__cxx114pathES5_ _ZNSt12experimental10filesystem2v17__cxx114pathC1Ev 59
_ZNSt12experimental10filesystem2v18absoluteERKNS1_7__cxx114pathES5_ _ZNSt12experimental10filesystem2v17__cxx114pathaSERKS3_ 95
_ZNSt12experimental10filesystem2v18absoluteERKNS1_7__cxx114pathES5_ _ZNKSt12experimental10filesystem2v17__cxx114path18has_root_directoryEv 113
_ZNSt12experimental10filesystem2v18absoluteERKNS1_7__cxx114pathES5_ _ZNSt12experimental10filesystem2v17__cxx114pathC1ERKS3_ 137
_ZNSt12experimental10filesystem2v18absoluteERKNS1_7__cxx114pathES5_ _ZNSt12experimental10filesystem2v112current_pathB5cxx11Ev 159
_ZNSt12experimental10filesystem2v18absoluteERKNS1_7__cxx114pathES5_ _ZNSt12experimental10filesystem2v17__cxx114pathaSERKS3_ 206
_ZNSt12experimental10filesystem2v18absoluteERKNS1_7__cxx114pathES5_ _ZNSt12experimental10filesystem2v17__cxx114pathD1Ev 214
_ZNSt12experimental10filesystem2v18absoluteERKNS1_7__cxx114pathES5_ _ZNSt12experimental10filesystem2v17__cxx114pathD1Ev 241
_ZNSt12experimental10filesystem2v18absoluteERKNS1_7__cxx114pathES5_ _ZNKSt12experimental10filesystem2v17__cxx114path9root_nameEv 272
_ZNSt12experimental10filesystem2v18absoluteERKNS1_7__cxx114pathES5_ _ZNSt12experimental10filesystem2v17__cxx11dvERKNS2_4pathES5_ 296
_ZNSt12experimental10filesystem2v18absoluteERKNS1_7__cxx114pathES5_ _ZNSt12experimental10filesystem2v17__cxx114pathaSEOS3_ 311
_ZNSt12experimental10filesystem2v18absoluteERKNS1_7__cxx114pathES5_ _ZNKSt12experimental10filesystem2v17__cxx114path13relative_pathEv 348
_ZNSt12experimental10filesystem2v18absoluteERKNS1_7__cxx114pathES5_ _ZNKSt12experimental10filesystem2v17__cxx114path13relative_pathEv 370
_ZNSt12experimental10filesystem2v18absoluteERKNS1_7__cxx114pathES5_ _ZNKSt12experimental10filesystem2v17__cxx114path14root_directoryEv 386
_ZNSt12experimental10filesystem2v18absoluteERKNS1_7__cxx114pathES5_ _ZNKSt12experimental10filesystem2v17__cxx114path9root_nameEv 402
_ZNSt12experimental10filesystem2v18absoluteERKNS1_7__cxx114pathES5_ _ZNSt12experimental10filesystem2v17__cxx11dvERKNS2_4pathES5_ 430
_ZNSt12experimental10filesystem2v18absoluteERKNS1_7__cxx114pathES5_ _ZNSt12experimental10filesystem2v17__cxx11dvERKNS2_4pathES5_ 457
_ZNSt12experimental10filesystem2v18absoluteERKNS1_7__cxx114pathES5_ _ZNSt12experimental10filesystem2v17__cxx11dvERKNS2_4pathES5_ 493
_ZNSt12experimental10filesystem2v18absoluteERKNS1_7__cxx114pathES5_ _ZNSt12experimental10filesystem2v17__cxx114pathaSEOS3_ 508
_ZNSt12experimental10filesystem2v18absoluteERKNS1_7__cxx114pathES5_ _ZNSt12experimental10filesystem2v17__cxx114pathD1Ev 520
_ZNSt12experimental10filesystem2v18absoluteERKNS1_7__cxx114pathES5_ _ZNSt12experimental10filesystem2v17__cxx114pathD1Ev 534
_ZNSt12experimental10filesystem2v18absoluteERKNS1_7__cxx114pathES5_ _ZNSt12experimental10filesystem2v17__cxx114pathD1Ev 548
_ZNSt12experimental10filesystem2v18absoluteERKNS1_7__cxx114pathES5_ _ZNSt12experimental10filesystem2v17__cxx114pathD1Ev 562
_ZNSt12experimental10filesystem2v18absoluteERKNS1_7__cxx114pathES5_ _ZNSt12experimental10filesystem2v17__cxx114pathD1Ev 576
_ZNSt12experimental10filesystem2v18absoluteERKNS1_7__cxx114pathES5_ _ZNSt12experimental10filesystem2v17__cxx114pathD1Ev 588
_ZNSt12experimental10filesystem2v18absoluteERKNS1_7__cxx114pathES5_ _ZNSt12experimental10filesystem2v17__cxx11dvERKNS2_4pathES5_ 608
_ZNSt12experimental10filesystem2v18absoluteERKNS1_7__cxx114pathES5_ _ZNSt12experimental10filesystem2v17__cxx114pathaSEOS3_ 619
_ZNSt12experimental10filesystem2v18absoluteERKNS1_7__cxx114pathES5_ _ZNSt12experimental10filesystem2v17__cxx114pathD1Ev 627
_ZNSt12experimental10filesystem2v18absoluteERKNS1_7__cxx114pathES5_ _ZNSt12experimental10filesystem2v17__cxx114pathD1Ev 660
_ZNSt12experimental10filesystem2v18absoluteERKNS1_7__cxx114pathES5_ _ZNSt12experimental10filesystem2v17__cxx114pathD1Ev 707
_ZNSt12experimental10filesystem2v18absoluteERKNS1_7__cxx114pathES5_ _ZNSt12experimental10filesystem2v17__cxx114pathD1Ev 748
_ZNSt12experimental10filesystem2v18absoluteERKNS1_7__cxx114pathES5_ _ZNSt12experimental10filesystem2v17__cxx114pathD1Ev 782
_ZNSt12experimental10filesystem2v18absoluteERKNS1_7__cxx114pathES5_ _ZNSt12experimental10filesystem2v17__cxx114pathD1Ev 816
_ZNSt12experimental10filesystem2v18absoluteERKNS1_7__cxx114pathES5_ _ZNSt12experimental10filesystem2v17__cxx114pathD1Ev 850
_ZNSt12experimental10filesystem2v18absoluteERKNS1_7__cxx114pathES5_ _ZNSt12experimental10filesystem2v17__cxx114pathD1Ev 883
_ZNSt12experimental10filesystem2v18absoluteERKNS1_7__cxx114pathES5_ _ZNSt12experimental10filesystem2v17__cxx114pathD1Ev 911
_ZNSt12experimental10filesystem2v18absoluteERKNS1_7__cxx114pathES5_ _ZNSt12experimental10filesystem2v17__cxx114pathD1Ev 941
_ZNSt12experimental10filesystem2v18absoluteERKNS1_7__cxx114pathES5_ _Unwind_Resume 955
_ZNSt12experimental10filesystem2v115system_completeERKNS1_7__cxx114pathERSt10error_code __x86.get_pc_thunk.di 10
_ZNSt12experimental10filesystem2v115system_completeERKNS1_7__cxx114pathERSt10error_code _ZNSt12experimental10filesystem2v112current_pathB5cxx11ERSt10error_code 30
_ZNSt12experimental10filesystem2v115system_completeERKNS1_7__cxx114pathERSt10error_code _ZNSt12experimental10filesystem2v17__cxx114pathC1Ev 52
_ZNSt12experimental10filesystem2v115system_completeERKNS1_7__cxx114pathERSt10error_code _ZNSt12experimental10filesystem2v18absoluteERKNS1_7__cxx114pathES5_ 72
_ZNSt12experimental10filesystem2v115system_completeERKNS1_7__cxx114pathERSt10error_code _ZNSt12experimental10filesystem2v17__cxx114pathD1Ev 91
_ZNSt12experimental10filesystem2v115system_completeERKNS1_7__cxx114pathERSt10error_code _Unwind_Resume 102
_ZNSt12experimental10filesystem2v115system_completeERKNS1_7__cxx114pathERSt10error_code _ZNSt12experimental10filesystem2v17__cxx114pathD1Ev 113
_ZNSt12experimental10filesystem2v115system_completeERKNS1_7__cxx114pathE __x86.get_pc_thunk.si 10
_ZNSt12experimental10filesystem2v115system_completeERKNS1_7__cxx114pathE _ZNSt10error_codeC1Ev 27
_ZNSt12experimental10filesystem2v115system_completeERKNS1_7__cxx114pathE _ZNSt12experimental10filesystem2v115system_completeERKNS1_7__cxx114pathERSt10error_code 42
_ZNSt12experimental10filesystem2v115system_completeERKNS1_7__cxx114pathE __cxa_allocate_exception 68
_ZNSt12experimental10filesystem2v115system_completeERKNS1_7__cxx114pathE .LC39 74
_ZNSt12experimental10filesystem2v115system_completeERKNS1_7__cxx114pathE _ZNSt12experimental10filesystem2v17__cxx1116filesystem_errorC1ERKNSt7__cxx1112basic_stringIcSt11char_traitsIcESaIcEEERKNS2_4pathESt10error_code 108
_ZNSt12experimental10filesystem2v115system_completeERKNS1_7__cxx114pathE _ZNSt7__cxx1112basic_stringIcSt11char_traitsIcESaIcEE10_M_disposeEv 117
_ZNSt12experimental10filesystem2v115system_completeERKNS1_7__cxx114pathE _ZNSt12experimental10filesystem2v17__cxx1116filesystem_errorD1Ev 126
_ZNSt12experimental10filesystem2v115system_completeERKNS1_7__cxx114pathE _ZTINSt12experimental10filesystem2v17__cxx1116filesystem_errorE 132
_ZNSt12experimental10filesystem2v115system_completeERKNS1_7__cxx114pathE __cxa_throw 140
_ZNSt12experimental10filesystem2v115system_completeERKNS1_7__cxx114pathE _ZNSt7__cxx1112basic_stringIcSt11char_traitsIcESaIcEE10_M_disposeEv 154
_ZNSt12experimental10filesystem2v115system_completeERKNS1_7__cxx114pathE __cxa_free_exception 179
_ZNSt12experimental10filesystem2v115system_completeERKNS1_7__cxx114pathE _ZNSt12experimental10filesystem2v17__cxx114pathD1Ev 199
_ZNSt12experimental10filesystem2v115system_completeERKNS1_7__cxx114pathE _Unwind_Resume 207
_ZNKSt15_Deque_iteratorINSt12experimental10filesystem2v17__cxx114pathERS4_PS4_EmiEi __x86.get_pc_thunk.bx 10
_ZNKSt15_Deque_iteratorINSt12experimental10filesystem2v17__cxx114pathERS4_PS4_EmiEi _ZNSt15_Deque_iteratorINSt12experimental10filesystem2v17__cxx114pathERS4_PS4_EC1ERKS7_ 31
_ZNKSt15_Deque_iteratorINSt12experimental10filesystem2v17__cxx114pathERS4_PS4_EmiEi _ZNSt15_Deque_iteratorINSt12experimental10filesystem2v17__cxx114pathERS4_PS4_EpLEi 45
_ZNKSt15_Deque_iteratorINSt12experimental10filesystem2v17__cxx114pathERS4_PS4_EmiEi _ZNSt15_Deque_iteratorINSt12experimental10filesystem2v17__cxx114pathERS4_PS4_EC1ERKS7_ 54
_ZNSt5dequeINSt12experimental10filesystem2v17__cxx114pathESaIS4_EE23_M_new_elements_at_backEj __x86.get_pc_thunk.si 7
_ZNSt5dequeINSt12experimental10filesystem2v17__cxx114pathESaIS4_EE23_M_new_elements_at_backEj _ZStmiINSt12experimental10filesystem2v17__cxx114pathERS4_PS4_ENSt15_Deque_iteratorIT_T0_T1_E15difference_typeERKSB_SE_ 34
_ZNSt5dequeINSt12experimental10filesystem2v17__cxx114pathESaIS4_EE23_M_new_elements_at_backEj .LC40 55
_ZNSt5dequeINSt12experimental10filesystem2v17__cxx114pathESaIS4_EE23_M_new_elements_at_backEj _ZSt20__throw_length_errorPKc 64
_ZNSt5dequeINSt12experimental10filesystem2v17__cxx114pathESaIS4_EE23_M_new_elements_at_backEj _ZNSt5dequeINSt12experimental10filesystem2v17__cxx114pathESaIS4_EE22_M_reserve_map_at_backEj 93
_ZNSt5dequeINSt12experimental10filesystem2v17__cxx114pathESaIS4_EE23_M_new_elements_at_backEj _Znwj 138
_ZNSt5dequeINSt12experimental10filesystem2v17__cxx114pathESaIS4_EE23_M_new_elements_at_backEj __cxa_begin_catch 162
_ZNSt5dequeINSt12experimental10filesystem2v17__cxx114pathESaIS4_EE23_M_new_elements_at_backEj _ZdlPv 194
_ZNSt5dequeINSt12experimental10filesystem2v17__cxx114pathESaIS4_EE23_M_new_elements_at_backEj __cxa_rethrow 210
_ZNSt5dequeINSt12experimental10filesystem2v17__cxx114pathESaIS4_EE23_M_new_elements_at_backEj __cxa_end_catch 219
_ZNSt5dequeINSt12experimental10filesystem2v17__cxx114pathESaIS4_EE23_M_new_elements_at_backEj _Unwind_Resume 228
_ZNSt5dequeINSt12experimental10filesystem2v17__cxx114pathESaIS4_EE27_M_reserve_elements_at_backEj __x86.get_pc_thunk.bx 7
_ZNSt5dequeINSt12experimental10filesystem2v17__cxx114pathESaIS4_EE27_M_reserve_elements_at_backEj _ZNSt5dequeINSt12experimental10filesystem2v17__cxx114pathESaIS4_EE23_M_new_elements_at_backEj 55
_ZNSt5dequeINSt12experimental10filesystem2v17__cxx114pathESaIS4_EE27_M_reserve_elements_at_backEj _ZNKSt15_Deque_iteratorINSt12experimental10filesystem2v17__cxx114pathERS4_PS4_EplEi 72
_ZNSt5dequeINSt12experimental10filesystem2v17__cxx114pathESaIS4_EE24_M_new_elements_at_frontEj __x86.get_pc_thunk.ax 2
_ZNSt5dequeINSt12experimental10filesystem2v17__cxx114pathESaIS4_EE24_M_new_elements_at_frontEj _ZStmiINSt12experimental10filesystem2v17__cxx114pathERS4_PS4_ENSt15_Deque_iteratorIT_T0_T1_E15difference_typeERKSB_SE_ 40
_ZNSt5dequeINSt12experimental10filesystem2v17__cxx114pathESaIS4_EE24_M_new_elements_at_frontEj .LC41 60
_ZNSt5dequeINSt12experimental10filesystem2v17__cxx114pathESaIS4_EE24_M_new_elements_at_frontEj _ZSt20__throw_length_errorPKc 69
_ZNSt5dequeINSt12experimental10filesystem2v17__cxx114pathESaIS4_EE24_M_new_elements_at_frontEj _ZNSt5dequeINSt12experimental10filesystem2v17__cxx114pathESaIS4_EE17_M_reallocate_mapEjb 112
_ZNSt5dequeINSt12experimental10filesystem2v17__cxx114pathESaIS4_EE24_M_new_elements_at_frontEj _Znwj 153
_ZNSt5dequeINSt12experimental10filesystem2v17__cxx114pathESaIS4_EE24_M_new_elements_at_frontEj __cxa_begin_catch 180
_ZNSt5dequeINSt12experimental10filesystem2v17__cxx114pathESaIS4_EE24_M_new_elements_at_frontEj _ZdlPv 208
_ZNSt5dequeINSt12experimental10filesystem2v17__cxx114pathESaIS4_EE24_M_new_elements_at_frontEj __cxa_rethrow 221
_ZNSt5dequeINSt12experimental10filesystem2v17__cxx114pathESaIS4_EE24_M_new_elements_at_frontEj __cxa_end_catch 231
_ZNSt5dequeINSt12experimental10filesystem2v17__cxx114pathESaIS4_EE24_M_new_elements_at_frontEj _Unwind_Resume 243
_ZNSt5dequeINSt12experimental10filesystem2v17__cxx114pathESaIS4_EE28_M_reserve_elements_at_frontEj __x86.get_pc_thunk.bx 7
_ZNSt5dequeINSt12experimental10filesystem2v17__cxx114pathESaIS4_EE28_M_reserve_elements_at_frontEj _ZNSt5dequeINSt12experimental10filesystem2v17__cxx114pathESaIS4_EE24_M_new_elements_at_frontEj 54
_ZNSt5dequeINSt12experimental10filesystem2v17__cxx114pathESaIS4_EE28_M_reserve_elements_at_frontEj _ZNKSt15_Deque_iteratorINSt12experimental10filesystem2v17__cxx114pathERS4_PS4_EmiEi 71
_ZNSt12_Destroy_auxILb0EE9__destroyIPNSt12experimental10filesystem2v17__cxx114pathEEEvT_S8_ __x86.get_pc_thunk.bx 9
_ZNSt12_Destroy_auxILb0EE9__destroyIPNSt12experimental10filesystem2v17__cxx114pathEEEvT_S8_ _ZNSt12experimental10filesystem2v17__cxx114pathD1Ev 32
_ZNSt5dequeINSt12experimental10filesystem2v17__cxx114pathESaIS4_EED1Ev,_ZNSt5dequeINSt12experimental10filesystem2v17__cxx114pathESaIS4_EED2Ev __x86.get_pc_thunk.bx 7
_ZNSt5dequeINSt12experimental10filesystem2v17__cxx114pathESaIS4_EED1Ev,_ZNSt5dequeINSt12experimental10filesystem2v17__cxx114pathESaIS4_EED2Ev _ZNSt15_Deque_iteratorINSt12experimental10filesystem2v17__cxx114pathERS4_PS4_EC1ERKS7_ 35
_ZNSt5dequeINSt12experimental10filesystem2v17__cxx114pathESaIS4_EED1Ev,_ZNSt5dequeINSt12experimental10filesystem2v17__cxx114pathESaIS4_EED2Ev _ZNSt15_Deque_iteratorINSt12experimental10filesystem2v17__cxx114pathERS4_PS4_EC1ERKS7_ 50
_ZNSt5dequeINSt12experimental10filesystem2v17__cxx114pathESaIS4_EED1Ev,_ZNSt5dequeINSt12experimental10filesystem2v17__cxx114pathESaIS4_EED2Ev _ZNSt15_Deque_iteratorINSt12experimental10filesystem2v17__cxx114pathERS4_PS4_EC1ERKS7_ 65
_ZNSt5dequeINSt12experimental10filesystem2v17__cxx114pathESaIS4_EED1Ev,_ZNSt5dequeINSt12experimental10filesystem2v17__cxx114pathESaIS4_EED2Ev _ZNSt15_Deque_iteratorINSt12experimental10filesystem2v17__cxx114pathERS4_PS4_EC1ERKS7_ 77
_ZNSt5dequeINSt12experimental10filesystem2v17__cxx114pathESaIS4_EED1Ev,_ZNSt5dequeINSt12experimental10filesystem2v17__cxx114pathESaIS4_EED2Ev _ZNSt12_Destroy_auxILb0EE9__destroyIPNSt12experimental10filesystem2v17__cxx114pathEEEvT_S8_ 113
_ZNSt5dequeINSt12experimental10filesystem2v17__cxx114pathESaIS4_EED1Ev,_ZNSt5dequeINSt12experimental10filesystem2v17__cxx114pathESaIS4_EED2Ev _ZNSt12_Destroy_auxILb0EE9__destroyIPNSt12experimental10filesystem2v17__cxx114pathEEEvT_S8_ 133
_ZNSt5dequeINSt12experimental10filesystem2v17__cxx114pathESaIS4_EED1Ev,_ZNSt5dequeINSt12experimental10filesystem2v17__cxx114pathESaIS4_EED2Ev _ZNSt12_Destroy_auxILb0EE9__destroyIPNSt12experimental10filesystem2v17__cxx114pathEEEvT_S8_ 156
_ZNSt5dequeINSt12experimental10filesystem2v17__cxx114pathESaIS4_EED1Ev,_ZNSt5dequeINSt12experimental10filesystem2v17__cxx114pathESaIS4_EED2Ev _ZdlPv 188
_ZSt4swapISt15_Deque_iteratorINSt12experimental10filesystem2v17__cxx114pathERS5_PS5_EENSt9enable_ifIXsrSt6__and_IJSt21is_move_constructibleIT_ESt18is_move_assignableISC_EEE5valueEvE4typeERSC_SJ_ __x86.get_pc_thunk.bx 10
_ZSt4swapISt15_Deque_iteratorINSt12experimental10filesystem2v17__cxx114pathERS5_PS5_EENSt9enable_ifIXsrSt6__and_IJSt21is_move_constructibleIT_ESt18is_move_assignableISC_EEE5valueEvE4typeERSC_SJ_ _ZNSt15_Deque_iteratorINSt12experimental10filesystem2v17__cxx114pathERS4_PS4_EC1ERKS7_ 31
_ZNSt12experimental10filesystem2v118create_directoriesERKNS1_7__cxx114pathERSt10error_code __x86.get_pc_thunk.bx 7
_ZNSt12experimental10filesystem2v118create_directoriesERKNS1_7__cxx114pathERSt10error_code _ZNSt3_V216generic_categoryEv 36
_ZNSt12experimental10filesystem2v118create_directoriesERKNS1_7__cxx114pathERSt10error_code _ZNSt11_Deque_baseINSt12experimental10filesystem2v17__cxx114pathESaIS4_EEC2Ev 70
_ZNSt12experimental10filesystem2v118create_directoriesERKNS1_7__cxx114pathERSt10error_code _ZNSt11_Deque_baseINSt12experimental10filesystem2v17__cxx114pathESaIS4_EE17_M_initialize_mapEj 174
_ZNSt12experimental10filesystem2v118create_directoriesERKNS1_7__cxx114pathERSt10error_code _ZSt4swapISt15_Deque_iteratorINSt12experimental10filesystem2v17__cxx114pathERS5_PS5_EENSt9enable_ifIXsrSt6__and_IJSt21is_move_constructibleIT_ESt18is_move_assignableISC_EEE5valueEvE4typeERSC_SJ_ 201
_ZNSt12experimental10filesystem2v118create_directoriesERKNS1_7__cxx114pathERSt10error_code _ZSt4swapISt15_Deque_iteratorINSt12experimental10filesystem2v17__cxx114pathERS5_PS5_EENSt9enable_ifIXsrSt6__and_IJSt21is_move_constructibleIT_ESt18is_move_assignableISC_EEE5valueEvE4typeERSC_SJ_ 216
_ZNSt12experimental10filesystem2v118create_directoriesERKNS1_7__cxx114pathERSt10error_code _ZNSt5dequeINSt12experimental10filesystem2v17__cxx114pathESaIS4_EED1Ev 269
_ZNSt12experimental10filesystem2v118create_directoriesERKNS1_7__cxx114pathERSt10error_code _ZNSt12experimental10filesystem2v17__cxx114pathC1ERKS3_ 281
_ZNSt12experimental10filesystem2v118create_directoriesERKNS1_7__cxx114pathERSt10error_code _ZNSt12experimental10filesystem2v16statusERKNS1_7__cxx114pathERSt10error_code 320
_ZNSt12experimental10filesystem2v118create_directoriesERKNS1_7__cxx114pathERSt10error_code _ZNSt10error_code5clearEv 341
_ZNSt12experimental10filesystem2v118create_directoriesERKNS1_7__cxx114pathERSt10error_code _ZNKSt12experimental10filesystem2v17__cxx114path8filenameEv 355
_ZNSt12experimental10filesystem2v118create_directoriesERKNS1_7__cxx114pathERSt10error_code _ZNSt5dequeINSt12experimental10filesystem2v17__cxx114pathESaIS4_EE9push_backERKS4_ 407
_ZNSt12experimental10filesystem2v118create_directoriesERKNS1_7__cxx114pathERSt10error_code _ZNSt12experimental10filesystem2v17__cxx114path15remove_filenameEv 419
_ZNSt12experimental10filesystem2v118create_directoriesERKNS1_7__cxx114pathERSt10error_code _ZNSt12experimental10filesystem2v17__cxx114pathD1Ev 431
_ZNSt12experimental10filesystem2v118create_directoriesERKNS1_7__cxx114pathERSt10error_code _ZNSt15_Deque_iteratorINSt12experimental10filesystem2v17__cxx114pathERS4_PS4_EC1ERKS7_ 494
_ZNSt12experimental10filesystem2v118create_directoriesERKNS1_7__cxx114pathERSt10error_code _ZNSt12experimental10filesystem2v116create_directoryERKNS1_7__cxx114pathERSt10error_code 555
_ZNSt12experimental10filesystem2v118create_directoriesERKNS1_7__cxx114pathERSt10error_code _ZNSt12experimental10filesystem2v16statusERKNS1_7__cxx114pathE 584
_ZNSt12experimental10filesystem2v118create_directoriesERKNS1_7__cxx114pathERSt10error_code _ZdlPv 629
_ZNSt12experimental10filesystem2v118create_directoriesERKNS1_7__cxx114pathERSt10error_code _ZNSt12experimental10filesystem2v17__cxx114pathD1Ev 669
_ZNSt12experimental10filesystem2v118create_directoriesERKNS1_7__cxx114pathERSt10error_code _ZNSt12experimental10filesystem2v17__cxx114pathD1Ev 715
_ZNSt12experimental10filesystem2v118create_directoriesERKNS1_7__cxx114pathERSt10error_code _ZNSt5dequeINSt12experimental10filesystem2v17__cxx114pathESaIS4_EED1Ev 727
_ZNSt12experimental10filesystem2v118create_directoriesERKNS1_7__cxx114pathERSt10error_code _ZNSt10error_code5clearEv 747
_ZNSt12experimental10filesystem2v118create_directoriesERKNS1_7__cxx114pathE __x86.get_pc_thunk.si 10
_ZNSt12experimental10filesystem2v118create_directoriesERKNS1_7__cxx114pathE _ZNSt10error_codeC1Ev 27
_ZNSt12experimental10filesystem2v118create_directoriesERKNS1_7__cxx114pathE _ZNSt12experimental10filesystem2v118create_directoriesERKNS1_7__cxx114pathERSt10error_code 38
_ZNSt12experimental10filesystem2v118create_directoriesERKNS1_7__cxx114pathE __cxa_allocate_exception 64
_ZNSt12experimental10filesystem2v118create_directoriesERKNS1_7__cxx114pathE .LC42 70
_ZNSt12experimental10filesystem2v118create_directoriesERKNS1_7__cxx114pathE _ZNSt12experimental10filesystem2v17__cxx1116filesystem_errorC1ERKNSt7__cxx1112basic_stringIcSt11char_traitsIcESaIcEEERKNS2_4pathESt10error_code 104
_ZNSt12experimental10filesystem2v118create_directoriesERKNS1_7__cxx114pathE _ZNSt7__cxx1112basic_stringIcSt11char_traitsIcESaIcEE10_M_disposeEv 113
_ZNSt12experimental10filesystem2v118create_directoriesERKNS1_7__cxx114pathE _ZNSt12experimental10filesystem2v17__cxx1116filesystem_errorD1Ev 122
_ZNSt12experimental10filesystem2v118create_directoriesERKNS1_7__cxx114pathE _ZTINSt12experimental10filesystem2v17__cxx1116filesystem_errorE 128
_ZNSt12experimental10filesystem2v118create_directoriesERKNS1_7__cxx114pathE __cxa_throw 136
_ZNSt12experimental10filesystem2v118create_directoriesERKNS1_7__cxx114pathE _ZNSt7__cxx1112basic_stringIcSt11char_traitsIcESaIcEE10_M_disposeEv 150
_ZNSt12experimental10filesystem2v118create_directoriesERKNS1_7__cxx114pathE __cxa_free_exception 174
_ZNSt12experimental10filesystem2v118create_directoriesERKNS1_7__cxx114pathE _Unwind_Resume 185
_ZSt4copyINSt12experimental10filesystem2v17__cxx114path8iteratorESt15_Deque_iteratorIS4_RS4_PS4_EET0_T_SB_SA_.isra.155 __x86.get_pc_thunk.bx 12
_ZSt4copyINSt12experimental10filesystem2v17__cxx114path8iteratorESt15_Deque_iteratorIS4_RS4_PS4_EET0_T_SB_SA_.isra.155 _ZNSt15_Deque_iteratorINSt12experimental10filesystem2v17__cxx114pathERS4_PS4_EC1ERKS7_ 39
_ZSt4copyINSt12experimental10filesystem2v17__cxx114path8iteratorESt15_Deque_iteratorIS4_RS4_PS4_EET0_T_SB_SA_.isra.155 _ZNSt15_Deque_iteratorINSt12experimental10filesystem2v17__cxx114pathERS4_PS4_EC1ERKS7_ 51
_ZSt4copyINSt12experimental10filesystem2v17__cxx114path8iteratorESt15_Deque_iteratorIS4_RS4_PS4_EET0_T_SB_SA_.isra.155 _ZNSt15_Deque_iteratorINSt12experimental10filesystem2v17__cxx114pathERS4_PS4_EC1ERKS7_ 63
_ZSt4copyINSt12experimental10filesystem2v17__cxx114path8iteratorESt15_Deque_iteratorIS4_RS4_PS4_EET0_T_SB_SA_.isra.155 _ZNSt15_Deque_iteratorINSt12experimental10filesystem2v17__cxx114pathERS4_PS4_EC1ERKS7_ 75
_ZSt4copyINSt12experimental10filesystem2v17__cxx114path8iteratorESt15_Deque_iteratorIS4_RS4_PS4_EET0_T_SB_SA_.isra.155 _ZNSt12experimental10filesystem2v17__cxx11neERKNS2_4path8iteratorES6_ 131
_ZSt4copyINSt12experimental10filesystem2v17__cxx114path8iteratorESt15_Deque_iteratorIS4_RS4_PS4_EET0_T_SB_SA_.isra.155 _ZNSt12experimental10filesystem2v17__cxx114pathaSERKS3_ 160
_ZSt4copyINSt12experimental10filesystem2v17__cxx114path8iteratorESt15_Deque_iteratorIS4_RS4_PS4_EET0_T_SB_SA_.isra.155 _ZNSt15_Deque_iteratorINSt12experimental10filesystem2v17__cxx114pathERS4_PS4_EppEv 168
_ZSt4copyINSt12experimental10filesystem2v17__cxx114path8iteratorESt15_Deque_iteratorIS4_RS4_PS4_EET0_T_SB_SA_.isra.155 _ZNSt12experimental10filesystem2v17__cxx114path8iteratorppEv 176
_ZSt4copyINSt12experimental10filesystem2v17__cxx114path8iteratorESt15_Deque_iteratorIS4_RS4_PS4_EET0_T_SB_SA_.isra.155 _ZNSt15_Deque_iteratorINSt12experimental10filesystem2v17__cxx114pathERS4_PS4_EC1ERKS7_ 192
_ZSt22__uninitialized_move_aISt15_Deque_iteratorINSt12experimental10filesystem2v17__cxx114pathERS5_PS5_ES8_SaIS5_EET0_T_SB_SA_RT1_.isra.158 __x86.get_pc_thunk.bx 11
_ZSt22__uninitialized_move_aISt15_Deque_iteratorINSt12experimental10filesystem2v17__cxx114pathERS5_PS5_ES8_SaIS5_EET0_T_SB_SA_RT1_.isra.158 _ZNSt15_Deque_iteratorINSt12experimental10filesystem2v17__cxx114pathERS4_PS4_EC1ERKS7_ 50
_ZSt22__uninitialized_move_aISt15_Deque_iteratorINSt12experimental10filesystem2v17__cxx114pathERS5_PS5_ES8_SaIS5_EET0_T_SB_SA_RT1_.isra.158 _ZNSt15_Deque_iteratorINSt12experimental10filesystem2v17__cxx114pathERS4_PS4_EC1ERKS7_ 65
_ZSt22__uninitialized_move_aISt15_Deque_iteratorINSt12experimental10filesystem2v17__cxx114pathERS5_PS5_ES8_SaIS5_EET0_T_SB_SA_RT1_.isra.158 _ZNSt15_Deque_iteratorINSt12experimental10filesystem2v17__cxx114pathERS4_PS4_EC1ERKS7_ 83
_ZSt22__uninitialized_move_aISt15_Deque_iteratorINSt12experimental10filesystem2v17__cxx114pathERS5_PS5_ES8_SaIS5_EET0_T_SB_SA_RT1_.isra.158 _ZNSt15_Deque_iteratorINSt12experimental10filesystem2v17__cxx114pathERS4_PS4_EC1ERKS7_ 103
_ZSt22__uninitialized_move_aISt15_Deque_iteratorINSt12experimental10filesystem2v17__cxx114pathERS5_PS5_ES8_SaIS5_EET0_T_SB_SA_RT1_.isra.158 _ZNSt15_Deque_iteratorINSt12experimental10filesystem2v17__cxx114pathERS4_PS4_EC1ERKS7_ 118
_ZSt22__uninitialized_move_aISt15_Deque_iteratorINSt12experimental10filesystem2v17__cxx114pathERS5_PS5_ES8_SaIS5_EET0_T_SB_SA_RT1_.isra.158 _ZNSt15_Deque_iteratorINSt12experimental10filesystem2v17__cxx114pathERS4_PS4_EC1ERKS7_ 138
_ZSt22__uninitialized_move_aISt15_Deque_iteratorINSt12experimental10filesystem2v17__cxx114pathERS5_PS5_ES8_SaIS5_EET0_T_SB_SA_RT1_.isra.158 _ZNSt15_Deque_iteratorINSt12experimental10filesystem2v17__cxx114pathERS4_PS4_EC1ERKS7_ 152
_ZSt22__uninitialized_move_aISt15_Deque_iteratorINSt12experimental10filesystem2v17__cxx114pathERS5_PS5_ES8_SaIS5_EET0_T_SB_SA_RT1_.isra.158 _ZNSt15_Deque_iteratorINSt12experimental10filesystem2v17__cxx114pathERS4_PS4_EC1ERKS7_ 179
_ZSt22__uninitialized_move_aISt15_Deque_iteratorINSt12experimental10filesystem2v17__cxx114pathERS5_PS5_ES8_SaIS5_EET0_T_SB_SA_RT1_.isra.158 _ZNSt15_Deque_iteratorINSt12experimental10filesystem2v17__cxx114pathERS4_PS4_EC1ERKS7_ 194
_ZSt22__uninitialized_move_aISt15_Deque_iteratorINSt12experimental10filesystem2v17__cxx114pathERS5_PS5_ES8_SaIS5_EET0_T_SB_SA_RT1_.isra.158 _ZNSt15_Deque_iteratorINSt12experimental10filesystem2v17__cxx114pathERS4_PS4_EC1ERKS7_ 206
_ZSt22__uninitialized_move_aISt15_Deque_iteratorINSt12experimental10filesystem2v17__cxx114pathERS5_PS5_ES8_SaIS5_EET0_T_SB_SA_RT1_.isra.158 _ZNSt15_Deque_iteratorINSt12experimental10filesystem2v17__cxx114pathERS4_PS4_EC1ERKS7_ 230
_ZSt22__uninitialized_move_aISt15_Deque_iteratorINSt12experimental10filesystem2v17__cxx114pathERS5_PS5_ES8_SaIS5_EET0_T_SB_SA_RT1_.isra.158 _ZNSt15_Deque_iteratorINSt12experimental10filesystem2v17__cxx114pathERS4_PS4_EC1ERKS7_ 251
_ZSt22__uninitialized_move_aISt15_Deque_iteratorINSt12experimental10filesystem2v17__cxx114pathERS5_PS5_ES8_SaIS5_EET0_T_SB_SA_RT1_.isra.158 _ZNSt15_Deque_iteratorINSt12experimental10filesystem2v17__cxx114pathERS4_PS4_EC1ERKS7_ 260
_ZSt22__uninitialized_move_aISt15_Deque_iteratorINSt12experimental10filesystem2v17__cxx114pathERS5_PS5_ES8_SaIS5_EET0_T_SB_SA_RT1_.isra.158 _ZNSt15_Deque_iteratorINSt12experimental10filesystem2v17__cxx114pathERS4_PS4_EC1ERKS7_ 283
_ZSt22__uninitialized_move_aISt15_Deque_iteratorINSt12experimental10filesystem2v17__cxx114pathERS5_PS5_ES8_SaIS5_EET0_T_SB_SA_RT1_.isra.158 _ZNSt15_Deque_iteratorINSt12experimental10filesystem2v17__cxx114pathERS4_PS4_EC1ERKS7_ 305
_ZSt22__uninitialized_move_aISt15_Deque_iteratorINSt12experimental10filesystem2v17__cxx114pathERS5_PS5_ES8_SaIS5_EET0_T_SB_SA_RT1_.isra.158 _ZNSt15_Deque_iteratorINSt12experimental10filesystem2v17__cxx114pathERS4_PS4_EC1ERKS7_ 314
_ZSt22__uninitialized_move_aISt15_Deque_iteratorINSt12experimental10filesystem2v17__cxx114pathERS5_PS5_ES8_SaIS5_EET0_T_SB_SA_RT1_.isra.158 _ZNSt12experimental10filesystem2v17__cxx114pathC1EOS3_ 348
_ZSt22__uninitialized_move_aISt15_Deque_iteratorINSt12experimental10filesystem2v17__cxx114pathERS5_PS5_ES8_SaIS5_EET0_T_SB_SA_RT1_.isra.158 _ZNSt15_Deque_iteratorINSt12experimental10filesystem2v17__cxx114pathERS4_PS4_EppEv 360
_ZSt22__uninitialized_move_aISt15_Deque_iteratorINSt12experimental10filesystem2v17__cxx114pathERS5_PS5_ES8_SaIS5_EET0_T_SB_SA_RT1_.isra.158 _ZNSt15_Deque_iteratorINSt12experimental10filesystem2v17__cxx114pathERS4_PS4_EppEv 372
_ZSt8_DestroyISt15_Deque_iteratorINSt12experimental10filesystem2v17__cxx114pathERS5_PS5_EEvT_S9_ __x86.get_pc_thunk.bx 18
_ZSt8_DestroyISt15_Deque_iteratorINSt12experimental10filesystem2v17__cxx114pathERS5_PS5_EEvT_S9_ _ZNSt15_Deque_iteratorINSt12experimental10filesystem2v17__cxx114pathERS4_PS4_EC1ERKS7_ 30
_ZSt8_DestroyISt15_Deque_iteratorINSt12experimental10filesystem2v17__cxx114pathERS5_PS5_EEvT_S9_ _ZNSt15_Deque_iteratorINSt12experimental10filesystem2v17__cxx114pathERS4_PS4_EC1ERKS7_ 41
_ZSt8_DestroyISt15_Deque_iteratorINSt12experimental10filesystem2v17__cxx114pathERS5_PS5_EEvT_S9_ _ZNSt12experimental10filesystem2v17__cxx114pathD1Ev 61
_ZSt8_DestroyISt15_Deque_iteratorINSt12experimental10filesystem2v17__cxx114pathERS5_PS5_EEvT_S9_ _ZNSt15_Deque_iteratorINSt12experimental10filesystem2v17__cxx114pathERS4_PS4_EppEv 69
_ZSt22__uninitialized_copy_aINSt12experimental10filesystem2v17__cxx114path8iteratorESt15_Deque_iteratorIS4_RS4_PS4_ES4_ET0_T_SB_SA_RSaIT1_E.isra.156 __x86.get_pc_thunk.si 10
_ZSt22__uninitialized_copy_aINSt12experimental10filesystem2v17__cxx114path8iteratorESt15_Deque_iteratorIS4_RS4_PS4_ES4_ET0_T_SB_SA_RSaIT1_E.isra.156 _ZNSt15_Deque_iteratorINSt12experimental10filesystem2v17__cxx114pathERS4_PS4_EC1ERKS7_ 36
_ZSt22__uninitialized_copy_aINSt12experimental10filesystem2v17__cxx114path8iteratorESt15_Deque_iteratorIS4_RS4_PS4_ES4_ET0_T_SB_SA_RSaIT1_E.isra.156 _ZNSt15_Deque_iteratorINSt12experimental10filesystem2v17__cxx114pathERS4_PS4_EC1ERKS7_ 99
_ZSt22__uninitialized_copy_aINSt12experimental10filesystem2v17__cxx114path8iteratorESt15_Deque_iteratorIS4_RS4_PS4_ES4_ET0_T_SB_SA_RSaIT1_E.isra.156 _ZNSt15_Deque_iteratorINSt12experimental10filesystem2v17__cxx114pathERS4_PS4_EC1ERKS7_ 161
_ZSt22__uninitialized_copy_aINSt12experimental10filesystem2v17__cxx114path8iteratorESt15_Deque_iteratorIS4_RS4_PS4_ES4_ET0_T_SB_SA_RSaIT1_E.isra.156 _ZNSt12experimental10filesystem2v17__cxx11neERKNS2_4path8iteratorES6_ 197
_ZSt22__uninitialized_copy_aINSt12experimental10filesystem2v17__cxx114path8iteratorESt15_Deque_iteratorIS4_RS4_PS4_ES4_ET0_T_SB_SA_RSaIT1_E.isra.156 _ZNSt12experimental10filesystem2v17__cxx114path8iteratorppEv 241
_ZSt22__uninitialized_copy_aINSt12experimental10filesystem2v17__cxx114path8iteratorESt15_Deque_iteratorIS4_RS4_PS4_ES4_ET0_T_SB_SA_RSaIT1_E.isra.156 _ZNSt15_Deque_iteratorINSt12experimental10filesystem2v17__cxx114pathERS4_PS4_EppEv 250
_ZSt22__uninitialized_copy_aINSt12experimental10filesystem2v17__cxx114path8iteratorESt15_Deque_iteratorIS4_RS4_PS4_ES4_ET0_T_SB_SA_RSaIT1_E.isra.156 _ZNSt12experimental10filesystem2v17__cxx114pathC1ERKS3_ 266
_ZSt22__uninitialized_copy_aINSt12experimental10filesystem2v17__cxx114path8iteratorESt15_Deque_iteratorIS4_RS4_PS4_ES4_ET0_T_SB_SA_RSaIT1_E.isra.156 __cxa_begin_catch 282
_ZSt22__uninitialized_copy_aINSt12experimental10filesystem2v17__cxx114path8iteratorESt15_Deque_iteratorIS4_RS4_PS4_ES4_ET0_T_SB_SA_RSaIT1_E.isra.156 _ZNSt15_Deque_iteratorINSt12experimental10filesystem2v17__cxx114pathERS4_PS4_EC1ERKS7_ 299
_ZSt22__uninitialized_copy_aINSt12experimental10filesystem2v17__cxx114path8iteratorESt15_Deque_iteratorIS4_RS4_PS4_ES4_ET0_T_SB_SA_RSaIT1_E.isra.156 _ZNSt15_Deque_iteratorINSt12experimental10filesystem2v17__cxx114pathERS4_PS4_EC1ERKS7_ 311
_ZSt22__uninitialized_copy_aINSt12experimental10filesystem2v17__cxx114path8iteratorESt15_Deque_iteratorIS4_RS4_PS4_ES4_ET0_T_SB_SA_RSaIT1_E.isra.156 _ZSt8_DestroyISt15_Deque_iteratorINSt12experimental10filesystem2v17__cxx114pathERS5_PS5_EEvT_S9_ 323
_ZSt22__uninitialized_copy_aINSt12experimental10filesystem2v17__cxx114path8iteratorESt15_Deque_iteratorIS4_RS4_PS4_ES4_ET0_T_SB_SA_RSaIT1_E.isra.156 __cxa_rethrow 331
_ZSt22__uninitialized_copy_aINSt12experimental10filesystem2v17__cxx114path8iteratorESt15_Deque_iteratorIS4_RS4_PS4_ES4_ET0_T_SB_SA_RSaIT1_E.isra.156 __cxa_end_catch 340
_ZSt22__uninitialized_copy_aINSt12experimental10filesystem2v17__cxx114path8iteratorESt15_Deque_iteratorIS4_RS4_PS4_ES4_ET0_T_SB_SA_RSaIT1_E.isra.156 _Unwind_Resume 349
_ZSt13move_backwardINSt12experimental10filesystem2v17__cxx114pathEESt15_Deque_iteratorIT_RS6_PS6_ES9_S9_S9_ __x86.get_pc_thunk.bx 10
_ZSt13move_backwardINSt12experimental10filesystem2v17__cxx114pathEESt15_Deque_iteratorIT_RS6_PS6_ES9_S9_S9_ _ZNSt15_Deque_iteratorINSt12experimental10filesystem2v17__cxx114pathERS4_PS4_EC1ERKS7_ 37
_ZSt13move_backwardINSt12experimental10filesystem2v17__cxx114pathEESt15_Deque_iteratorIT_RS6_PS6_ES9_S9_S9_ _ZStmiINSt12experimental10filesystem2v17__cxx114pathERKS4_PS5_ENSt15_Deque_iteratorIT_T0_T1_E15difference_typeERKSC_SF_ 101
_ZSt13move_backwardINSt12experimental10filesystem2v17__cxx114pathEESt15_Deque_iteratorIT_RS6_PS6_ES9_S9_S9_ _ZNSt12experimental10filesystem2v17__cxx114pathaSEOS3_ 251
_ZSt13move_backwardINSt12experimental10filesystem2v17__cxx114pathEESt15_Deque_iteratorIT_RS6_PS6_ES9_S9_S9_ _ZNSt15_Deque_iteratorINSt12experimental10filesystem2v17__cxx114pathERKS4_PS5_EpLEi 277
_ZSt13move_backwardINSt12experimental10filesystem2v17__cxx114pathEESt15_Deque_iteratorIT_RS6_PS6_ES9_S9_S9_ _ZNSt15_Deque_iteratorINSt12experimental10filesystem2v17__cxx114pathERS4_PS4_EpLEi 288
_ZSt13move_backwardINSt12experimental10filesystem2v17__cxx114pathEESt15_Deque_iteratorIT_RS6_PS6_ES9_S9_S9_ _ZNSt15_Deque_iteratorINSt12experimental10filesystem2v17__cxx114pathERS4_PS4_EC1ERKS7_ 313
_ZSt4moveINSt12experimental10filesystem2v17__cxx114pathEESt15_Deque_iteratorIT_RS6_PS6_ES9_S9_S9_ __x86.get_pc_thunk.bx 10
_ZSt4moveINSt12experimental10filesystem2v17__cxx114pathEESt15_Deque_iteratorIT_RS6_PS6_ES9_S9_S9_ _ZNSt15_Deque_iteratorINSt12experimental10filesystem2v17__cxx114pathERS4_PS4_EC1ERKS7_ 37
_ZSt4moveINSt12experimental10filesystem2v17__cxx114pathEESt15_Deque_iteratorIT_RS6_PS6_ES9_S9_S9_ _ZStmiINSt12experimental10filesystem2v17__cxx114pathERKS4_PS5_ENSt15_Deque_iteratorIT_T0_T1_E15difference_typeERKSC_SF_ 101
_ZSt4moveINSt12experimental10filesystem2v17__cxx114pathEESt15_Deque_iteratorIT_RS6_PS6_ES9_S9_S9_ _ZNSt12experimental10filesystem2v17__cxx114pathaSEOS3_ 201
_ZSt4moveINSt12experimental10filesystem2v17__cxx114pathEESt15_Deque_iteratorIT_RS6_PS6_ES9_S9_S9_ _ZNSt15_Deque_iteratorINSt12experimental10filesystem2v17__cxx114pathERKS4_PS5_EpLEi 229
_ZSt4moveINSt12experimental10filesystem2v17__cxx114pathEESt15_Deque_iteratorIT_RS6_PS6_ES9_S9_S9_ _ZNSt15_Deque_iteratorINSt12experimental10filesystem2v17__cxx114pathERS4_PS4_EpLEi 240
_ZSt4moveINSt12experimental10filesystem2v17__cxx114pathEESt15_Deque_iteratorIT_RS6_PS6_ES9_S9_S9_ _ZNSt15_Deque_iteratorINSt12experimental10filesystem2v17__cxx114pathERS4_PS4_EC1ERKS7_ 265
_ZNSt5dequeINSt12experimental10filesystem2v17__cxx114pathESaIS4_EE13_M_insert_auxINS4_8iteratorEEEvSt15_Deque_iteratorIS4_RS4_PS4_ET_SD_j __x86.get_pc_thunk.ax 2
_ZNSt5dequeINSt12experimental10filesystem2v17__cxx114pathESaIS4_EE13_M_insert_auxINS4_8iteratorEEEvSt15_Deque_iteratorIS4_RS4_PS4_ET_SD_j _ZStmiINSt12experimental10filesystem2v17__cxx114pathERS4_PS4_ENSt15_Deque_iteratorIT_T0_T1_E15difference_typeERKSB_SE_ 105
_ZNSt5dequeINSt12experimental10filesystem2v17__cxx114pathESaIS4_EE13_M_insert_auxINS4_8iteratorEEEvSt15_Deque_iteratorIS4_RS4_PS4_ET_SD_j _ZStmiINSt12experimental10filesystem2v17__cxx114pathERS4_PS4_ENSt15_Deque_iteratorIT_T0_T1_E15difference_typeERKSB_SE_ 137
_ZNSt5dequeINSt12experimental10filesystem2v17__cxx114pathESaIS4_EE13_M_insert_auxINS4_8iteratorEEEvSt15_Deque_iteratorIS4_RS4_PS4_ET_SD_j _ZNSt5dequeINSt12experimental10filesystem2v17__cxx114pathESaIS4_EE28_M_reserve_elements_at_frontEj 181
_ZNSt5dequeINSt12experimental10filesystem2v17__cxx114pathESaIS4_EE13_M_insert_auxINS4_8iteratorEEEvSt15_Deque_iteratorIS4_RS4_PS4_ET_SD_j _ZNSt15_Deque_iteratorINSt12experimental10filesystem2v17__cxx114pathERS4_PS4_EC1ERKS7_ 214
_ZNSt5dequeINSt12experimental10filesystem2v17__cxx114pathESaIS4_EE13_M_insert_auxINS4_8iteratorEEEvSt15_Deque_iteratorIS4_RS4_PS4_ET_SD_j _ZNKSt15_Deque_iteratorINSt12experimental10filesystem2v17__cxx114pathERS4_PS4_EplEi 250
_ZNSt5dequeINSt12experimental10filesystem2v17__cxx114pathESaIS4_EE13_M_insert_auxINS4_8iteratorEEEvSt15_Deque_iteratorIS4_RS4_PS4_ET_SD_j _ZNKSt15_Deque_iteratorINSt12experimental10filesystem2v17__cxx114pathERS4_PS4_EplEi 315
_ZNSt5dequeINSt12experimental10filesystem2v17__cxx114pathESaIS4_EE13_M_insert_auxINS4_8iteratorEEEvSt15_Deque_iteratorIS4_RS4_PS4_ET_SD_j _ZNSt15_Deque_iteratorINSt12experimental10filesystem2v17__cxx114pathERS4_PS4_EC1ERKS7_ 345
_ZNSt5dequeINSt12experimental10filesystem2v17__cxx114pathESaIS4_EE13_M_insert_auxINS4_8iteratorEEEvSt15_Deque_iteratorIS4_RS4_PS4_ET_SD_j _ZNSt15_Deque_iteratorINSt12experimental10filesystem2v17__cxx114pathERS4_PS4_EC1ERKS7_ 375
_ZNSt5dequeINSt12experimental10filesystem2v17__cxx114pathESaIS4_EE13_M_insert_auxINS4_8iteratorEEEvSt15_Deque_iteratorIS4_RS4_PS4_ET_SD_j _ZNSt15_Deque_iteratorINSt12experimental10filesystem2v17__cxx114pathERS4_PS4_EC1ERKS7_ 404
_ZNSt5dequeINSt12experimental10filesystem2v17__cxx114pathESaIS4_EE13_M_insert_auxINS4_8iteratorEEEvSt15_Deque_iteratorIS4_RS4_PS4_ET_SD_j _ZSt22__uninitialized_move_aISt15_Deque_iteratorINSt12experimental10filesystem2v17__cxx114pathERS5_PS5_ES8_SaIS5_EET0_T_SB_SA_RT1_.isra.158 434
_ZNSt5dequeINSt12experimental10filesystem2v17__cxx114pathESaIS4_EE13_M_insert_auxINS4_8iteratorEEEvSt15_Deque_iteratorIS4_RS4_PS4_ET_SD_j _ZNSt15_Deque_iteratorINSt12experimental10filesystem2v17__cxx114pathERS4_PS4_EC1ERKS7_ 478
_ZNSt5dequeINSt12experimental10filesystem2v17__cxx114pathESaIS4_EE13_M_insert_auxINS4_8iteratorEEEvSt15_Deque_iteratorIS4_RS4_PS4_ET_SD_j _ZNSt15_Deque_iteratorINSt12experimental10filesystem2v17__cxx114pathERS4_PS4_EC1ERKS7_ 500
_ZNSt5dequeINSt12experimental10filesystem2v17__cxx114pathESaIS4_EE13_M_insert_auxINS4_8iteratorEEEvSt15_Deque_iteratorIS4_RS4_PS4_ET_SD_j _ZNSt15_Deque_iteratorINSt12experimental10filesystem2v17__cxx114pathERS4_PS4_EC1ERKS7_ 525
_ZNSt5dequeINSt12experimental10filesystem2v17__cxx114pathESaIS4_EE13_M_insert_auxINS4_8iteratorEEEvSt15_Deque_iteratorIS4_RS4_PS4_ET_SD_j _ZSt4moveINSt12experimental10filesystem2v17__cxx114pathEESt15_Deque_iteratorIT_RS6_PS6_ES9_S9_S9_ 560
_ZNSt5dequeINSt12experimental10filesystem2v17__cxx114pathESaIS4_EE13_M_insert_auxINS4_8iteratorEEEvSt15_Deque_iteratorIS4_RS4_PS4_ET_SD_j _ZNKSt15_Deque_iteratorINSt12experimental10filesystem2v17__cxx114pathERS4_PS4_EmiEi 585
_ZNSt5dequeINSt12experimental10filesystem2v17__cxx114pathESaIS4_EE13_M_insert_auxINS4_8iteratorEEEvSt15_Deque_iteratorIS4_RS4_PS4_ET_SD_j _ZSt9__advanceINSt12experimental10filesystem2v17__cxx114path8iteratorEiEvRT_T0_St26bidirectional_iterator_tag.isra.135 685
_ZNSt5dequeINSt12experimental10filesystem2v17__cxx114pathESaIS4_EE13_M_insert_auxINS4_8iteratorEEEvSt15_Deque_iteratorIS4_RS4_PS4_ET_SD_j _ZNSt15_Deque_iteratorINSt12experimental10filesystem2v17__cxx114pathERS4_PS4_EC1ERKS7_ 717
_ZNSt5dequeINSt12experimental10filesystem2v17__cxx114pathESaIS4_EE13_M_insert_auxINS4_8iteratorEEEvSt15_Deque_iteratorIS4_RS4_PS4_ET_SD_j _ZNSt15_Deque_iteratorINSt12experimental10filesystem2v17__cxx114pathERS4_PS4_EC1ERKS7_ 755
_ZNSt5dequeINSt12experimental10filesystem2v17__cxx114pathESaIS4_EE13_M_insert_auxINS4_8iteratorEEEvSt15_Deque_iteratorIS4_RS4_PS4_ET_SD_j _ZNSt15_Deque_iteratorINSt12experimental10filesystem2v17__cxx114pathERS4_PS4_EC1ERKS7_ 787
_ZNSt5dequeINSt12experimental10filesystem2v17__cxx114pathESaIS4_EE13_M_insert_auxINS4_8iteratorEEEvSt15_Deque_iteratorIS4_RS4_PS4_ET_SD_j _ZNSt15_Deque_iteratorINSt12experimental10filesystem2v17__cxx114pathERS4_PS4_EC1ERKS7_ 838
_ZNSt5dequeINSt12experimental10filesystem2v17__cxx114pathESaIS4_EE13_M_insert_auxINS4_8iteratorEEEvSt15_Deque_iteratorIS4_RS4_PS4_ET_SD_j _ZNSt15_Deque_iteratorINSt12experimental10filesystem2v17__cxx114pathERS4_PS4_EC1ERKS7_ 865
_ZNSt5dequeINSt12experimental10filesystem2v17__cxx114pathESaIS4_EE13_M_insert_auxINS4_8iteratorEEEvSt15_Deque_iteratorIS4_RS4_PS4_ET_SD_j _ZNSt15_Deque_iteratorINSt12experimental10filesystem2v17__cxx114pathERS4_PS4_EC1ERKS7_ 886
_ZNSt5dequeINSt12experimental10filesystem2v17__cxx114pathESaIS4_EE13_M_insert_auxINS4_8iteratorEEEvSt15_Deque_iteratorIS4_RS4_PS4_ET_SD_j _ZSt22__uninitialized_move_aISt15_Deque_iteratorINSt12experimental10filesystem2v17__cxx114pathERS5_PS5_ES8_SaIS5_EET0_T_SB_SA_RT1_.isra.158 911
_ZNSt5dequeINSt12experimental10filesystem2v17__cxx114pathESaIS4_EE13_M_insert_auxINS4_8iteratorEEEvSt15_Deque_iteratorIS4_RS4_PS4_ET_SD_j _ZNSt15_Deque_iteratorINSt12experimental10filesystem2v17__cxx114pathERS4_PS4_EC1ERKS7_ 942
_ZNSt5dequeINSt12experimental10filesystem2v17__cxx114pathESaIS4_EE13_M_insert_auxINS4_8iteratorEEEvSt15_Deque_iteratorIS4_RS4_PS4_ET_SD_j _ZNSt15_Deque_iteratorINSt12experimental10filesystem2v17__cxx114pathERS4_PS4_EC1ERKS7_ 1033
_ZNSt5dequeINSt12experimental10filesystem2v17__cxx114pathESaIS4_EE13_M_insert_auxINS4_8iteratorEEEvSt15_Deque_iteratorIS4_RS4_PS4_ET_SD_j _ZSt4copyINSt12experimental10filesystem2v17__cxx114path8iteratorESt15_Deque_iteratorIS4_RS4_PS4_EET0_T_SB_SA_.isra.155 1083
_ZNSt5dequeINSt12experimental10filesystem2v17__cxx114pathESaIS4_EE13_M_insert_auxINS4_8iteratorEEEvSt15_Deque_iteratorIS4_RS4_PS4_ET_SD_j __cxa_begin_catch 1106
_ZNSt5dequeINSt12experimental10filesystem2v17__cxx114pathESaIS4_EE13_M_insert_auxINS4_8iteratorEEEvSt15_Deque_iteratorIS4_RS4_PS4_ET_SD_j _ZNSt15_Deque_iteratorINSt12experimental10filesystem2v17__cxx114pathERS4_PS4_EC1ERKS7_ 1126
_ZNSt5dequeINSt12experimental10filesystem2v17__cxx114pathESaIS4_EE13_M_insert_auxINS4_8iteratorEEEvSt15_Deque_iteratorIS4_RS4_PS4_ET_SD_j _ZNSt15_Deque_iteratorINSt12experimental10filesystem2v17__cxx114pathERS4_PS4_EC1ERKS7_ 1150
_ZNSt5dequeINSt12experimental10filesystem2v17__cxx114pathESaIS4_EE13_M_insert_auxINS4_8iteratorEEEvSt15_Deque_iteratorIS4_RS4_PS4_ET_SD_j _ZNSt15_Deque_iteratorINSt12experimental10filesystem2v17__cxx114pathERS4_PS4_EC1ERKS7_ 1168
_ZNSt5dequeINSt12experimental10filesystem2v17__cxx114pathESaIS4_EE13_M_insert_auxINS4_8iteratorEEEvSt15_Deque_iteratorIS4_RS4_PS4_ET_SD_j _ZNSt15_Deque_iteratorINSt12experimental10filesystem2v17__cxx114pathERS4_PS4_EC1ERKS7_ 1186
_ZNSt5dequeINSt12experimental10filesystem2v17__cxx114pathESaIS4_EE13_M_insert_auxINS4_8iteratorEEEvSt15_Deque_iteratorIS4_RS4_PS4_ET_SD_j _ZSt8_DestroyISt15_Deque_iteratorINSt12experimental10filesystem2v17__cxx114pathERS5_PS5_EEvT_S9_ 1201
_ZNSt5dequeINSt12experimental10filesystem2v17__cxx114pathESaIS4_EE13_M_insert_auxINS4_8iteratorEEEvSt15_Deque_iteratorIS4_RS4_PS4_ET_SD_j __cxa_rethrow 1215
_ZNSt5dequeINSt12experimental10filesystem2v17__cxx114pathESaIS4_EE13_M_insert_auxINS4_8iteratorEEEvSt15_Deque_iteratorIS4_RS4_PS4_ET_SD_j __cxa_end_catch 1232
_ZNSt5dequeINSt12experimental10filesystem2v17__cxx114pathESaIS4_EE13_M_insert_auxINS4_8iteratorEEEvSt15_Deque_iteratorIS4_RS4_PS4_ET_SD_j _ZNSt5dequeINSt12experimental10filesystem2v17__cxx114pathESaIS4_EE27_M_reserve_elements_at_backEj 1274
_ZNSt5dequeINSt12experimental10filesystem2v17__cxx114pathESaIS4_EE13_M_insert_auxINS4_8iteratorEEEvSt15_Deque_iteratorIS4_RS4_PS4_ET_SD_j _ZNSt15_Deque_iteratorINSt12experimental10filesystem2v17__cxx114pathERS4_PS4_EC1ERKS7_ 1307
_ZNSt5dequeINSt12experimental10filesystem2v17__cxx114pathESaIS4_EE13_M_insert_auxINS4_8iteratorEEEvSt15_Deque_iteratorIS4_RS4_PS4_ET_SD_j _ZNKSt15_Deque_iteratorINSt12experimental10filesystem2v17__cxx114pathERS4_PS4_EmiEi 1352
_ZNSt5dequeINSt12experimental10filesystem2v17__cxx114pathESaIS4_EE13_M_insert_auxINS4_8iteratorEEEvSt15_Deque_iteratorIS4_RS4_PS4_ET_SD_j _ZNKSt15_Deque_iteratorINSt12experimental10filesystem2v17__cxx114pathERS4_PS4_EmiEi 1417
_ZNSt5dequeINSt12experimental10filesystem2v17__cxx114pathESaIS4_EE13_M_insert_auxINS4_8iteratorEEEvSt15_Deque_iteratorIS4_RS4_PS4_ET_SD_j _ZNSt15_Deque_iteratorINSt12experimental10filesystem2v17__cxx114pathERS4_PS4_EC1ERKS7_ 1447
_ZNSt5dequeINSt12experimental10filesystem2v17__cxx114pathESaIS4_EE13_M_insert_auxINS4_8iteratorEEEvSt15_Deque_iteratorIS4_RS4_PS4_ET_SD_j _ZNSt15_Deque_iteratorINSt12experimental10filesystem2v17__cxx114pathERS4_PS4_EC1ERKS7_ 1477
_ZNSt5dequeINSt12experimental10filesystem2v17__cxx114pathESaIS4_EE13_M_insert_auxINS4_8iteratorEEEvSt15_Deque_iteratorIS4_RS4_PS4_ET_SD_j _ZNSt15_Deque_iteratorINSt12experimental10filesystem2v17__cxx114pathERS4_PS4_EC1ERKS7_ 1506
_ZNSt5dequeINSt12experimental10filesystem2v17__cxx114pathESaIS4_EE13_M_insert_auxINS4_8iteratorEEEvSt15_Deque_iteratorIS4_RS4_PS4_ET_SD_j _ZSt22__uninitialized_move_aISt15_Deque_iteratorINSt12experimental10filesystem2v17__cxx114pathERS5_PS5_ES8_SaIS5_EET0_T_SB_SA_RT1_.isra.158 1536
_ZNSt5dequeINSt12experimental10filesystem2v17__cxx114pathESaIS4_EE13_M_insert_auxINS4_8iteratorEEEvSt15_Deque_iteratorIS4_RS4_PS4_ET_SD_j _ZNSt15_Deque_iteratorINSt12experimental10filesystem2v17__cxx114pathERS4_PS4_EC1ERKS7_ 1580
_ZNSt5dequeINSt12experimental10filesystem2v17__cxx114pathESaIS4_EE13_M_insert_auxINS4_8iteratorEEEvSt15_Deque_iteratorIS4_RS4_PS4_ET_SD_j _ZNSt15_Deque_iteratorINSt12experimental10filesystem2v17__cxx114pathERS4_PS4_EC1ERKS7_ 1605
_ZNSt5dequeINSt12experimental10filesystem2v17__cxx114pathESaIS4_EE13_M_insert_auxINS4_8iteratorEEEvSt15_Deque_iteratorIS4_RS4_PS4_ET_SD_j _ZNSt15_Deque_iteratorINSt12experimental10filesystem2v17__cxx114pathERS4_PS4_EC1ERKS7_ 1627
_ZNSt5dequeINSt12experimental10filesystem2v17__cxx114pathESaIS4_EE13_M_insert_auxINS4_8iteratorEEEvSt15_Deque_iteratorIS4_RS4_PS4_ET_SD_j _ZSt13move_backwardINSt12experimental10filesystem2v17__cxx114pathEESt15_Deque_iteratorIT_RS6_PS6_ES9_S9_S9_ 1662
_ZNSt5dequeINSt12experimental10filesystem2v17__cxx114pathESaIS4_EE13_M_insert_auxINS4_8iteratorEEEvSt15_Deque_iteratorIS4_RS4_PS4_ET_SD_j _ZNSt15_Deque_iteratorINSt12experimental10filesystem2v17__cxx114pathERS4_PS4_EC1ERKS7_ 1683
_ZNSt5dequeINSt12experimental10filesystem2v17__cxx114pathESaIS4_EE13_M_insert_auxINS4_8iteratorEEEvSt15_Deque_iteratorIS4_RS4_PS4_ET_SD_j _ZSt9__advanceINSt12experimental10filesystem2v17__cxx114path8iteratorEiEvRT_T0_St26bidirectional_iterator_tag.isra.135 1776
_ZNSt5dequeINSt12experimental10filesystem2v17__cxx114pathESaIS4_EE13_M_insert_auxINS4_8iteratorEEEvSt15_Deque_iteratorIS4_RS4_PS4_ET_SD_j _ZNSt15_Deque_iteratorINSt12experimental10filesystem2v17__cxx114pathERS4_PS4_EC1ERKS7_ 1805
_ZNSt5dequeINSt12experimental10filesystem2v17__cxx114pathESaIS4_EE13_M_insert_auxINS4_8iteratorEEEvSt15_Deque_iteratorIS4_RS4_PS4_ET_SD_j _ZNSt15_Deque_iteratorINSt12experimental10filesystem2v17__cxx114pathERS4_PS4_EC1ERKS7_ 1831
_ZNSt5dequeINSt12experimental10filesystem2v17__cxx114pathESaIS4_EE13_M_insert_auxINS4_8iteratorEEEvSt15_Deque_iteratorIS4_RS4_PS4_ET_SD_j _ZNSt15_Deque_iteratorINSt12experimental10filesystem2v17__cxx114pathERS4_PS4_EC1ERKS7_ 1854
_ZNSt5dequeINSt12experimental10filesystem2v17__cxx114pathESaIS4_EE13_M_insert_auxINS4_8iteratorEEEvSt15_Deque_iteratorIS4_RS4_PS4_ET_SD_j _ZNSt15_Deque_iteratorINSt12experimental10filesystem2v17__cxx114pathERS4_PS4_EC1ERKS7_ 1909
_ZNSt5dequeINSt12experimental10filesystem2v17__cxx114pathESaIS4_EE13_M_insert_auxINS4_8iteratorEEEvSt15_Deque_iteratorIS4_RS4_PS4_ET_SD_j _ZNSt15_Deque_iteratorINSt12experimental10filesystem2v17__cxx114pathERS4_PS4_EC1ERKS7_ 1977
_ZNSt5dequeINSt12experimental10filesystem2v17__cxx114pathESaIS4_EE13_M_insert_auxINS4_8iteratorEEEvSt15_Deque_iteratorIS4_RS4_PS4_ET_SD_j _ZNSt15_Deque_iteratorINSt12experimental10filesystem2v17__cxx114pathERS4_PS4_EC1ERKS7_ 2007
_ZNSt5dequeINSt12experimental10filesystem2v17__cxx114pathESaIS4_EE13_M_insert_auxINS4_8iteratorEEEvSt15_Deque_iteratorIS4_RS4_PS4_ET_SD_j _ZNSt15_Deque_iteratorINSt12experimental10filesystem2v17__cxx114pathERS4_PS4_EC1ERKS7_ 2037
_ZNSt5dequeINSt12experimental10filesystem2v17__cxx114pathESaIS4_EE13_M_insert_auxINS4_8iteratorEEEvSt15_Deque_iteratorIS4_RS4_PS4_ET_SD_j _ZSt22__uninitialized_move_aISt15_Deque_iteratorINSt12experimental10filesystem2v17__cxx114pathERS5_PS5_ES8_SaIS5_EET0_T_SB_SA_RT1_.isra.158 2066
_ZNSt5dequeINSt12experimental10filesystem2v17__cxx114pathESaIS4_EE13_M_insert_auxINS4_8iteratorEEEvSt15_Deque_iteratorIS4_RS4_PS4_ET_SD_j _ZNSt15_Deque_iteratorINSt12experimental10filesystem2v17__cxx114pathERS4_PS4_EC1ERKS7_ 2101
_ZNSt5dequeINSt12experimental10filesystem2v17__cxx114pathESaIS4_EE13_M_insert_auxINS4_8iteratorEEEvSt15_Deque_iteratorIS4_RS4_PS4_ET_SD_j _ZSt4copyINSt12experimental10filesystem2v17__cxx114path8iteratorESt15_Deque_iteratorIS4_RS4_PS4_EET0_T_SB_SA_.isra.155 2157
_ZNSt5dequeINSt12experimental10filesystem2v17__cxx114pathESaIS4_EE13_M_insert_auxINS4_8iteratorEEEvSt15_Deque_iteratorIS4_RS4_PS4_ET_SD_j __cxa_begin_catch 2183
_ZNSt5dequeINSt12experimental10filesystem2v17__cxx114pathESaIS4_EE13_M_insert_auxINS4_8iteratorEEEvSt15_Deque_iteratorIS4_RS4_PS4_ET_SD_j __cxa_rethrow 2214
_ZNSt5dequeINSt12experimental10filesystem2v17__cxx114pathESaIS4_EE13_M_insert_auxINS4_8iteratorEEEvSt15_Deque_iteratorIS4_RS4_PS4_ET_SD_j __cxa_end_catch 2227
_ZNSt5dequeINSt12experimental10filesystem2v17__cxx114pathESaIS4_EE13_M_insert_auxINS4_8iteratorEEEvSt15_Deque_iteratorIS4_RS4_PS4_ET_SD_j __cxa_begin_catch 2244
_ZNSt5dequeINSt12experimental10filesystem2v17__cxx114pathESaIS4_EE13_M_insert_auxINS4_8iteratorEEEvSt15_Deque_iteratorIS4_RS4_PS4_ET_SD_j __cxa_rethrow 2281
_ZNSt5dequeINSt12experimental10filesystem2v17__cxx114pathESaIS4_EE13_M_insert_auxINS4_8iteratorEEEvSt15_Deque_iteratorIS4_RS4_PS4_ET_SD_j __cxa_end_catch 2294
_ZNSt5dequeINSt12experimental10filesystem2v17__cxx114pathESaIS4_EE13_M_insert_auxINS4_8iteratorEEEvSt15_Deque_iteratorIS4_RS4_PS4_ET_SD_j _Unwind_Resume 2309
_ZNSt5dequeINSt12experimental10filesystem2v17__cxx114pathESaIS4_EE19_M_range_insert_auxINS4_8iteratorEEEvSt15_Deque_iteratorIS4_RS4_PS4_ET_SD_St20forward_iterator_tag __x86.get_pc_thunk.ax 2
_ZNSt5dequeINSt12experimental10filesystem2v17__cxx114pathESaIS4_EE19_M_range_insert_auxINS4_8iteratorEEEvSt15_Deque_iteratorIS4_RS4_PS4_ET_SD_St20forward_iterator_tag _ZNSt12experimental10filesystem2v17__cxx11neERKNS2_4path8iteratorES6_ 79
_ZNSt5dequeINSt12experimental10filesystem2v17__cxx114pathESaIS4_EE19_M_range_insert_auxINS4_8iteratorEEEvSt15_Deque_iteratorIS4_RS4_PS4_ET_SD_St20forward_iterator_tag _ZNSt12experimental10filesystem2v17__cxx114path8iteratorppEv 96
_ZNSt5dequeINSt12experimental10filesystem2v17__cxx114pathESaIS4_EE19_M_range_insert_auxINS4_8iteratorEEEvSt15_Deque_iteratorIS4_RS4_PS4_ET_SD_St20forward_iterator_tag _ZNSt5dequeINSt12experimental10filesystem2v17__cxx114pathESaIS4_EE28_M_reserve_elements_at_frontEj 146
_ZNSt5dequeINSt12experimental10filesystem2v17__cxx114pathESaIS4_EE19_M_range_insert_auxINS4_8iteratorEEEvSt15_Deque_iteratorIS4_RS4_PS4_ET_SD_St20forward_iterator_tag _ZNSt15_Deque_iteratorINSt12experimental10filesystem2v17__cxx114pathERS4_PS4_EC1ERKS7_ 161
_ZNSt5dequeINSt12experimental10filesystem2v17__cxx114pathESaIS4_EE19_M_range_insert_auxINS4_8iteratorEEEvSt15_Deque_iteratorIS4_RS4_PS4_ET_SD_St20forward_iterator_tag _ZNSt5dequeINSt12experimental10filesystem2v17__cxx114pathESaIS4_EE27_M_reserve_elements_at_backEj 248
_ZNSt5dequeINSt12experimental10filesystem2v17__cxx114pathESaIS4_EE19_M_range_insert_auxINS4_8iteratorEEEvSt15_Deque_iteratorIS4_RS4_PS4_ET_SD_St20forward_iterator_tag _ZNSt15_Deque_iteratorINSt12experimental10filesystem2v17__cxx114pathERS4_PS4_EC1ERKS7_ 270
_ZNSt5dequeINSt12experimental10filesystem2v17__cxx114pathESaIS4_EE19_M_range_insert_auxINS4_8iteratorEEEvSt15_Deque_iteratorIS4_RS4_PS4_ET_SD_St20forward_iterator_tag _ZNSt15_Deque_iteratorINSt12experimental10filesystem2v17__cxx114pathERS4_PS4_EC1ERKS7_ 347
_ZNSt5dequeINSt12experimental10filesystem2v17__cxx114pathESaIS4_EE19_M_range_insert_auxINS4_8iteratorEEEvSt15_Deque_iteratorIS4_RS4_PS4_ET_SD_St20forward_iterator_tag _ZNSt5dequeINSt12experimental10filesystem2v17__cxx114pathESaIS4_EE13_M_insert_auxINS4_8iteratorEEEvSt15_Deque_iteratorIS4_RS4_PS4_ET_SD_j 392
_ZNSt5dequeINSt12experimental10filesystem2v17__cxx114pathESaIS4_EE19_M_range_insert_auxINS4_8iteratorEEEvSt15_Deque_iteratorIS4_RS4_PS4_ET_SD_St20forward_iterator_tag __cxa_begin_catch 409
_ZNSt5dequeINSt12experimental10filesystem2v17__cxx114pathESaIS4_EE19_M_range_insert_auxINS4_8iteratorEEEvSt15_Deque_iteratorIS4_RS4_PS4_ET_SD_St20forward_iterator_tag __cxa_rethrow 434
_ZNSt5dequeINSt12experimental10filesystem2v17__cxx114pathESaIS4_EE19_M_range_insert_auxINS4_8iteratorEEEvSt15_Deque_iteratorIS4_RS4_PS4_ET_SD_St20forward_iterator_tag __cxa_end_catch 444
_ZNSt5dequeINSt12experimental10filesystem2v17__cxx114pathESaIS4_EE19_M_range_insert_auxINS4_8iteratorEEEvSt15_Deque_iteratorIS4_RS4_PS4_ET_SD_St20forward_iterator_tag __cxa_begin_catch 458
_ZNSt5dequeINSt12experimental10filesystem2v17__cxx114pathESaIS4_EE19_M_range_insert_auxINS4_8iteratorEEEvSt15_Deque_iteratorIS4_RS4_PS4_ET_SD_St20forward_iterator_tag __cxa_rethrow 489
_ZNSt5dequeINSt12experimental10filesystem2v17__cxx114pathESaIS4_EE19_M_range_insert_auxINS4_8iteratorEEEvSt15_Deque_iteratorIS4_RS4_PS4_ET_SD_St20forward_iterator_tag __cxa_end_catch 499
_ZNSt5dequeINSt12experimental10filesystem2v17__cxx114pathESaIS4_EE19_M_range_insert_auxINS4_8iteratorEEEvSt15_Deque_iteratorIS4_RS4_PS4_ET_SD_St20forward_iterator_tag _Unwind_Resume 511
_ZNSt12experimental10filesystem2v19canonicalERKNS1_7__cxx114pathES5_RSt10error_code __x86.get_pc_thunk.ax 2
_ZNSt12experimental10filesystem2v19canonicalERKNS1_7__cxx114pathES5_RSt10error_code _ZNSt12experimental10filesystem2v18absoluteERKNS1_7__cxx114pathES5_ 44
_ZNSt12experimental10filesystem2v19canonicalERKNS1_7__cxx114pathES5_RSt10error_code _ZNSt12experimental10filesystem2v17__cxx114pathC1Ev 58
_ZNSt12experimental10filesystem2v19canonicalERKNS1_7__cxx114pathES5_RSt10error_code realpath 89
_ZNSt12experimental10filesystem2v19canonicalERKNS1_7__cxx114pathES5_RSt10error_code _ZNSt12experimental10filesystem2v17__cxx114path6assignIPcEERNSt9enable_ifIXsrSt6__and_IJSt6__not_ISt7is_sameIT_S3_EENS3_20__constructible_fromISA_vEEEE5valueES3_E4typeERKSA_ 134
_ZNSt12experimental10filesystem2v19canonicalERKNS1_7__cxx114pathES5_RSt10error_code _ZNSt10error_code5clearEv 149
_ZNSt12experimental10filesystem2v19canonicalERKNS1_7__cxx114pathES5_RSt10error_code __errno_location 165
_ZNSt12experimental10filesystem2v19canonicalERKNS1_7__cxx114pathES5_RSt10error_code _ZNSt3_V216generic_categoryEv 181
_ZNSt12experimental10filesystem2v19canonicalERKNS1_7__cxx114pathES5_RSt10error_code __errno_location 188
_ZNSt12experimental10filesystem2v19canonicalERKNS1_7__cxx114pathES5_RSt10error_code _ZNSt12experimental10filesystem2v16existsERKNS1_7__cxx114pathERSt10error_code 220
_ZNSt12experimental10filesystem2v19canonicalERKNS1_7__cxx114pathES5_RSt10error_code _ZNSt3_V216generic_categoryEv 250
_ZNSt12experimental10filesystem2v19canonicalERKNS1_7__cxx114pathES5_RSt10error_code _ZNKSt12experimental10filesystem2v17__cxx114path9root_pathEv 288
_ZNSt12experimental10filesystem2v19canonicalERKNS1_7__cxx114pathES5_RSt10error_code _ZNSt12experimental10filesystem2v17__cxx114pathaSEOS3_ 305
_ZNSt12experimental10filesystem2v19canonicalERKNS1_7__cxx114pathES5_RSt10error_code _ZNSt12experimental10filesystem2v17__cxx114pathD1Ev 319
_ZNSt12experimental10filesystem2v19canonicalERKNS1_7__cxx114pathES5_RSt10error_code _ZNSt11_Deque_baseINSt12experimental10filesystem2v17__cxx114pathESaIS4_EEC2Ev 339
_ZNSt12experimental10filesystem2v19canonicalERKNS1_7__cxx114pathES5_RSt10error_code _ZNKSt12experimental10filesystem2v17__cxx114path13relative_pathEv 360
_ZNSt12experimental10filesystem2v19canonicalERKNS1_7__cxx114pathES5_RSt10error_code _ZNSt12experimental10filesystem2v17__cxx11neERKNS2_4path8iteratorES6_ 463
_ZNSt12experimental10filesystem2v19canonicalERKNS1_7__cxx114pathES5_RSt10error_code _ZNSt5dequeINSt12experimental10filesystem2v17__cxx114pathESaIS4_EE9push_backERKS4_ 496
_ZNSt12experimental10filesystem2v19canonicalERKNS1_7__cxx114pathES5_RSt10error_code _ZNSt12experimental10filesystem2v17__cxx114path8iteratorppEv 510
_ZNSt12experimental10filesystem2v19canonicalERKNS1_7__cxx114pathES5_RSt10error_code _ZNSt12experimental10filesystem2v17__cxx114pathD1Ev 530
_ZNSt12experimental10filesystem2v19canonicalERKNS1_7__cxx114pathES5_RSt10error_code _ZNSt12experimental10filesystem2v16existsERKNS1_7__cxx114pathERSt10error_code 621
_ZNSt12experimental10filesystem2v19canonicalERKNS1_7__cxx114pathES5_RSt10error_code _ZNSt5dequeINSt12experimental10filesystem2v17__cxx114pathESaIS4_EED1Ev 653
_ZNSt12experimental10filesystem2v19canonicalERKNS1_7__cxx114pathES5_RSt10error_code _ZNSt12experimental10filesystem2v17__cxx114pathD1Ev 699
_ZNSt12experimental10filesystem2v19canonicalERKNS1_7__cxx114pathES5_RSt10error_code _ZNSt12experimental10filesystem2v17__cxx114pathD1Ev 735
_ZNSt12experimental10filesystem2v19canonicalERKNS1_7__cxx114pathES5_RSt10error_code _ZNSt5dequeINSt12experimental10filesystem2v17__cxx114pathESaIS4_EED1Ev 773
_ZNSt12experimental10filesystem2v19canonicalERKNS1_7__cxx114pathES5_RSt10error_code _ZNSt12experimental10filesystem2v17__cxx114pathD1Ev 816
_ZNSt12experimental10filesystem2v19canonicalERKNS1_7__cxx114pathES5_RSt10error_code _ZNSt12experimental10filesystem2v17__cxx114pathD1Ev 836
_ZNSt12experimental10filesystem2v19canonicalERKNS1_7__cxx114pathES5_RSt10error_code _Unwind_Resume 850
_ZNSt12experimental10filesystem2v19canonicalERKNS1_7__cxx114pathES5_RSt10error_code _ZNSt15_Deque_iteratorINSt12experimental10filesystem2v17__cxx114pathERS4_PS4_EC1ERKS7_ 875
_ZNSt12experimental10filesystem2v19canonicalERKNS1_7__cxx114pathES5_RSt10error_code _ZNSt12experimental10filesystem2v17__cxx114pathC1EOS3_ 898
_ZNSt12experimental10filesystem2v19canonicalERKNS1_7__cxx114pathES5_RSt10error_code _ZNSt12experimental10filesystem2v17__cxx114pathD1Ev 935
_ZNSt12experimental10filesystem2v19canonicalERKNS1_7__cxx114pathES5_RSt10error_code _ZNSt12experimental10filesystem2v17__cxx114pathD1Ev 959
_ZNSt12experimental10filesystem2v19canonicalERKNS1_7__cxx114pathES5_RSt10error_code _ZdlPv 977
_ZNSt12experimental10filesystem2v19canonicalERKNS1_7__cxx114pathES5_RSt10error_code _ZNSt12experimental10filesystem2v16statusERKNS1_7__cxx114pathERSt10error_code 1073
_ZNSt12experimental10filesystem2v19canonicalERKNS1_7__cxx114pathES5_RSt10error_code _ZNKSt12experimental10filesystem2v17__cxx114path11parent_pathEv 1162
_ZNSt12experimental10filesystem2v19canonicalERKNS1_7__cxx114pathES5_RSt10error_code _ZNKSt12experimental10filesystem2v17__cxx114path9root_pathEv 1202
_ZNSt12experimental10filesystem2v19canonicalERKNS1_7__cxx114pathES5_RSt10error_code _ZNSt12experimental10filesystem2v17__cxx114pathaSEOS3_ 1219
_ZNSt12experimental10filesystem2v19canonicalERKNS1_7__cxx114pathES5_RSt10error_code _ZNSt12experimental10filesystem2v17__cxx114pathD1Ev 1233
_ZNSt12experimental10filesystem2v19canonicalERKNS1_7__cxx114pathES5_RSt10error_code _ZNSt12experimental10filesystem2v17__cxx114pathD1Ev 1256
_ZNSt12experimental10filesystem2v19canonicalERKNS1_7__cxx114pathES5_RSt10error_code _ZNSt12experimental10filesystem2v17__cxx114pathD1Ev 1280
_ZNSt12experimental10filesystem2v19canonicalERKNS1_7__cxx114pathES5_RSt10error_code _ZNSt3_V216generic_categoryEv 1299
_ZNSt12experimental10filesystem2v19canonicalERKNS1_7__cxx114pathES5_RSt10error_code _ZNSt12experimental10filesystem2v17__cxx114path9_M_appendERKNSt7__cxx1112basic_stringIcSt11char_traitsIcESaIcEEE 1336
_ZNSt12experimental10filesystem2v19canonicalERKNS1_7__cxx114pathES5_RSt10error_code _ZNSt12experimental10filesystem2v114symlink_statusERKNS1_7__cxx114pathERSt10error_code 1370
_ZNSt12experimental10filesystem2v19canonicalERKNS1_7__cxx114pathES5_RSt10error_code _ZNSt12experimental10filesystem2v112read_symlinkERKNS1_7__cxx114pathERSt10error_code 1407
_ZNSt12experimental10filesystem2v19canonicalERKNS1_7__cxx114pathES5_RSt10error_code _ZNSt3_V216generic_categoryEv 1441
_ZNSt12experimental10filesystem2v19canonicalERKNS1_7__cxx114pathES5_RSt10error_code _ZNKSt12experimental10filesystem2v17__cxx114path18has_root_directoryEv 1473
_ZNSt12experimental10filesystem2v19canonicalERKNS1_7__cxx114pathES5_RSt10error_code _ZNKSt12experimental10filesystem2v17__cxx114path9root_pathEv 1498
_ZNSt12experimental10filesystem2v19canonicalERKNS1_7__cxx114pathES5_RSt10error_code _ZNSt12experimental10filesystem2v17__cxx114pathaSEOS3_ 1515
_ZNSt12experimental10filesystem2v19canonicalERKNS1_7__cxx114pathES5_RSt10error_code _ZNSt12experimental10filesystem2v17__cxx114pathD1Ev 1529
_ZNSt12experimental10filesystem2v19canonicalERKNS1_7__cxx114pathES5_RSt10error_code _ZNKSt12experimental10filesystem2v17__cxx114path13relative_pathEv 1555
_ZNSt12experimental10filesystem2v19canonicalERKNS1_7__cxx114pathES5_RSt10error_code _ZNSt12experimental10filesystem2v17__cxx114pathaSEOS3_ 1580
_ZNSt12experimental10filesystem2v19canonicalERKNS1_7__cxx114pathES5_RSt10error_code _ZNSt12experimental10filesystem2v17__cxx114pathD1Ev 1598
_ZNSt12experimental10filesystem2v19canonicalERKNS1_7__cxx114pathES5_RSt10error_code _ZNSt12experimental10filesystem2v17__cxx114path15remove_filenameEv 1617
_ZNSt12experimental10filesystem2v19canonicalERKNS1_7__cxx114pathES5_RSt10error_code _ZNSt15_Deque_iteratorINSt12experimental10filesystem2v17__cxx114pathERS4_PS4_EC1ERKS7_ 1696
_ZNSt12experimental10filesystem2v19canonicalERKNS1_7__cxx114pathES5_RSt10error_code _ZStmiINSt12experimental10filesystem2v17__cxx114pathERKS4_PS5_ENSt15_Deque_iteratorIT_T0_T1_E15difference_typeERKSC_SF_ 1812
_ZNSt12experimental10filesystem2v19canonicalERKNS1_7__cxx114pathES5_RSt10error_code _ZNSt15_Deque_iteratorINSt12experimental10filesystem2v17__cxx114pathERS4_PS4_EC1ERKS7_ 1945
_ZNSt12experimental10filesystem2v19canonicalERKNS1_7__cxx114pathES5_RSt10error_code _ZNSt5dequeINSt12experimental10filesystem2v17__cxx114pathESaIS4_EE19_M_range_insert_auxINS4_8iteratorEEEvSt15_Deque_iteratorIS4_RS4_PS4_ET_SD_St20forward_iterator_tag 2003
_ZNSt12experimental10filesystem2v19canonicalERKNS1_7__cxx114pathES5_RSt10error_code _ZNSt15_Deque_iteratorINSt12experimental10filesystem2v17__cxx114pathERS4_PS4_EC1ERKS7_ 2029
_ZNSt12experimental10filesystem2v19canonicalERKNS1_7__cxx114pathES5_RSt10error_code _ZNKSt15_Deque_iteratorINSt12experimental10filesystem2v17__cxx114pathERS4_PS4_EplEi 2059
_ZNSt12experimental10filesystem2v19canonicalERKNS1_7__cxx114pathES5_RSt10error_code _ZNSt12experimental10filesystem2v17__cxx114pathD1Ev 2104
_ZNSt12experimental10filesystem2v19canonicalERKNS1_7__cxx114pathES5_RSt10error_code _ZNSt7__cxx1112basic_stringIcSt11char_traitsIcESaIcEE4swapERS4_ 2137
_ZNSt12experimental10filesystem2v19canonicalERKNS1_7__cxx114pathES5_RSt10error_code _ZNSt12experimental10filesystem2v17__cxx114path14_M_split_cmptsEv 2228
_ZNSt12experimental10filesystem2v19canonicalERKNS1_7__cxx114pathES5_RSt10error_code _ZNSt12experimental10filesystem2v17__cxx114pathD1Ev 2268
_ZNSt12experimental10filesystem2v19canonicalERKNS1_7__cxx114pathERSt10error_code __x86.get_pc_thunk.di 10
_ZNSt12experimental10filesystem2v19canonicalERKNS1_7__cxx114pathERSt10error_code _ZNSt12experimental10filesystem2v112current_pathB5cxx11ERSt10error_code 34
_ZNSt12experimental10filesystem2v19canonicalERKNS1_7__cxx114pathERSt10error_code _ZNSt12experimental10filesystem2v17__cxx114pathC1Ev 56
_ZNSt12experimental10filesystem2v19canonicalERKNS1_7__cxx114pathERSt10error_code _ZNSt12experimental10filesystem2v19canonicalERKNS1_7__cxx114pathES5_RSt10error_code 76
_ZNSt12experimental10filesystem2v19canonicalERKNS1_7__cxx114pathERSt10error_code _ZNSt12experimental10filesystem2v17__cxx114pathD1Ev 95
_ZNSt12experimental10filesystem2v19canonicalERKNS1_7__cxx114pathERSt10error_code _Unwind_Resume 106
_ZNSt12experimental10filesystem2v19canonicalERKNS1_7__cxx114pathERSt10error_code _ZNSt12experimental10filesystem2v17__cxx114pathD1Ev 117
_ZNSt12experimental10filesystem2v19canonicalERKNS1_7__cxx114pathES5_ __x86.get_pc_thunk.si 10
_ZNSt12experimental10filesystem2v19canonicalERKNS1_7__cxx114pathES5_ _ZNSt10error_codeC1Ev 27
_ZNSt12experimental10filesystem2v19canonicalERKNS1_7__cxx114pathES5_ _ZNSt12experimental10filesystem2v19canonicalERKNS1_7__cxx114pathES5_RSt10error_code 45
_ZNSt12experimental10filesystem2v19canonicalERKNS1_7__cxx114pathES5_ __cxa_allocate_exception 71
_ZNSt12experimental10filesystem2v19canonicalERKNS1_7__cxx114pathES5_ .LC43 77
_ZNSt12experimental10filesystem2v19canonicalERKNS1_7__cxx114pathES5_ _ZNSt12experimental10filesystem2v17__cxx1116filesystem_errorC1ERKNSt7__cxx1112basic_stringIcSt11char_traitsIcESaIcEEERKNS2_4pathESE_St10error_code 113
_ZNSt12experimental10filesystem2v19canonicalERKNS1_7__cxx114pathES5_ _ZNSt7__cxx1112basic_stringIcSt11char_traitsIcESaIcEE10_M_disposeEv 122
_ZNSt12experimental10filesystem2v19canonicalERKNS1_7__cxx114pathES5_ _ZNSt12experimental10filesystem2v17__cxx1116filesystem_errorD1Ev 131
_ZNSt12experimental10filesystem2v19canonicalERKNS1_7__cxx114pathES5_ _ZTINSt12experimental10filesystem2v17__cxx1116filesystem_errorE 137
_ZNSt12experimental10filesystem2v19canonicalERKNS1_7__cxx114pathES5_ __cxa_throw 145
_ZNSt12experimental10filesystem2v19canonicalERKNS1_7__cxx114pathES5_ _ZNSt7__cxx1112basic_stringIcSt11char_traitsIcESaIcEE10_M_disposeEv 159
_ZNSt12experimental10filesystem2v19canonicalERKNS1_7__cxx114pathES5_ __cxa_free_exception 184
_ZNSt12experimental10filesystem2v19canonicalERKNS1_7__cxx114pathES5_ _ZNSt12experimental10filesystem2v17__cxx114pathD1Ev 204
_ZNSt12experimental10filesystem2v19canonicalERKNS1_7__cxx114pathES5_ _Unwind_Resume 212
_ZNSt12codecvt_utf8IwLm1114111ELSt12codecvt_mode0EED1Ev,_ZNSt12codecvt_utf8IwLm1114111ELSt12codecvt_mode0EED2Ev __x86.get_pc_thunk.bx 5
_ZNSt12codecvt_utf8IwLm1114111ELSt12codecvt_mode0EED1Ev,_ZNSt12codecvt_utf8IwLm1114111ELSt12codecvt_mode0EED2Ev _ZTVSt12codecvt_utf8IwLm1114111ELSt12codecvt_mode0EE 23
_ZNSt12codecvt_utf8IwLm1114111ELSt12codecvt_mode0EED1Ev,_ZNSt12codecvt_utf8IwLm1114111ELSt12codecvt_mode0EED2Ev _ZNSt19__codecvt_utf8_baseIwED2Ev 34
_ZNSt12codecvt_utf8IwLm1114111ELSt12codecvt_mode0EED0Ev __x86.get_pc_thunk.bx 12
_ZNSt12codecvt_utf8IwLm1114111ELSt12codecvt_mode0EED0Ev _ZNSt12codecvt_utf8IwLm1114111ELSt12codecvt_mode0EED1Ev 24
_ZNSt12codecvt_utf8IwLm1114111ELSt12codecvt_mode0EED0Ev _ZdlPvj 34
_ZNSt12_Vector_baseINSt12experimental10filesystem2v17__cxx114path5_CmptESaIS5_EE13_M_deallocateEPS5_j.isra.55 __x86.get_pc_thunk.bx 6
_ZNSt12_Vector_baseINSt12experimental10filesystem2v17__cxx114path5_CmptESaIS5_EE13_M_deallocateEPS5_j.isra.55 _ZdlPv 25
_ZNSt7__cxx1112basic_stringIcSt11char_traitsIcESaIcEEC2EPKcRKS3_.isra.71 __x86.get_pc_thunk.bx 12
_ZNSt7__cxx1112basic_stringIcSt11char_traitsIcESaIcEEC2EPKcRKS3_.isra.71 _ZNSt7__cxx1112basic_stringIcSt11char_traitsIcESaIcEE9_M_createERjj 66
_ZNSt7__cxx1112basic_stringIcSt11char_traitsIcESaIcEEC2EPKcRKS3_.isra.71 _ZNSt7__cxx1112basic_stringIcSt11char_traitsIcESaIcEE13_S_copy_charsEPcPKcS7_ 90
_ZNSt7__cxx1112basic_stringIcSt11char_traitsIcESaIcEEC2EPKcRKS3_.isra.71 .LC0 116
_ZNSt7__cxx1112basic_stringIcSt11char_traitsIcESaIcEEC2EPKcRKS3_.isra.71 _ZSt19__throw_logic_errorPKc 125
_ZN9__gnu_cxx13new_allocatorINSt12experimental10filesystem2v17__cxx114path5_CmptEE8allocateEjPKv.isra.84 __x86.get_pc_thunk.bx 6
_ZN9__gnu_cxx13new_allocatorINSt12experimental10filesystem2v17__cxx114path5_CmptEE8allocateEjPKv.isra.84 _ZSt17__throw_bad_allocv 24
_ZN9__gnu_cxx13new_allocatorINSt12experimental10filesystem2v17__cxx114path5_CmptEE8allocateEjPKv.isra.84 _Znwj 36
_ZNSt7__cxx1112basic_stringIcSt11char_traitsIcESaIcEE12_M_constructIN9__gnu_cxx17__normal_iteratorIPKcS4_EEEEvT_SB_St20forward_iterator_tag.isra.94 __x86.get_pc_thunk.bx 21
_ZNSt7__cxx1112basic_stringIcSt11char_traitsIcESaIcEE12_M_constructIN9__gnu_cxx17__normal_iteratorIPKcS4_EEEEvT_SB_St20forward_iterator_tag.isra.94 _ZNSt7__cxx1112basic_stringIcSt11char_traitsIcESaIcEE9_M_createERjj 48
_ZNSt7__cxx1112basic_stringIcSt11char_traitsIcESaIcEE12_M_constructIN9__gnu_cxx17__normal_iteratorIPKcS4_EEEEvT_SB_St20forward_iterator_tag.isra.94 _ZNSt7__cxx1112basic_stringIcSt11char_traitsIcESaIcEE13_S_copy_charsEPcPKcS7_ 72
_ZNSt12experimental10filesystem2v17__cxx114path5_CmptC1ENSt7__cxx1112basic_stringIcSt11char_traitsIcESaIcEEENS3_5_TypeEj,_ZNSt12experimental10filesystem2v17__cxx114path5_CmptC2ENSt7__cxx1112basic_stringIcSt11char_traitsIcESaIcEEENS3_5_TypeEj __x86.get_pc_thunk.ax 2
_ZNSt12experimental10filesystem2v17__cxx114path5_CmptC1ENSt7__cxx1112basic_stringIcSt11char_traitsIcESaIcEEENS3_5_TypeEj,_ZNSt12experimental10filesystem2v17__cxx114path5_CmptC2ENSt7__cxx1112basic_stringIcSt11char_traitsIcESaIcEEENS3_5_TypeEj _ZNSt7__cxx1112basic_stringIcSt11char_traitsIcESaIcEEC1EOS4_ 42
_ZNSt12experimental10filesystem2v17__cxx114path5_CmptC1ENSt7__cxx1112basic_stringIcSt11char_traitsIcESaIcEEENS3_5_TypeEj,_ZNSt12experimental10filesystem2v17__cxx114path5_CmptC2ENSt7__cxx1112basic_stringIcSt11char_traitsIcESaIcEEENS3_5_TypeEj _ZNSt7__cxx1112basic_stringIcSt11char_traitsIcESaIcEEC1ERKS4_ 54
_ZNSt12experimental10filesystem2v17__cxx114path5_CmptC1ENSt7__cxx1112basic_stringIcSt11char_traitsIcESaIcEEENS3_5_TypeEj,_ZNSt12experimental10filesystem2v17__cxx114path5_CmptC2ENSt7__cxx1112basic_stringIcSt11char_traitsIcESaIcEEENS3_5_TypeEj _ZNSt7__cxx1112basic_stringIcSt11char_traitsIcESaIcEE10_M_disposeEv 92
_ZNSt12experimental10filesystem2v17__cxx114path5_CmptC1ENSt7__cxx1112basic_stringIcSt11char_traitsIcESaIcEEENS3_5_TypeEj,_ZNSt12experimental10filesystem2v17__cxx114path5_CmptC2ENSt7__cxx1112basic_stringIcSt11char_traitsIcESaIcEEENS3_5_TypeEj _ZNSt7__cxx1112basic_stringIcSt11char_traitsIcESaIcEE10_M_disposeEv 121
_ZNSt12experimental10filesystem2v17__cxx114path5_CmptC1ENSt7__cxx1112basic_stringIcSt11char_traitsIcESaIcEEENS3_5_TypeEj,_ZNSt12experimental10filesystem2v17__cxx114path5_CmptC2ENSt7__cxx1112basic_stringIcSt11char_traitsIcESaIcEEENS3_5_TypeEj _Unwind_Resume 135
_ZN9__gnu_cxx13new_allocatorINSt12experimental10filesystem2v17__cxx114path5_CmptEE9constructIS6_JNSt7__cxx1112basic_stringIcSt11char_traitsIcESaIcEEENS5_5_TypeERjEEEvPT_DpOT0_.isra.78 __x86.get_pc_thunk.si 10
_ZN9__gnu_cxx13new_allocatorINSt12experimental10filesystem2v17__cxx114path5_CmptEE9constructIS6_JNSt7__cxx1112basic_stringIcSt11char_traitsIcESaIcEEENS5_5_TypeERjEEEvPT_DpOT0_.isra.78 _ZNSt7__cxx1112basic_stringIcSt11char_traitsIcESaIcEEC1EOS4_ 34
_ZN9__gnu_cxx13new_allocatorINSt12experimental10filesystem2v17__cxx114path5_CmptEE9constructIS6_JNSt7__cxx1112basic_stringIcSt11char_traitsIcESaIcEEENS5_5_TypeERjEEEvPT_DpOT0_.isra.78 _ZNSt7__cxx1112basic_stringIcSt11char_traitsIcESaIcEE10_M_disposeEv 65
_ZN9__gnu_cxx13new_allocatorINSt12experimental10filesystem2v17__cxx114path5_CmptEE9constructIS6_JNSt7__cxx1112basic_stringIcSt11char_traitsIcESaIcEEENS5_5_TypeERjEEEvPT_DpOT0_.isra.78 _ZNSt12experimental10filesystem2v17__cxx114path5_CmptC1ENSt7__cxx1112basic_stringIcSt11char_traitsIcESaIcEEENS3_5_TypeEj 84
_ZN9__gnu_cxx13new_allocatorINSt12experimental10filesystem2v17__cxx114path5_CmptEE9constructIS6_JNSt7__cxx1112basic_stringIcSt11char_traitsIcESaIcEEENS5_5_TypeERjEEEvPT_DpOT0_.isra.78 _ZNSt7__cxx1112basic_stringIcSt11char_traitsIcESaIcEE10_M_disposeEv 103
_ZN9__gnu_cxx13new_allocatorINSt12experimental10filesystem2v17__cxx114path5_CmptEE9constructIS6_JNSt7__cxx1112basic_stringIcSt11char_traitsIcESaIcEEENS5_5_TypeERjEEEvPT_DpOT0_.isra.78 _Unwind_Resume 114
_ZN9__gnu_cxx13new_allocatorINSt12experimental10filesystem2v17__cxx114path5_CmptEE9constructIS6_JNSt7__cxx1112basic_stringIcSt11char_traitsIcESaIcEEENS5_5_TypeEiEEEvPT_DpOT0_.isra.80 __x86.get_pc_thunk.si 10
_ZN9__gnu_cxx13new_allocatorINSt12experimental10filesystem2v17__cxx114path5_CmptEE9constructIS6_JNSt7__cxx1112basic_stringIcSt11char_traitsIcESaIcEEENS5_5_TypeEiEEEvPT_DpOT0_.isra.80 _ZNSt7__cxx1112basic_stringIcSt11char_traitsIcESaIcEEC1EOS4_ 34
_ZN9__gnu_cxx13new_allocatorINSt12experimental10filesystem2v17__cxx114path5_CmptEE9constructIS6_JNSt7__cxx1112basic_stringIcSt11char_traitsIcESaIcEEENS5_5_TypeEiEEEvPT_DpOT0_.isra.80 _ZNSt7__cxx1112basic_stringIcSt11char_traitsIcESaIcEE10_M_disposeEv 65
_ZN9__gnu_cxx13new_allocatorINSt12experimental10filesystem2v17__cxx114path5_CmptEE9constructIS6_JNSt7__cxx1112basic_stringIcSt11char_traitsIcESaIcEEENS5_5_TypeEiEEEvPT_DpOT0_.isra.80 _ZNSt12experimental10filesystem2v17__cxx114path5_CmptC1ENSt7__cxx1112basic_stringIcSt11char_traitsIcESaIcEEENS3_5_TypeEj 84
_ZN9__gnu_cxx13new_allocatorINSt12experimental10filesystem2v17__cxx114path5_CmptEE9constructIS6_JNSt7__cxx1112basic_stringIcSt11char_traitsIcESaIcEEENS5_5_TypeEiEEEvPT_DpOT0_.isra.80 _ZNSt7__cxx1112basic_stringIcSt11char_traitsIcESaIcEE10_M_disposeEv 103
_ZN9__gnu_cxx13new_allocatorINSt12experimental10filesystem2v17__cxx114path5_CmptEE9constructIS6_JNSt7__cxx1112basic_stringIcSt11char_traitsIcESaIcEEENS5_5_TypeEiEEEvPT_DpOT0_.isra.80 _Unwind_Resume 114
_ZNKSt12experimental10filesystem2v17__cxx114path7compareERKS3_ __x86.get_pc_thunk.bx 7
_ZNKSt12experimental10filesystem2v17__cxx114path7compareERKS3_ _ZNKSt7__cxx1112basic_stringIcSt11char_traitsIcESaIcEE7compareERKS4_ 159
_ZNKSt12experimental10filesystem2v17__cxx114path7compareERKS3_ _ZNKSt7__cxx1112basic_stringIcSt11char_traitsIcESaIcEE7compareERKS4_ 184
_ZNKSt12experimental10filesystem2v17__cxx114path7compareERKS3_ _ZNKSt7__cxx1112basic_stringIcSt11char_traitsIcESaIcEE7compareERKS4_ 233
_ZNKSt12experimental10filesystem2v17__cxx114path7compareERKS3_ _ZNKSt7__cxx1112basic_stringIcSt11char_traitsIcESaIcEE7compareERKS4_ 314
_ZNKSt12experimental10filesystem2v17__cxx114path17_M_find_extensionEv __x86.get_pc_thunk.bx 7
_ZNKSt12experimental10filesystem2v17__cxx114path17_M_find_extensionEv _ZNKSt7__cxx1112basic_stringIcSt11char_traitsIcESaIcEE5rfindEcj 83
_ZNSt12experimental10filesystem2v17__cxx1110hash_valueERKNS2_4pathE __x86.get_pc_thunk.bx 7
_ZNSt12experimental10filesystem2v17__cxx1110hash_valueERKNS2_4pathE _ZSt11_Hash_bytesPKvjj 103
_ZNKSt6vectorINSt12experimental10filesystem2v17__cxx114path5_CmptESaIS5_EE12_M_check_lenEjPKc __x86.get_pc_thunk.bx 12
_ZNKSt6vectorINSt12experimental10filesystem2v17__cxx114path5_CmptESaIS5_EE12_M_check_lenEjPKc _ZSt20__throw_length_errorPKc 54
_ZNSt12experimental10filesystem2v17__cxx1116filesystem_errorD1Ev,_ZNSt12experimental10filesystem2v17__cxx1116filesystem_errorD2Ev __x86.get_pc_thunk.bx 6
_ZNSt12experimental10filesystem2v17__cxx1116filesystem_errorD1Ev,_ZNSt12experimental10filesystem2v17__cxx1116filesystem_errorD2Ev _ZTVNSt12experimental10filesystem2v17__cxx1116filesystem_errorE 24
_ZNSt12experimental10filesystem2v17__cxx1116filesystem_errorD1Ev,_ZNSt12experimental10filesystem2v17__cxx1116filesystem_errorD2Ev _ZNSt7__cxx1112basic_stringIcSt11char_traitsIcESaIcEE10_M_disposeEv 38
_ZNSt12experimental10filesystem2v17__cxx1116filesystem_errorD1Ev,_ZNSt12experimental10filesystem2v17__cxx1116filesystem_errorD2Ev _ZNSt12experimental10filesystem2v17__cxx114pathD1Ev 49
_ZNSt12experimental10filesystem2v17__cxx1116filesystem_errorD1Ev,_ZNSt12experimental10filesystem2v17__cxx1116filesystem_errorD2Ev _ZNSt12experimental10filesystem2v17__cxx114pathD1Ev 60
_ZNSt12experimental10filesystem2v17__cxx1116filesystem_errorD1Ev,_ZNSt12experimental10filesystem2v17__cxx1116filesystem_errorD2Ev _ZNSt12system_errorD2Ev 68
_ZNSt12experimental10filesystem2v17__cxx1116filesystem_errorD0Ev __x86.get_pc_thunk.bx 12
_ZNSt12experimental10filesystem2v17__cxx1116filesystem_errorD0Ev _ZNSt12experimental10filesystem2v17__cxx1116filesystem_errorD1Ev 24
_ZNSt12experimental10filesystem2v17__cxx1116filesystem_errorD0Ev _ZdlPvj 34
_ZNSt12experimental10filesystem2v17__cxx114path7_M_trimEv __x86.get_pc_thunk.bx 7
_ZNSt12experimental10filesystem2v17__cxx114path7_M_trimEv _ZNSt12_Destroy_auxILb0EE9__destroyIPNSt12experimental10filesystem2v17__cxx114path5_CmptEEEvT_S9_ 56
_ZNSt12experimental10filesystem2v17__cxx114path14_M_split_cmptsEv __x86.get_pc_thunk.di 7
_ZNSt12experimental10filesystem2v17__cxx114path14_M_split_cmptsEv _ZNSt12_Destroy_auxILb0EE9__destroyIPNSt12experimental10filesystem2v17__cxx114path5_CmptEEEvT_S9_ 40
_ZNSt12experimental10filesystem2v17__cxx114path14_M_split_cmptsEv _ZNSt12experimental10filesystem2v17__cxx114path15_M_add_root_dirEj 104
_ZNSt12experimental10filesystem2v17__cxx114path14_M_split_cmptsEv _ZNSt12experimental10filesystem2v17__cxx114path15_M_add_filenameEjj 146
_ZNSt12experimental10filesystem2v17__cxx114path14_M_split_cmptsEv _ZNSt12experimental10filesystem2v17__cxx114path15_M_add_filenameEjj 183
_ZNSt12experimental10filesystem2v17__cxx114path14_M_split_cmptsEv _ZNSt7__cxx1112basic_stringIcSt11char_traitsIcESaIcEE12_M_constructEjc 246
_ZNSt12experimental10filesystem2v17__cxx114path14_M_split_cmptsEv _ZNSt6vectorINSt12experimental10filesystem2v17__cxx114path5_CmptESaIS5_EE12emplace_backIJNSt7__cxx1112basic_stringIcSt11char_traitsIcESaIcEEENS4_5_TypeERjEEEvDpOT_ 269
_ZNSt12experimental10filesystem2v17__cxx114path14_M_split_cmptsEv _ZNSt7__cxx1112basic_stringIcSt11char_traitsIcESaIcEE10_M_disposeEv 278
_ZNSt12experimental10filesystem2v17__cxx114path14_M_split_cmptsEv _ZNSt12experimental10filesystem2v17__cxx114path7_M_trimEv 292
_ZNSt12experimental10filesystem2v17__cxx114path14_M_split_cmptsEv _ZNSt7__cxx1112basic_stringIcSt11char_traitsIcESaIcEE10_M_disposeEv 312
_ZNSt12experimental10filesystem2v17__cxx114path14_M_split_cmptsEv _Unwind_Resume 320
_ZNSt12experimental10filesystem2v17__cxx114path14_M_split_cmptsEv _ZNSt12experimental10filesystem2v17__cxx114path16_M_add_root_nameEj 380
_ZNKSt12experimental10filesystem2v17__cxx114path11parent_pathEv __x86.get_pc_thunk.di 7
_ZNKSt12experimental10filesystem2v17__cxx114path11parent_pathEv _ZNSt12experimental10filesystem2v17__cxx114pathC1Ev 29
_ZNKSt12experimental10filesystem2v17__cxx114path11parent_pathEv _ZNSt12experimental10filesystem2v17__cxx114path9_M_appendERKNSt7__cxx1112basic_stringIcSt11char_traitsIcESaIcEEE 80
_ZNKSt12experimental10filesystem2v17__cxx114path11parent_pathEv _ZNSt12experimental10filesystem2v17__cxx114pathD1Ev 103
_ZNKSt12experimental10filesystem2v17__cxx114path11parent_pathEv _Unwind_Resume 111
_ZNSt12experimental10filesystem2v17__cxx114path17replace_extensionERKS3_ __x86.get_pc_thunk.si 10
_ZNSt12experimental10filesystem2v17__cxx114path17replace_extensionERKS3_ _ZNKSt12experimental10filesystem2v17__cxx114path17_M_find_extensionEv 31
_ZNSt12experimental10filesystem2v17__cxx114path17replace_extensionERKS3_ __cxa_allocate_exception 82
_ZNSt12experimental10filesystem2v17__cxx114path17replace_extensionERKS3_ .LC4 91
_ZNSt12experimental10filesystem2v17__cxx114path17replace_extensionERKS3_ _ZNSt11logic_errorC1EPKc 99
_ZNSt12experimental10filesystem2v17__cxx114path17replace_extensionERKS3_ _ZNSt11logic_errorD1Ev 108
_ZNSt12experimental10filesystem2v17__cxx114path17replace_extensionERKS3_ _ZTISt11logic_error 114
_ZNSt12experimental10filesystem2v17__cxx114path17replace_extensionERKS3_ __cxa_throw 120
_ZNSt12experimental10filesystem2v17__cxx114path17replace_extensionERKS3_ _ZNSt7__cxx1112basic_stringIcSt11char_traitsIcESaIcEE5eraseEjj 135
_ZNSt12experimental10filesystem2v17__cxx114path17replace_extensionERKS3_ _ZNSt7__cxx1112basic_stringIcSt11char_traitsIcESaIcEE9push_backEc 166
_ZNSt12experimental10filesystem2v17__cxx114path17replace_extensionERKS3_ __cxa_free_exception 185
_ZNSt12experimental10filesystem2v17__cxx114path17replace_extensionERKS3_ _Unwind_Resume 196
_ZNSt12experimental10filesystem2v17__cxx114path17replace_extensionERKS3_ _ZNSt7__cxx1112basic_stringIcSt11char_traitsIcESaIcEEpLERKS4_ 209
_ZNSt12experimental10filesystem2v17__cxx114path17replace_extensionERKS3_ _ZNSt12experimental10filesystem2v17__cxx114path14_M_split_cmptsEv 217
_ZSt34__uninitialized_move_if_noexcept_aIPNSt12experimental10filesystem2v17__cxx114path5_CmptES6_SaIS5_EET0_T_S9_S8_RT1_.isra.98 __x86.get_pc_thunk.bx 11
_ZSt34__uninitialized_move_if_noexcept_aIPNSt12experimental10filesystem2v17__cxx114path5_CmptES6_SaIS5_EET0_T_S9_S8_RT1_.isra.98 _ZNSt7__cxx1112basic_stringIcSt11char_traitsIcESaIcEEC1EOS4_ 40
_ZSt34__uninitialized_move_if_noexcept_aIPNSt12experimental10filesystem2v17__cxx114path5_CmptES6_SaIS5_EET0_T_S9_S8_RT1_.isra.98 _ZNSt12experimental10filesystem2v17__cxx114path14_M_split_cmptsEv 75
_ZSt34__uninitialized_move_if_noexcept_aIPNSt12experimental10filesystem2v17__cxx114path5_CmptES6_SaIS5_EET0_T_S9_S8_RT1_.isra.98 _ZNSt12experimental10filesystem2v17__cxx114path14_M_split_cmptsEv 95
_ZNSt6vectorINSt12experimental10filesystem2v17__cxx114path5_CmptESaIS5_EE12emplace_backIJNSt7__cxx1112basic_stringIcSt11char_traitsIcESaIcEEENS4_5_TypeERjEEEvDpOT_ __x86.get_pc_thunk.ax 2
_ZNSt6vectorINSt12experimental10filesystem2v17__cxx114path5_CmptESaIS5_EE12emplace_backIJNSt7__cxx1112basic_stringIcSt11char_traitsIcESaIcEEENS4_5_TypeERjEEEvDpOT_ _ZN9__gnu_cxx13new_allocatorINSt12experimental10filesystem2v17__cxx114path5_CmptEE9constructIS6_JNSt7__cxx1112basic_stringIcSt11char_traitsIcESaIcEEENS5_5_TypeERjEEEvPT_DpOT0_.isra.78 46
_ZNSt6vectorINSt12experimental10filesystem2v17__cxx114path5_CmptESaIS5_EE12emplace_backIJNSt7__cxx1112basic_stringIcSt11char_traitsIcESaIcEEENS4_5_TypeERjEEEvDpOT_ .LC5 67
_ZNSt6vectorINSt12experimental10filesystem2v17__cxx114path5_CmptESaIS5_EE12emplace_backIJNSt7__cxx1112basic_stringIcSt11char_traitsIcESaIcEEENS4_5_TypeERjEEEvDpOT_ _ZNKSt6vectorINSt12experimental10filesystem2v17__cxx114path5_CmptESaIS5_EE12_M_check_lenEjPKc 76
_ZNSt6vectorINSt12experimental10filesystem2v17__cxx114path5_CmptESaIS5_EE12emplace_backIJNSt7__cxx1112basic_stringIcSt11char_traitsIcESaIcEEENS4_5_TypeERjEEEvDpOT_ _ZN9__gnu_cxx13new_allocatorINSt12experimental10filesystem2v17__cxx114path5_CmptEE9constructIS6_JNSt7__cxx1112basic_stringIcSt11char_traitsIcESaIcEEENS5_5_TypeERjEEEvPT_DpOT0_.isra.78 117
_ZNSt6vectorINSt12experimental10filesystem2v17__cxx114path5_CmptESaIS5_EE12emplace_backIJNSt7__cxx1112basic_stringIcSt11char_traitsIcESaIcEEENS4_5_TypeERjEEEvDpOT_ _ZNSt12_Destroy_auxILb0EE9__destroyIPNSt12experimental10filesystem2v17__cxx114path5_CmptEEEvT_S9_ 150
_ZNSt6vectorINSt12experimental10filesystem2v17__cxx114path5_CmptESaIS5_EE12emplace_backIJNSt7__cxx1112basic_stringIcSt11char_traitsIcESaIcEEENS4_5_TypeERjEEEvDpOT_ __cxa_begin_catch 200
_ZNSt6vectorINSt12experimental10filesystem2v17__cxx114path5_CmptESaIS5_EE12emplace_backIJNSt7__cxx1112basic_stringIcSt11char_traitsIcESaIcEEENS4_5_TypeERjEEEvDpOT_ _ZNSt12experimental10filesystem2v17__cxx114pathD2Ev 224
_ZNSt6vectorINSt12experimental10filesystem2v17__cxx114path5_CmptESaIS5_EE12emplace_backIJNSt7__cxx1112basic_stringIcSt11char_traitsIcESaIcEEENS4_5_TypeERjEEEvDpOT_ _ZNSt12_Destroy_auxILb0EE9__destroyIPNSt12experimental10filesystem2v17__cxx114path5_CmptEEEvT_S9_ 238
_ZNSt6vectorINSt12experimental10filesystem2v17__cxx114path5_CmptESaIS5_EE12emplace_backIJNSt7__cxx1112basic_stringIcSt11char_traitsIcESaIcEEENS4_5_TypeERjEEEvDpOT_ __cxa_rethrow 256
_ZNSt6vectorINSt12experimental10filesystem2v17__cxx114path5_CmptESaIS5_EE12emplace_backIJNSt7__cxx1112basic_stringIcSt11char_traitsIcESaIcEEENS4_5_TypeERjEEEvDpOT_ __cxa_end_catch 266
_ZNSt6vectorINSt12experimental10filesystem2v17__cxx114path5_CmptESaIS5_EE12emplace_backIJNSt7__cxx1112basic_stringIcSt11char_traitsIcESaIcEEENS4_5_TypeERjEEEvDpOT_ _Unwind_Resume 278
_ZNSt12experimental10filesystem2v17__cxx114path15_M_add_root_dirEj __x86.get_pc_thunk.si 10
_ZNSt12experimental10filesystem2v17__cxx114path15_M_add_root_dirEj _ZNKSt7__cxx1112basic_stringIcSt11char_traitsIcESaIcEE6substrEjj 39
_ZNSt12experimental10filesystem2v17__cxx114path15_M_add_root_dirEj _ZNSt6vectorINSt12experimental10filesystem2v17__cxx114path5_CmptESaIS5_EE12emplace_backIJNSt7__cxx1112basic_stringIcSt11char_traitsIcESaIcEEENS4_5_TypeERjEEEvDpOT_ 63
_ZNSt12experimental10filesystem2v17__cxx114path15_M_add_root_dirEj _ZNSt7__cxx1112basic_stringIcSt11char_traitsIcESaIcEE10_M_disposeEv 71
_ZNSt12experimental10filesystem2v17__cxx114path15_M_add_root_dirEj _ZNSt7__cxx1112basic_stringIcSt11char_traitsIcESaIcEE10_M_disposeEv 93
_ZNSt12experimental10filesystem2v17__cxx114path15_M_add_root_dirEj _Unwind_Resume 104
_ZNSt12experimental10filesystem2v17__cxx114path15_M_add_filenameEjj __x86.get_pc_thunk.si 10
_ZNSt12experimental10filesystem2v17__cxx114path15_M_add_filenameEjj _ZNKSt7__cxx1112basic_stringIcSt11char_traitsIcESaIcEE6substrEjj 40
_ZNSt12experimental10filesystem2v17__cxx114path15_M_add_filenameEjj _ZNSt6vectorINSt12experimental10filesystem2v17__cxx114path5_CmptESaIS5_EE12emplace_backIJNSt7__cxx1112basic_stringIcSt11char_traitsIcESaIcEEENS4_5_TypeERjEEEvDpOT_ 64
_ZNSt12experimental10filesystem2v17__cxx114path15_M_add_filenameEjj _ZNSt7__cxx1112basic_stringIcSt11char_traitsIcESaIcEE10_M_disposeEv 72
_ZNSt12experimental10filesystem2v17__cxx114path15_M_add_filenameEjj _ZNSt7__cxx1112basic_stringIcSt11char_traitsIcESaIcEE10_M_disposeEv 94
_ZNSt12experimental10filesystem2v17__cxx114path15_M_add_filenameEjj _Unwind_Resume 105
_ZNSt12experimental10filesystem2v17__cxx114path16_M_add_root_nameEj __x86.get_pc_thunk.ax 2
_ZNSt12experimental10filesystem2v17__cxx114path16_M_add_root_nameEj _ZNKSt7__cxx1112basic_stringIcSt11char_traitsIcESaIcEE6substrEjj 53
_ZNSt12experimental10filesystem2v17__cxx114path16_M_add_root_nameEj .LC5 110
_ZNSt12experimental10filesystem2v17__cxx114path16_M_add_root_nameEj _ZNKSt6vectorINSt12experimental10filesystem2v17__cxx114path5_CmptESaIS5_EE12_M_check_lenEjPKc 122
_ZNSt12experimental10filesystem2v17__cxx114path16_M_add_root_nameEj _ZNSt12_Destroy_auxILb0EE9__destroyIPNSt12experimental10filesystem2v17__cxx114path5_CmptEEEvT_S9_ 204
_ZNSt12experimental10filesystem2v17__cxx114path16_M_add_root_nameEj __cxa_begin_catch 250
_ZNSt12experimental10filesystem2v17__cxx114path16_M_add_root_nameEj _ZNSt12experimental10filesystem2v17__cxx114pathD2Ev 275
_ZNSt12experimental10filesystem2v17__cxx114path16_M_add_root_nameEj _ZNSt12_Destroy_auxILb0EE9__destroyIPNSt12experimental10filesystem2v17__cxx114path5_CmptEEEvT_S9_ 289
_ZNSt12experimental10filesystem2v17__cxx114path16_M_add_root_nameEj __cxa_rethrow 307
_ZNSt12experimental10filesystem2v17__cxx114path16_M_add_root_nameEj __cxa_end_catch 317
_ZNSt12experimental10filesystem2v17__cxx114path16_M_add_root_nameEj _ZNSt7__cxx1112basic_stringIcSt11char_traitsIcESaIcEE10_M_disposeEv 334
_ZNSt12experimental10filesystem2v17__cxx114path16_M_add_root_nameEj _ZNSt7__cxx1112basic_stringIcSt11char_traitsIcESaIcEE10_M_disposeEv 358
_ZNSt12experimental10filesystem2v17__cxx114path16_M_add_root_nameEj _Unwind_Resume 369
_ZNSt12experimental10filesystem2v17__cxx114path15remove_filenameEv __x86.get_pc_thunk.bx 7
_ZNSt12experimental10filesystem2v17__cxx114path15remove_filenameEv _ZNSt7__cxx1112basic_stringIcSt11char_traitsIcESaIcEE5eraseEjj 55
_ZNSt12experimental10filesystem2v17__cxx114path15remove_filenameEv _ZNSt12experimental10filesystem2v17__cxx114pathaSEOS3_ 102
_ZNSt12experimental10filesystem2v17__cxx114path15remove_filenameEv _ZNSt12experimental10filesystem2v17__cxx114pathD2Ev 139
_ZNSt12experimental10filesystem2v17__cxx114path15remove_filenameEv _ZNSt12experimental10filesystem2v17__cxx114path7_M_trimEv 147
_ZNSt12experimental10filesystem2v17__cxx114path15remove_filenameEv _ZNSt12experimental10filesystem2v17__cxx114path14_M_split_cmptsEv 170
_ZNSt12experimental10filesystem2v17__cxx114path16replace_filenameERKS3_ __x86.get_pc_thunk.bx 12
_ZNSt12experimental10filesystem2v17__cxx114path16replace_filenameERKS3_ _ZNSt12experimental10filesystem2v17__cxx114path15remove_filenameEv 24
_ZNSt12experimental10filesystem2v17__cxx114path16replace_filenameERKS3_ _ZNSt12experimental10filesystem2v17__cxx114path9_M_appendERKNSt7__cxx1112basic_stringIcSt11char_traitsIcESaIcEEE 35
_ZNSt7__cxx1112basic_stringIwSt11char_traitsIwESaIwEE6assignIPKcvEERS4_T_S9_ __x86.get_pc_thunk.si 10
_ZNSt7__cxx1112basic_stringIwSt11char_traitsIwESaIwEE6assignIPKcvEERS4_T_S9_ _ZNSt7__cxx1112basic_stringIwSt11char_traitsIwESaIwEE3endEv 33
_ZNSt7__cxx1112basic_stringIwSt11char_traitsIwESaIwEE6assignIPKcvEERS4_T_S9_ _ZNSt7__cxx1112basic_stringIwSt11char_traitsIwESaIwEE9_M_createERjj 101
_ZNSt7__cxx1112basic_stringIwSt11char_traitsIwESaIwEE6assignIPKcvEERS4_T_S9_ _ZNSt7__cxx1112basic_stringIwSt11char_traitsIwESaIwEE13_M_set_lengthEj 149
_ZNSt7__cxx1112basic_stringIwSt11char_traitsIwESaIwEE6assignIPKcvEERS4_T_S9_ _ZNSt7__cxx1112basic_stringIwSt11char_traitsIwESaIwEE10_M_replaceEjjPKwj 184
_ZNSt7__cxx1112basic_stringIwSt11char_traitsIwESaIwEE6assignIPKcvEERS4_T_S9_ _ZNSt7__cxx1112basic_stringIwSt11char_traitsIwESaIwEE10_M_disposeEv 198
_ZNSt7__cxx1112basic_stringIwSt11char_traitsIwESaIwEE6assignIPKcvEERS4_T_S9_ _ZNSt7__cxx1112basic_stringIwSt11char_traitsIwESaIwEE10_M_disposeEv 223
_ZNSt7__cxx1112basic_stringIwSt11char_traitsIwESaIwEE6assignIPKcvEERS4_T_S9_ _Unwind_Resume 234
_ZNSt7__cxx1112basic_stringIwSt11char_traitsIwESaIwEE6assignIPKcvEERS4_T_S9_ .LC0 240
_ZNSt7__cxx1112basic_stringIwSt11char_traitsIwESaIwEE6assignIPKcvEERS4_T_S9_ _ZSt19__throw_logic_errorPKc 251
_ZNKSt12experimental10filesystem2v17__cxx114path9root_nameEv __x86.get_pc_thunk.di 7
_ZNKSt12experimental10filesystem2v17__cxx114path9root_nameEv _ZNSt12experimental10filesystem2v17__cxx114pathC1Ev 33
_ZNKSt12experimental10filesystem2v17__cxx114path9root_nameEv _ZNSt12experimental10filesystem2v17__cxx114pathaSERKS3_ 89
_ZNKSt12experimental10filesystem2v17__cxx114path9root_nameEv _ZNSt12experimental10filesystem2v17__cxx114pathD1Ev 108
_ZNKSt12experimental10filesystem2v17__cxx114path9root_nameEv _Unwind_Resume 119
_ZNKSt12experimental10filesystem2v17__cxx114path14root_directoryEv __x86.get_pc_thunk.di 7
_ZNKSt12experimental10filesystem2v17__cxx114path14root_directoryEv _ZNSt12experimental10filesystem2v17__cxx114pathC1Ev 33
_ZNKSt12experimental10filesystem2v17__cxx114path14root_directoryEv _ZNSt12experimental10filesystem2v17__cxx114pathaSERKS3_ 91
_ZNKSt12experimental10filesystem2v17__cxx114path14root_directoryEv _ZNSt12experimental10filesystem2v17__cxx114pathD1Ev 110
_ZNKSt12experimental10filesystem2v17__cxx114path14root_directoryEv _Unwind_Resume 121
_ZNKSt12experimental10filesystem2v17__cxx114path9root_pathEv __x86.get_pc_thunk.ax 2
_ZNKSt12experimental10filesystem2v17__cxx114path9root_pathEv _ZNSt12experimental10filesystem2v17__cxx114pathC1Ev 29
_ZNKSt12experimental10filesystem2v17__cxx114path9root_pathEv _ZNSt12experimental10filesystem2v17__cxx114pathaSERKS3_ 89
_ZNKSt12experimental10filesystem2v17__cxx114path9root_pathEv _ZNSt12experimental10filesystem2v17__cxx114pathaSERKS3_ 127
_ZNKSt12experimental10filesystem2v17__cxx114path9root_pathEv _ZNSt12experimental10filesystem2v17__cxx114pathD1Ev 146
_ZNKSt12experimental10filesystem2v17__cxx114path9root_pathEv _Unwind_Resume 157
_ZNKSt12experimental10filesystem2v17__cxx114path9root_pathEv _ZNSt7__cxx1112basic_stringIcSt11char_traitsIcESaIcEE9push_backEc 170
_ZNKSt12experimental10filesystem2v17__cxx114path9root_pathEv _ZNSt12experimental10filesystem2v17__cxx114path14_M_split_cmptsEv 181
_ZNKSt12experimental10filesystem2v17__cxx114path13relative_pathEv __x86.get_pc_thunk.si 7
_ZNKSt12experimental10filesystem2v17__cxx114path13relative_pathEv _ZNSt12experimental10filesystem2v17__cxx114pathC1Ev 29
_ZNKSt12experimental10filesystem2v17__cxx114path13relative_pathEv _ZNSt12experimental10filesystem2v17__cxx114pathaSERKS3_ 49
_ZNKSt12experimental10filesystem2v17__cxx114path13relative_pathEv _ZNKSt7__cxx1112basic_stringIcSt11char_traitsIcESaIcEE6substrEjj 123
_ZNKSt12experimental10filesystem2v17__cxx114path13relative_pathEv _ZNSt7__cxx1112basic_stringIcSt11char_traitsIcESaIcEEC1EOS4_ 136
_ZNKSt12experimental10filesystem2v17__cxx114path13relative_pathEv _ZNSt12experimental10filesystem2v17__cxx114path14_M_split_cmptsEv 169
_ZNKSt12experimental10filesystem2v17__cxx114path13relative_pathEv _ZNSt12experimental10filesystem2v17__cxx114pathaSEOS3_ 180
_ZNKSt12experimental10filesystem2v17__cxx114path13relative_pathEv _ZNSt12experimental10filesystem2v17__cxx114pathD1Ev 188
_ZNKSt12experimental10filesystem2v17__cxx114path13relative_pathEv _ZNSt7__cxx1112basic_stringIcSt11char_traitsIcESaIcEE10_M_disposeEv 197
_ZNKSt12experimental10filesystem2v17__cxx114path13relative_pathEv _ZNSt6vectorINSt12experimental10filesystem2v17__cxx114path5_CmptESaIS5_EED1Ev 219
_ZNKSt12experimental10filesystem2v17__cxx114path13relative_pathEv _ZNSt7__cxx1112basic_stringIcSt11char_traitsIcESaIcEE10_M_disposeEv 227
_ZNKSt12experimental10filesystem2v17__cxx114path13relative_pathEv _ZNSt7__cxx1112basic_stringIcSt11char_traitsIcESaIcEE10_M_disposeEv 236
_ZNKSt12experimental10filesystem2v17__cxx114path13relative_pathEv _ZNSt12experimental10filesystem2v17__cxx114pathD1Ev 260
_ZNKSt12experimental10filesystem2v17__cxx114path13relative_pathEv _Unwind_Resume 271
_ZNSt7__cxx1112basic_stringIcSt11char_traitsIcESaIcEE6assignIPKwvEERS4_T_S9_ __x86.get_pc_thunk.si 7
_ZNSt7__cxx1112basic_stringIcSt11char_traitsIcESaIcEE6assignIPKwvEERS4_T_S9_ _ZNSt7__cxx1112basic_stringIcSt11char_traitsIcESaIcEE9_M_createERjj 90
_ZNSt7__cxx1112basic_stringIcSt11char_traitsIcESaIcEE6assignIPKwvEERS4_T_S9_ _ZNSt7__cxx1112basic_stringIcSt11char_traitsIcESaIcEE10_M_replaceEjjPKcj 167
_ZNSt7__cxx1112basic_stringIcSt11char_traitsIcESaIcEE6assignIPKwvEERS4_T_S9_ _ZNSt7__cxx1112basic_stringIcSt11char_traitsIcESaIcEE10_M_disposeEv 181
_ZNSt7__cxx1112basic_stringIcSt11char_traitsIcESaIcEE6assignIPKwvEERS4_T_S9_ _ZNSt7__cxx1112basic_stringIcSt11char_traitsIcESaIcEE10_M_disposeEv 206
_ZNSt7__cxx1112basic_stringIcSt11char_traitsIcESaIcEE6assignIPKwvEERS4_T_S9_ _Unwind_Resume 217
_ZNSt7__cxx1112basic_stringIcSt11char_traitsIcESaIcEE6assignIPKwvEERS4_T_S9_ .LC0 223
_ZNSt7__cxx1112basic_stringIcSt11char_traitsIcESaIcEE6assignIPKwvEERS4_T_S9_ _ZSt19__throw_logic_errorPKc 234
_ZNSt12experimental10filesystem2v17__cxx114path4_CvtIwE10_S_convertEPKwS7_ __x86.get_pc_thunk.ax 2
_ZNSt12experimental10filesystem2v17__cxx114path4_CvtIwE10_S_convertEPKwS7_ _ZNSt7codecvtIwc11__mbstate_tEC2Ej 34
_ZNSt12experimental10filesystem2v17__cxx114path4_CvtIwE10_S_convertEPKwS7_ _ZTVSt12codecvt_utf8IwLm1114111ELSt12codecvt_mode0EE 78
_ZNSt12experimental10filesystem2v17__cxx114path4_CvtIwE10_S_convertEPKwS7_ _ZNKSt19__codecvt_utf8_baseIwE13do_max_lengthEv 128
_ZNSt12experimental10filesystem2v17__cxx114path4_CvtIwE10_S_convertEPKwS7_ _ZNSt7__cxx1112basic_stringIcSt11char_traitsIcESaIcEE6resizeEj 175
_ZNSt12experimental10filesystem2v17__cxx114path4_CvtIwE10_S_convertEPKwS7_ _ZNKSt23__codecvt_abstract_baseIwc11__mbstate_tE3outERS0_PKwS4_RS4_PcS6_RS6_ 218
_ZNSt12experimental10filesystem2v17__cxx114path4_CvtIwE10_S_convertEPKwS7_ _ZNSt7__cxx1112basic_stringIcSt11char_traitsIcESaIcEE6resizeEj 273
_ZNSt12experimental10filesystem2v17__cxx114path4_CvtIwE10_S_convertEPKwS7_ _ZNSt7__cxx1112basic_stringIcSt11char_traitsIcESaIcEE10_M_disposeEv 295
_ZNSt12experimental10filesystem2v17__cxx114path4_CvtIwE10_S_convertEPKwS7_ _ZNSt12codecvt_utf8IwLm1114111ELSt12codecvt_mode0EED1Ev 309
_ZNSt12experimental10filesystem2v17__cxx114path4_CvtIwE10_S_convertEPKwS7_ _Unwind_Resume 320
_ZNSt12experimental10filesystem2v17__cxx114path4_CvtIwE10_S_convertEPKwS7_ _ZNSt7__cxx1112basic_stringIcSt11char_traitsIcESaIcEE6assignIPKwvEERS4_T_S9_ 336
_ZNSt12experimental10filesystem2v17__cxx114path4_CvtIwE10_S_convertEPKwS7_ __cxa_allocate_exception 354
_ZNSt12experimental10filesystem2v17__cxx114path4_CvtIwE10_S_convertEPKwS7_ _ZNSt3_V216generic_categoryEv 365
_ZNSt12experimental10filesystem2v17__cxx114path4_CvtIwE10_S_convertEPKwS7_ .LC6 371
_ZNSt12experimental10filesystem2v17__cxx114path4_CvtIwE10_S_convertEPKwS7_ _ZNSt12experimental10filesystem2v17__cxx1116filesystem_errorC1ERKNSt7__cxx1112basic_stringIcSt11char_traitsIcESaIcEEESt10error_code 409
_ZNSt12experimental10filesystem2v17__cxx114path4_CvtIwE10_S_convertEPKwS7_ _ZNSt7__cxx1112basic_stringIcSt11char_traitsIcESaIcEE10_M_disposeEv 420
_ZNSt12experimental10filesystem2v17__cxx114path4_CvtIwE10_S_convertEPKwS7_ _ZNSt12experimental10filesystem2v17__cxx1116filesystem_errorD1Ev 432
_ZNSt12experimental10filesystem2v17__cxx114path4_CvtIwE10_S_convertEPKwS7_ _ZTINSt12experimental10filesystem2v17__cxx1116filesystem_errorE 438
_ZNSt12experimental10filesystem2v17__cxx114path4_CvtIwE10_S_convertEPKwS7_ __cxa_throw 448
_ZNSt12experimental10filesystem2v17__cxx114path4_CvtIwE10_S_convertEPKwS7_ _ZNSt7__cxx1112basic_stringIcSt11char_traitsIcESaIcEE10_M_disposeEv 463
_ZNSt12experimental10filesystem2v17__cxx114path4_CvtIwE10_S_convertEPKwS7_ __cxa_free_exception 489
_ZNSt12experimental10filesystem2v17__cxx114path4_CvtIwE10_S_convertEPKwS7_ _ZNSt12codecvt_utf8IwLm1114111ELSt12codecvt_mode0EED1Ev 512
_ZNSt12experimental10filesystem2v17__cxx114path14_S_convert_locEPKcS5_RKSt6locale __x86.get_pc_thunk.di 7
_ZNSt12experimental10filesystem2v17__cxx114path14_S_convert_locEPKcS5_RKSt6locale _ZSt9use_facetISt7codecvtIwc11__mbstate_tEERKT_RKSt6locale 26
_ZNSt12experimental10filesystem2v17__cxx114path14_S_convert_locEPKcS5_RKSt6locale _ZNSt7__cxx1112basic_stringIwSt11char_traitsIwESaIwEE6resizeEj 145
_ZNSt12experimental10filesystem2v17__cxx114path14_S_convert_locEPKcS5_RKSt6locale _ZNSt7__cxx1112basic_stringIwSt11char_traitsIwESaIwEE4backEv 163
_ZNSt12experimental10filesystem2v17__cxx114path14_S_convert_locEPKcS5_RKSt6locale _ZNKSt23__codecvt_abstract_baseIwc11__mbstate_tE2inERS0_PKcS4_RS4_PwS6_RS6_ 196
_ZNSt12experimental10filesystem2v17__cxx114path14_S_convert_locEPKcS5_RKSt6locale _ZNSt7__cxx1112basic_stringIwSt11char_traitsIwESaIwEE6resizeEj 258
_ZNSt12experimental10filesystem2v17__cxx114path14_S_convert_locEPKcS5_RKSt6locale _ZNSt7__cxx1112basic_stringIwSt11char_traitsIwESaIwEE10_M_disposeEv 279
_ZNSt12experimental10filesystem2v17__cxx114path14_S_convert_locEPKcS5_RKSt6locale _Unwind_Resume 287
_ZNSt12experimental10filesystem2v17__cxx114path14_S_convert_locEPKcS5_RKSt6locale _ZNSt7__cxx1112basic_stringIwSt11char_traitsIwESaIwEE6assignIPKcvEERS4_T_S9_ 304
_ZNSt12experimental10filesystem2v17__cxx114path14_S_convert_locEPKcS5_RKSt6locale _ZNSt12experimental10filesystem2v17__cxx114path4_CvtIwE10_S_convertEPKwS7_ 328
_ZNSt12experimental10filesystem2v17__cxx114path14_S_convert_locEPKcS5_RKSt6locale _ZNSt7__cxx1112basic_stringIwSt11char_traitsIwESaIwEE10_M_disposeEv 339
_ZNSt12experimental10filesystem2v17__cxx114path14_S_convert_locEPKcS5_RKSt6locale __cxa_allocate_exception 367
_ZNSt12experimental10filesystem2v17__cxx114path14_S_convert_locEPKcS5_RKSt6locale _ZNSt3_V216generic_categoryEv 375
_ZNSt12experimental10filesystem2v17__cxx114path14_S_convert_locEPKcS5_RKSt6locale .LC6 381
_ZNSt12experimental10filesystem2v17__cxx114path14_S_convert_locEPKcS5_RKSt6locale _ZNSt12experimental10filesystem2v17__cxx1116filesystem_errorC1ERKNSt7__cxx1112basic_stringIcSt11char_traitsIcESaIcEEESt10error_code 418
_ZNSt12experimental10filesystem2v17__cxx114path14_S_convert_locEPKcS5_RKSt6locale _ZNSt7__cxx1112basic_stringIcSt11char_traitsIcESaIcEE10_M_disposeEv 426
_ZNSt12experimental10filesystem2v17__cxx114path14_S_convert_locEPKcS5_RKSt6locale _ZNSt12experimental10filesystem2v17__cxx1116filesystem_errorD1Ev 435
_ZNSt12experimental10filesystem2v17__cxx114path14_S_convert_locEPKcS5_RKSt6locale _ZTINSt12experimental10filesystem2v17__cxx1116filesystem_errorE 441
_ZNSt12experimental10filesystem2v17__cxx114path14_S_convert_locEPKcS5_RKSt6locale __cxa_throw 449
_ZNSt12experimental10filesystem2v17__cxx114path14_S_convert_locEPKcS5_RKSt6locale _ZNSt7__cxx1112basic_stringIcSt11char_traitsIcESaIcEE10_M_disposeEv 463
_ZNSt12experimental10filesystem2v17__cxx114path14_S_convert_locEPKcS5_RKSt6locale __cxa_free_exception 488
_ZNSt23_Sp_counted_ptr_inplaceINSt12experimental10filesystem2v14_DirESaIS3_ELN9__gnu_cxx12_Lock_policyE2EE10_M_destroyEv __x86.get_pc_thunk.bx 5
_ZNSt23_Sp_counted_ptr_inplaceINSt12experimental10filesystem2v14_DirESaIS3_ELN9__gnu_cxx12_Lock_policyE2EE10_M_destroyEv _ZdlPv 22
_ZNSt23_Sp_counted_ptr_inplaceINSt12experimental10filesystem2v14_DirESaIS3_ELN9__gnu_cxx12_Lock_policyE2EED0Ev __x86.get_pc_thunk.bx 5
_ZNSt23_Sp_counted_ptr_inplaceINSt12experimental10filesystem2v14_DirESaIS3_ELN9__gnu_cxx12_Lock_policyE2EED0Ev _ZdlPvj 24
_ZNSt23_Sp_counted_ptr_inplaceINSt12experimental10filesystem2v128recursive_directory_iterator10_Dir_stackESaIS4_ELN9__gnu_cxx12_Lock_policyE2EED0Ev __x86.get_pc_thunk.bx 5
_ZNSt23_Sp_counted_ptr_inplaceINSt12experimental10filesystem2v128recursive_directory_iterator10_Dir_stackESaIS4_ELN9__gnu_cxx12_Lock_policyE2EED0Ev _ZdlPvj 24
_ZNSt23_Sp_counted_ptr_inplaceINSt12experimental10filesystem2v14_DirESaIS3_ELN9__gnu_cxx12_Lock_policyE2EE14_M_get_deleterERKSt9type_info __x86.get_pc_thunk.bx 9
_ZNSt23_Sp_counted_ptr_inplaceINSt12experimental10filesystem2v14_DirESaIS3_ELN9__gnu_cxx12_Lock_policyE2EE14_M_get_deleterERKSt9type_info _ZTSSt19_Sp_make_shared_tag 24
_ZNSt23_Sp_counted_ptr_inplaceINSt12experimental10filesystem2v14_DirESaIS3_ELN9__gnu_cxx12_Lock_policyE2EE14_M_get_deleterERKSt9type_info strcmp 44
_ZNSt23_Sp_counted_ptr_inplaceINSt12experimental10filesystem2v128recursive_directory_iterator10_Dir_stackESaIS4_ELN9__gnu_cxx12_Lock_policyE2EE10_M_destroyEv __x86.get_pc_thunk.bx 5
_ZNSt23_Sp_counted_ptr_inplaceINSt12experimental10filesystem2v128recursive_directory_iterator10_Dir_stackESaIS4_ELN9__gnu_cxx12_Lock_policyE2EE10_M_destroyEv _ZdlPv 22
_ZNSt23_Sp_counted_ptr_inplaceINSt12experimental10filesystem2v128recursive_directory_iterator10_Dir_stackESaIS4_ELN9__gnu_cxx12_Lock_policyE2EE14_M_get_deleterERKSt9type_info __x86.get_pc_thunk.bx 9
_ZNSt23_Sp_counted_ptr_inplaceINSt12experimental10filesystem2v128recursive_directory_iterator10_Dir_stackESaIS4_ELN9__gnu_cxx12_Lock_policyE2EE14_M_get_deleterERKSt9type_info _ZTSSt19_Sp_make_shared_tag 24
_ZNSt23_Sp_counted_ptr_inplaceINSt12experimental10filesystem2v128recursive_directory_iterator10_Dir_stackESaIS4_ELN9__gnu_cxx12_Lock_policyE2EE14_M_get_deleterERKSt9type_info strcmp 44
_ZNSt12system_errorC1ESt10error_codeRKSs,_ZNSt12system_errorC2ESt10error_codeRKSs __x86.get_pc_thunk.si 10
_ZNSt12system_errorC1ESt10error_codeRKSs,_ZNSt12system_errorC2ESt10error_codeRKSs _ZNSsC1ERKSs 66
_ZNSt12system_errorC1ESt10error_codeRKSs,_ZNSt12system_errorC2ESt10error_codeRKSs .LC0 73
_ZNSt12system_errorC1ESt10error_codeRKSs,_ZNSt12system_errorC2ESt10error_codeRKSs _ZNSs6appendEPKc 84
_ZNSt12system_errorC1ESt10error_codeRKSs,_ZNSt12system_errorC2ESt10error_codeRKSs _ZNSsD1Ev 136
_ZNSt12system_errorC1ESt10error_codeRKSs,_ZNSt12system_errorC2ESt10error_codeRKSs _ZNSsD1Ev 159
_ZNSt12system_errorC1ESt10error_codeRKSs,_ZNSt12system_errorC2ESt10error_codeRKSs _ZNSsD1Ev 184
_ZNSt12system_errorC1ESt10error_codeRKSs,_ZNSt12system_errorC2ESt10error_codeRKSs _Unwind_Resume 195
_ZNSt12system_errorC1ESt10error_codeRKSs,_ZNSt12system_errorC2ESt10error_codeRKSs _ZNSs6insertEjRKSs 212
_ZNSt12system_errorC1ESt10error_codeRKSs,_ZNSt12system_errorC2ESt10error_codeRKSs _ZNSs6appendERKSs 232
_ZNSt12system_errorC1ESt10error_codeRKSs,_ZNSt12system_errorC2ESt10error_codeRKSs _ZNSs4_Rep20_S_empty_rep_storageE 251
_ZNSt12system_errorC1ESt10error_codeRKSs,_ZNSt12system_errorC2ESt10error_codeRKSs _ZNSt13runtime_errorC2ERKSs 267
_ZNSt12system_errorC1ESt10error_codeRKSs,_ZNSt12system_errorC2ESt10error_codeRKSs _ZNSsD1Ev 275
_ZNSt12system_errorC1ESt10error_codeRKSs,_ZNSt12system_errorC2ESt10error_codeRKSs _ZNSsD1Ev 286
_ZNSt12system_errorC1ESt10error_codeRKSs,_ZNSt12system_errorC2ESt10error_codeRKSs _ZNSsD1Ev 297
_ZNSt12system_errorC1ESt10error_codeRKSs,_ZNSt12system_errorC2ESt10error_codeRKSs _ZTVSt12system_error 303
_ZNSt12experimental10filesystem2v14pathC1Ev,_ZNSt12experimental10filesystem2v14pathC2Ev __x86.get_pc_thunk.dx 2
_ZNSt12experimental10filesystem2v14pathC1Ev,_ZNSt12experimental10filesystem2v14pathC2Ev _ZNSs4_Rep20_S_empty_rep_storageE 16
_ZNKSt12experimental10filesystem2v14path6stringEv __x86.get_pc_thunk.bx 7
_ZNKSt12experimental10filesystem2v14path6stringEv _ZNSs4_Rep20_S_empty_rep_storageE 37
_ZNKSt12experimental10filesystem2v14path6stringEv _ZNSs4_Rep9_S_createEjjRKSaIcE 58
_ZNKSt12experimental10filesystem2v14path6stringEv _ZNSs13_S_copy_charsEPcPKcS1_ 81
_ZNKSt12experimental10filesystem2v14path6stringEv _ZNSs4_Rep26_M_set_length_and_sharableEj 93
_ZNSt12experimental10filesystem2v116filesystem_error11_M_gen_whatEv __x86.get_pc_thunk.si 10
_ZNSt12experimental10filesystem2v116filesystem_error11_M_gen_whatEv .LC1 29
_ZNSt12experimental10filesystem2v116filesystem_error11_M_gen_whatEv _ZNSsC1EPKcRKSaIcE 40
_ZNSt12experimental10filesystem2v116filesystem_error11_M_gen_whatEv _ZNKSt13runtime_error4whatEv 49
_ZNSt12experimental10filesystem2v116filesystem_error11_M_gen_whatEv _ZNSspLEPKc 60
_ZNSt12experimental10filesystem2v116filesystem_error11_M_gen_whatEv _ZNKSt12experimental10filesystem2v14path6stringEv 93
_ZNSt12experimental10filesystem2v116filesystem_error11_M_gen_whatEv .LC2 100
_ZNSt12experimental10filesystem2v116filesystem_error11_M_gen_whatEv _ZNSs6insertEjPKc 110
_ZNSt12experimental10filesystem2v116filesystem_error11_M_gen_whatEv _ZNSs4_Rep20_S_empty_rep_storageE 118
_ZNSt12experimental10filesystem2v116filesystem_error11_M_gen_whatEv _ZNSs6appendEjc 145
_ZNSt12experimental10filesystem2v116filesystem_error11_M_gen_whatEv _ZNSspLERKSs 171
_ZNSt12experimental10filesystem2v116filesystem_error11_M_gen_whatEv _ZNSsD1Ev 180
_ZNSt12experimental10filesystem2v116filesystem_error11_M_gen_whatEv _ZNSsD1Ev 188
_ZNSt12experimental10filesystem2v116filesystem_error11_M_gen_whatEv _ZNSsD1Ev 199
_ZNSt12experimental10filesystem2v116filesystem_error11_M_gen_whatEv _ZNKSt12experimental10filesystem2v14path6stringEv 238
_ZNSt12experimental10filesystem2v116filesystem_error11_M_gen_whatEv .LC2 246
_ZNSt12experimental10filesystem2v116filesystem_error11_M_gen_whatEv _ZNSs6insertEjPKc 255
_ZNSt12experimental10filesystem2v116filesystem_error11_M_gen_whatEv _ZNSs4_Rep20_S_empty_rep_storageE 263
_ZNSt12experimental10filesystem2v116filesystem_error11_M_gen_whatEv _ZNSs6appendEjc 293
_ZNSt12experimental10filesystem2v116filesystem_error11_M_gen_whatEv _ZNSspLERKSs 319
_ZNSt12experimental10filesystem2v116filesystem_error11_M_gen_whatEv _ZNSsD1Ev 328
_ZNSt12experimental10filesystem2v116filesystem_error11_M_gen_whatEv _ZNSsD1Ev 337
_ZNSt12experimental10filesystem2v116filesystem_error11_M_gen_whatEv _ZNSsD1Ev 345
_ZNSt12experimental10filesystem2v116filesystem_error11_M_gen_whatEv _ZNSsD1Ev 369
_ZNSt12experimental10filesystem2v116filesystem_error11_M_gen_whatEv _ZNSsD1Ev 394
_ZNSt12experimental10filesystem2v116filesystem_error11_M_gen_whatEv _ZNSsD1Ev 430
_ZNSt12experimental10filesystem2v116filesystem_error11_M_gen_whatEv _ZNSsD1Ev 455
_ZNSt12experimental10filesystem2v116filesystem_error11_M_gen_whatEv _ZNSsD1Ev 477
_ZNSt12experimental10filesystem2v116filesystem_error11_M_gen_whatEv _ZNSsD1Ev 501
_ZNSt12experimental10filesystem2v116filesystem_error11_M_gen_whatEv _Unwind_Resume 512
_ZNSt12experimental10filesystem2v14_DirC1EOS2_,_ZNSt12experimental10filesystem2v14_DirC2EOS2_ __x86.get_pc_thunk.bx 7
_ZNSt12experimental10filesystem2v14_DirC1EOS2_,_ZNSt12experimental10filesystem2v14_DirC2EOS2_ _ZNSs4_Rep20_S_empty_rep_storageE 53
_ZNSt12experimental10filesystem2v14_DirC1EOS2_,_ZNSt12experimental10filesystem2v14_DirC2EOS2_ _ZNSt12experimental10filesystem2v14path14_M_split_cmptsEv 95
_ZNSt12experimental10filesystem2v14_DirC1EOS2_,_ZNSt12experimental10filesystem2v14_DirC2EOS2_ _ZNSs5clearEv 103
_ZNSt12experimental10filesystem2v14_DirC1EOS2_,_ZNSt12experimental10filesystem2v14_DirC2EOS2_ _ZNSt12experimental10filesystem2v14path14_M_split_cmptsEv 111
_ZNSt12experimental10filesystem2v14_DirC1EOS2_,_ZNSt12experimental10filesystem2v14_DirC2EOS2_ _ZNSt12experimental10filesystem2v14path14_M_split_cmptsEv 167
_ZNSt12experimental10filesystem2v14_DirC1EOS2_,_ZNSt12experimental10filesystem2v14_DirC2EOS2_ _ZNSs5clearEv 175
_ZNSt12experimental10filesystem2v14_DirC1EOS2_,_ZNSt12experimental10filesystem2v14_DirC2EOS2_ _ZNSt12experimental10filesystem2v14path14_M_split_cmptsEv 183
_ZNSt6vectorINSt12experimental10filesystem2v14path5_CmptESaIS4_EED1Ev,_ZNSt6vectorINSt12experimental10filesystem2v14path5_CmptESaIS4_EED2Ev __x86.get_pc_thunk.bx 10
_ZNSt6vectorINSt12experimental10filesystem2v14path5_CmptESaIS4_EED1Ev,_ZNSt6vectorINSt12experimental10filesystem2v14path5_CmptESaIS4_EED2Ev _ZNSt12_Destroy_auxILb0EE9__destroyIPNSt12experimental10filesystem2v14path5_CmptEEEvT_S8_ 27
_ZNSt12experimental10filesystem2v14pathD1Ev,_ZNSt12experimental10filesystem2v14pathD2Ev __x86.get_pc_thunk.bx 12
_ZNSt12experimental10filesystem2v14pathD1Ev,_ZNSt12experimental10filesystem2v14pathD2Ev _ZNSt6vectorINSt12experimental10filesystem2v14path5_CmptESaIS4_EED1Ev 27
_ZNSt12experimental10filesystem2v14pathD1Ev,_ZNSt12experimental10filesystem2v14pathD2Ev _ZNSsD1Ev 35
_ZNSt12experimental10filesystem2v14_DirD1Ev,_ZNSt12experimental10filesystem2v14_DirD2Ev __x86.get_pc_thunk.bx 9
_ZNSt12experimental10filesystem2v14_DirD1Ev,_ZNSt12experimental10filesystem2v14_DirD2Ev closedir 30
_ZNSt12experimental10filesystem2v14_DirD1Ev,_ZNSt12experimental10filesystem2v14_DirD2Ev _ZNSt12experimental10filesystem2v14pathD1Ev 48
_ZNSt12experimental10filesystem2v14_DirD1Ev,_ZNSt12experimental10filesystem2v14_DirD2Ev _ZNSt12experimental10filesystem2v14pathD1Ev 56
_ZNSt23_Sp_counted_ptr_inplaceINSt12experimental10filesystem2v14_DirESaIS3_ELN9__gnu_cxx12_Lock_policyE2EE10_M_disposeEv __x86.get_pc_thunk.bx 5
_ZNSt23_Sp_counted_ptr_inplaceINSt12experimental10filesystem2v14_DirESaIS3_ELN9__gnu_cxx12_Lock_policyE2EE10_M_disposeEv _ZNSt12experimental10filesystem2v14_DirD1Ev 26
_ZNSt12experimental10filesystem2v116filesystem_errorC1ERKSsSt10error_code,_ZNSt12experimental10filesystem2v116filesystem_errorC2ERKSsSt10error_code __x86.get_pc_thunk.si 7
_ZNSt12experimental10filesystem2v116filesystem_errorC1ERKSsSt10error_code,_ZNSt12experimental10filesystem2v116filesystem_errorC2ERKSsSt10error_code _ZNSt12system_errorC2ESt10error_codeRKSs 36
_ZNSt12experimental10filesystem2v116filesystem_errorC1ERKSsSt10error_code,_ZNSt12experimental10filesystem2v116filesystem_errorC2ERKSsSt10error_code _ZTVNSt12experimental10filesystem2v116filesystem_errorE 42
_ZNSt12experimental10filesystem2v116filesystem_errorC1ERKSsSt10error_code,_ZNSt12experimental10filesystem2v116filesystem_errorC2ERKSsSt10error_code _ZNSt12experimental10filesystem2v14pathC1Ev 61
_ZNSt12experimental10filesystem2v116filesystem_errorC1ERKSsSt10error_code,_ZNSt12experimental10filesystem2v116filesystem_errorC2ERKSsSt10error_code _ZNSt12experimental10filesystem2v14pathC1Ev 75
_ZNSt12experimental10filesystem2v116filesystem_errorC1ERKSsSt10error_code,_ZNSt12experimental10filesystem2v116filesystem_errorC2ERKSsSt10error_code _ZNSt12experimental10filesystem2v116filesystem_error11_M_gen_whatEv 87
_ZNSt12experimental10filesystem2v116filesystem_errorC1ERKSsSt10error_code,_ZNSt12experimental10filesystem2v116filesystem_errorC2ERKSsSt10error_code _ZNSt12experimental10filesystem2v14pathD1Ev 114
_ZNSt12experimental10filesystem2v116filesystem_errorC1ERKSsSt10error_code,_ZNSt12experimental10filesystem2v116filesystem_errorC2ERKSsSt10error_code _ZNSt12experimental10filesystem2v14pathD1Ev 123
_ZNSt12experimental10filesystem2v116filesystem_errorC1ERKSsSt10error_code,_ZNSt12experimental10filesystem2v116filesystem_errorC2ERKSsSt10error_code _ZNSt12system_errorD2Ev 131
_ZNSt12experimental10filesystem2v116filesystem_errorC1ERKSsSt10error_code,_ZNSt12experimental10filesystem2v116filesystem_errorC2ERKSsSt10error_code _Unwind_Resume 142
_ZNKSt12experimental10filesystem2v118directory_iteratordeEv __x86.get_pc_thunk.si 7
_ZNKSt12experimental10filesystem2v118directory_iteratordeEv __cxa_allocate_exception 44
_ZNKSt12experimental10filesystem2v118directory_iteratordeEv _ZNSt3_V216generic_categoryEv 52
_ZNKSt12experimental10filesystem2v118directory_iteratordeEv .LC3 75
_ZNKSt12experimental10filesystem2v118directory_iteratordeEv _ZNSsC1EPKcRKSaIcE 82
_ZNKSt12experimental10filesystem2v118directory_iteratordeEv _ZNSt12experimental10filesystem2v116filesystem_errorC1ERKSsSt10error_code 100
_ZNKSt12experimental10filesystem2v118directory_iteratordeEv _ZNSsD1Ev 108
_ZNKSt12experimental10filesystem2v118directory_iteratordeEv _ZNSt12experimental10filesystem2v116filesystem_errorD1Ev 117
_ZNKSt12experimental10filesystem2v118directory_iteratordeEv _ZTINSt12experimental10filesystem2v116filesystem_errorE 123
_ZNKSt12experimental10filesystem2v118directory_iteratordeEv __cxa_throw 131
_ZNKSt12experimental10filesystem2v118directory_iteratordeEv _ZNSsD1Ev 145
_ZNKSt12experimental10filesystem2v118directory_iteratordeEv __cxa_free_exception 169
_ZNKSt12experimental10filesystem2v118directory_iteratordeEv _Unwind_Resume 180
_ZNSt12experimental10filesystem2v14pathaSEOS2_ __x86.get_pc_thunk.bx 7
_ZNSt12experimental10filesystem2v14pathaSEOS2_ _ZNSs4swapERSs 29
_ZNSt12experimental10filesystem2v14pathaSEOS2_ _ZNSt6vectorINSt12experimental10filesystem2v14path5_CmptESaIS4_EED1Ev 116
_ZNSt12experimental10filesystem2v14pathaSEOS2_ _ZNSs5clearEv 130
_ZNSt12experimental10filesystem2v14pathaSEOS2_ _ZNSt12experimental10filesystem2v14path14_M_split_cmptsEv 138
_ZNSt6vectorINSt12experimental10filesystem2v14path5_CmptESaIS4_EEC1ERKS6_,_ZNSt6vectorINSt12experimental10filesystem2v14path5_CmptESaIS4_EEC2ERKS6_ __x86.get_pc_thunk.ax 2
_ZNSt6vectorINSt12experimental10filesystem2v14path5_CmptESaIS4_EEC1ERKS6_,_ZNSt6vectorINSt12experimental10filesystem2v14path5_CmptESaIS4_EEC2ERKS6_ _ZSt17__throw_bad_allocv 79
_ZNSt6vectorINSt12experimental10filesystem2v14path5_CmptESaIS4_EEC1ERKS6_,_ZNSt6vectorINSt12experimental10filesystem2v14path5_CmptESaIS4_EEC2ERKS6_ _Znwj 94
_ZNSt6vectorINSt12experimental10filesystem2v14path5_CmptESaIS4_EEC1ERKS6_,_ZNSt6vectorINSt12experimental10filesystem2v14path5_CmptESaIS4_EEC2ERKS6_ _ZNSt12experimental10filesystem2v14pathC2ERKS2_ 156
_ZNSt6vectorINSt12experimental10filesystem2v14path5_CmptESaIS4_EEC1ERKS6_,_ZNSt6vectorINSt12experimental10filesystem2v14path5_CmptESaIS4_EEC2ERKS6_ __cxa_begin_catch 203
_ZNSt6vectorINSt12experimental10filesystem2v14path5_CmptESaIS4_EEC1ERKS6_,_ZNSt6vectorINSt12experimental10filesystem2v14path5_CmptESaIS4_EEC2ERKS6_ _ZNSt12experimental10filesystem2v14pathD2Ev 225
_ZNSt6vectorINSt12experimental10filesystem2v14path5_CmptESaIS4_EEC1ERKS6_,_ZNSt6vectorINSt12experimental10filesystem2v14path5_CmptESaIS4_EEC2ERKS6_ __cxa_rethrow 235
_ZNSt6vectorINSt12experimental10filesystem2v14path5_CmptESaIS4_EEC1ERKS6_,_ZNSt6vectorINSt12experimental10filesystem2v14path5_CmptESaIS4_EEC2ERKS6_ __cxa_end_catch 245
_ZNSt6vectorINSt12experimental10filesystem2v14path5_CmptESaIS4_EEC1ERKS6_,_ZNSt6vectorINSt12experimental10filesystem2v14path5_CmptESaIS4_EEC2ERKS6_ _ZdlPv 266
_ZNSt6vectorINSt12experimental10filesystem2v14path5_CmptESaIS4_EEC1ERKS6_,_ZNSt6vectorINSt12experimental10filesystem2v14path5_CmptESaIS4_EEC2ERKS6_ _Unwind_Resume 281
_ZNSt12experimental10filesystem2v14pathC1ERKS2_,_ZNSt12experimental10filesystem2v14pathC2ERKS2_ __x86.get_pc_thunk.ax 2
_ZNSt12experimental10filesystem2v14pathC1ERKS2_,_ZNSt12experimental10filesystem2v14pathC2ERKS2_ _ZNSsC1ERKSs 33
_ZNSt12experimental10filesystem2v14pathC1ERKS2_,_ZNSt12experimental10filesystem2v14pathC2ERKS2_ _ZNSt20__uninitialized_copyILb0EE13__uninit_copyIN9__gnu_cxx17__normal_iteratorIPKNSt12experimental10filesystem2v14path5_CmptESt6vectorIS8_SaIS8_EEEEPS8_EET0_T_SH_SG_ 114
_ZNSt12experimental10filesystem2v14pathC1ERKS2_,_ZNSt12experimental10filesystem2v14pathC2ERKS2_ _ZNSsD1Ev 160
_ZNSt12experimental10filesystem2v14pathC1ERKS2_,_ZNSt12experimental10filesystem2v14pathC2ERKS2_ _Unwind_Resume 171
_ZNSt12experimental10filesystem2v14_Dir7advanceEPSt10error_codeNS1_17directory_optionsE __x86.get_pc_thunk.si 7
_ZNSt12experimental10filesystem2v14_Dir7advanceEPSt10error_codeNS1_17directory_optionsE _ZNSt3_V215system_categoryEv 36
_ZNSt12experimental10filesystem2v14_Dir7advanceEPSt10error_codeNS1_17directory_optionsE __errno_location 52
_ZNSt12experimental10filesystem2v14_Dir7advanceEPSt10error_codeNS1_17directory_optionsE readdir 76
_ZNSt12experimental10filesystem2v14_Dir7advanceEPSt10error_codeNS1_17directory_optionsE __errno_location 87
_ZNSt12experimental10filesystem2v14_Dir7advanceEPSt10error_codeNS1_17directory_optionsE .LC4 118
_ZNSt12experimental10filesystem2v14_Dir7advanceEPSt10error_codeNS1_17directory_optionsE strcmp 128
_ZNSt12experimental10filesystem2v14_Dir7advanceEPSt10error_codeNS1_17directory_optionsE .LC5 146
_ZNSt12experimental10filesystem2v14_Dir7advanceEPSt10error_codeNS1_17directory_optionsE strcmp 153
_ZNSt12experimental10filesystem2v14_Dir7advanceEPSt10error_codeNS1_17directory_optionsE _ZNSsC1EPKcRKSaIcE 207
_ZNSt12experimental10filesystem2v14_Dir7advanceEPSt10error_codeNS1_17directory_optionsE _ZNSt12experimental10filesystem2v14path14_M_split_cmptsEv 241
_ZNSt12experimental10filesystem2v14_Dir7advanceEPSt10error_codeNS1_17directory_optionsE _ZNSt12experimental10filesystem2v14pathC1ERKS2_ 256
_ZNSt12experimental10filesystem2v14_Dir7advanceEPSt10error_codeNS1_17directory_optionsE _ZNSt6vectorINSt12experimental10filesystem2v14path5_CmptESaIS4_EED1Ev 274
_ZNSt12experimental10filesystem2v14_Dir7advanceEPSt10error_codeNS1_17directory_optionsE _ZNSsD1Ev 283
_ZNSt12experimental10filesystem2v14_Dir7advanceEPSt10error_codeNS1_17directory_optionsE _ZNSspLERKSs 313
_ZNSt12experimental10filesystem2v14_Dir7advanceEPSt10error_codeNS1_17directory_optionsE _ZNSt12experimental10filesystem2v14path14_M_split_cmptsEv 321
_ZNSt12experimental10filesystem2v14_Dir7advanceEPSt10error_codeNS1_17directory_optionsE _ZNSs4backEv 334
_ZNSt12experimental10filesystem2v14_Dir7advanceEPSt10error_codeNS1_17directory_optionsE _ZNSt12experimental10filesystem2v14pathC1ERKS2_ 376
_ZNSt12experimental10filesystem2v14_Dir7advanceEPSt10error_codeNS1_17directory_optionsE _ZNSt12experimental10filesystem2v14pathD1Ev 384
_ZNSt12experimental10filesystem2v14_Dir7advanceEPSt10error_codeNS1_17directory_optionsE _ZNSt12experimental10filesystem2v14pathC1ERKS2_ 402
_ZNSt12experimental10filesystem2v14_Dir7advanceEPSt10error_codeNS1_17directory_optionsE _ZNSt12experimental10filesystem2v14pathaSEOS2_ 417
_ZNSt12experimental10filesystem2v14_Dir7advanceEPSt10error_codeNS1_17directory_optionsE _ZNSt12experimental10filesystem2v14pathD1Ev 425
_ZNSt12experimental10filesystem2v14_Dir7advanceEPSt10error_codeNS1_17directory_optionsE _ZNSt12experimental10filesystem2v14pathD1Ev 436
_ZNSt12experimental10filesystem2v14_Dir7advanceEPSt10error_codeNS1_17directory_optionsE _ZNSt12experimental10filesystem2v14pathD1Ev 445
_ZNSt12experimental10filesystem2v14_Dir7advanceEPSt10error_codeNS1_17directory_optionsE _ZNSt12experimental10filesystem2v14pathC1Ev 542
_ZNSt12experimental10filesystem2v14_Dir7advanceEPSt10error_codeNS1_17directory_optionsE _ZNSt12experimental10filesystem2v14pathaSEOS2_ 557
_ZNSt12experimental10filesystem2v14_Dir7advanceEPSt10error_codeNS1_17directory_optionsE _ZNSt12experimental10filesystem2v14pathD1Ev 565
_ZNSt12experimental10filesystem2v14_Dir7advanceEPSt10error_codeNS1_17directory_optionsE _ZNSt12experimental10filesystem2v14pathD1Ev 598
_ZNSt12experimental10filesystem2v14_Dir7advanceEPSt10error_codeNS1_17directory_optionsE _ZNSt12experimental10filesystem2v14pathD1Ev 622
_ZNSt12experimental10filesystem2v14_Dir7advanceEPSt10error_codeNS1_17directory_optionsE _Unwind_Resume 633
_ZNSt12experimental10filesystem2v14_Dir7advanceEPSt10error_codeNS1_17directory_optionsE _ZNSsD1Ev 647
_ZNSt12experimental10filesystem2v14_Dir7advanceEPSt10error_codeNS1_17directory_optionsE __cxa_free_exception 668
_ZNSt12experimental10filesystem2v14_Dir7advanceEPSt10error_codeNS1_17directory_optionsE _ZNSs9push_backEc 685
_ZNSt12experimental10filesystem2v14_Dir7advanceEPSt10error_codeNS1_17directory_optionsE __cxa_allocate_exception 715
_ZNSt12experimental10filesystem2v14_Dir7advanceEPSt10error_codeNS1_17directory_optionsE _ZNSt3_V216generic_categoryEv 723
_ZNSt12experimental10filesystem2v14_Dir7advanceEPSt10error_codeNS1_17directory_optionsE .LC6 742
_ZNSt12experimental10filesystem2v14_Dir7advanceEPSt10error_codeNS1_17directory_optionsE _ZNSsC1EPKcRKSaIcE 752
_ZNSt12experimental10filesystem2v14_Dir7advanceEPSt10error_codeNS1_17directory_optionsE _ZNSt12experimental10filesystem2v116filesystem_errorC1ERKSsSt10error_code 770
_ZNSt12experimental10filesystem2v14_Dir7advanceEPSt10error_codeNS1_17directory_optionsE _ZNSsD1Ev 778
_ZNSt12experimental10filesystem2v14_Dir7advanceEPSt10error_codeNS1_17directory_optionsE _ZNSt12experimental10filesystem2v116filesystem_errorD1Ev 787
_ZNSt12experimental10filesystem2v14_Dir7advanceEPSt10error_codeNS1_17directory_optionsE _ZTINSt12experimental10filesystem2v116filesystem_errorE 793
_ZNSt12experimental10filesystem2v14_Dir7advanceEPSt10error_codeNS1_17directory_optionsE __cxa_throw 801
_ZNSt12experimental10filesystem2v14_Dir7advanceEPSt10error_codeNS1_17directory_optionsE _ZNSt3_V216generic_categoryEv 811
_ZNSt12experimental10filesystem2v116filesystem_errorC1ERKSsRKNS1_4pathESt10error_code,_ZNSt12experimental10filesystem2v116filesystem_errorC2ERKSsRKNS1_4pathESt10error_code __x86.get_pc_thunk.si 7
_ZNSt12experimental10filesystem2v116filesystem_errorC1ERKSsRKNS1_4pathESt10error_code,_ZNSt12experimental10filesystem2v116filesystem_errorC2ERKSsRKNS1_4pathESt10error_code _ZNSt12system_errorC2ESt10error_codeRKSs 36
_ZNSt12experimental10filesystem2v116filesystem_errorC1ERKSsRKNS1_4pathESt10error_code,_ZNSt12experimental10filesystem2v116filesystem_errorC2ERKSsRKNS1_4pathESt10error_code _ZTVNSt12experimental10filesystem2v116filesystem_errorE 42
_ZNSt12experimental10filesystem2v116filesystem_errorC1ERKSsRKNS1_4pathESt10error_code,_ZNSt12experimental10filesystem2v116filesystem_errorC2ERKSsRKNS1_4pathESt10error_code _ZNSt12experimental10filesystem2v14pathC1ERKS2_ 64
_ZNSt12experimental10filesystem2v116filesystem_errorC1ERKSsRKNS1_4pathESt10error_code,_ZNSt12experimental10filesystem2v116filesystem_errorC2ERKSsRKNS1_4pathESt10error_code _ZNSt12experimental10filesystem2v14pathC1Ev 78
_ZNSt12experimental10filesystem2v116filesystem_errorC1ERKSsRKNS1_4pathESt10error_code,_ZNSt12experimental10filesystem2v116filesystem_errorC2ERKSsRKNS1_4pathESt10error_code _ZNSt12experimental10filesystem2v116filesystem_error11_M_gen_whatEv 90
_ZNSt12experimental10filesystem2v116filesystem_errorC1ERKSsRKNS1_4pathESt10error_code,_ZNSt12experimental10filesystem2v116filesystem_errorC2ERKSsRKNS1_4pathESt10error_code _ZNSt12experimental10filesystem2v14pathD1Ev 117
_ZNSt12experimental10filesystem2v116filesystem_errorC1ERKSsRKNS1_4pathESt10error_code,_ZNSt12experimental10filesystem2v116filesystem_errorC2ERKSsRKNS1_4pathESt10error_code _ZNSt12experimental10filesystem2v14pathD1Ev 126
_ZNSt12experimental10filesystem2v116filesystem_errorC1ERKSsRKNS1_4pathESt10error_code,_ZNSt12experimental10filesystem2v116filesystem_errorC2ERKSsRKNS1_4pathESt10error_code _ZNSt12system_errorD2Ev 148
_ZNSt12experimental10filesystem2v116filesystem_errorC1ERKSsRKNS1_4pathESt10error_code,_ZNSt12experimental10filesystem2v116filesystem_errorC2ERKSsRKNS1_4pathESt10error_code _Unwind_Resume 159
_ZN12_GLOBAL__N_18open_dirERKNSt12experimental10filesystem2v14pathENS2_17directory_optionsEPSt10error_code __x86.get_pc_thunk.di 9
_ZN12_GLOBAL__N_18open_dirERKNSt12experimental10filesystem2v14pathENS2_17directory_optionsEPSt10error_code _ZNSt3_V215system_categoryEv 37
_ZN12_GLOBAL__N_18open_dirERKNSt12experimental10filesystem2v14pathENS2_17directory_optionsEPSt10error_code opendir 64
_ZN12_GLOBAL__N_18open_dirERKNSt12experimental10filesystem2v14pathENS2_17directory_optionsEPSt10error_code _ZNSt12experimental10filesystem2v14pathC1ERKS2_ 93
_ZN12_GLOBAL__N_18open_dirERKNSt12experimental10filesystem2v14pathENS2_17directory_optionsEPSt10error_code __errno_location 105
_ZN12_GLOBAL__N_18open_dirERKNSt12experimental10filesystem2v14pathENS2_17directory_optionsEPSt10error_code _ZNSt12experimental10filesystem2v14pathC1Ev 141
_ZN12_GLOBAL__N_18open_dirERKNSt12experimental10filesystem2v14pathENS2_17directory_optionsEPSt10error_code _ZNSt12experimental10filesystem2v14pathC1Ev 150
_ZN12_GLOBAL__N_18open_dirERKNSt12experimental10filesystem2v14pathENS2_17directory_optionsEPSt10error_code __cxa_allocate_exception 188
_ZN12_GLOBAL__N_18open_dirERKNSt12experimental10filesystem2v14pathENS2_17directory_optionsEPSt10error_code _ZNSt3_V216generic_categoryEv 196
_ZN12_GLOBAL__N_18open_dirERKNSt12experimental10filesystem2v14pathENS2_17directory_optionsEPSt10error_code .LC7 215
_ZN12_GLOBAL__N_18open_dirERKNSt12experimental10filesystem2v14pathENS2_17directory_optionsEPSt10error_code _ZNSsC1EPKcRKSaIcE 225
_ZN12_GLOBAL__N_18open_dirERKNSt12experimental10filesystem2v14pathENS2_17directory_optionsEPSt10error_code _ZNSt12experimental10filesystem2v116filesystem_errorC1ERKSsRKNS1_4pathESt10error_code 244
_ZN12_GLOBAL__N_18open_dirERKNSt12experimental10filesystem2v14pathENS2_17directory_optionsEPSt10error_code _ZNSsD1Ev 253
_ZN12_GLOBAL__N_18open_dirERKNSt12experimental10filesystem2v14pathENS2_17directory_optionsEPSt10error_code _ZNSt12experimental10filesystem2v116filesystem_errorD1Ev 262
_ZN12_GLOBAL__N_18open_dirERKNSt12experimental10filesystem2v14pathENS2_17directory_optionsEPSt10error_code _ZTINSt12experimental10filesystem2v116filesystem_errorE 268
_ZN12_GLOBAL__N_18open_dirERKNSt12experimental10filesystem2v14pathENS2_17directory_optionsEPSt10error_code __cxa_throw 276
_ZN12_GLOBAL__N_18open_dirERKNSt12experimental10filesystem2v14pathENS2_17directory_optionsEPSt10error_code _ZNSt3_V216generic_categoryEv 286
_ZN12_GLOBAL__N_18open_dirERKNSt12experimental10filesystem2v14pathENS2_17directory_optionsEPSt10error_code _ZNSt12experimental10filesystem2v14pathC1Ev 315
_ZN12_GLOBAL__N_18open_dirERKNSt12experimental10filesystem2v14pathENS2_17directory_optionsEPSt10error_code _ZNSsD1Ev 340
_ZN12_GLOBAL__N_18open_dirERKNSt12experimental10filesystem2v14pathENS2_17directory_optionsEPSt10error_code __cxa_free_exception 364
_ZN12_GLOBAL__N_18open_dirERKNSt12experimental10filesystem2v14pathENS2_17directory_optionsEPSt10error_code _Unwind_Resume 375
_ZNSt12experimental10filesystem2v128recursive_directory_iteratorD1Ev,_ZNSt12experimental10filesystem2v128recursive_directory_iteratorD2Ev __x86.get_pc_thunk.bx 5
_ZNSt12experimental10filesystem2v128recursive_directory_iteratorD1Ev,_ZNSt12experimental10filesystem2v128recursive_directory_iteratorD2Ev _ZNSt14__shared_countILN9__gnu_cxx12_Lock_policyE2EED1Ev 26
_ZNSt12__shared_ptrINSt12experimental10filesystem2v14_DirELN9__gnu_cxx12_Lock_policyE2EE5resetEv __x86.get_pc_thunk.bx 5
_ZNSt12__shared_ptrINSt12experimental10filesystem2v14_DirELN9__gnu_cxx12_Lock_policyE2EE5resetEv _ZNSt14__shared_countILN9__gnu_cxx12_Lock_policyE2EED1Ev 50
_ZNSt12experimental10filesystem2v118directory_iterator9incrementERSt10error_code __x86.get_pc_thunk.bx 7
_ZNSt12experimental10filesystem2v118directory_iterator9incrementERSt10error_code _ZNSt3_V216generic_categoryEv 33
_ZNSt12experimental10filesystem2v118directory_iterator9incrementERSt10error_code _ZNSt12experimental10filesystem2v14_Dir7advanceEPSt10error_codeNS1_17directory_optionsE 54
_ZNSt12experimental10filesystem2v118directory_iterator9incrementERSt10error_code _ZNSt12__shared_ptrINSt12experimental10filesystem2v14_DirELN9__gnu_cxx12_Lock_policyE2EE5resetEv 70
_ZNSt12experimental10filesystem2v118directory_iteratorppEv __x86.get_pc_thunk.si 7
_ZNSt12experimental10filesystem2v118directory_iteratorppEv __cxa_allocate_exception 40
_ZNSt12experimental10filesystem2v118directory_iteratorppEv _ZNSt3_V216generic_categoryEv 48
_ZNSt12experimental10filesystem2v118directory_iteratorppEv .LC8 71
_ZNSt12experimental10filesystem2v118directory_iteratorppEv _ZNSsC1EPKcRKSaIcE 78
_ZNSt12experimental10filesystem2v118directory_iteratorppEv _ZNSt12experimental10filesystem2v116filesystem_errorC1ERKSsSt10error_code 96
_ZNSt12experimental10filesystem2v118directory_iteratorppEv _ZNSsD1Ev 104
_ZNSt12experimental10filesystem2v118directory_iteratorppEv _ZNSt12experimental10filesystem2v116filesystem_errorD1Ev 113
_ZNSt12experimental10filesystem2v118directory_iteratorppEv _ZTINSt12experimental10filesystem2v116filesystem_errorE 119
_ZNSt12experimental10filesystem2v118directory_iteratorppEv __cxa_throw 127
_ZNSt12experimental10filesystem2v118directory_iteratorppEv _ZNSt12experimental10filesystem2v14_Dir7advanceEPSt10error_codeNS1_17directory_optionsE 140
_ZNSt12experimental10filesystem2v118directory_iteratorppEv _ZNSt12__shared_ptrINSt12experimental10filesystem2v14_DirELN9__gnu_cxx12_Lock_policyE2EE5resetEv 156
_ZNSt12experimental10filesystem2v118directory_iteratorppEv _ZNSsD1Ev 175
_ZNSt12experimental10filesystem2v118directory_iteratorppEv __cxa_free_exception 199
_ZNSt12experimental10filesystem2v118directory_iteratorppEv _Unwind_Resume 210
_ZNSt12__shared_ptrINSt12experimental10filesystem2v128recursive_directory_iterator10_Dir_stackELN9__gnu_cxx12_Lock_policyE2EE5resetEv __x86.get_pc_thunk.bx 5
_ZNSt12__shared_ptrINSt12experimental10filesystem2v128recursive_directory_iterator10_Dir_stackELN9__gnu_cxx12_Lock_policyE2EE5resetEv _ZNSt14__shared_countILN9__gnu_cxx12_Lock_policyE2EED1Ev 50
_ZNSt12experimental10filesystem2v128recursive_directory_iteratoraSEOS2_ __x86.get_pc_thunk.bx 7
_ZNSt12experimental10filesystem2v128recursive_directory_iteratoraSEOS2_ _ZNSt14__shared_countILN9__gnu_cxx12_Lock_policyE2EED1Ev 65
_ZNSt12experimental10filesystem2v128recursive_directory_iteratoraSERKS2_ __x86.get_pc_thunk.bx 7
_ZNSt12experimental10filesystem2v128recursive_directory_iteratoraSERKS2_ _ZNSt16_Sp_counted_baseILN9__gnu_cxx12_Lock_policyE2EE10_M_releaseEv 61
_ZNKSt12experimental10filesystem2v128recursive_directory_iteratordeEv __x86.get_pc_thunk.bx 5
_ZNKSt12experimental10filesystem2v128recursive_directory_iteratordeEv _ZNSt5dequeINSt12experimental10filesystem2v14_DirESaIS3_EE4backEv 24
_ZNSt5dequeINSt12experimental10filesystem2v14_DirESaIS3_EE8pop_backEv __x86.get_pc_thunk.bx 9
_ZNSt5dequeINSt12experimental10filesystem2v14_DirESaIS3_EE8pop_backEv _ZdlPv 44
_ZNSt5dequeINSt12experimental10filesystem2v14_DirESaIS3_EE8pop_backEv _ZNSt12experimental10filesystem2v14_DirD1Ev 84
_ZNSt12experimental10filesystem2v128recursive_directory_iterator3popERSt10error_code __x86.get_pc_thunk.bx 7
_ZNSt12experimental10filesystem2v128recursive_directory_iterator3popERSt10error_code _ZNSt3_V216generic_categoryEv 32
_ZNSt12experimental10filesystem2v128recursive_directory_iterator3popERSt10error_code _ZNSt5dequeINSt12experimental10filesystem2v14_DirESaIS3_EE4backEv 52
_ZNSt12experimental10filesystem2v128recursive_directory_iterator3popERSt10error_code _ZNSt12experimental10filesystem2v14_Dir7advanceEPSt10error_codeNS1_17directory_optionsE 66
_ZNSt12experimental10filesystem2v128recursive_directory_iterator3popERSt10error_code _ZNSt5dequeINSt12experimental10filesystem2v14_DirESaIS3_EE8pop_backEv 83
_ZNSt12experimental10filesystem2v128recursive_directory_iterator3popERSt10error_code _ZNSt12__shared_ptrINSt12experimental10filesystem2v128recursive_directory_iterator10_Dir_stackELN9__gnu_cxx12_Lock_policyE2EE5resetEv 105
_ZNSt12experimental10filesystem2v128recursive_directory_iterator3popERSt10error_code _ZNSt3_V215system_categoryEv 110
_ZNSt12experimental10filesystem2v128recursive_directory_iterator3popEv __x86.get_pc_thunk.si 6
_ZNSt12experimental10filesystem2v128recursive_directory_iterator3popEv _ZNSt3_V215system_categoryEv 33
_ZNSt12experimental10filesystem2v128recursive_directory_iterator3popEv _ZNSt12experimental10filesystem2v128recursive_directory_iterator3popERSt10error_code 48
_ZNSt12experimental10filesystem2v128recursive_directory_iterator3popEv __cxa_allocate_exception 71
_ZNSt12experimental10filesystem2v128recursive_directory_iterator3popEv .LC9 83
_ZNSt12experimental10filesystem2v128recursive_directory_iterator3popEv .LC10 92
_ZNSt12experimental10filesystem2v128recursive_directory_iterator3popEv _ZNSsC1EPKcRKSaIcE 109
_ZNSt12experimental10filesystem2v128recursive_directory_iterator3popEv _ZNSt12experimental10filesystem2v116filesystem_errorC1ERKSsSt10error_code 127
_ZNSt12experimental10filesystem2v128recursive_directory_iterator3popEv _ZNSsD1Ev 135
_ZNSt12experimental10filesystem2v128recursive_directory_iterator3popEv _ZNSt12experimental10filesystem2v116filesystem_errorD1Ev 144
_ZNSt12experimental10filesystem2v128recursive_directory_iterator3popEv _ZTINSt12experimental10filesystem2v116filesystem_errorE 150
_ZNSt12experimental10filesystem2v128recursive_directory_iterator3popEv __cxa_throw 158
_ZNSt12experimental10filesystem2v128recursive_directory_iterator3popEv _ZNSsD1Ev 172
_ZNSt12experimental10filesystem2v128recursive_directory_iterator3popEv __cxa_free_exception 196
_ZNSt12experimental10filesystem2v128recursive_directory_iterator3popEv _Unwind_Resume 207
_ZNSt5dequeINSt12experimental10filesystem2v14_DirESaIS3_EE12emplace_backIJS3_EEEvDpOT_ __x86.get_pc_thunk.bx 7
_ZNSt5dequeINSt12experimental10filesystem2v14_DirESaIS3_EE12emplace_backIJS3_EEEvDpOT_ _ZNSt12experimental10filesystem2v14_DirC1EOS2_ 47
_ZNSt5dequeINSt12experimental10filesystem2v14_DirESaIS3_EE12emplace_backIJS3_EEEvDpOT_ memmove 199
_ZNSt5dequeINSt12experimental10filesystem2v14_DirESaIS3_EE12emplace_backIJS3_EEEvDpOT_ _ZSt17__throw_bad_allocv 230
_ZNSt5dequeINSt12experimental10filesystem2v14_DirESaIS3_EE12emplace_backIJS3_EEEvDpOT_ _Znwj 245
_ZNSt5dequeINSt12experimental10filesystem2v14_DirESaIS3_EE12emplace_backIJS3_EEEvDpOT_ memmove 291
_ZNSt5dequeINSt12experimental10filesystem2v14_DirESaIS3_EE12emplace_backIJS3_EEEvDpOT_ _ZdlPv 304
_ZNSt5dequeINSt12experimental10filesystem2v14_DirESaIS3_EE12emplace_backIJS3_EEEvDpOT_ _Znwj 373
_ZNSt5dequeINSt12experimental10filesystem2v14_DirESaIS3_EE12emplace_backIJS3_EEEvDpOT_ _ZNSt12experimental10filesystem2v14_DirC1EOS2_ 397
_ZNSt12experimental10filesystem2v128recursive_directory_iterator9incrementERSt10error_code __x86.get_pc_thunk.bx 7
_ZNSt12experimental10filesystem2v128recursive_directory_iterator9incrementERSt10error_code _ZNSt3_V216generic_categoryEv 33
_ZNSt12experimental10filesystem2v128recursive_directory_iterator9incrementERSt10error_code _ZNSt5dequeINSt12experimental10filesystem2v14_DirESaIS3_EE4backEv 56
_ZNSt12experimental10filesystem2v128recursive_directory_iterator9incrementERSt10error_code _ZNSt12__shared_ptrINSt12experimental10filesystem2v128recursive_directory_iterator10_Dir_stackELN9__gnu_cxx12_Lock_policyE2EE5resetEv 132
_ZNSt12experimental10filesystem2v128recursive_directory_iterator9incrementERSt10error_code _ZNSt12experimental10filesystem2v14_DirD1Ev 141
_ZNSt12experimental10filesystem2v128recursive_directory_iterator9incrementERSt10error_code _ZNSt12experimental10filesystem2v16statusERKNS1_4pathE 181
_ZNSt12experimental10filesystem2v128recursive_directory_iterator9incrementERSt10error_code _ZNSt12experimental10filesystem2v114symlink_statusERKNS1_4pathERSt10error_code 218
_ZNSt12experimental10filesystem2v128recursive_directory_iterator9incrementERSt10error_code _ZNSt12experimental10filesystem2v16statusERKNS1_4pathERSt10error_code 256
_ZNSt12experimental10filesystem2v128recursive_directory_iterator9incrementERSt10error_code _ZNSt5dequeINSt12experimental10filesystem2v14_DirESaIS3_EE12emplace_backIJS3_EEEvDpOT_ 295
_ZNSt12experimental10filesystem2v128recursive_directory_iterator9incrementERSt10error_code _ZNSt12experimental10filesystem2v14_DirD1Ev 309
_ZNSt12experimental10filesystem2v128recursive_directory_iterator9incrementERSt10error_code _ZNSt5dequeINSt12experimental10filesystem2v14_DirESaIS3_EE4backEv 322
_ZNSt12experimental10filesystem2v128recursive_directory_iterator9incrementERSt10error_code _ZNSt12experimental10filesystem2v14_Dir7advanceEPSt10error_codeNS1_17directory_optionsE 336
_ZNSt12experimental10filesystem2v128recursive_directory_iterator9incrementERSt10error_code _ZNSt5dequeINSt12experimental10filesystem2v14_DirESaIS3_EE8pop_backEv 358
_ZNSt12experimental10filesystem2v128recursive_directory_iterator9incrementERSt10error_code _ZNSt12__shared_ptrINSt12experimental10filesystem2v128recursive_directory_iterator10_Dir_stackELN9__gnu_cxx12_Lock_policyE2EE5resetEv 380
_ZNSt12experimental10filesystem2v128recursive_directory_iteratorppEv __x86.get_pc_thunk.si 6
_ZNSt12experimental10filesystem2v128recursive_directory_iteratorppEv _ZNSt3_V215system_categoryEv 33
_ZNSt12experimental10filesystem2v128recursive_directory_iteratorppEv _ZNSt12experimental10filesystem2v128recursive_directory_iterator9incrementERSt10error_code 48
_ZNSt12experimental10filesystem2v128recursive_directory_iteratorppEv __cxa_allocate_exception 74
_ZNSt12experimental10filesystem2v128recursive_directory_iteratorppEv .LC11 90
_ZNSt12experimental10filesystem2v128recursive_directory_iteratorppEv _ZNSsC1EPKcRKSaIcE 97
_ZNSt12experimental10filesystem2v128recursive_directory_iteratorppEv _ZNSt12experimental10filesystem2v116filesystem_errorC1ERKSsSt10error_code 115
_ZNSt12experimental10filesystem2v128recursive_directory_iteratorppEv _ZNSsD1Ev 123
_ZNSt12experimental10filesystem2v128recursive_directory_iteratorppEv _ZNSt12experimental10filesystem2v116filesystem_errorD1Ev 132
_ZNSt12experimental10filesystem2v128recursive_directory_iteratorppEv _ZTINSt12experimental10filesystem2v116filesystem_errorE 138
_ZNSt12experimental10filesystem2v128recursive_directory_iteratorppEv __cxa_throw 146
_ZNSt12experimental10filesystem2v128recursive_directory_iteratorppEv _ZNSsD1Ev 160
_ZNSt12experimental10filesystem2v128recursive_directory_iteratorppEv __cxa_free_exception 184
_ZNSt12experimental10filesystem2v128recursive_directory_iteratorppEv _Unwind_Resume 195
_ZNSt12experimental10filesystem2v118directory_iteratorC1ERKNS1_4pathENS1_17directory_optionsEPSt10error_code,_ZNSt12experimental10filesystem2v118directory_iteratorC2ERKNS1_4pathENS1_17directory_optionsEPSt10error_code __x86.get_pc_thunk.si 7
_ZNSt12experimental10filesystem2v118directory_iteratorC1ERKNS1_4pathENS1_17directory_optionsEPSt10error_code,_ZNSt12experimental10filesystem2v118directory_iteratorC2ERKNS1_4pathENS1_17directory_optionsEPSt10error_code _Znwj 94
_ZNSt12experimental10filesystem2v118directory_iteratorC1ERKNS1_4pathENS1_17directory_optionsEPSt10error_code,_ZNSt12experimental10filesystem2v118directory_iteratorC2ERKNS1_4pathENS1_17directory_optionsEPSt10error_code _ZTVSt23_Sp_counted_ptr_inplaceINSt12experimental10filesystem2v14_DirESaIS3_ELN9__gnu_cxx12_Lock_policyE2EE 103
_ZNSt12experimental10filesystem2v118directory_iteratorC1ERKNS1_4pathENS1_17directory_optionsEPSt10error_code,_ZNSt12experimental10filesystem2v118directory_iteratorC2ERKNS1_4pathENS1_17directory_optionsEPSt10error_code _ZNSt12experimental10filesystem2v14_DirC1EOS2_ 136
_ZNSt12experimental10filesystem2v118directory_iteratorC1ERKNS1_4pathENS1_17directory_optionsEPSt10error_code,_ZNSt12experimental10filesystem2v118directory_iteratorC2ERKNS1_4pathENS1_17directory_optionsEPSt10error_code _ZTISt19_Sp_make_shared_tag 150
_ZNSt12experimental10filesystem2v118directory_iteratorC1ERKNS1_4pathENS1_17directory_optionsEPSt10error_code,_ZNSt12experimental10filesystem2v118directory_iteratorC2ERKNS1_4pathENS1_17directory_optionsEPSt10error_code _ZNKSt14__shared_countILN9__gnu_cxx12_Lock_policyE2EE14_M_get_deleterERKSt9type_info 156
_ZNSt12experimental10filesystem2v118directory_iteratorC1ERKNS1_4pathENS1_17directory_optionsEPSt10error_code,_ZNSt12experimental10filesystem2v118directory_iteratorC2ERKNS1_4pathENS1_17directory_optionsEPSt10error_code _ZNSt12experimental10filesystem2v14_Dir7advanceEPSt10error_codeNS1_17directory_optionsE 175
_ZNSt12experimental10filesystem2v118directory_iteratorC1ERKNS1_4pathENS1_17directory_optionsEPSt10error_code,_ZNSt12experimental10filesystem2v118directory_iteratorC2ERKNS1_4pathENS1_17directory_optionsEPSt10error_code _ZNSt14__shared_countILN9__gnu_cxx12_Lock_policyE2EED1Ev 221
_ZNSt12experimental10filesystem2v118directory_iteratorC1ERKNS1_4pathENS1_17directory_optionsEPSt10error_code,_ZNSt12experimental10filesystem2v118directory_iteratorC2ERKNS1_4pathENS1_17directory_optionsEPSt10error_code _ZNSt12experimental10filesystem2v14_DirD1Ev 238
_ZNSt12experimental10filesystem2v118directory_iteratorC1ERKNS1_4pathENS1_17directory_optionsEPSt10error_code,_ZNSt12experimental10filesystem2v118directory_iteratorC2ERKNS1_4pathENS1_17directory_optionsEPSt10error_code _ZNSt14__shared_countILN9__gnu_cxx12_Lock_policyE2EED1Ev 260
_ZNSt12experimental10filesystem2v118directory_iteratorC1ERKNS1_4pathENS1_17directory_optionsEPSt10error_code,_ZNSt12experimental10filesystem2v118directory_iteratorC2ERKNS1_4pathENS1_17directory_optionsEPSt10error_code _ZNSt12experimental10filesystem2v14_DirD1Ev 286
_ZNSt12experimental10filesystem2v118directory_iteratorC1ERKNS1_4pathENS1_17directory_optionsEPSt10error_code,_ZNSt12experimental10filesystem2v118directory_iteratorC2ERKNS1_4pathENS1_17directory_optionsEPSt10error_code _ZNSt14__shared_countILN9__gnu_cxx12_Lock_policyE2EED1Ev 310
_ZNSt12experimental10filesystem2v118directory_iteratorC1ERKNS1_4pathENS1_17directory_optionsEPSt10error_code,_ZNSt12experimental10filesystem2v118directory_iteratorC2ERKNS1_4pathENS1_17directory_optionsEPSt10error_code _Unwind_Resume 318
_ZNSt12_Destroy_auxILb0EE9__destroyIPNSt12experimental10filesystem2v14_DirEEEvT_S7_ __x86.get_pc_thunk.bx 9
_ZNSt12_Destroy_auxILb0EE9__destroyIPNSt12experimental10filesystem2v14_DirEEEvT_S7_ _ZNSt12experimental10filesystem2v14_DirD1Ev 32
_ZNSt5dequeINSt12experimental10filesystem2v14_DirESaIS3_EED1Ev,_ZNSt5dequeINSt12experimental10filesystem2v14_DirESaIS3_EED2Ev __x86.get_pc_thunk.bx 7
_ZNSt5dequeINSt12experimental10filesystem2v14_DirESaIS3_EED1Ev,_ZNSt5dequeINSt12experimental10filesystem2v14_DirESaIS3_EED2Ev _ZNSt12_Destroy_auxILb0EE9__destroyIPNSt12experimental10filesystem2v14_DirEEEvT_S7_ 80
_ZNSt5dequeINSt12experimental10filesystem2v14_DirESaIS3_EED1Ev,_ZNSt5dequeINSt12experimental10filesystem2v14_DirESaIS3_EED2Ev _ZNSt12_Destroy_auxILb0EE9__destroyIPNSt12experimental10filesystem2v14_DirEEEvT_S7_ 112
_ZNSt5dequeINSt12experimental10filesystem2v14_DirESaIS3_EED1Ev,_ZNSt5dequeINSt12experimental10filesystem2v14_DirESaIS3_EED2Ev _ZNSt12_Destroy_auxILb0EE9__destroyIPNSt12experimental10filesystem2v14_DirEEEvT_S7_ 131
_ZNSt5dequeINSt12experimental10filesystem2v14_DirESaIS3_EED1Ev,_ZNSt5dequeINSt12experimental10filesystem2v14_DirESaIS3_EED2Ev _ZdlPv 169
_ZNSt5dequeINSt12experimental10filesystem2v14_DirESaIS3_EED1Ev,_ZNSt5dequeINSt12experimental10filesystem2v14_DirESaIS3_EED2Ev _ZdlPv 184
_ZNSt23_Sp_counted_ptr_inplaceINSt12experimental10filesystem2v128recursive_directory_iterator10_Dir_stackESaIS4_ELN9__gnu_cxx12_Lock_policyE2EE10_M_disposeEv __x86.get_pc_thunk.bx 5
_ZNSt23_Sp_counted_ptr_inplaceINSt12experimental10filesystem2v128recursive_directory_iterator10_Dir_stackESaIS4_ELN9__gnu_cxx12_Lock_policyE2EE10_M_disposeEv _ZNSt5dequeINSt12experimental10filesystem2v14_DirESaIS3_EED1Ev 26
_ZNSt11_Deque_baseINSt12experimental10filesystem2v14_DirESaIS3_EE17_M_initialize_mapEj __x86.get_pc_thunk.ax 9
_ZNSt11_Deque_baseINSt12experimental10filesystem2v14_DirESaIS3_EE17_M_initialize_mapEj _Znwj 68
_ZNSt11_Deque_baseINSt12experimental10filesystem2v14_DirESaIS3_EE17_M_initialize_mapEj _Znwj 123
_ZNSt11_Deque_baseINSt12experimental10filesystem2v14_DirESaIS3_EE17_M_initialize_mapEj __cxa_begin_catch 149
_ZNSt11_Deque_baseINSt12experimental10filesystem2v14_DirESaIS3_EE17_M_initialize_mapEj _ZdlPv 173
_ZNSt11_Deque_baseINSt12experimental10filesystem2v14_DirESaIS3_EE17_M_initialize_mapEj __cxa_rethrow 183
_ZNSt11_Deque_baseINSt12experimental10filesystem2v14_DirESaIS3_EE17_M_initialize_mapEj __cxa_end_catch 193
_ZNSt11_Deque_baseINSt12experimental10filesystem2v14_DirESaIS3_EE17_M_initialize_mapEj __cxa_begin_catch 205
_ZNSt11_Deque_baseINSt12experimental10filesystem2v14_DirESaIS3_EE17_M_initialize_mapEj _ZdlPv 216
_ZNSt11_Deque_baseINSt12experimental10filesystem2v14_DirESaIS3_EE17_M_initialize_mapEj __cxa_rethrow 240
_ZNSt11_Deque_baseINSt12experimental10filesystem2v14_DirESaIS3_EE17_M_initialize_mapEj __cxa_end_catch 322
_ZNSt11_Deque_baseINSt12experimental10filesystem2v14_DirESaIS3_EE17_M_initialize_mapEj _Unwind_Resume 334
_ZNSt12experimental10filesystem2v128recursive_directory_iterator10_Dir_stackC1Ev,_ZNSt12experimental10filesystem2v128recursive_directory_iterator10_Dir_stackC2Ev __x86.get_pc_thunk.di 10
_ZNSt12experimental10filesystem2v128recursive_directory_iterator10_Dir_stackC1Ev,_ZNSt12experimental10filesystem2v128recursive_directory_iterator10_Dir_stackC2Ev _ZNSt11_Deque_baseINSt12experimental10filesystem2v14_DirESaIS3_EE17_M_initialize_mapEj 105
_ZNSt12experimental10filesystem2v128recursive_directory_iterator10_Dir_stackC1Ev,_ZNSt12experimental10filesystem2v128recursive_directory_iterator10_Dir_stackC2Ev _ZNSt11_Deque_baseINSt12experimental10filesystem2v14_DirESaIS3_EE17_M_initialize_mapEj 184
_ZNSt12experimental10filesystem2v128recursive_directory_iterator10_Dir_stackC1Ev,_ZNSt12experimental10filesystem2v128recursive_directory_iterator10_Dir_stackC2Ev _ZSt4swapISt15_Deque_iteratorINSt12experimental10filesystem2v14_DirERS4_PS4_EENSt9enable_ifIXsrSt6__and_IJSt21is_move_constructibleIT_ESt18is_move_assignableISB_EEE5valueEvE4typeERSB_SI_ 208
_ZNSt12experimental10filesystem2v128recursive_directory_iterator10_Dir_stackC1Ev,_ZNSt12experimental10filesystem2v128recursive_directory_iterator10_Dir_stackC2Ev _ZSt4swapISt15_Deque_iteratorINSt12experimental10filesystem2v14_DirERS4_PS4_EENSt9enable_ifIXsrSt6__and_IJSt21is_move_constructibleIT_ESt18is_move_assignableISB_EEE5valueEvE4typeERSB_SI_ 223
_ZNSt12experimental10filesystem2v128recursive_directory_iterator10_Dir_stackC1Ev,_ZNSt12experimental10filesystem2v128recursive_directory_iterator10_Dir_stackC2Ev _ZNSt5dequeINSt12experimental10filesystem2v14_DirESaIS3_EED1Ev 261
_ZNSt12experimental10filesystem2v128recursive_directory_iterator10_Dir_stackC1Ev,_ZNSt12experimental10filesystem2v128recursive_directory_iterator10_Dir_stackC2Ev _ZNSt5dequeINSt12experimental10filesystem2v14_DirESaIS3_EED1Ev 284
_ZNSt12experimental10filesystem2v128recursive_directory_iterator10_Dir_stackC1Ev,_ZNSt12experimental10filesystem2v128recursive_directory_iterator10_Dir_stackC2Ev _Unwind_Resume 292
_ZNSt12experimental10filesystem2v128recursive_directory_iteratorC1ERKNS1_4pathENS1_17directory_optionsEPSt10error_code,_ZNSt12experimental10filesystem2v128recursive_directory_iteratorC2ERKNS1_4pathENS1_17directory_optionsEPSt10error_code __x86.get_pc_thunk.si 7
_ZNSt12experimental10filesystem2v128recursive_directory_iteratorC1ERKNS1_4pathENS1_17directory_optionsEPSt10error_code,_ZNSt12experimental10filesystem2v128recursive_directory_iteratorC2ERKNS1_4pathENS1_17directory_optionsEPSt10error_code opendir 58
_ZNSt12experimental10filesystem2v128recursive_directory_iteratorC1ERKNS1_4pathENS1_17directory_optionsEPSt10error_code,_ZNSt12experimental10filesystem2v128recursive_directory_iteratorC2ERKNS1_4pathENS1_17directory_optionsEPSt10error_code _Znwj 96
_ZNSt12experimental10filesystem2v128recursive_directory_iteratorC1ERKNS1_4pathENS1_17directory_optionsEPSt10error_code,_ZNSt12experimental10filesystem2v128recursive_directory_iteratorC2ERKNS1_4pathENS1_17directory_optionsEPSt10error_code _ZTVSt23_Sp_counted_ptr_inplaceINSt12experimental10filesystem2v128recursive_directory_iterator10_Dir_stackESaIS4_ELN9__gnu_cxx12_Lock_policyE2EE 119
_ZNSt12experimental10filesystem2v128recursive_directory_iteratorC1ERKNS1_4pathENS1_17directory_optionsEPSt10error_code,_ZNSt12experimental10filesystem2v128recursive_directory_iteratorC2ERKNS1_4pathENS1_17directory_optionsEPSt10error_code _ZNSt12experimental10filesystem2v128recursive_directory_iterator10_Dir_stackC1Ev 153
_ZNSt12experimental10filesystem2v128recursive_directory_iteratorC1ERKNS1_4pathENS1_17directory_optionsEPSt10error_code,_ZNSt12experimental10filesystem2v128recursive_directory_iteratorC2ERKNS1_4pathENS1_17directory_optionsEPSt10error_code _ZTISt19_Sp_make_shared_tag 164
_ZNSt12experimental10filesystem2v128recursive_directory_iteratorC1ERKNS1_4pathENS1_17directory_optionsEPSt10error_code,_ZNSt12experimental10filesystem2v128recursive_directory_iteratorC2ERKNS1_4pathENS1_17directory_optionsEPSt10error_code _ZNKSt14__shared_countILN9__gnu_cxx12_Lock_policyE2EE14_M_get_deleterERKSt9type_info 179
_ZNSt12experimental10filesystem2v128recursive_directory_iteratorC1ERKNS1_4pathENS1_17directory_optionsEPSt10error_code,_ZNSt12experimental10filesystem2v128recursive_directory_iteratorC2ERKNS1_4pathENS1_17directory_optionsEPSt10error_code _ZNSt12experimental10filesystem2v14pathC1ERKS2_ 202
_ZNSt12experimental10filesystem2v128recursive_directory_iteratorC1ERKNS1_4pathENS1_17directory_optionsEPSt10error_code,_ZNSt12experimental10filesystem2v128recursive_directory_iteratorC2ERKNS1_4pathENS1_17directory_optionsEPSt10error_code _ZNSt12experimental10filesystem2v14pathC1Ev 216
_ZNSt12experimental10filesystem2v128recursive_directory_iteratorC1ERKNS1_4pathENS1_17directory_optionsEPSt10error_code,_ZNSt12experimental10filesystem2v128recursive_directory_iteratorC2ERKNS1_4pathENS1_17directory_optionsEPSt10error_code _ZNSt5dequeINSt12experimental10filesystem2v14_DirESaIS3_EE12emplace_backIJS3_EEEvDpOT_ 231
_ZNSt12experimental10filesystem2v128recursive_directory_iteratorC1ERKNS1_4pathENS1_17directory_optionsEPSt10error_code,_ZNSt12experimental10filesystem2v128recursive_directory_iteratorC2ERKNS1_4pathENS1_17directory_optionsEPSt10error_code _ZdlPv 249
_ZNSt12experimental10filesystem2v128recursive_directory_iteratorC1ERKNS1_4pathENS1_17directory_optionsEPSt10error_code,_ZNSt12experimental10filesystem2v128recursive_directory_iteratorC2ERKNS1_4pathENS1_17directory_optionsEPSt10error_code _ZNSt12experimental10filesystem2v14_DirD1Ev 264
_ZNSt12experimental10filesystem2v128recursive_directory_iteratorC1ERKNS1_4pathENS1_17directory_optionsEPSt10error_code,_ZNSt12experimental10filesystem2v128recursive_directory_iteratorC2ERKNS1_4pathENS1_17directory_optionsEPSt10error_code _ZNSt5dequeINSt12experimental10filesystem2v14_DirESaIS3_EE4backEv 273
_ZNSt12experimental10filesystem2v128recursive_directory_iteratorC1ERKNS1_4pathENS1_17directory_optionsEPSt10error_code,_ZNSt12experimental10filesystem2v128recursive_directory_iteratorC2ERKNS1_4pathENS1_17directory_optionsEPSt10error_code _ZNSt12experimental10filesystem2v14_Dir7advanceEPSt10error_codeNS1_17directory_optionsE 287
_ZNSt12experimental10filesystem2v128recursive_directory_iteratorC1ERKNS1_4pathENS1_17directory_optionsEPSt10error_code,_ZNSt12experimental10filesystem2v128recursive_directory_iteratorC2ERKNS1_4pathENS1_17directory_optionsEPSt10error_code _ZNSt14__shared_countILN9__gnu_cxx12_Lock_policyE2EED1Ev 335
_ZNSt12experimental10filesystem2v128recursive_directory_iteratorC1ERKNS1_4pathENS1_17directory_optionsEPSt10error_code,_ZNSt12experimental10filesystem2v128recursive_directory_iteratorC2ERKNS1_4pathENS1_17directory_optionsEPSt10error_code __errno_location 350
_ZNSt12experimental10filesystem2v128recursive_directory_iteratorC1ERKNS1_4pathENS1_17directory_optionsEPSt10error_code,_ZNSt12experimental10filesystem2v128recursive_directory_iteratorC2ERKNS1_4pathENS1_17directory_optionsEPSt10error_code _ZNSt12experimental10filesystem2v14_DirD1Ev 381
_ZNSt12experimental10filesystem2v128recursive_directory_iteratorC1ERKNS1_4pathENS1_17directory_optionsEPSt10error_code,_ZNSt12experimental10filesystem2v128recursive_directory_iteratorC2ERKNS1_4pathENS1_17directory_optionsEPSt10error_code _ZNSt14__shared_countILN9__gnu_cxx12_Lock_policyE2EED1Ev 405
_ZNSt12experimental10filesystem2v128recursive_directory_iteratorC1ERKNS1_4pathENS1_17directory_optionsEPSt10error_code,_ZNSt12experimental10filesystem2v128recursive_directory_iteratorC2ERKNS1_4pathENS1_17directory_optionsEPSt10error_code _ZNSt14__shared_countILN9__gnu_cxx12_Lock_policyE2EED1Ev 433
_ZNSt12experimental10filesystem2v128recursive_directory_iteratorC1ERKNS1_4pathENS1_17directory_optionsEPSt10error_code,_ZNSt12experimental10filesystem2v128recursive_directory_iteratorC2ERKNS1_4pathENS1_17directory_optionsEPSt10error_code _Unwind_Resume 444
_ZNSt12experimental10filesystem2v128recursive_directory_iteratorC1ERKNS1_4pathENS1_17directory_optionsEPSt10error_code,_ZNSt12experimental10filesystem2v128recursive_directory_iteratorC2ERKNS1_4pathENS1_17directory_optionsEPSt10error_code _ZNSt3_V215system_categoryEv 461
_ZNSt12experimental10filesystem2v128recursive_directory_iteratorC1ERKNS1_4pathENS1_17directory_optionsEPSt10error_code,_ZNSt12experimental10filesystem2v128recursive_directory_iteratorC2ERKNS1_4pathENS1_17directory_optionsEPSt10error_code __cxa_allocate_exception 496
_ZNSt12experimental10filesystem2v128recursive_directory_iteratorC1ERKNS1_4pathENS1_17directory_optionsEPSt10error_code,_ZNSt12experimental10filesystem2v128recursive_directory_iteratorC2ERKNS1_4pathENS1_17directory_optionsEPSt10error_code _ZNSt3_V216generic_categoryEv 503
_ZNSt12experimental10filesystem2v128recursive_directory_iteratorC1ERKNS1_4pathENS1_17directory_optionsEPSt10error_code,_ZNSt12experimental10filesystem2v128recursive_directory_iteratorC2ERKNS1_4pathENS1_17directory_optionsEPSt10error_code .LC12 522
_ZNSt12experimental10filesystem2v128recursive_directory_iteratorC1ERKNS1_4pathENS1_17directory_optionsEPSt10error_code,_ZNSt12experimental10filesystem2v128recursive_directory_iteratorC2ERKNS1_4pathENS1_17directory_optionsEPSt10error_code _ZNSsC1EPKcRKSaIcE 538
_ZNSt12experimental10filesystem2v128recursive_directory_iteratorC1ERKNS1_4pathENS1_17directory_optionsEPSt10error_code,_ZNSt12experimental10filesystem2v128recursive_directory_iteratorC2ERKNS1_4pathENS1_17directory_optionsEPSt10error_code _ZNSt12experimental10filesystem2v116filesystem_errorC1ERKSsRKNS1_4pathESt10error_code 558
_ZNSt12experimental10filesystem2v128recursive_directory_iteratorC1ERKNS1_4pathENS1_17directory_optionsEPSt10error_code,_ZNSt12experimental10filesystem2v128recursive_directory_iteratorC2ERKNS1_4pathENS1_17directory_optionsEPSt10error_code _ZNSsD1Ev 569
_ZNSt12experimental10filesystem2v128recursive_directory_iteratorC1ERKNS1_4pathENS1_17directory_optionsEPSt10error_code,_ZNSt12experimental10filesystem2v128recursive_directory_iteratorC2ERKNS1_4pathENS1_17directory_optionsEPSt10error_code _ZNSt12experimental10filesystem2v116filesystem_errorD1Ev 578
_ZNSt12experimental10filesystem2v128recursive_directory_iteratorC1ERKNS1_4pathENS1_17directory_optionsEPSt10error_code,_ZNSt12experimental10filesystem2v128recursive_directory_iteratorC2ERKNS1_4pathENS1_17directory_optionsEPSt10error_code _ZTINSt12experimental10filesystem2v116filesystem_errorE 584
_ZNSt12experimental10filesystem2v128recursive_directory_iteratorC1ERKNS1_4pathENS1_17directory_optionsEPSt10error_code,_ZNSt12experimental10filesystem2v128recursive_directory_iteratorC2ERKNS1_4pathENS1_17directory_optionsEPSt10error_code __cxa_throw 590
_ZNSt12experimental10filesystem2v128recursive_directory_iteratorC1ERKNS1_4pathENS1_17directory_optionsEPSt10error_code,_ZNSt12experimental10filesystem2v128recursive_directory_iteratorC2ERKNS1_4pathENS1_17directory_optionsEPSt10error_code _ZNSt3_V216generic_categoryEv 597
_ZNSt12experimental10filesystem2v128recursive_directory_iteratorC1ERKNS1_4pathENS1_17directory_optionsEPSt10error_code,_ZNSt12experimental10filesystem2v128recursive_directory_iteratorC2ERKNS1_4pathENS1_17directory_optionsEPSt10error_code _ZNSsD1Ev 626
_ZNSt12experimental10filesystem2v128recursive_directory_iteratorC1ERKNS1_4pathENS1_17directory_optionsEPSt10error_code,_ZNSt12experimental10filesystem2v128recursive_directory_iteratorC2ERKNS1_4pathENS1_17directory_optionsEPSt10error_code __cxa_free_exception 648
_ZNSt12experimental10filesystem2v111resize_fileERKNS1_4pathEyRSt10error_code.part.40,_ZNSt12experimental10filesystem2v112current_pathERKNS1_4pathERSt10error_code.part.36,_ZNSt12experimental10filesystem2v114create_symlinkERKNS1_4pathES4_RSt10error_code.part.35,_ZNSt12experimental10filesystem2v116create_hard_linkERKNS1_4pathES4_RSt10error_code.part.34,_ZNSt12experimental10filesystem2v15spaceERKNS1_4pathERSt10error_code.part.41,_ZNSt12experimental10filesystem2v16renameERKNS1_4pathES4_RSt10error_code.part.39 __x86.get_pc_thunk.bx 9
_ZNSt12experimental10filesystem2v111resize_fileERKNS1_4pathEyRSt10error_code.part.40,_ZNSt12experimental10filesystem2v112current_pathERKNS1_4pathERSt10error_code.part.36,_ZNSt12experimental10filesystem2v114create_symlinkERKNS1_4pathES4_RSt10error_code.part.35,_ZNSt12experimental10filesystem2v116create_hard_linkERKNS1_4pathES4_RSt10error_code.part.34,_ZNSt12experimental10filesystem2v15spaceERKNS1_4pathERSt10error_code.part.41,_ZNSt12experimental10filesystem2v16renameERKNS1_4pathES4_RSt10error_code.part.39 _ZNSt3_V216generic_categoryEv 23
_ZNSt12experimental10filesystem2v111resize_fileERKNS1_4pathEyRSt10error_code.part.40,_ZNSt12experimental10filesystem2v112current_pathERKNS1_4pathERSt10error_code.part.36,_ZNSt12experimental10filesystem2v114create_symlinkERKNS1_4pathES4_RSt10error_code.part.35,_ZNSt12experimental10filesystem2v116create_hard_linkERKNS1_4pathES4_RSt10error_code.part.34,_ZNSt12experimental10filesystem2v15spaceERKNS1_4pathERSt10error_code.part.41,_ZNSt12experimental10filesystem2v16renameERKNS1_4pathES4_RSt10error_code.part.39 __errno_location 30
_ZNSt12_Vector_baseINSt12experimental10filesystem2v14path5_CmptESaIS4_EE13_M_deallocateEPS4_j.isra.75 __x86.get_pc_thunk.bx 6
_ZNSt12_Vector_baseINSt12experimental10filesystem2v14path5_CmptESaIS4_EE13_M_deallocateEPS4_j.isra.75 _ZdlPv 25
_ZNSt11_Deque_baseINSt12experimental10filesystem2v14pathESaIS3_EE16_M_destroy_nodesEPPS3_S7_.isra.87 __x86.get_pc_thunk.bx 11
_ZNSt11_Deque_baseINSt12experimental10filesystem2v14pathESaIS3_EE16_M_destroy_nodesEPPS3_S7_.isra.87 _ZdlPv 37
_ZNSt12experimental10filesystem2v14pathC1EOS2_,_ZNSt12experimental10filesystem2v14pathC2EOS2_ __x86.get_pc_thunk.bx 12
_ZNSt12experimental10filesystem2v14pathC1EOS2_,_ZNSt12experimental10filesystem2v14pathC2EOS2_ _ZNSs4_Rep20_S_empty_rep_storageE 31
_ZNSt12experimental10filesystem2v14pathC1EOS2_,_ZNSt12experimental10filesystem2v14pathC2EOS2_ _ZNSt12experimental10filesystem2v14path14_M_split_cmptsEv 69
_ZNSt12experimental10filesystem2v14pathC1EOS2_,_ZNSt12experimental10filesystem2v14pathC2EOS2_ _ZNSs5clearEv 77
_ZNSt12experimental10filesystem2v14pathC1EOS2_,_ZNSt12experimental10filesystem2v14pathC2EOS2_ _ZNSt12experimental10filesystem2v14path14_M_split_cmptsEv 85
_ZNSt12experimental10filesystem2v14path9_M_appendERKSs __x86.get_pc_thunk.bx 7
_ZNSt12experimental10filesystem2v14path9_M_appendERKSs _ZNSs4backEv 39
_ZNSt12experimental10filesystem2v14path9_M_appendERKSs _ZNSs9push_backEc 70
_ZNSt12experimental10filesystem2v14path9_M_appendERKSs _ZNSspLERKSs 82
_ZNSt12experimental10filesystem2v14path9_M_appendERKSs _ZNSt12experimental10filesystem2v14path14_M_split_cmptsEv 90
_ZSt9__advanceINSt12experimental10filesystem2v14path8iteratorEiEvRT_T0_St26bidirectional_iterator_tag.isra.110 __x86.get_pc_thunk.bx 11
_ZSt9__advanceINSt12experimental10filesystem2v14path8iteratorEiEvRT_T0_St26bidirectional_iterator_tag.isra.110 _ZNSt12experimental10filesystem2v14path8iteratorppEv 39
_ZNSt12experimental10filesystem2v116create_hard_linkERKNS1_4pathES4_RSt10error_code __x86.get_pc_thunk.bx 14
_ZNSt12experimental10filesystem2v116create_hard_linkERKNS1_4pathES4_RSt10error_code link 32
_ZNSt12experimental10filesystem2v116create_hard_linkERKNS1_4pathES4_RSt10error_code _ZNSt10error_code5clearEv 61
_ZNSt12experimental10filesystem2v114create_symlinkERKNS1_4pathES4_RSt10error_code __x86.get_pc_thunk.bx 14
_ZNSt12experimental10filesystem2v114create_symlinkERKNS1_4pathES4_RSt10error_code symlink 32
_ZNSt12experimental10filesystem2v114create_symlinkERKNS1_4pathES4_RSt10error_code _ZNSt10error_code5clearEv 61
_ZNSt12experimental10filesystem2v124create_directory_symlinkERKNS1_4pathES4_RSt10error_code __x86.get_pc_thunk.bx 5
_ZNSt12experimental10filesystem2v124create_directory_symlinkERKNS1_4pathES4_RSt10error_code _ZNSt12experimental10filesystem2v114create_symlinkERKNS1_4pathES4_RSt10error_code 28
_ZNSt12experimental10filesystem2v112current_pathERKNS1_4pathERSt10error_code __x86.get_pc_thunk.bx 15
_ZNSt12experimental10filesystem2v112current_pathERKNS1_4pathERSt10error_code chdir 28
_ZNSt12experimental10filesystem2v112current_pathERKNS1_4pathERSt10error_code _ZNSt10error_code5clearEv 57
_ZNSt12experimental10filesystem2v110equivalentERKNS1_4pathES4_RSt10error_code __x86.get_pc_thunk.bx 13
_ZNSt12experimental10filesystem2v110equivalentERKNS1_4pathES4_RSt10error_code stat 45
_ZNSt12experimental10filesystem2v110equivalentERKNS1_4pathES4_RSt10error_code __errno_location 90
_ZNSt12experimental10filesystem2v110equivalentERKNS1_4pathES4_RSt10error_code __errno_location 107
_ZNSt12experimental10filesystem2v110equivalentERKNS1_4pathES4_RSt10error_code stat 149
_ZNSt12experimental10filesystem2v110equivalentERKNS1_4pathES4_RSt10error_code __errno_location 192
_ZNSt12experimental10filesystem2v110equivalentERKNS1_4pathES4_RSt10error_code __errno_location 209
_ZNSt12experimental10filesystem2v110equivalentERKNS1_4pathES4_RSt10error_code _ZNSt3_V216generic_categoryEv 286
_ZNSt12experimental10filesystem2v110equivalentERKNS1_4pathES4_RSt10error_code _ZNSt3_V216generic_categoryEv 357
_ZNSt12experimental10filesystem2v110equivalentERKNS1_4pathES4_RSt10error_code _ZNSt10error_code5clearEv 383
_ZNSt12experimental10filesystem2v110equivalentERKNS1_4pathES4_RSt10error_code _ZNSt10error_code5clearEv 473
_ZNSt12experimental10filesystem2v110equivalentERKNS1_4pathES4_RSt10error_code _ZNSt3_V216generic_categoryEv 489
_ZNSt12experimental10filesystem2v19file_sizeERKNS1_4pathERSt10error_code __x86.get_pc_thunk.bx 10
_ZNSt12experimental10filesystem2v19file_sizeERKNS1_4pathERSt10error_code stat 33
_ZNSt12experimental10filesystem2v19file_sizeERKNS1_4pathERSt10error_code _ZNSt3_V216generic_categoryEv 45
_ZNSt12experimental10filesystem2v19file_sizeERKNS1_4pathERSt10error_code __errno_location 52
_ZNSt12experimental10filesystem2v19file_sizeERKNS1_4pathERSt10error_code _ZNSt10error_code5clearEv 72
_ZNSt12experimental10filesystem2v19file_sizeERKNS1_4pathERSt10error_code _ZNSt3_V216generic_categoryEv 110
_ZNSt12experimental10filesystem2v19file_sizeERKNS1_4pathERSt10error_code _ZNSt3_V216generic_categoryEv 123
_ZNSt12experimental10filesystem2v115hard_link_countERKNS1_4pathERSt10error_code __x86.get_pc_thunk.bx 10
_ZNSt12experimental10filesystem2v115hard_link_countERKNS1_4pathERSt10error_code stat 33
_ZNSt12experimental10filesystem2v115hard_link_countERKNS1_4pathERSt10error_code _ZNSt3_V216generic_categoryEv 45
_ZNSt12experimental10filesystem2v115hard_link_countERKNS1_4pathERSt10error_code __errno_location 52
_ZNSt12experimental10filesystem2v115hard_link_countERKNS1_4pathERSt10error_code _ZNSt10error_code5clearEv 75
_ZNSt12experimental10filesystem2v115last_write_timeERKNS1_4pathERSt10error_code __x86.get_pc_thunk.bx 10
_ZNSt12experimental10filesystem2v115last_write_timeERKNS1_4pathERSt10error_code stat 33
_ZNSt12experimental10filesystem2v115last_write_timeERKNS1_4pathERSt10error_code _ZNSt3_V216generic_categoryEv 45
_ZNSt12experimental10filesystem2v115last_write_timeERKNS1_4pathERSt10error_code __errno_location 52
_ZNSt12experimental10filesystem2v115last_write_timeERKNS1_4pathERSt10error_code _ZNSt10error_code5clearEv 86
_ZNSt12experimental10filesystem2v115last_write_timeERKNS1_4pathENSt6chrono10time_pointINS5_3_V212system_clockENS5_8durationIxSt5ratioILx1ELx1000000000EEEEEERSt10error_code __x86.get_pc_thunk.bx 7
_ZNSt12experimental10filesystem2v115last_write_timeERKNS1_4pathENSt6chrono10time_pointINS5_3_V212system_clockENS5_8durationIxSt5ratioILx1ELx1000000000EEEEEERSt10error_code __divdi3 34
_ZNSt12experimental10filesystem2v115last_write_timeERKNS1_4pathENSt6chrono10time_pointINS5_3_V212system_clockENS5_8durationIxSt5ratioILx1ELx1000000000EEEEEERSt10error_code __moddi3 57
_ZNSt12experimental10filesystem2v115last_write_timeERKNS1_4pathENSt6chrono10time_pointINS5_3_V212system_clockENS5_8durationIxSt5ratioILx1ELx1000000000EEEEEERSt10error_code utimensat 110
_ZNSt12experimental10filesystem2v115last_write_timeERKNS1_4pathENSt6chrono10time_pointINS5_3_V212system_clockENS5_8durationIxSt5ratioILx1ELx1000000000EEEEEERSt10error_code _ZNSt3_V216generic_categoryEv 122
_ZNSt12experimental10filesystem2v115last_write_timeERKNS1_4pathENSt6chrono10time_pointINS5_3_V212system_clockENS5_8durationIxSt5ratioILx1ELx1000000000EEEEEERSt10error_code __errno_location 129
_ZNSt12experimental10filesystem2v115last_write_timeERKNS1_4pathENSt6chrono10time_pointINS5_3_V212system_clockENS5_8durationIxSt5ratioILx1ELx1000000000EEEEEERSt10error_code _ZNSt10error_code5clearEv 152
_ZNSt12experimental10filesystem2v16renameERKNS1_4pathES4_RSt10error_code __x86.get_pc_thunk.bx 14
_ZNSt12experimental10filesystem2v16renameERKNS1_4pathES4_RSt10error_code rename 32
_ZNSt12experimental10filesystem2v16renameERKNS1_4pathES4_RSt10error_code _ZNSt10error_code5clearEv 61
_ZNSt12experimental10filesystem2v111resize_fileERKNS1_4pathEyRSt10error_code __x86.get_pc_thunk.bx 12
_ZNSt12experimental10filesystem2v111resize_fileERKNS1_4pathEyRSt10error_code _ZNSt3_V216generic_categoryEv 33
_ZNSt12experimental10filesystem2v111resize_fileERKNS1_4pathEyRSt10error_code truncate 56
_ZNSt12experimental10filesystem2v111resize_fileERKNS1_4pathEyRSt10error_code _ZNSt10error_code5clearEv 85
_ZNSt12experimental10filesystem2v15spaceERKNS1_4pathERSt10error_code __x86.get_pc_thunk.bx 15
_ZNSt12experimental10filesystem2v15spaceERKNS1_4pathERSt10error_code statvfs 49
_ZNSt12experimental10filesystem2v15spaceERKNS1_4pathERSt10error_code _ZNSt10error_code5clearEv 186
_ZNSt12experimental10filesystem2v16statusERKNS1_4pathERSt10error_code __x86.get_pc_thunk.bx 10
_ZNSt12experimental10filesystem2v16statusERKNS1_4pathERSt10error_code stat 52
_ZNSt12experimental10filesystem2v16statusERKNS1_4pathERSt10error_code __errno_location 67
_ZNSt12experimental10filesystem2v16statusERKNS1_4pathERSt10error_code _ZNSt3_V216generic_categoryEv 77
_ZNSt12experimental10filesystem2v16statusERKNS1_4pathERSt10error_code _ZNSt10error_code5clearEv 126
_ZNSt12experimental10filesystem2v16existsERKNS1_4pathERSt10error_code __x86.get_pc_thunk.bx 15
_ZNSt12experimental10filesystem2v16existsERKNS1_4pathERSt10error_code _ZNSt12experimental10filesystem2v16statusERKNS1_4pathERSt10error_code 31
_ZNSt12experimental10filesystem2v16existsERKNS1_4pathERSt10error_code _ZNSt10error_code5clearEv 53
_ZNSt12experimental10filesystem2v114symlink_statusERKNS1_4pathERSt10error_code __x86.get_pc_thunk.bx 10
_ZNSt12experimental10filesystem2v114symlink_statusERKNS1_4pathERSt10error_code lstat 52
_ZNSt12experimental10filesystem2v114symlink_statusERKNS1_4pathERSt10error_code __errno_location 67
_ZNSt12experimental10filesystem2v114symlink_statusERKNS1_4pathERSt10error_code _ZNSt3_V216generic_categoryEv 77
_ZNSt12experimental10filesystem2v114symlink_statusERKNS1_4pathERSt10error_code _ZNSt10error_code5clearEv 116
_ZNSt12experimental10filesystem2v111permissionsERKNS1_4pathENS1_5permsERSt10error_code __x86.get_pc_thunk.bx 7
_ZNSt12experimental10filesystem2v111permissionsERKNS1_4pathENS1_5permsERSt10error_code _ZNSt3_V216generic_categoryEv 61
_ZNSt12experimental10filesystem2v111permissionsERKNS1_4pathENS1_5permsERSt10error_code _ZNSt12experimental10filesystem2v114symlink_statusERKNS1_4pathERSt10error_code 123
_ZNSt12experimental10filesystem2v111permissionsERKNS1_4pathENS1_5permsERSt10error_code _ZNSt12experimental10filesystem2v16statusERKNS1_4pathERSt10error_code 139
_ZNSt12experimental10filesystem2v111permissionsERKNS1_4pathENS1_5permsERSt10error_code fchmodat 208
_ZNSt12experimental10filesystem2v111permissionsERKNS1_4pathENS1_5permsERSt10error_code __errno_location 220
_ZNSt12experimental10filesystem2v111permissionsERKNS1_4pathENS1_5permsERSt10error_code _ZNSt3_V216generic_categoryEv 231
_ZNSt12experimental10filesystem2v111permissionsERKNS1_4pathENS1_5permsERSt10error_code _ZNSt10error_code5clearEv 247
_ZNSt12experimental10filesystem2v16removeERKNS1_4pathERSt10error_code __x86.get_pc_thunk.bx 10
_ZNSt12experimental10filesystem2v16removeERKNS1_4pathERSt10error_code _ZNSt12experimental10filesystem2v114symlink_statusERKNS1_4pathERSt10error_code 32
_ZNSt12experimental10filesystem2v16removeERKNS1_4pathERSt10error_code remove 62
_ZNSt12experimental10filesystem2v16removeERKNS1_4pathERSt10error_code _ZNSt10error_code5clearEv 78
_ZNSt12experimental10filesystem2v16removeERKNS1_4pathERSt10error_code _ZNSt3_V216generic_categoryEv 88
_ZNSt12experimental10filesystem2v16removeERKNS1_4pathERSt10error_code __errno_location 95
_ZNSt12experimental10filesystem2v110remove_allERKNS1_4pathERSt10error_code __x86.get_pc_thunk.bx 10
_ZNSt12experimental10filesystem2v110remove_allERKNS1_4pathERSt10error_code _ZNSt12experimental10filesystem2v114symlink_statusERKNS1_4pathERSt10error_code 32
_ZNSt12experimental10filesystem2v110remove_allERKNS1_4pathERSt10error_code _ZNSt12experimental10filesystem2v118directory_iteratorC1ERKNS1_4pathENS1_17directory_optionsEPSt10error_code 76
_ZNSt12experimental10filesystem2v110remove_allERKNS1_4pathERSt10error_code _ZNSt14__shared_countILN9__gnu_cxx12_Lock_policyE2EED1Ev 110
_ZNSt12experimental10filesystem2v110remove_allERKNS1_4pathERSt10error_code _ZNSt14__shared_countILN9__gnu_cxx12_Lock_policyE2EED1Ev 121
_ZNSt12experimental10filesystem2v110remove_allERKNS1_4pathERSt10error_code _ZNSt12experimental10filesystem2v16removeERKNS1_4pathERSt10error_code 147
_ZNSt12experimental10filesystem2v110remove_allERKNS1_4pathERSt10error_code _ZNKSt12experimental10filesystem2v118directory_iteratordeEv 185
_ZNSt12experimental10filesystem2v110remove_allERKNS1_4pathERSt10error_code _ZNSt12experimental10filesystem2v118directory_iteratorppEv 208
_ZNSt12experimental10filesystem2v18is_emptyERKNS1_4pathERSt10error_code __x86.get_pc_thunk.bx 10
_ZNSt12experimental10filesystem2v18is_emptyERKNS1_4pathERSt10error_code _ZNSt12experimental10filesystem2v16statusERKNS1_4pathERSt10error_code 33
_ZNSt12experimental10filesystem2v18is_emptyERKNS1_4pathERSt10error_code _ZNSt12experimental10filesystem2v118directory_iteratorC1ERKNS1_4pathENS1_17directory_optionsEPSt10error_code 79
_ZNSt12experimental10filesystem2v18is_emptyERKNS1_4pathERSt10error_code _ZNSt14__shared_countILN9__gnu_cxx12_Lock_policyE2EED1Ev 102
_ZNSt12experimental10filesystem2v18is_emptyERKNS1_4pathERSt10error_code _ZNSt14__shared_countILN9__gnu_cxx12_Lock_policyE2EED1Ev 113
_ZNSt12experimental10filesystem2v18is_emptyERKNS1_4pathERSt10error_code _ZNSt12experimental10filesystem2v19file_sizeERKNS1_4pathERSt10error_code 130
_ZN12_GLOBAL__N_112do_copy_fileERKNSt12experimental10filesystem2v14pathES5_NS2_12copy_optionsEP4statS8_RSt10error_code __x86.get_pc_thunk.bx 7
_ZN12_GLOBAL__N_112do_copy_fileERKNSt12experimental10filesystem2v14pathES5_NS2_12copy_optionsEP4statS8_RSt10error_code stat 63
_ZN12_GLOBAL__N_112do_copy_fileERKNSt12experimental10filesystem2v14pathES5_NS2_12copy_optionsEP4statS8_RSt10error_code __errno_location 75
_ZN12_GLOBAL__N_112do_copy_fileERKNSt12experimental10filesystem2v14pathES5_NS2_12copy_optionsEP4statS8_RSt10error_code _ZNSt3_V216generic_categoryEv 117
_ZN12_GLOBAL__N_112do_copy_fileERKNSt12experimental10filesystem2v14pathES5_NS2_12copy_optionsEP4statS8_RSt10error_code stat 197
_ZN12_GLOBAL__N_112do_copy_fileERKNSt12experimental10filesystem2v14pathES5_NS2_12copy_optionsEP4statS8_RSt10error_code _ZNSt3_V216generic_categoryEv 245
_ZN12_GLOBAL__N_112do_copy_fileERKNSt12experimental10filesystem2v14pathES5_NS2_12copy_optionsEP4statS8_RSt10error_code _ZNSt3_V216generic_categoryEv 325
_ZN12_GLOBAL__N_112do_copy_fileERKNSt12experimental10filesystem2v14pathES5_NS2_12copy_optionsEP4statS8_RSt10error_code _ZNSt10error_code5clearEv 357
_ZN12_GLOBAL__N_112do_copy_fileERKNSt12experimental10filesystem2v14pathES5_NS2_12copy_optionsEP4statS8_RSt10error_code open 507
_ZN12_GLOBAL__N_112do_copy_fileERKNSt12experimental10filesystem2v14pathES5_NS2_12copy_optionsEP4statS8_RSt10error_code _ZNSt3_V216generic_categoryEv 524
_ZN12_GLOBAL__N_112do_copy_fileERKNSt12experimental10filesystem2v14pathES5_NS2_12copy_optionsEP4statS8_RSt10error_code __errno_location 531
_ZN12_GLOBAL__N_112do_copy_fileERKNSt12experimental10filesystem2v14pathES5_NS2_12copy_optionsEP4statS8_RSt10error_code open 590
_ZN12_GLOBAL__N_112do_copy_fileERKNSt12experimental10filesystem2v14pathES5_NS2_12copy_optionsEP4statS8_RSt10error_code __errno_location 607
_ZN12_GLOBAL__N_112do_copy_fileERKNSt12experimental10filesystem2v14pathES5_NS2_12copy_optionsEP4statS8_RSt10error_code _ZNSt10error_code5clearEv 638
_ZN12_GLOBAL__N_112do_copy_fileERKNSt12experimental10filesystem2v14pathES5_NS2_12copy_optionsEP4statS8_RSt10error_code fchmod 665
_ZN12_GLOBAL__N_112do_copy_fileERKNSt12experimental10filesystem2v14pathES5_NS2_12copy_optionsEP4statS8_RSt10error_code sendfile 722
_ZN12_GLOBAL__N_112do_copy_fileERKNSt12experimental10filesystem2v14pathES5_NS2_12copy_optionsEP4statS8_RSt10error_code __errno_location 736
_ZN12_GLOBAL__N_112do_copy_fileERKNSt12experimental10filesystem2v14pathES5_NS2_12copy_optionsEP4statS8_RSt10error_code __errno_location 746
_ZN12_GLOBAL__N_112do_copy_fileERKNSt12experimental10filesystem2v14pathES5_NS2_12copy_optionsEP4statS8_RSt10error_code _ZNSt3_V216generic_categoryEv 771
_ZN12_GLOBAL__N_112do_copy_fileERKNSt12experimental10filesystem2v14pathES5_NS2_12copy_optionsEP4statS8_RSt10error_code __errno_location 778
_ZN12_GLOBAL__N_112do_copy_fileERKNSt12experimental10filesystem2v14pathES5_NS2_12copy_optionsEP4statS8_RSt10error_code _ZN9__gnu_cxx13stdio_filebufIcSt11char_traitsIcEEC1EiSt13_Ios_Openmodej 817
_ZN12_GLOBAL__N_112do_copy_fileERKNSt12experimental10filesystem2v14pathES5_NS2_12copy_optionsEP4statS8_RSt10error_code _ZN9__gnu_cxx13stdio_filebufIcSt11char_traitsIcEEC1EiSt13_Ios_Openmodej 851
_ZN12_GLOBAL__N_112do_copy_fileERKNSt12experimental10filesystem2v14pathES5_NS2_12copy_optionsEP4statS8_RSt10error_code _ZNKSt12__basic_fileIcE7is_openEv 865
_ZN12_GLOBAL__N_112do_copy_fileERKNSt12experimental10filesystem2v14pathES5_NS2_12copy_optionsEP4statS8_RSt10error_code _ZNKSt12__basic_fileIcE7is_openEv 905
_ZN12_GLOBAL__N_112do_copy_fileERKNSt12experimental10filesystem2v14pathES5_NS2_12copy_optionsEP4statS8_RSt10error_code _ZNSoC1EPSt15basic_streambufIcSt11char_traitsIcEE 973
